(dp1
S'1GG4'
p2
(lp3
(lp4
I1752
aS'106'
p5
aS'292'
p6
aa(lp7
I3142
aS'26'
p8
aS'80'
p9
aa(lp10
I3166
aS'313'
p11
aS'394'
p12
aasS'3EWO'
p13
(lp14
(lp15
I538
aS'38'
p16
aS'143'
p17
aasS'3S97'
p18
(lp19
(lp20
I157
aS'146'
p21
aS'215'
p22
aa(lp23
I5590
aS'244'
p24
aS'325'
p25
aa(lp26
I5614
aS'43'
p27
aS'296'
p28
aasS'3QCZ'
p29
(lp30
(lp31
I1752
aS'54'
p32
aS'196'
p33
aa(lp34
I3166
aS'299'
p35
aS'357'
p36
aasS'2CKJ'
p37
(lp38
(lp39
I3636
aS'233'
p40
aS'411'
p41
aa(lp42
I4230
aS'87'
p43
aS'160'
p44
aa(lp45
I4293
aS'9'
aS'77'
p46
aa(lp47
I5206
aS'712'
p48
aS'1237'
p49
aa(lp50
I5615
aS'588'
p51
aS'694'
p52
aa(lp53
I6492
aS'419'
p54
aS'523'
p55
aasS'2DL2'
p56
(lp57
(lp58
I157
aS'107'
p59
aS'180'
p60
aa(lp61
I4082
aS'12'
p62
aS'92'
p63
aasS'3EWQ'
p64
(lp65
(lp66
I538
aS'33'
p67
aS'137'
p68
aasS'3EWP'
p69
(lp70
(lp71
I538
aS'38'
p72
aS'143'
p73
aasS'3EWR'
p74
(lp75
(lp76
I538
aS'33'
p77
aS'137'
p78
aa(lp79
I538
aS'33'
p80
aS'137'
p81
aasS'1F1B'
p82
(lp83
(lp84
I1482
aS'102'
p85
aS'149'
p86
aa(lp87
I1964
aS'7'
aS'147'
p88
aa(lp89
I2256
aS'154'
p90
aS'302'
p91
aa(lp92
I5270
aS'7'
aS'96'
p93
aasS'4GF0'
p94
(lp95
(lp96
I2161
aS'3'
aS'75'
p97
aa(lp98
I6764
aS'134'
p99
aS'190'
p100
aasS'3P8W'
p101
(lp102
(lp103
I1924
aS'24'
p104
aS'86'
p105
aa(lp106
I6764
aS'124'
p107
aS'210'
p108
aasS'4X0O'
p109
(lp110
(lp111
I4704
aS'107'
p112
aS'184'
p113
aa(lp114
I4704
aS'107'
p115
aS'184'
p116
aa(lp117
I6290
aS'235'
p118
aS'324'
p119
aa(lp120
I6290
aS'235'
p121
aS'324'
p122
aasS'1UB7'
p123
(lp124
(lp125
I4704
aS'104'
p126
aS'182'
p127
aa(lp128
I6290
aS'230'
p129
aS'319'
p130
aasS'3HN7'
p131
(lp132
(lp133
I1752
aS'108'
p134
aS'335'
p135
aa(lp136
I3142
aS'2'
aS'99'
p137
aa(lp138
I3166
aS'355'
p139
aS'403'
p140
aasS'4DKD'
p141
(lp142
(lp143
I157
aS'27'
p144
aS'85'
p145
aa(lp146
I4082
aS'209'
p147
aS'292'
p148
aa(lp149
I4792
aS'32'
p150
aS'184'
p151
aasS'2WJP'
p152
(lp153
(lp154
I1752
aS'109'
p155
aS'279'
p156
aa(lp157
I3166
aS'300'
p158
aS'372'
p159
aasS'2EC8'
p160
(lp161
(lp162
I157
aS'413'
p163
aS'495'
p164
aa(lp165
I4082
aS'217'
p166
aS'304'
p167
aasS'4TU0'
p168
(lp169
(lp170
I538
aS'22'
p171
aS'121'
p172
aasS'1SIJ'
p173
(lp174
(lp175
I4230
aS'75'
p176
aS'149'
p177
aa(lp178
I4293
aS'6'
aS'64'
p179
aa(lp180
I5206
aS'329'
p181
aS'833'
p182
aa(lp183
I5615
aS'191'
p184
aS'308'
p185
aasS'3ZL8'
p186
(lp187
(lp188
I1752
aS'87'
p189
aS'271'
p190
aa(lp191
I3142
aS'11'
p192
aS'53'
p193
aa(lp194
I3166
aS'290'
p195
aS'367'
p196
aasS'2A0F'
p197
(lp198
(lp199
I1482
aS'102'
p200
aS'149'
p201
aa(lp202
I1964
aS'7'
aS'147'
p203
aa(lp204
I2256
aS'154'
p205
aS'302'
p206
aa(lp207
I5270
aS'8'
aS'96'
p208
aasS'1BIH'
p209
(lp210
(lp211
I157
aS'108'
p212
aS'185'
p213
aa(lp214
I158
aS'7'
aS'92'
p215
aa(lp216
I5590
aS'218'
p217
aS'305'
p218
aa(lp219
I5590
aS'309'
p220
aS'394'
p221
aasS'2DLI'
p222
(lp223
(lp224
I157
aS'107'
p225
aS'180'
p226
aa(lp227
I4082
aS'12'
p228
aS'92'
p229
aasS'1T3Q'
p230
(lp231
(lp232
I3636
aS'5'
aS'173'
p233
aa(lp234
I4230
aS'82'
p235
aS'154'
p236
aa(lp237
I4293
aS'15'
p238
aS'64'
p239
aa(lp240
I5206
aS'162'
p241
aS'720'
p242
aa(lp243
I5615
aS'28'
p244
aS'142'
p245
aa(lp246
I6492
aS'180'
p247
aS'278'
p248
aasS'2R5G'
p249
(lp250
(lp251
I1924
aS'30'
p252
aS'97'
p253
aa(lp254
I6764
aS'137'
p255
aS'216'
p256
aasS'4E2F'
p257
(lp258
(lp259
I1482
aS'102'
p260
aS'149'
p261
aa(lp262
I1964
aS'7'
aS'147'
p263
aa(lp264
I2256
aS'154'
p265
aS'302'
p266
aa(lp267
I5270
aS'10'
p268
aS'96'
p269
aasS'1VF5'
p270
(lp271
(lp272
I2227
aS'9'
aS'31'
p273
aa(lp274
I2230
aS'3'
aS'31'
p275
aa(lp276
I2232
aS'3'
aS'29'
p277
aa(lp278
I2691
aS'12'
p279
aS'46'
p280
aa(lp281
I3587
aS'91'
p282
aS'149'
p283
aa(lp284
I3751
aS'65'
p285
aS'153'
p286
aa(lp287
I4923
aS'1'
aS'156'
p288
aa(lp289
I4925
aS'168'
p290
aS'286'
p291
aa(lp292
I5309
aS'92'
p293
aS'212'
p294
aasS'3H8N'
p295
(lp296
(lp297
I157
aS'107'
p298
aS'180'
p299
aa(lp300
I4082
aS'12'
p301
aS'92'
p302
aasS'4KYB'
p303
(lp304
(lp305
I538
aS'20'
p306
aS'129'
p307
aasS'3H78'
p308
(lp309
(lp310
I4704
aS'106'
p311
aS'187'
p312
aa(lp313
I4704
aS'106'
p314
aS'187'
p315
aa(lp316
I6290
aS'241'
p317
aS'327'
p318
aa(lp319
I6290
aS'241'
p320
aS'327'
p321
aasS'1SB3'
p322
(lp323
(lp324
I3636
aS'6'
aS'214'
p325
aa(lp326
I4230
aS'75'
p327
aS'147'
p328
aa(lp329
I4293
aS'8'
aS'65'
p330
aa(lp331
I5206
aS'150'
p332
aS'703'
p333
aa(lp334
I5615
aS'25'
p335
aS'131'
p336
aa(lp337
I6492
aS'221'
p338
aS'318'
p339
aasS'4GAF'
p340
(lp341
(lp342
I157
aS'208'
p343
aS'299'
p344
aa(lp345
I158
aS'114'
p346
aS'195'
p347
aa(lp348
I2649
aS'30'
p349
aS'148'
p350
aa(lp351
I5590
aS'37'
p352
aS'81'
p353
aasS'2F00'
p354
(lp355
(lp356
I1752
aS'124'
p357
aS'304'
p358
aa(lp359
I3142
aS'21'
p360
aS'118'
p361
aa(lp362
I3166
aS'327'
p363
aS'418'
p364
aasS'3EW5'
p365
(lp366
(lp367
I538
aS'65'
p368
aS'171'
p369
aasS'4AT1'
p370
(lp371
(lp372
I1482
aS'102'
p373
aS'149'
p374
aa(lp375
I1964
aS'7'
aS'147'
p376
aa(lp377
I2256
aS'154'
p378
aS'302'
p379
aa(lp380
I5270
aS'8'
aS'96'
p381
aasS'3H76'
p382
(lp383
(lp384
I4704
aS'106'
p385
aS'187'
p386
aa(lp387
I6290
aS'241'
p388
aS'327'
p389
aasS'3FY7'
p390
(lp391
(lp392
I1924
aS'21'
p393
aS'88'
p394
aa(lp395
I6764
aS'126'
p396
aS'207'
p397
aasS'4LL9'
p398
(lp399
(lp400
I157
aS'5'
aS'78'
p401
aa(lp402
I157
aS'107'
p403
aS'180'
p404
aasS'1HNH'
p405
(lp406
(lp407
I4704
aS'106'
p408
aS'183'
p409
aa(lp410
I6290
aS'228'
p411
aS'316'
p412
aasS'1HNK'
p413
(lp414
(lp415
I4704
aS'106'
p416
aS'183'
p417
aa(lp418
I6290
aS'228'
p419
aS'316'
p420
aasS'1HNJ'
p421
(lp422
(lp423
I4704
aS'106'
p424
aS'183'
p425
aa(lp426
I6290
aS'228'
p427
aS'316'
p428
aasS'2X5O'
p429
(lp430
(lp431
I1752
aS'109'
p432
aS'279'
p433
aa(lp434
I3166
aS'300'
p435
aS'372'
p436
aasS'1RM6'
p437
(lp438
(lp439
I3636
aS'6'
aS'214'
p440
aa(lp441
I4230
aS'75'
p442
aS'147'
p443
aa(lp444
I4293
aS'8'
aS'65'
p445
aa(lp446
I5206
aS'150'
p447
aS'703'
p448
aa(lp449
I5615
aS'25'
p450
aS'131'
p451
aa(lp452
I6492
aS'221'
p453
aS'318'
p454
aasS'1HND'
p455
(lp456
(lp457
I4704
aS'106'
p458
aS'183'
p459
aa(lp460
I6290
aS'228'
p461
aS'316'
p462
aasS'2Y1O'
p463
(lp464
(lp465
I1752
aS'109'
p466
aS'279'
p467
aa(lp468
I3166
aS'300'
p469
aS'372'
p470
aasS'2Y7Q'
p471
(lp472
(lp473
I157
aS'4'
aS'69'
p474
aa(lp475
I158
aS'90'
p476
aS'169'
p477
aa(lp478
I1690
aS'253'
p479
aS'320'
p480
aa(lp481
I1690
aS'351'
p482
aS'427'
p483
aa(lp484
I1690
aS'457'
p485
aS'532'
p486
aasS'3M1G'
p487
(lp488
(lp489
I1925
aS'66'
p490
aS'158'
p491
aa(lp492
I6764
aS'209'
p493
aS'278'
p494
aasS'4DFE'
p495
(lp496
(lp497
I4704
aS'117'
p498
aS'194'
p499
aa(lp500
I6290
aS'240'
p501
aS'329'
p502
aasS'4JVV'
p503
(lp504
(lp505
I538
aS'20'
p506
aS'129'
p507
aasS'4ABK'
p508
(lp509
(lp510
I538
aS'1245'
p511
aS'1346'
p512
aasS'4ABL'
p513
(lp514
(lp515
I538
aS'1245'
p516
aS'1346'
p517
aasS'1FFV'
p518
(lp519
(lp520
I3636
aS'5'
aS'174'
p521
aa(lp522
I4230
aS'76'
p523
aS'149'
p524
aa(lp525
I4293
aS'9'
aS'61'
p526
aa(lp527
I5206
aS'175'
p528
aS'734'
p529
aa(lp530
I5615
aS'32'
p531
aS'141'
p532
aa(lp533
I6492
aS'181'
p534
aS'281'
p535
aasS'1FFU'
p536
(lp537
(lp538
I3636
aS'5'
aS'174'
p539
aa(lp540
I4230
aS'76'
p541
aS'149'
p542
aa(lp543
I4293
aS'9'
aS'61'
p544
aa(lp545
I5206
aS'175'
p546
aS'734'
p547
aa(lp548
I5615
aS'32'
p549
aS'141'
p550
aa(lp551
I6492
aS'181'
p552
aS'281'
p553
aasS'3EAG'
p554
(lp555
(lp556
I1752
aS'110'
p557
aS'301'
p558
aa(lp559
I3142
aS'3'
aS'104'
p560
aasS'2UUP'
p561
(lp562
(lp563
I1752
aS'109'
p564
aS'279'
p565
aa(lp566
I3166
aS'300'
p567
aS'372'
p568
aasS'3O3T'
p569
(lp570
(lp571
I1924
aS'24'
p572
aS'86'
p573
aa(lp574
I6764
aS'124'
p575
aS'210'
p576
aasS'3IL4'
p577
(lp578
(lp579
I4704
aS'111'
p580
aS'188'
p581
aa(lp582
I6290
aS'239'
p583
aS'324'
p584
aasS'3IL5'
p585
(lp586
(lp587
I4704
aS'111'
p588
aS'188'
p589
aa(lp590
I6290
aS'239'
p591
aS'324'
p592
aasS'3IL6'
p593
(lp594
(lp595
I4704
aS'111'
p596
aS'188'
p597
aa(lp598
I6290
aS'239'
p599
aS'324'
p600
aasS'3IL7'
p601
(lp602
(lp603
I4704
aS'107'
p604
aS'184'
p605
aa(lp606
I6290
aS'223'
p607
aS'311'
p608
aasS'3IL9'
p609
(lp610
(lp611
I4704
aS'106'
p612
aS'183'
p613
aa(lp614
I6290
aS'228'
p615
aS'316'
p616
aasS'1K0N'
p617
(lp618
(lp619
I1924
aS'24'
p620
aS'86'
p621
aa(lp622
I6764
aS'124'
p623
aS'210'
p624
aasS'4X9K'
p625
(lp626
(lp627
I4704
aS'107'
p628
aS'184'
p629
aa(lp630
I6290
aS'235'
p631
aS'324'
p632
aasS'1GQQ'
p633
(lp634
(lp635
I1752
aS'123'
p636
aS'303'
p637
aa(lp638
I3142
aS'20'
p639
aS'117'
p640
aa(lp641
I3166
aS'325'
p642
aS'412'
p643
aasS'4WTO'
p644
(lp645
(lp646
I1482
aS'102'
p647
aS'149'
p648
aa(lp649
I1964
aS'7'
aS'147'
p650
aa(lp651
I2256
aS'154'
p652
aS'302'
p653
aa(lp654
I5270
aS'7'
aS'96'
p655
aasS'3RBT'
p656
(lp657
(lp658
I1924
aS'23'
p659
aS'98'
p660
aa(lp661
I6764
aS'140'
p662
aS'204'
p663
aasS'1GQY'
p664
(lp665
(lp666
I1752
aS'123'
p667
aS'303'
p668
aa(lp669
I3142
aS'20'
p670
aS'117'
p671
aa(lp672
I3166
aS'325'
p673
aS'412'
p674
aasS'2UUO'
p675
(lp676
(lp677
I1752
aS'109'
p678
aS'279'
p679
aa(lp680
I3166
aS'300'
p681
aS'372'
p682
aasS'1HN9'
p683
(lp684
(lp685
I4704
aS'106'
p686
aS'183'
p687
aa(lp688
I6290
aS'228'
p689
aS'316'
p690
aasS'2DSA'
p691
(lp692
(lp693
I2161
aS'2'
aS'74'
p694
aa(lp695
I6764
aS'120'
p696
aS'179'
p697
aasS'4LLA'
p698
(lp699
(lp700
I157
aS'6'
aS'79'
p701
aa(lp702
I157
aS'107'
p703
aS'181'
p704
aasS'1I5O'
p705
(lp706
(lp707
I1482
aS'102'
p708
aS'149'
p709
aa(lp710
I1964
aS'7'
aS'147'
p711
aa(lp712
I2256
aS'154'
p713
aS'302'
p714
aa(lp715
I5270
aS'7'
aS'96'
p716
aasS'2VTD'
p717
(lp718
(lp719
I1752
aS'109'
p720
aS'279'
p721
aa(lp722
I3166
aS'300'
p723
aS'372'
p724
aasS'2VTE'
p725
(lp726
(lp727
I1752
aS'109'
p728
aS'279'
p729
aa(lp730
I3166
aS'300'
p731
aS'372'
p732
aasS'4EWP'
p733
(lp734
(lp735
I4704
aS'117'
p736
aS'194'
p737
aa(lp738
I6290
aS'259'
p739
aS'348'
p740
aasS'2QNY'
p741
(lp742
(lp743
I4704
aS'106'
p744
aS'183'
p745
aa(lp746
I6290
aS'228'
p747
aS'317'
p748
aasS'2QNX'
p749
(lp750
(lp751
I4704
aS'106'
p752
aS'183'
p753
aa(lp754
I6290
aS'228'
p755
aS'317'
p756
aasS'2QNZ'
p757
(lp758
(lp759
I4704
aS'106'
p760
aS'183'
p761
aa(lp762
I6290
aS'228'
p763
aS'317'
p764
aasS'1E0D'
p765
(lp766
(lp767
I1752
aS'109'
p768
aS'279'
p769
aa(lp770
I3166
aS'300'
p771
aS'372'
p772
aasS'2GW5'
p773
(lp774
(lp775
I157
aS'101'
p776
aS'171'
p777
aa(lp778
I158
aS'5'
aS'91'
p779
aasS'4EXP'
p780
(lp781
(lp782
I157
aS'28'
p783
aS'85'
p784
aa(lp785
I4082
aS'210'
p786
aS'292'
p787
aa(lp788
I4792
aS'29'
p789
aS'183'
p790
aasS'3PPU'
p791
(lp792
(lp793
I1925
aS'85'
p794
aS'184'
p795
aa(lp796
I6764
aS'232'
p797
aS'304'
p798
aasS'3FK5'
p799
(lp800
(lp801
I4704
aS'117'
p802
aS'195'
p803
aa(lp804
I4704
aS'117'
p805
aS'195'
p806
aa(lp807
I6290
aS'253'
p808
aS'333'
p809
aa(lp810
I6290
aS'253'
p811
aS'333'
p812
aasS'4K9E'
p813
(lp814
(lp815
I157
aS'413'
p816
aS'495'
p817
aa(lp818
I1690
aS'123'
p819
aS'208'
p820
aa(lp821
I1690
aS'130'
p822
aS'210'
p823
aa(lp824
I2388
aS'6'
aS'109'
p825
aa(lp826
I2388
aS'12'
p827
aS'115'
p828
aasS'3D7S'
p829
(lp830
(lp831
I1482
aS'102'
p832
aS'149'
p833
aa(lp834
I1964
aS'7'
aS'147'
p835
aa(lp836
I2256
aS'154'
p837
aS'302'
p838
aa(lp839
I5270
aS'7'
aS'96'
p840
aasS'3ZM5'
p841
(lp842
(lp843
I1752
aS'105'
p844
aS'284'
p845
aa(lp846
I3142
aS'31'
p847
aS'72'
p848
aa(lp849
I3166
aS'307'
p850
aS'389'
p851
aasS'3ZM6'
p852
(lp853
(lp854
I1752
aS'105'
p855
aS'284'
p856
aa(lp857
I3142
aS'31'
p858
aS'72'
p859
aa(lp860
I3166
aS'307'
p861
aS'389'
p862
aasS'4K94'
p863
(lp864
(lp865
I157
aS'413'
p866
aS'495'
p867
aa(lp868
I1690
aS'121'
p869
aS'206'
p870
aa(lp871
I1690
aS'130'
p872
aS'210'
p873
aa(lp874
I2388
aS'6'
aS'107'
p875
aa(lp876
I2388
aS'12'
p877
aS'115'
p878
aasS'4FOM'
p879
(lp880
(lp881
I157
aS'287'
p882
aS'342'
p883
aa(lp884
I725
aS'175'
p885
aS'256'
p886
aa(lp887
I2388
aS'63'
p888
aS'167'
p889
aasS'2AJ9'
p890
(lp891
(lp892
I4704
aS'116'
p893
aS'193'
p894
aa(lp895
I6290
aS'242'
p896
aS'332'
p897
aasS'2D3V'
p898
(lp899
(lp900
I157
aS'100'
p901
aS'175'
p902
aa(lp903
I158
aS'7'
aS'94'
p904
aasS'3HRD'
p905
(lp906
(lp907
I3636
aS'3'
aS'174'
p908
aa(lp909
I4230
aS'76'
p910
aS'149'
p911
aa(lp912
I4293
aS'9'
aS'63'
p913
aa(lp914
I5206
aS'148'
p915
aS'415'
p916
aa(lp917
I5206
aS'2'
aS'266'
p918
aa(lp919
I5615
aS'23'
p920
aS'128'
p921
aa(lp922
I6492
aS'185'
p923
aS'284'
p924
aasS'1IRA'
p925
(lp926
(lp927
I157
aS'205'
p928
aS'296'
p929
aa(lp930
I158
aS'111'
p931
aS'192'
p932
aa(lp933
I2649
aS'35'
p934
aS'148'
p935
aa(lp936
I5590
aS'34'
p937
aS'82'
p938
aasS'4PQI'
p939
(lp940
(lp941
I1924
aS'35'
p942
aS'111'
p943
aa(lp944
I6764
aS'148'
p945
aS'213'
p946
aasS'4YRW'
p947
(lp948
(lp949
I3636
aS'232'
p950
aS'410'
p951
aa(lp952
I4230
aS'87'
p953
aS'159'
p954
aa(lp955
I4293
aS'9'
aS'77'
p956
aa(lp957
I5206
aS'710'
p958
aS'1236'
p959
aa(lp960
I5615
aS'587'
p961
aS'693'
p962
aa(lp963
I6492
aS'418'
p964
aS'522'
p965
aasS'4ID0'
p966
(lp967
(lp968
I1924
aS'3'
aS'82'
p969
aa(lp970
I6764
aS'125'
p971
aS'188'
p972
aasS'3AMZ'
p973
(lp974
(lp975
I3636
aS'233'
p976
aS'411'
p977
aa(lp978
I4230
aS'87'
p979
aS'160'
p980
aa(lp981
I4293
aS'9'
aS'76'
p982
aa(lp983
I5206
aS'710'
p984
aS'1236'
p985
aa(lp986
I5615
aS'587'
p987
aS'693'
p988
aa(lp989
I6492
aS'419'
p990
aS'523'
p991
aasS'2QX1'
p992
(lp993
(lp994
I4704
aS'106'
p995
aS'183'
p996
aa(lp997
I6290
aS'228'
p998
aS'317'
p999
aasS'1RHF'
p1000
(lp1001
(lp1002
I157
aS'112'
p1003
aS'167'
p1004
aa(lp1005
I5590
aS'8'
aS'85'
p1006
aasS'3UAG'
p1007
(lp1008
(lp1009
I1752
aS'109'
p1010
aS'279'
p1011
aa(lp1012
I3166
aS'300'
p1013
aS'372'
p1014
aasS'2AM1'
p1015
(lp1016
(lp1017
I1752
aS'105'
p1018
aS'284'
p1019
aa(lp1020
I3142
aS'31'
p1021
aS'72'
p1022
aa(lp1023
I3166
aS'307'
p1024
aS'389'
p1025
aasS'2AM2'
p1026
(lp1027
(lp1028
I1752
aS'105'
p1029
aS'284'
p1030
aa(lp1031
I3142
aS'31'
p1032
aS'72'
p1033
aa(lp1034
I3166
aS'307'
p1035
aS'389'
p1036
aasS'1TU0'
p1037
(lp1038
(lp1039
I1482
aS'102'
p1040
aS'149'
p1041
aa(lp1042
I1964
aS'7'
aS'147'
p1043
aa(lp1044
I2256
aS'154'
p1045
aS'302'
p1046
aa(lp1047
I5270
aS'7'
aS'96'
p1048
aasS'2FXK'
p1049
(lp1050
(lp1051
I538
aS'213'
p1052
aS'326'
p1053
aasS'5BO4'
p1054
(lp1055
(lp1056
I1107
aS'48'
p1057
aS'129'
p1058
aa(lp1059
I1442
aS'161'
p1060
aS'194'
p1061
aa(lp1062
I2656
aS'11'
p1063
aS'64'
p1064
aa(lp1065
I3329
aS'18'
p1066
aS'80'
p1067
aasS'3LQ7'
p1068
(lp1069
(lp1070
I2161
aS'30'
p1071
aS'95'
p1072
aa(lp1073
I6764
aS'143'
p1074
aS'206'
p1075
aasS'4LIQ'
p1076
(lp1077
(lp1078
I157
aS'27'
p1079
aS'85'
p1080
aa(lp1081
I157
aS'411'
p1082
aS'489'
p1083
aa(lp1084
I1690
aS'129'
p1085
aS'209'
p1086
aa(lp1087
I1690
aS'119'
p1088
aS'204'
p1089
aa(lp1090
I2388
aS'9'
aS'114'
p1091
aa(lp1092
I2388
aS'6'
aS'105'
p1093
aa(lp1094
I4082
aS'209'
p1095
aS'292'
p1096
aasS'1TUG'
p1097
(lp1098
(lp1099
I1482
aS'102'
p1100
aS'149'
p1101
aa(lp1102
I1964
aS'7'
aS'147'
p1103
aa(lp1104
I2256
aS'154'
p1105
aS'302'
p1106
aa(lp1107
I5270
aS'7'
aS'96'
p1108
aasS'1JBW'
p1109
(lp1110
(lp1111
I1752
aS'44'
p1112
aS'271'
p1113
aa(lp1114
I3166
aS'297'
p1115
aS'370'
p1116
aasS'1JBV'
p1117
(lp1118
(lp1119
I1752
aS'44'
p1120
aS'271'
p1121
aa(lp1122
I3166
aS'297'
p1123
aS'373'
p1124
aasS'2LGR'
p1125
(lp1126
(lp1127
I538
aS'35'
p1128
aS'134'
p1129
aasS'4K0N'
p1130
(lp1131
(lp1132
I1924
aS'25'
p1133
aS'86'
p1134
aa(lp1135
I6764
aS'124'
p1136
aS'210'
p1137
aasS'3ETR'
p1138
(lp1139
(lp1140
I3636
aS'233'
p1141
aS'411'
p1142
aa(lp1143
I4230
aS'87'
p1144
aS'160'
p1145
aa(lp1146
I4293
aS'9'
aS'77'
p1147
aa(lp1148
I5206
aS'710'
p1149
aS'1236'
p1150
aa(lp1151
I5615
aS'587'
p1152
aS'693'
p1153
aa(lp1154
I6492
aS'419'
p1155
aS'523'
p1156
aasS'4K0C'
p1157
(lp1158
(lp1159
I538
aS'20'
p1160
aS'129'
p1161
aasS'4K0G'
p1162
(lp1163
(lp1164
I1924
aS'24'
p1165
aS'86'
p1166
aa(lp1167
I6764
aS'124'
p1168
aS'210'
p1169
aasS'3QR6'
p1170
(lp1171
(lp1172
I1924
aS'24'
p1173
aS'86'
p1174
aa(lp1175
I6764
aS'124'
p1176
aS'210'
p1177
aasS'3TOT'
p1178
(lp1179
(lp1180
I1924
aS'5'
aS'77'
p1181
aa(lp1182
I1924
aS'5'
aS'77'
p1183
aa(lp1184
I6764
aS'125'
p1185
aS'191'
p1186
aa(lp1187
I6764
aS'125'
p1188
aS'191'
p1189
aasS'4UJE'
p1190
(lp1191
(lp1192
I62
aS'19'
p1193
aS'100'
p1194
aa(lp1195
I86
aS'2'
aS'69'
p1196
aa(lp1197
I125
aS'24'
p1198
aS'101'
p1199
aa(lp1200
I143
aS'19'
p1201
aS'112'
p1202
aa(lp1203
I143
aS'114'
p1204
aS'182'
p1205
aa(lp1206
I145
aS'10'
p1207
aS'63'
p1208
aa(lp1209
I147
aS'102'
p1210
aS'166'
p1211
aa(lp1212
I341
aS'6'
aS'99'
p1213
aa(lp1214
I472
aS'275'
p1215
aS'348'
p1216
aa(lp1217
I481
aS'4'
aS'145'
p1218
aa(lp1219
I512
aS'2'
aS'60'
p1220
aa(lp1221
I587
aS'2'
aS'96'
p1222
aa(lp1223
I625
aS'8'
aS'68'
p1224
aa(lp1225
I672
aS'2'
aS'190'
p1226
aa(lp1227
I905
aS'17'
p1228
aS'124'
p1229
aa(lp1230
I1127
aS'212'
p1231
aS'258'
p1232
aa(lp1233
I1431
aS'38'
p1234
aS'67'
p1235
aa(lp1236
I1484
aS'3'
aS'88'
p1237
aa(lp1238
I1732
aS'12'
p1239
aS'165'
p1240
aa(lp1241
I1735
aS'16'
p1242
aS'116'
p1243
aa(lp1244
I1787
aS'67'
p1245
aS'165'
p1246
aa(lp1247
I1801
aS'9'
aS'184'
p1248
aa(lp1249
I2021
aS'90'
p1250
aS'140'
p1251
aa(lp1252
I2074
aS'2'
aS'190'
p1253
aa(lp1254
I2075
aS'78'
p1255
aS'127'
p1256
aa(lp1257
I2266
aS'3'
aS'99'
p1258
aa(lp1259
I2417
aS'51'
p1260
aS'83'
p1261
aa(lp1262
I2417
aS'7'
aS'35'
p1263
aa(lp1264
I2417
aS'178'
p1265
aS'211'
p1266
aa(lp1267
I2446
aS'106'
p1268
aS'188'
p1269
aa(lp1270
I2502
aS'3'
aS'39'
p1271
aa(lp1272
I2772
aS'12'
p1273
aS'85'
p1274
aa(lp1275
I2772
aS'99'
p1276
aS'178'
p1277
aa(lp1278
I2835
aS'108'
p1279
aS'151'
p1280
aa(lp1281
I3026
aS'52'
p1282
aS'136'
p1283
aa(lp1284
I3055
aS'7'
aS'130'
p1285
aa(lp1286
I3071
aS'22'
p1287
aS'139'
p1288
aa(lp1289
I3282
aS'7'
aS'191'
p1290
aa(lp1291
I3544
aS'14'
p1292
aS'142'
p1293
aa(lp1294
I3545
aS'21'
p1295
aS'115'
p1296
aa(lp1297
I3548
aS'75'
p1298
aS'144'
p1299
aa(lp1300
I3549
aS'9'
aS'54'
p1301
aa(lp1302
I3550
aS'74'
p1303
aS'147'
p1304
aa(lp1305
I3651
aS'17'
p1306
aS'87'
p1307
aa(lp1308
I3767
aS'21'
p1309
aS'221'
p1310
aa(lp1311
I3809
aS'185'
p1312
aS'256'
p1313
aa(lp1314
I3813
aS'6'
aS'56'
p1315
aa(lp1316
I4048
aS'202'
p1317
aS'219'
p1318
aa(lp1319
I4161
aS'27'
p1320
aS'173'
p1321
aa(lp1322
I4162
aS'28'
p1323
aS'146'
p1324
aa(lp1325
I4222
aS'2'
aS'54'
p1326
aa(lp1327
I4304
aS'5'
aS'73'
p1328
aa(lp1329
I4410
aS'47'
p1330
aS'120'
p1331
aa(lp1332
I4667
aS'5'
aS'139'
p1333
aa(lp1334
I4691
aS'9'
aS'49'
p1335
aa(lp1336
I4935
aS'2'
aS'119'
p1337
aa(lp1338
I4980
aS'3'
aS'42'
p1339
aa(lp1340
I5041
aS'6'
aS'130'
p1341
aa(lp1342
I5042
aS'14'
p1343
aS'146'
p1344
aa(lp1345
I5050
aS'62'
p1346
aS'204'
p1347
aa(lp1348
I5273
aS'97'
p1349
aS'230'
p1350
aa(lp1351
I5516
aS'10'
p1352
aS'63'
p1353
aa(lp1354
I5517
aS'22'
p1355
aS'262'
p1356
aa(lp1357
I5519
aS'12'
p1358
aS'207'
p1359
aa(lp1360
I5520
aS'2'
aS'375'
p1361
aa(lp1362
I5521
aS'13'
p1363
aS'90'
p1364
aa(lp1365
I5532
aS'9'
aS'140'
p1366
aa(lp1367
I5807
aS'1'
aS'79'
p1368
aa(lp1369
I5992
aS'8'
aS'63'
p1370
aa(lp1371
I5993
aS'8'
aS'122'
p1372
aa(lp1373
I5996
aS'18'
p1374
aS'151'
p1375
aa(lp1376
I5997
aS'76'
p1377
aS'140'
p1378
aa(lp1379
I6062
aS'192'
p1380
aS'283'
p1381
aa(lp1382
I6235
aS'1'
aS'25'
p1383
aa(lp1384
I6236
aS'17'
p1385
aS'94'
p1386
aa(lp1387
I6345
aS'20'
p1388
aS'92'
p1389
aa(lp1390
I6388
aS'3'
aS'95'
p1391
aa(lp1392
I6403
aS'29'
p1393
aS'147'
p1394
aa(lp1395
I6412
aS'47'
p1396
aS'128'
p1397
aa(lp1398
I6453
aS'16'
p1399
aS'117'
p1400
aa(lp1401
I6484
aS'181'
p1402
aS'288'
p1403
aa(lp1404
I6625
aS'17'
p1405
aS'110'
p1406
aa(lp1407
I6625
aS'131'
p1408
aS'212'
p1409
aa(lp1410
I6625
aS'13'
p1411
aS'105'
p1412
aa(lp1413
I6680
aS'95'
p1414
aS'169'
p1415
aa(lp1416
I6703
aS'1'
aS'64'
p1417
aa(lp1418
I6753
aS'5'
aS'104'
p1419
aa(lp1420
I6925
aS'1'
aS'126'
p1421
aa(lp1422
I7161
aS'40'
p1423
aS'112'
p1424
aa(lp1425
I7213
aS'9'
aS'44'
p1426
aa(lp1427
I7213
aS'55'
p1428
aS'91'
p1429
aa(lp1430
I7213
aS'96'
p1431
aS'133'
p1432
aa(lp1433
I7213
aS'145'
p1434
aS'178'
p1435
aa(lp1436
I7213
aS'188'
p1437
aS'220'
p1438
aa(lp1439
I7213
aS'225'
p1440
aS'260'
p1441
aa(lp1442
I7223
aS'5'
aS'120'
p1443
aa(lp1444
I7397
aS'28'
p1445
aS'82'
p1446
aa(lp1447
I7432
aS'2'
aS'97'
p1448
aa(lp1449
I7504
aS'102'
p1450
aS'147'
p1451
aasS'4UJD'
p1452
(lp1453
(lp1454
I62
aS'19'
p1455
aS'100'
p1456
aa(lp1457
I86
aS'2'
aS'69'
p1458
aa(lp1459
I125
aS'24'
p1460
aS'101'
p1461
aa(lp1462
I143
aS'19'
p1463
aS'112'
p1464
aa(lp1465
I143
aS'114'
p1466
aS'182'
p1467
aa(lp1468
I145
aS'10'
p1469
aS'63'
p1470
aa(lp1471
I147
aS'102'
p1472
aS'166'
p1473
aa(lp1474
I341
aS'6'
aS'99'
p1475
aa(lp1476
I472
aS'275'
p1477
aS'348'
p1478
aa(lp1479
I481
aS'4'
aS'145'
p1480
aa(lp1481
I512
aS'2'
aS'60'
p1482
aa(lp1483
I587
aS'2'
aS'96'
p1484
aa(lp1485
I625
aS'8'
aS'68'
p1486
aa(lp1487
I672
aS'2'
aS'190'
p1488
aa(lp1489
I905
aS'17'
p1490
aS'124'
p1491
aa(lp1492
I1127
aS'212'
p1493
aS'258'
p1494
aa(lp1495
I1431
aS'38'
p1496
aS'67'
p1497
aa(lp1498
I1484
aS'3'
aS'88'
p1499
aa(lp1500
I1732
aS'12'
p1501
aS'165'
p1502
aa(lp1503
I1735
aS'16'
p1504
aS'116'
p1505
aa(lp1506
I1787
aS'67'
p1507
aS'165'
p1508
aa(lp1509
I1801
aS'9'
aS'184'
p1510
aa(lp1511
I2021
aS'90'
p1512
aS'140'
p1513
aa(lp1514
I2074
aS'2'
aS'190'
p1515
aa(lp1516
I2075
aS'78'
p1517
aS'127'
p1518
aa(lp1519
I2266
aS'3'
aS'99'
p1520
aa(lp1521
I2417
aS'51'
p1522
aS'83'
p1523
aa(lp1524
I2417
aS'7'
aS'35'
p1525
aa(lp1526
I2417
aS'178'
p1527
aS'211'
p1528
aa(lp1529
I2446
aS'106'
p1530
aS'188'
p1531
aa(lp1532
I2502
aS'3'
aS'39'
p1533
aa(lp1534
I2772
aS'12'
p1535
aS'85'
p1536
aa(lp1537
I2772
aS'99'
p1538
aS'178'
p1539
aa(lp1540
I2835
aS'108'
p1541
aS'151'
p1542
aa(lp1543
I3026
aS'52'
p1544
aS'136'
p1545
aa(lp1546
I3055
aS'7'
aS'130'
p1547
aa(lp1548
I3071
aS'22'
p1549
aS'139'
p1550
aa(lp1551
I3282
aS'7'
aS'191'
p1552
aa(lp1553
I3544
aS'14'
p1554
aS'142'
p1555
aa(lp1556
I3545
aS'21'
p1557
aS'115'
p1558
aa(lp1559
I3548
aS'75'
p1560
aS'144'
p1561
aa(lp1562
I3549
aS'9'
aS'54'
p1563
aa(lp1564
I3550
aS'74'
p1565
aS'147'
p1566
aa(lp1567
I3651
aS'17'
p1568
aS'87'
p1569
aa(lp1570
I3767
aS'21'
p1571
aS'221'
p1572
aa(lp1573
I3809
aS'185'
p1574
aS'256'
p1575
aa(lp1576
I3813
aS'6'
aS'56'
p1577
aa(lp1578
I4048
aS'202'
p1579
aS'219'
p1580
aa(lp1581
I4161
aS'27'
p1582
aS'173'
p1583
aa(lp1584
I4162
aS'28'
p1585
aS'146'
p1586
aa(lp1587
I4222
aS'2'
aS'54'
p1588
aa(lp1589
I4304
aS'5'
aS'73'
p1590
aa(lp1591
I4410
aS'47'
p1592
aS'120'
p1593
aa(lp1594
I4654
aS'1084'
p1595
aS'1160'
p1596
aa(lp1597
I4667
aS'5'
aS'139'
p1598
aa(lp1599
I4691
aS'9'
aS'49'
p1600
aa(lp1601
I4935
aS'2'
aS'119'
p1602
aa(lp1603
I4980
aS'3'
aS'42'
p1604
aa(lp1605
I5041
aS'6'
aS'130'
p1606
aa(lp1607
I5042
aS'14'
p1608
aS'146'
p1609
aa(lp1610
I5050
aS'62'
p1611
aS'204'
p1612
aa(lp1613
I5273
aS'97'
p1614
aS'230'
p1615
aa(lp1616
I5516
aS'10'
p1617
aS'63'
p1618
aa(lp1619
I5517
aS'22'
p1620
aS'262'
p1621
aa(lp1622
I5519
aS'12'
p1623
aS'207'
p1624
aa(lp1625
I5520
aS'2'
aS'375'
p1626
aa(lp1627
I5521
aS'13'
p1628
aS'90'
p1629
aa(lp1630
I5532
aS'9'
aS'140'
p1631
aa(lp1632
I5807
aS'1'
aS'79'
p1633
aa(lp1634
I5903
aS'1189'
p1635
aS'1283'
p1636
aa(lp1637
I5992
aS'8'
aS'63'
p1638
aa(lp1639
I5993
aS'8'
aS'122'
p1640
aa(lp1641
I5996
aS'18'
p1642
aS'151'
p1643
aa(lp1644
I5997
aS'76'
p1645
aS'140'
p1646
aa(lp1647
I6062
aS'192'
p1648
aS'283'
p1649
aa(lp1650
I6226
aS'847'
p1651
aS'1057'
p1652
aa(lp1653
I6235
aS'1'
aS'25'
p1654
aa(lp1655
I6236
aS'17'
p1656
aS'94'
p1657
aa(lp1658
I6345
aS'20'
p1659
aS'92'
p1660
aa(lp1661
I6388
aS'3'
aS'95'
p1662
aa(lp1663
I6403
aS'29'
p1664
aS'147'
p1665
aa(lp1666
I6412
aS'47'
p1667
aS'128'
p1668
aa(lp1669
I6453
aS'16'
p1670
aS'117'
p1671
aa(lp1672
I6484
aS'181'
p1673
aS'288'
p1674
aa(lp1675
I6625
aS'131'
p1676
aS'212'
p1677
aa(lp1678
I6625
aS'13'
p1679
aS'105'
p1680
aa(lp1681
I6625
aS'17'
p1682
aS'110'
p1683
aa(lp1684
I6680
aS'95'
p1685
aS'169'
p1686
aa(lp1687
I6703
aS'1'
aS'64'
p1688
aa(lp1689
I6753
aS'5'
aS'104'
p1690
aa(lp1691
I6925
aS'1'
aS'126'
p1692
aa(lp1693
I7161
aS'40'
p1694
aS'112'
p1695
aa(lp1696
I7213
aS'9'
aS'44'
p1697
aa(lp1698
I7213
aS'55'
p1699
aS'91'
p1700
aa(lp1701
I7213
aS'96'
p1702
aS'133'
p1703
aa(lp1704
I7213
aS'145'
p1705
aS'178'
p1706
aa(lp1707
I7213
aS'188'
p1708
aS'220'
p1709
aa(lp1710
I7213
aS'225'
p1711
aS'260'
p1712
aa(lp1713
I7223
aS'5'
aS'120'
p1714
aa(lp1715
I7397
aS'28'
p1716
aS'82'
p1717
aa(lp1718
I7432
aS'2'
aS'97'
p1719
aa(lp1720
I7504
aS'102'
p1721
aS'147'
p1722
aasS'4UJC'
p1723
(lp1724
(lp1725
I62
aS'19'
p1726
aS'100'
p1727
aa(lp1728
I86
aS'2'
aS'69'
p1729
aa(lp1730
I125
aS'24'
p1731
aS'101'
p1732
aa(lp1733
I143
aS'19'
p1734
aS'112'
p1735
aa(lp1736
I143
aS'114'
p1737
aS'182'
p1738
aa(lp1739
I145
aS'10'
p1740
aS'63'
p1741
aa(lp1742
I147
aS'102'
p1743
aS'166'
p1744
aa(lp1745
I341
aS'6'
aS'99'
p1746
aa(lp1747
I472
aS'275'
p1748
aS'348'
p1749
aa(lp1750
I481
aS'4'
aS'145'
p1751
aa(lp1752
I512
aS'2'
aS'60'
p1753
aa(lp1754
I587
aS'2'
aS'96'
p1755
aa(lp1756
I625
aS'8'
aS'68'
p1757
aa(lp1758
I672
aS'2'
aS'190'
p1759
aa(lp1760
I905
aS'17'
p1761
aS'124'
p1762
aa(lp1763
I1127
aS'212'
p1764
aS'258'
p1765
aa(lp1766
I1431
aS'38'
p1767
aS'67'
p1768
aa(lp1769
I1484
aS'3'
aS'88'
p1770
aa(lp1771
I1732
aS'12'
p1772
aS'165'
p1773
aa(lp1774
I1735
aS'16'
p1775
aS'116'
p1776
aa(lp1777
I1787
aS'67'
p1778
aS'165'
p1779
aa(lp1780
I1801
aS'9'
aS'184'
p1781
aa(lp1782
I2021
aS'90'
p1783
aS'140'
p1784
aa(lp1785
I2074
aS'2'
aS'190'
p1786
aa(lp1787
I2075
aS'78'
p1788
aS'127'
p1789
aa(lp1790
I2266
aS'3'
aS'99'
p1791
aa(lp1792
I2417
aS'51'
p1793
aS'83'
p1794
aa(lp1795
I2417
aS'7'
aS'35'
p1796
aa(lp1797
I2417
aS'178'
p1798
aS'211'
p1799
aa(lp1800
I2446
aS'106'
p1801
aS'188'
p1802
aa(lp1803
I2502
aS'3'
aS'39'
p1804
aa(lp1805
I2772
aS'12'
p1806
aS'85'
p1807
aa(lp1808
I2772
aS'99'
p1809
aS'178'
p1810
aa(lp1811
I2835
aS'108'
p1812
aS'151'
p1813
aa(lp1814
I3026
aS'52'
p1815
aS'136'
p1816
aa(lp1817
I3055
aS'7'
aS'130'
p1818
aa(lp1819
I3071
aS'22'
p1820
aS'139'
p1821
aa(lp1822
I3282
aS'7'
aS'191'
p1823
aa(lp1824
I3544
aS'14'
p1825
aS'142'
p1826
aa(lp1827
I3545
aS'21'
p1828
aS'115'
p1829
aa(lp1830
I3548
aS'75'
p1831
aS'144'
p1832
aa(lp1833
I3549
aS'9'
aS'54'
p1834
aa(lp1835
I3550
aS'74'
p1836
aS'147'
p1837
aa(lp1838
I3651
aS'17'
p1839
aS'87'
p1840
aa(lp1841
I3767
aS'21'
p1842
aS'221'
p1843
aa(lp1844
I3809
aS'185'
p1845
aS'256'
p1846
aa(lp1847
I3813
aS'6'
aS'56'
p1848
aa(lp1849
I4048
aS'202'
p1850
aS'219'
p1851
aa(lp1852
I4161
aS'27'
p1853
aS'173'
p1854
aa(lp1855
I4162
aS'28'
p1856
aS'146'
p1857
aa(lp1858
I4222
aS'2'
aS'54'
p1859
aa(lp1860
I4304
aS'5'
aS'73'
p1861
aa(lp1862
I4410
aS'47'
p1863
aS'120'
p1864
aa(lp1865
I4654
aS'1084'
p1866
aS'1160'
p1867
aa(lp1868
I4667
aS'5'
aS'139'
p1869
aa(lp1870
I4691
aS'9'
aS'49'
p1871
aa(lp1872
I4935
aS'2'
aS'119'
p1873
aa(lp1874
I4980
aS'3'
aS'42'
p1875
aa(lp1876
I5041
aS'6'
aS'130'
p1877
aa(lp1878
I5042
aS'14'
p1879
aS'146'
p1880
aa(lp1881
I5050
aS'62'
p1882
aS'204'
p1883
aa(lp1884
I5273
aS'97'
p1885
aS'230'
p1886
aa(lp1887
I5516
aS'10'
p1888
aS'63'
p1889
aa(lp1890
I5517
aS'22'
p1891
aS'262'
p1892
aa(lp1893
I5519
aS'12'
p1894
aS'207'
p1895
aa(lp1896
I5520
aS'2'
aS'375'
p1897
aa(lp1898
I5521
aS'13'
p1899
aS'90'
p1900
aa(lp1901
I5532
aS'9'
aS'140'
p1902
aa(lp1903
I5807
aS'1'
aS'79'
p1904
aa(lp1905
I5903
aS'1189'
p1906
aS'1283'
p1907
aa(lp1908
I5992
aS'8'
aS'63'
p1909
aa(lp1910
I5993
aS'8'
aS'122'
p1911
aa(lp1912
I5996
aS'18'
p1913
aS'151'
p1914
aa(lp1915
I5997
aS'76'
p1916
aS'140'
p1917
aa(lp1918
I6062
aS'192'
p1919
aS'283'
p1920
aa(lp1921
I6226
aS'847'
p1922
aS'1057'
p1923
aa(lp1924
I6235
aS'1'
aS'25'
p1925
aa(lp1926
I6236
aS'17'
p1927
aS'94'
p1928
aa(lp1929
I6345
aS'20'
p1930
aS'92'
p1931
aa(lp1932
I6388
aS'3'
aS'95'
p1933
aa(lp1934
I6403
aS'29'
p1935
aS'147'
p1936
aa(lp1937
I6412
aS'47'
p1938
aS'128'
p1939
aa(lp1940
I6453
aS'16'
p1941
aS'117'
p1942
aa(lp1943
I6484
aS'181'
p1944
aS'288'
p1945
aa(lp1946
I6625
aS'131'
p1947
aS'212'
p1948
aa(lp1949
I6625
aS'13'
p1950
aS'105'
p1951
aa(lp1952
I6625
aS'17'
p1953
aS'110'
p1954
aa(lp1955
I6680
aS'95'
p1956
aS'169'
p1957
aa(lp1958
I6703
aS'1'
aS'64'
p1959
aa(lp1960
I6753
aS'5'
aS'104'
p1961
aa(lp1962
I6925
aS'1'
aS'126'
p1963
aa(lp1964
I7161
aS'40'
p1965
aS'112'
p1966
aa(lp1967
I7213
aS'9'
aS'44'
p1968
aa(lp1969
I7213
aS'55'
p1970
aS'91'
p1971
aa(lp1972
I7213
aS'96'
p1973
aS'133'
p1974
aa(lp1975
I7213
aS'145'
p1976
aS'178'
p1977
aa(lp1978
I7213
aS'188'
p1979
aS'220'
p1980
aa(lp1981
I7213
aS'225'
p1982
aS'260'
p1983
aa(lp1984
I7223
aS'5'
aS'120'
p1985
aa(lp1986
I7397
aS'28'
p1987
aS'82'
p1988
aa(lp1989
I7432
aS'2'
aS'97'
p1990
aa(lp1991
I7504
aS'102'
p1992
aS'147'
p1993
aasS'1ZA2'
p1994
(lp1995
(lp1996
I1482
aS'102'
p1997
aS'149'
p1998
aa(lp1999
I1964
aS'7'
aS'147'
p2000
aa(lp2001
I2256
aS'154'
p2002
aS'302'
p2003
aa(lp2004
I5270
aS'10'
p2005
aS'96'
p2006
aasS'1ZA1'
p2007
(lp2008
(lp2009
I1482
aS'102'
p2010
aS'149'
p2011
aa(lp2012
I1964
aS'7'
aS'147'
p2013
aa(lp2014
I2256
aS'154'
p2015
aS'302'
p2016
aa(lp2017
I5270
aS'7'
aS'96'
p2018
aasS'2QJY'
p2019
(lp2020
(lp2021
I3587
aS'117'
p2022
aS'174'
p2023
aa(lp2024
I3751
aS'282'
p2025
aS'401'
p2026
aa(lp2027
I3927
aS'11'
p2028
aS'254'
p2029
aa(lp2030
I4050
aS'9'
aS'41'
p2031
aa(lp2032
I5309
aS'103'
p2033
aS'275'
p2034
aasS'2QJP'
p2035
(lp2036
(lp2037
I3587
aS'117'
p2038
aS'174'
p2039
aa(lp2040
I3751
aS'282'
p2041
aS'401'
p2042
aa(lp2043
I3927
aS'11'
p2044
aS'254'
p2045
aa(lp2046
I4050
aS'10'
p2047
aS'41'
p2048
aa(lp2049
I5309
aS'103'
p2050
aS'275'
p2051
aasS'4F04'
p2052
(lp2053
(lp2054
I1482
aS'102'
p2055
aS'149'
p2056
aa(lp2057
I1964
aS'7'
aS'147'
p2058
aa(lp2059
I2256
aS'154'
p2060
aS'302'
p2061
aa(lp2062
I5270
aS'11'
p2063
aS'96'
p2064
aasS'4H13'
p2065
(lp2066
(lp2067
I2227
aS'1'
aS'36'
p2068
aa(lp2069
I2230
aS'3'
aS'31'
p2070
aa(lp2071
I2232
aS'1'
aS'29'
p2072
aa(lp2073
I2691
aS'9'
aS'46'
p2074
aa(lp2075
I3587
aS'91'
p2076
aS'149'
p2077
aa(lp2078
I3751
aS'65'
p2079
aS'151'
p2080
aa(lp2081
I4923
aS'1'
aS'156'
p2082
aa(lp2083
I4925
aS'168'
p2084
aS'288'
p2085
aa(lp2086
I5309
aS'92'
p2087
aS'212'
p2088
aasS'2QJK'
p2089
(lp2090
(lp2091
I3587
aS'117'
p2092
aS'174'
p2093
aa(lp2094
I3751
aS'282'
p2095
aS'401'
p2096
aa(lp2097
I3927
aS'11'
p2098
aS'254'
p2099
aa(lp2100
I4050
aS'10'
p2101
aS'41'
p2102
aa(lp2103
I5309
aS'103'
p2104
aS'275'
p2105
aasS'3S1Z'
p2106
(lp2107
(lp2108
I4704
aS'137'
p2109
aS'215'
p2110
aa(lp2111
I6290
aS'273'
p2112
aS'353'
p2113
aasS'3VFQ'
p2114
(lp2115
(lp2116
I538
aS'820'
p2117
aS'936'
p2118
aa(lp2119
I538
aS'1044'
p2120
aS'1146'
p2121
aasS'1N62'
p2122
(lp2123
(lp2124
I3636
aS'5'
aS'174'
p2125
aa(lp2126
I4230
aS'76'
p2127
aS'150'
p2128
aa(lp2129
I4293
aS'9'
aS'61'
p2130
aa(lp2131
I5206
aS'176'
p2132
aS'740'
p2133
aa(lp2134
I5615
aS'35'
p2135
aS'144'
p2136
aa(lp2137
I6492
aS'182'
p2138
aS'281'
p2139
aasS'1N61'
p2140
(lp2141
(lp2142
I3636
aS'5'
aS'174'
p2143
aa(lp2144
I4230
aS'76'
p2145
aS'150'
p2146
aa(lp2147
I4293
aS'9'
aS'61'
p2148
aa(lp2149
I5206
aS'176'
p2150
aS'740'
p2151
aa(lp2152
I5615
aS'35'
p2153
aS'144'
p2154
aa(lp2155
I6492
aS'182'
p2156
aS'281'
p2157
aasS'1N60'
p2158
(lp2159
(lp2160
I3636
aS'5'
aS'174'
p2161
aa(lp2162
I4230
aS'76'
p2163
aS'150'
p2164
aa(lp2165
I4293
aS'9'
aS'61'
p2166
aa(lp2167
I5206
aS'176'
p2168
aS'740'
p2169
aa(lp2170
I5615
aS'35'
p2171
aS'144'
p2172
aa(lp2173
I6492
aS'182'
p2174
aS'281'
p2175
aasS'3T8E'
p2176
(lp2177
(lp2178
I4704
aS'112'
p2179
aS'190'
p2180
aa(lp2181
I6290
aS'248'
p2182
aS'338'
p2183
aasS'2XJA'
p2184
(lp2185
(lp2186
I1752
aS'151'
p2187
aS'354'
p2188
aa(lp2189
I3142
aS'61'
p2190
aS'138'
p2191
aa(lp2192
I3166
aS'374'
p2193
aS'458'
p2194
aasS'1P3D'
p2195
(lp2196
(lp2197
I1752
aS'123'
p2198
aS'303'
p2199
aa(lp2200
I3142
aS'20'
p2201
aS'117'
p2202
aa(lp2203
I3166
aS'325'
p2204
aS'412'
p2205
aasS'1YD9'
p2206
(lp2207
(lp2208
I538
aS'37'
p2209
aS'150'
p2210
aasS'2XD7'
p2211
(lp2212
(lp2213
I538
aS'216'
p2214
aS'329'
p2215
aasS'4D5L'
p2216
(lp2217
(lp2218
I125
aS'24'
p2219
aS'101'
p2220
aa(lp2221
I143
aS'19'
p2222
aS'112'
p2223
aa(lp2224
I143
aS'114'
p2225
aS'182'
p2226
aa(lp2227
I145
aS'10'
p2228
aS'63'
p2229
aa(lp2230
I147
aS'102'
p2231
aS'166'
p2232
aa(lp2233
I512
aS'2'
aS'60'
p2234
aa(lp2235
I625
aS'8'
aS'68'
p2236
aa(lp2237
I672
aS'2'
aS'190'
p2238
aa(lp2239
I1127
aS'212'
p2240
aS'258'
p2241
aa(lp2242
I2417
aS'178'
p2243
aS'211'
p2244
aa(lp2245
I2446
aS'106'
p2246
aS'188'
p2247
aa(lp2248
I2502
aS'3'
aS'39'
p2249
aa(lp2250
I2835
aS'108'
p2251
aS'151'
p2252
aa(lp2253
I3282
aS'7'
aS'191'
p2254
aa(lp2255
I3544
aS'14'
p2256
aS'142'
p2257
aa(lp2258
I3545
aS'21'
p2259
aS'115'
p2260
aa(lp2261
I3548
aS'75'
p2262
aS'144'
p2263
aa(lp2264
I3549
aS'9'
aS'54'
p2265
aa(lp2266
I3550
aS'74'
p2267
aS'147'
p2268
aa(lp2269
I3767
aS'21'
p2270
aS'221'
p2271
aa(lp2272
I3809
aS'185'
p2273
aS'256'
p2274
aa(lp2275
I3813
aS'6'
aS'56'
p2276
aa(lp2277
I4048
aS'202'
p2278
aS'219'
p2279
aa(lp2280
I4304
aS'5'
aS'73'
p2281
aa(lp2282
I4667
aS'5'
aS'139'
p2283
aa(lp2284
I4935
aS'2'
aS'119'
p2285
aa(lp2286
I5041
aS'6'
aS'130'
p2287
aa(lp2288
I5042
aS'14'
p2289
aS'146'
p2290
aa(lp2291
I5050
aS'62'
p2292
aS'204'
p2293
aa(lp2294
I5532
aS'9'
aS'140'
p2295
aa(lp2296
I5807
aS'1'
aS'79'
p2297
aa(lp2298
I6345
aS'20'
p2299
aS'92'
p2300
aa(lp2301
I6388
aS'3'
aS'95'
p2302
aa(lp2303
I6403
aS'29'
p2304
aS'147'
p2305
aa(lp2306
I6412
aS'47'
p2307
aS'128'
p2308
aa(lp2309
I6625
aS'17'
p2310
aS'110'
p2311
aa(lp2312
I6680
aS'95'
p2313
aS'169'
p2314
aa(lp2315
I6925
aS'1'
aS'126'
p2316
aa(lp2317
I7161
aS'40'
p2318
aS'112'
p2319
aa(lp2320
I7213
aS'9'
aS'44'
p2321
aa(lp2322
I7213
aS'55'
p2323
aS'91'
p2324
aa(lp2325
I7213
aS'96'
p2326
aS'133'
p2327
aa(lp2328
I7213
aS'145'
p2329
aS'178'
p2330
aa(lp2331
I7213
aS'188'
p2332
aS'220'
p2333
aa(lp2334
I7213
aS'225'
p2335
aS'260'
p2336
aa(lp2337
I7397
aS'28'
p2338
aS'82'
p2339
aa(lp2340
I7432
aS'2'
aS'97'
p2341
aa(lp2342
I7504
aS'102'
p2343
aS'147'
p2344
aasS'3ZYV'
p2345
(lp2346
(lp2347
I3636
aS'240'
p2348
aS'418'
p2349
aa(lp2350
I4230
aS'91'
p2351
aS'165'
p2352
aa(lp2353
I4293
aS'13'
p2354
aS'81'
p2355
aa(lp2356
I5206
aS'712'
p2357
aS'1241'
p2358
aa(lp2359
I5615
aS'594'
p2360
aS'695'
p2361
aa(lp2362
I6492
aS'426'
p2363
aS'529'
p2364
aasS'1P31'
p2365
(lp2366
(lp2367
I1752
aS'123'
p2368
aS'303'
p2369
aa(lp2370
I3142
aS'20'
p2371
aS'117'
p2372
aa(lp2373
I3166
aS'325'
p2374
aS'412'
p2375
aasS'2JZ3'
p2376
(lp2377
(lp2378
I1442
aS'1'
aS'15'
p2379
aa(lp2380
I2656
aS'11'
p2381
aS'64'
p2382
aa(lp2383
I3329
aS'18'
p2384
aS'80'
p2385
aasS'3IIF'
p2386
(lp2387
(lp2388
I538
aS'213'
p2389
aS'326'
p2390
aasS'3IID'
p2391
(lp2392
(lp2393
I538
aS'213'
p2394
aS'326'
p2395
aasS'1FIQ'
p2396
(lp2397
(lp2398
I3636
aS'233'
p2399
aS'411'
p2400
aa(lp2401
I4230
aS'87'
p2402
aS'160'
p2403
aa(lp2404
I4293
aS'9'
aS'76'
p2405
aa(lp2406
I5206
aS'710'
p2407
aS'1236'
p2408
aa(lp2409
I5615
aS'587'
p2410
aS'693'
p2411
aa(lp2412
I6492
aS'419'
p2413
aS'523'
p2414
aasS'3V45'
p2415
(lp2416
(lp2417
I538
aS'20'
p2418
aS'129'
p2419
aasS'3AX7'
p2420
(lp2421
(lp2422
I3636
aS'233'
p2423
aS'411'
p2424
aa(lp2425
I4230
aS'87'
p2426
aS'160'
p2427
aa(lp2428
I4293
aS'9'
aS'76'
p2429
aa(lp2430
I5206
aS'710'
p2431
aS'1236'
p2432
aa(lp2433
I5615
aS'587'
p2434
aS'693'
p2435
aa(lp2436
I6492
aS'419'
p2437
aS'523'
p2438
aasS'3AX9'
p2439
(lp2440
(lp2441
I3636
aS'233'
p2442
aS'411'
p2443
aa(lp2444
I4230
aS'87'
p2445
aS'160'
p2446
aa(lp2447
I4293
aS'9'
aS'76'
p2448
aa(lp2449
I5206
aS'710'
p2450
aS'1236'
p2451
aa(lp2452
I5615
aS'587'
p2453
aS'693'
p2454
aa(lp2455
I6492
aS'419'
p2456
aS'523'
p2457
aasS'1VLB'
p2458
(lp2459
(lp2460
I4230
aS'75'
p2461
aS'149'
p2462
aa(lp2463
I4293
aS'6'
aS'64'
p2464
aa(lp2465
I5206
aS'329'
p2466
aS'833'
p2467
aa(lp2468
I5615
aS'191'
p2469
aS'308'
p2470
aasS'4FYW'
p2471
(lp2472
(lp2473
I1482
aS'102'
p2474
aS'149'
p2475
aa(lp2476
I1964
aS'7'
aS'147'
p2477
aa(lp2478
I2256
aS'154'
p2479
aS'302'
p2480
aa(lp2481
I5270
aS'10'
p2482
aS'96'
p2483
aasS'4FYV'
p2484
(lp2485
(lp2486
I1482
aS'102'
p2487
aS'149'
p2488
aa(lp2489
I1964
aS'7'
aS'147'
p2490
aa(lp2491
I2256
aS'154'
p2492
aS'302'
p2493
aa(lp2494
I5270
aS'10'
p2495
aS'96'
p2496
aasS'4FYY'
p2497
(lp2498
(lp2499
I1482
aS'102'
p2500
aS'149'
p2501
aa(lp2502
I1964
aS'7'
aS'147'
p2503
aa(lp2504
I2256
aS'154'
p2505
aS'302'
p2506
aa(lp2507
I5270
aS'7'
aS'96'
p2508
aasS'4FYX'
p2509
(lp2510
(lp2511
I1482
aS'102'
p2512
aS'149'
p2513
aa(lp2514
I1964
aS'7'
aS'147'
p2515
aa(lp2516
I2256
aS'154'
p2517
aS'302'
p2518
aa(lp2519
I5270
aS'7'
aS'96'
p2520
aasS'3L73'
p2521
(lp2522
(lp2523
I21
aS'42'
p2524
aS'77'
p2525
aa(lp2526
I843
aS'11'
p2527
aS'105'
p2528
aa(lp2529
I900
aS'8'
aS'59'
p2530
aa(lp2531
I1683
aS'15'
p2532
aS'78'
p2533
aa(lp2534
I1969
aS'24'
p2535
aS'170'
p2536
aa(lp2537
I1969
aS'37'
p2538
aS'180'
p2539
aa(lp2540
I3100
aS'177'
p2541
aS'361'
p2542
aa(lp2543
I3100
aS'185'
p2544
aS'364'
p2545
aa(lp2546
I3587
aS'105'
p2547
aS'183'
p2548
aa(lp2549
I3751
aS'259'
p2550
aS'360'
p2551
aa(lp2552
I3927
aS'12'
p2553
aS'228'
p2554
aa(lp2555
I4306
aS'3'
aS'78'
p2556
aa(lp2557
I4405
aS'2'
aS'67'
p2558
aa(lp2559
I5309
aS'90'
p2560
aS'254'
p2561
aasS'2OM5'
p2562
(lp2563
(lp2564
I157
aS'121'
p2565
aS'181'
p2566
aa(lp2567
I4082
aS'24'
p2568
aS'93'
p2569
aa(lp2570
I5590
aS'217'
p2571
aS'288'
p2572
aa(lp2573
I5590
aS'300'
p2574
aS'382'
p2575
aasS'1RAD'
p2576
(lp2577
(lp2578
I1482
aS'102'
p2579
aS'149'
p2580
aa(lp2581
I1964
aS'7'
aS'147'
p2582
aa(lp2583
I2256
aS'154'
p2584
aS'302'
p2585
aa(lp2586
I5270
aS'7'
aS'96'
p2587
aasS'1RAE'
p2588
(lp2589
(lp2590
I1482
aS'102'
p2591
aS'149'
p2592
aa(lp2593
I1964
aS'7'
aS'147'
p2594
aa(lp2595
I2256
aS'154'
p2596
aS'302'
p2597
aa(lp2598
I5270
aS'7'
aS'96'
p2599
aasS'2IPO'
p2600
(lp2601
(lp2602
I1482
aS'102'
p2603
aS'149'
p2604
aa(lp2605
I1964
aS'7'
aS'147'
p2606
aa(lp2607
I2256
aS'154'
p2608
aS'302'
p2609
aa(lp2610
I5270
aS'7'
aS'96'
p2611
aasS'4OGQ'
p2612
(lp2613
(lp2614
I2227
aS'1'
aS'36'
p2615
aa(lp2616
I2230
aS'3'
aS'31'
p2617
aa(lp2618
I2231
aS'1'
aS'30'
p2619
aa(lp2620
I2232
aS'1'
aS'29'
p2621
aa(lp2622
I2691
aS'9'
aS'46'
p2623
aa(lp2624
I3587
aS'88'
p2625
aS'157'
p2626
aa(lp2627
I3751
aS'65'
p2628
aS'151'
p2629
aa(lp2630
I4923
aS'1'
aS'156'
p2631
aa(lp2632
I4925
aS'168'
p2633
aS'289'
p2634
aa(lp2635
I5309
aS'92'
p2636
aS'212'
p2637
aasS'2GDR'
p2638
(lp2639
(lp2640
I2161
aS'2'
aS'74'
p2641
aa(lp2642
I6764
aS'120'
p2643
aS'179'
p2644
aasS'1RAI'
p2645
(lp2646
(lp2647
I1482
aS'102'
p2648
aS'149'
p2649
aa(lp2650
I1964
aS'7'
aS'147'
p2651
aa(lp2652
I2256
aS'154'
p2653
aS'302'
p2654
aa(lp2655
I5270
aS'7'
aS'96'
p2656
aasS'4PTS'
p2657
(lp2658
(lp2659
I1925
aS'55'
p2660
aS'144'
p2661
aa(lp2662
I6764
aS'196'
p2663
aS'266'
p2664
aasS'4ZIY'
p2665
(lp2666
(lp2667
I1752
aS'120'
p2668
aS'303'
p2669
aa(lp2670
I3142
aS'36'
p2671
aS'104'
p2672
aa(lp2673
I3166
aS'325'
p2674
aS'403'
p2675
aasS'4HV4'
p2676
(lp2677
(lp2678
I1752
aS'124'
p2679
aS'304'
p2680
aa(lp2681
I3142
aS'21'
p2682
aS'119'
p2683
aa(lp2684
I3166
aS'333'
p2685
aS'418'
p2686
aasS'3ETI'
p2687
(lp2688
(lp2689
I538
aS'65'
p2690
aS'171'
p2691
aasS'3Q6Z'
p2692
(lp2693
(lp2694
I538
aS'820'
p2695
aS'936'
p2696
aasS'3T6S'
p2697
(lp2698
(lp2699
I4704
aS'112'
p2700
aS'190'
p2701
aa(lp2702
I4704
aS'112'
p2703
aS'190'
p2704
aa(lp2705
I6290
aS'248'
p2706
aS'338'
p2707
aa(lp2708
I6290
aS'248'
p2709
aS'338'
p2710
aasS'2EBD'
p2711
(lp2712
(lp2713
I4704
aS'105'
p2714
aS'183'
p2715
aa(lp2716
I6290
aS'220'
p2717
aS'309'
p2718
aasS'2AIR'
p2719
(lp2720
(lp2721
I1482
aS'102'
p2722
aS'149'
p2723
aa(lp2724
I1964
aS'7'
aS'147'
p2725
aa(lp2726
I2256
aS'154'
p2727
aS'302'
p2728
aa(lp2729
I5270
aS'7'
aS'96'
p2730
aasS'4NHD'
p2731
(lp2732
(lp2733
I4704
aS'106'
p2734
aS'183'
p2735
aa(lp2736
I6290
aS'227'
p2737
aS'315'
p2738
aasS'3H77'
p2739
(lp2740
(lp2741
I4704
aS'106'
p2742
aS'187'
p2743
aa(lp2744
I6290
aS'241'
p2745
aS'327'
p2746
aasS'3JAP'
p2747
(lp2748
(lp2749
I82
aS'32'
p2750
aS'94'
p2751
aa(lp2752
I125
aS'24'
p2753
aS'102'
p2754
aa(lp2755
I143
aS'17'
p2756
aS'112'
p2757
aa(lp2758
I143
aS'116'
p2759
aS'181'
p2760
aa(lp2761
I145
aS'8'
aS'61'
p2762
aa(lp2763
I147
aS'81'
p2764
aS'145'
p2765
aa(lp2766
I423
aS'45'
p2767
aS'91'
p2768
aa(lp2769
I512
aS'2'
aS'60'
p2770
aa(lp2771
I625
aS'6'
aS'66'
p2772
aa(lp2773
I672
aS'2'
aS'185'
p2774
aa(lp2775
I842
aS'218'
p2776
aS'639'
p2777
aa(lp2778
I1127
aS'212'
p2779
aS'258'
p2780
aa(lp2781
I2355
aS'393'
p2782
aS'492'
p2783
aa(lp2784
I2355
aS'651'
p2785
aS'780'
p2786
aa(lp2787
I2417
aS'178'
p2788
aS'211'
p2789
aa(lp2790
I2446
aS'107'
p2791
aS'188'
p2792
aa(lp2793
I2502
aS'3'
aS'39'
p2794
aa(lp2795
I2828
aS'429'
p2796
aS'517'
p2797
aa(lp2798
I2833
aS'14'
p2799
aS'88'
p2800
aa(lp2801
I2835
aS'107'
p2802
aS'151'
p2803
aa(lp2804
I2835
aS'43'
p2805
aS'90'
p2806
aa(lp2807
I3282
aS'10'
p2808
aS'186'
p2809
aa(lp2810
I3544
aS'16'
p2811
aS'144'
p2812
aa(lp2813
I3545
aS'23'
p2814
aS'116'
p2815
aa(lp2816
I3548
aS'73'
p2817
aS'141'
p2818
aa(lp2819
I3549
aS'7'
aS'56'
p2820
aa(lp2821
I3550
aS'74'
p2822
aS'147'
p2823
aa(lp2824
I3767
aS'19'
p2825
aS'221'
p2826
aa(lp2827
I3809
aS'165'
p2828
aS'235'
p2829
aa(lp2830
I3813
aS'8'
aS'60'
p2831
aa(lp2832
I4254
aS'157'
p2833
aS'264'
p2834
aa(lp2835
I4304
aS'8'
aS'71'
p2836
aa(lp2837
I4654
aS'335'
p2838
aS'417'
p2839
aa(lp2840
I4667
aS'5'
aS'140'
p2841
aa(lp2842
I4935
aS'2'
aS'116'
p2843
aa(lp2844
I5041
aS'6'
aS'130'
p2845
aa(lp2846
I5042
aS'11'
p2847
aS'143'
p2848
aa(lp2849
I5050
aS'85'
p2850
aS'227'
p2851
aa(lp2852
I5532
aS'11'
p2853
aS'144'
p2854
aa(lp2855
I5807
aS'1'
aS'80'
p2856
aa(lp2857
I6226
aS'100'
p2858
aS'303'
p2859
aa(lp2860
I6235
aS'1'
aS'25'
p2861
aa(lp2862
I6345
aS'20'
p2863
aS'92'
p2864
aa(lp2865
I6388
aS'3'
aS'92'
p2866
aa(lp2867
I6403
aS'15'
p2868
aS'133'
p2869
aa(lp2870
I6412
aS'47'
p2871
aS'128'
p2872
aa(lp2873
I6625
aS'20'
p2874
aS'113'
p2875
aa(lp2876
I6680
aS'95'
p2877
aS'169'
p2878
aa(lp2879
I6742
aS'23'
p2880
aS'98'
p2881
aa(lp2882
I6925
aS'1'
aS'126'
p2883
aa(lp2884
I7161
aS'36'
p2885
aS'104'
p2886
aa(lp2887
I7213
aS'12'
p2888
aS'46'
p2889
aa(lp2890
I7213
aS'57'
p2891
aS'94'
p2892
aa(lp2893
I7213
aS'104'
p2894
aS'136'
p2895
aa(lp2896
I7213
aS'139'
p2897
aS'187'
p2898
aa(lp2899
I7213
aS'198'
p2900
aS'231'
p2901
aa(lp2902
I7213
aS'5'
aS'37'
p2903
aa(lp2904
I7213
aS'43'
p2905
aS'80'
p2906
aa(lp2907
I7397
aS'28'
p2908
aS'82'
p2909
aa(lp2910
I7432
aS'2'
aS'99'
p2911
aa(lp2912
I7504
aS'102'
p2913
aS'145'
p2914
aa(lp2915
I7551
aS'126'
p2916
aS'237'
p2917
aasS'3JAQ'
p2918
(lp2919
(lp2920
I82
aS'32'
p2921
aS'94'
p2922
aa(lp2923
I125
aS'24'
p2924
aS'102'
p2925
aa(lp2926
I145
aS'8'
aS'61'
p2927
aa(lp2928
I147
aS'81'
p2929
aS'145'
p2930
aa(lp2931
I423
aS'45'
p2932
aS'91'
p2933
aa(lp2934
I512
aS'2'
aS'60'
p2935
aa(lp2936
I625
aS'6'
aS'66'
p2937
aa(lp2938
I672
aS'2'
aS'185'
p2939
aa(lp2940
I1127
aS'212'
p2941
aS'258'
p2942
aa(lp2943
I2417
aS'178'
p2944
aS'211'
p2945
aa(lp2946
I2446
aS'107'
p2947
aS'188'
p2948
aa(lp2949
I2502
aS'3'
aS'39'
p2950
aa(lp2951
I2828
aS'429'
p2952
aS'517'
p2953
aa(lp2954
I2833
aS'14'
p2955
aS'88'
p2956
aa(lp2957
I2835
aS'107'
p2958
aS'151'
p2959
aa(lp2960
I2835
aS'43'
p2961
aS'90'
p2962
aa(lp2963
I3282
aS'10'
p2964
aS'186'
p2965
aa(lp2966
I3544
aS'16'
p2967
aS'144'
p2968
aa(lp2969
I3545
aS'23'
p2970
aS'116'
p2971
aa(lp2972
I3548
aS'73'
p2973
aS'141'
p2974
aa(lp2975
I3549
aS'7'
aS'56'
p2976
aa(lp2977
I3550
aS'74'
p2978
aS'147'
p2979
aa(lp2980
I3767
aS'19'
p2981
aS'221'
p2982
aa(lp2983
I3809
aS'165'
p2984
aS'235'
p2985
aa(lp2986
I3813
aS'8'
aS'60'
p2987
aa(lp2988
I4254
aS'157'
p2989
aS'264'
p2990
aa(lp2991
I4304
aS'8'
aS'71'
p2992
aa(lp2993
I4654
aS'335'
p2994
aS'417'
p2995
aa(lp2996
I4667
aS'5'
aS'140'
p2997
aa(lp2998
I4935
aS'2'
aS'116'
p2999
aa(lp3000
I5041
aS'6'
aS'130'
p3001
aa(lp3002
I5042
aS'11'
p3003
aS'143'
p3004
aa(lp3005
I5050
aS'85'
p3006
aS'227'
p3007
aa(lp3008
I5532
aS'11'
p3009
aS'144'
p3010
aa(lp3011
I5807
aS'1'
aS'80'
p3012
aa(lp3013
I6226
aS'100'
p3014
aS'303'
p3015
aa(lp3016
I6235
aS'1'
aS'25'
p3017
aa(lp3018
I6345
aS'20'
p3019
aS'92'
p3020
aa(lp3021
I6388
aS'3'
aS'92'
p3022
aa(lp3023
I6403
aS'15'
p3024
aS'133'
p3025
aa(lp3026
I6412
aS'47'
p3027
aS'128'
p3028
aa(lp3029
I6625
aS'20'
p3030
aS'113'
p3031
aa(lp3032
I6680
aS'95'
p3033
aS'169'
p3034
aa(lp3035
I6742
aS'23'
p3036
aS'98'
p3037
aa(lp3038
I6925
aS'1'
aS'126'
p3039
aa(lp3040
I7161
aS'36'
p3041
aS'104'
p3042
aa(lp3043
I7213
aS'12'
p3044
aS'46'
p3045
aa(lp3046
I7213
aS'57'
p3047
aS'94'
p3048
aa(lp3049
I7213
aS'104'
p3050
aS'136'
p3051
aa(lp3052
I7213
aS'139'
p3053
aS'187'
p3054
aa(lp3055
I7213
aS'198'
p3056
aS'231'
p3057
aa(lp3058
I7432
aS'2'
aS'99'
p3059
aa(lp3060
I7504
aS'102'
p3061
aS'145'
p3062
aa(lp3063
I7551
aS'126'
p3064
aS'237'
p3065
aasS'2X3E'
p3066
(lp3067
(lp3068
I4704
aS'105'
p3069
aS'185'
p3070
aa(lp3071
I6290
aS'233'
p3072
aS'322'
p3073
aasS'1ZRT'
p3074
(lp3075
(lp3076
I3587
aS'114'
p3077
aS'177'
p3078
aa(lp3079
I3751
aS'282'
p3080
aS'401'
p3081
aa(lp3082
I3927
aS'9'
aS'252'
p3083
aa(lp3084
I4050
aS'11'
p3085
aS'41'
p3086
aa(lp3087
I5309
aS'103'
p3088
aS'273'
p3089
aasS'2UAG'
p3090
(lp3091
(lp3092
I1752
aS'109'
p3093
aS'279'
p3094
aa(lp3095
I3166
aS'300'
p3096
aS'372'
p3097
aasS'4JLL'
p3098
(lp3099
(lp3100
I538
aS'20'
p3101
aS'129'
p3102
aasS'1RK4'
p3103
(lp3104
(lp3105
I1924
aS'24'
p3106
aS'86'
p3107
aa(lp3108
I6764
aS'124'
p3109
aS'210'
p3110
aasS'1E8C'
p3111
(lp3112
(lp3113
I1752
aS'113'
p3114
aS'317'
p3115
aa(lp3116
I1752
aS'113'
p3117
aS'317'
p3118
aa(lp3119
I3142
aS'24'
p3120
aS'101'
p3121
aa(lp3122
I3142
aS'24'
p3123
aS'101'
p3124
aa(lp3125
I3166
aS'338'
p3126
aS'424'
p3127
aa(lp3128
I3166
aS'338'
p3129
aS'424'
p3130
aasS'3FC4'
p3131
(lp3132
(lp3133
I4230
aS'75'
p3134
aS'149'
p3135
aa(lp3136
I4293
aS'6'
aS'64'
p3137
aa(lp3138
I5206
aS'329'
p3139
aS'833'
p3140
aa(lp3141
I5615
aS'191'
p3142
aS'308'
p3143
aasS'5AIL'
p3144
(lp3145
(lp3146
I538
aS'300'
p3147
aS'411'
p3148
aasS'2JFF'
p3149
(lp3150
(lp3151
I1752
aS'109'
p3152
aS'279'
p3153
aa(lp3154
I3166
aS'300'
p3155
aS'372'
p3156
aasS'2JFG'
p3157
(lp3158
(lp3159
I1752
aS'109'
p3160
aS'279'
p3161
aa(lp3162
I3166
aS'300'
p3163
aS'372'
p3164
aasS'3NS1'
p3165
(lp3166
(lp3167
I3636
aS'233'
p3168
aS'411'
p3169
aa(lp3170
I4230
aS'87'
p3171
aS'160'
p3172
aa(lp3173
I4293
aS'9'
aS'77'
p3174
aa(lp3175
I5206
aS'710'
p3176
aS'1236'
p3177
aa(lp3178
I5615
aS'587'
p3179
aS'693'
p3180
aa(lp3181
I6492
aS'419'
p3182
aS'523'
p3183
aasS'1KYO'
p3184
(lp3185
(lp3186
I843
aS'20'
p3187
aS'117'
p3188
aa(lp3189
I900
aS'5'
aS'55'
p3190
aa(lp3191
I1683
aS'76'
p3192
aS'147'
p3193
aa(lp3194
I1969
aS'37'
p3195
aS'180'
p3196
aa(lp3197
I1969
aS'19'
p3198
aS'161'
p3199
aa(lp3200
I2388
aS'11'
p3201
aS'120'
p3202
aa(lp3203
I2388
aS'6'
aS'106'
p3204
aa(lp3205
I3100
aS'187'
p3206
aS'368'
p3207
aa(lp3208
I3587
aS'125'
p3209
aS'204'
p3210
aa(lp3211
I3751
aS'259'
p3212
aS'360'
p3213
aa(lp3214
I3927
aS'76'
p3215
aS'294'
p3216
aa(lp3217
I4306
aS'12'
p3218
aS'88'
p3219
aa(lp3220
I4405
aS'32'
p3221
aS'87'
p3222
aa(lp3223
I5098
aS'8'
aS'105'
p3224
aa(lp3225
I5309
aS'88'
p3226
aS'254'
p3227
aasS'9ATC'
p3228
(lp3229
(lp3230
I1482
aS'102'
p3231
aS'149'
p3232
aa(lp3233
I1964
aS'7'
aS'147'
p3234
aa(lp3235
I2256
aS'154'
p3236
aS'302'
p3237
aa(lp3238
I5270
aS'8'
aS'96'
p3239
aasS'2JFH'
p3240
(lp3241
(lp3242
I1752
aS'109'
p3243
aS'279'
p3244
aa(lp3245
I3166
aS'300'
p3246
aS'372'
p3247
aasS'1W7K'
p3248
(lp3249
(lp3250
I1752
aS'54'
p3251
aS'197'
p3252
aa(lp3253
I3166
aS'287'
p3254
aS'346'
p3255
aasS'2OTP'
p3256
(lp3257
(lp3258
I157
aS'99'
p3259
aS'174'
p3260
aa(lp3261
I158
aS'5'
aS'93'
p3262
aasS'1W78'
p3263
(lp3264
(lp3265
I1752
aS'54'
p3266
aS'197'
p3267
aa(lp3268
I3166
aS'287'
p3269
aS'346'
p3270
aasS'2E3T'
p3271
(lp3272
(lp3273
I3636
aS'232'
p3274
aS'410'
p3275
aa(lp3276
I4230
aS'87'
p3277
aS'159'
p3278
aa(lp3279
I4293
aS'9'
aS'77'
p3280
aa(lp3281
I5206
aS'710'
p3282
aS'1236'
p3283
aa(lp3284
I5615
aS'587'
p3285
aS'693'
p3286
aa(lp3287
I6492
aS'418'
p3288
aS'522'
p3289
aasS'2BE9'
p3290
(lp3291
(lp3292
I1482
aS'107'
p3293
aS'154'
p3294
aa(lp3295
I1964
aS'2'
aS'141'
p3296
aa(lp3297
I2256
aS'149'
p3298
aS'294'
p3299
aa(lp3300
I5270
aS'11'
p3301
aS'101'
p3302
aasS'4C80'
p3303
(lp3304
(lp3305
I4230
aS'75'
p3306
aS'149'
p3307
aa(lp3308
I4293
aS'6'
aS'64'
p3309
aa(lp3310
I5206
aS'329'
p3311
aS'833'
p3312
aa(lp3313
I5615
aS'191'
p3314
aS'308'
p3315
aasS'4KTM'
p3316
(lp3317
(lp3318
I4704
aS'137'
p3319
aS'215'
p3320
aa(lp3321
I6290
aS'273'
p3322
aS'353'
p3323
aasS'1ZR5'
p3324
(lp3325
(lp3326
I538
aS'214'
p3327
aS'327'
p3328
aasS'1ZR3'
p3329
(lp3330
(lp3331
I538
aS'213'
p3332
aS'326'
p3333
aasS'4C12'
p3334
(lp3335
(lp3336
I1752
aS'108'
p3337
aS'311'
p3338
aa(lp3339
I3142
aS'23'
p3340
aS'82'
p3341
aa(lp3342
I3166
aS'332'
p3343
aS'414'
p3344
aasS'4C13'
p3345
(lp3346
(lp3347
I1752
aS'108'
p3348
aS'311'
p3349
aa(lp3350
I3142
aS'23'
p3351
aS'82'
p3352
aa(lp3353
I3166
aS'332'
p3354
aS'414'
p3355
aasS'3L4P'
p3356
(lp3357
(lp3358
I4230
aS'75'
p3359
aS'149'
p3360
aa(lp3361
I4293
aS'6'
aS'64'
p3362
aa(lp3363
I5206
aS'329'
p3364
aS'833'
p3365
aa(lp3366
I5615
aS'191'
p3367
aS'308'
p3368
aasS'3JZT'
p3369
(lp3370
(lp3371
I538
aS'65'
p3372
aS'171'
p3373
aasS'1VHU'
p3374
(lp3375
(lp3376
I538
aS'37'
p3377
aS'162'
p3378
aasS'3EUB'
p3379
(lp3380
(lp3381
I3636
aS'233'
p3382
aS'411'
p3383
aa(lp3384
I4230
aS'87'
p3385
aS'160'
p3386
aa(lp3387
I4293
aS'9'
aS'77'
p3388
aa(lp3389
I5206
aS'710'
p3390
aS'1236'
p3391
aa(lp3392
I5615
aS'587'
p3393
aS'693'
p3394
aa(lp3395
I6492
aS'419'
p3396
aS'523'
p3397
aasS'4GVW'
p3398
(lp3399
(lp3400
I538
aS'30'
p3401
aS'154'
p3402
aasS'4GVV'
p3403
(lp3404
(lp3405
I538
aS'20'
p3406
aS'129'
p3407
aasS'3QAG'
p3408
(lp3409
(lp3410
I1924
aS'27'
p3411
aS'100'
p3412
aa(lp3413
I6764
aS'142'
p3414
aS'204'
p3415
aasS'3H1K'
p3416
(lp3417
(lp3418
I21
aS'42'
p3419
aS'77'
p3420
aa(lp3421
I843
aS'11'
p3422
aS'105'
p3423
aa(lp3424
I900
aS'8'
aS'59'
p3425
aa(lp3426
I1683
aS'15'
p3427
aS'78'
p3428
aa(lp3429
I1969
aS'24'
p3430
aS'170'
p3431
aa(lp3432
I1969
aS'37'
p3433
aS'180'
p3434
aa(lp3435
I3100
aS'177'
p3436
aS'361'
p3437
aa(lp3438
I3100
aS'185'
p3439
aS'364'
p3440
aa(lp3441
I3587
aS'105'
p3442
aS'183'
p3443
aa(lp3444
I3751
aS'259'
p3445
aS'360'
p3446
aa(lp3447
I3927
aS'12'
p3448
aS'228'
p3449
aa(lp3450
I4306
aS'3'
aS'78'
p3451
aa(lp3452
I4405
aS'2'
aS'67'
p3453
aa(lp3454
I5309
aS'90'
p3455
aS'254'
p3456
aasS'3H1H'
p3457
(lp3458
(lp3459
I21
aS'42'
p3460
aS'77'
p3461
aa(lp3462
I843
aS'11'
p3463
aS'105'
p3464
aa(lp3465
I900
aS'8'
aS'59'
p3466
aa(lp3467
I1683
aS'15'
p3468
aS'78'
p3469
aa(lp3470
I1969
aS'24'
p3471
aS'170'
p3472
aa(lp3473
I1969
aS'37'
p3474
aS'180'
p3475
aa(lp3476
I3100
aS'177'
p3477
aS'361'
p3478
aa(lp3479
I3100
aS'185'
p3480
aS'364'
p3481
aa(lp3482
I3587
aS'105'
p3483
aS'183'
p3484
aa(lp3485
I3751
aS'259'
p3486
aS'360'
p3487
aa(lp3488
I3927
aS'12'
p3489
aS'228'
p3490
aa(lp3491
I4306
aS'3'
aS'78'
p3492
aa(lp3493
I4405
aS'2'
aS'67'
p3494
aa(lp3495
I5309
aS'90'
p3496
aS'254'
p3497
aasS'3H1I'
p3498
(lp3499
(lp3500
I21
aS'42'
p3501
aS'77'
p3502
aa(lp3503
I843
aS'11'
p3504
aS'105'
p3505
aa(lp3506
I900
aS'8'
aS'59'
p3507
aa(lp3508
I1683
aS'15'
p3509
aS'78'
p3510
aa(lp3511
I1969
aS'24'
p3512
aS'170'
p3513
aa(lp3514
I1969
aS'37'
p3515
aS'180'
p3516
aa(lp3517
I3100
aS'177'
p3518
aS'361'
p3519
aa(lp3520
I3100
aS'185'
p3521
aS'364'
p3522
aa(lp3523
I3587
aS'105'
p3524
aS'183'
p3525
aa(lp3526
I3751
aS'259'
p3527
aS'360'
p3528
aa(lp3529
I3927
aS'12'
p3530
aS'228'
p3531
aa(lp3532
I4306
aS'3'
aS'78'
p3533
aa(lp3534
I4405
aS'2'
aS'67'
p3535
aa(lp3536
I5309
aS'90'
p3537
aS'254'
p3538
aasS'3H1L'
p3539
(lp3540
(lp3541
I21
aS'42'
p3542
aS'77'
p3543
aa(lp3544
I843
aS'11'
p3545
aS'105'
p3546
aa(lp3547
I900
aS'8'
aS'59'
p3548
aa(lp3549
I1683
aS'15'
p3550
aS'78'
p3551
aa(lp3552
I1969
aS'24'
p3553
aS'170'
p3554
aa(lp3555
I1969
aS'37'
p3556
aS'180'
p3557
aa(lp3558
I3100
aS'177'
p3559
aS'361'
p3560
aa(lp3561
I3100
aS'185'
p3562
aS'364'
p3563
aa(lp3564
I3587
aS'105'
p3565
aS'183'
p3566
aa(lp3567
I3751
aS'259'
p3568
aS'360'
p3569
aa(lp3570
I3927
aS'12'
p3571
aS'228'
p3572
aa(lp3573
I4306
aS'3'
aS'78'
p3574
aa(lp3575
I4405
aS'2'
aS'67'
p3576
aa(lp3577
I5309
aS'90'
p3578
aS'254'
p3579
aasS'1TTH'
p3580
(lp3581
(lp3582
I1482
aS'102'
p3583
aS'149'
p3584
aa(lp3585
I1964
aS'7'
aS'147'
p3586
aa(lp3587
I2256
aS'154'
p3588
aS'302'
p3589
aa(lp3590
I5270
aS'7'
aS'96'
p3591
aasS'2ZG1'
p3592
(lp3593
(lp3594
I157
aS'161'
p3595
aS'220'
p3596
aa(lp3597
I2388
aS'29'
p3598
aS'145'
p3599
aasS'2ZG3'
p3600
(lp3601
(lp3602
I157
aS'161'
p3603
aS'220'
p3604
aa(lp3605
I2388
aS'29'
p3606
aS'145'
p3607
aasS'2ZG2'
p3608
(lp3609
(lp3610
I157
aS'161'
p3611
aS'220'
p3612
aa(lp3613
I2388
aS'29'
p3614
aS'145'
p3615
aasS'1KB9'
p3616
(lp3617
(lp3618
I843
aS'20'
p3619
aS'117'
p3620
aa(lp3621
I900
aS'5'
aS'55'
p3622
aa(lp3623
I1683
aS'76'
p3624
aS'147'
p3625
aa(lp3626
I1969
aS'37'
p3627
aS'181'
p3628
aa(lp3629
I1969
aS'19'
p3630
aS'161'
p3631
aa(lp3632
I2388
aS'11'
p3633
aS'120'
p3634
aa(lp3635
I2388
aS'6'
aS'106'
p3636
aa(lp3637
I3100
aS'188'
p3638
aS'369'
p3639
aa(lp3640
I3587
aS'125'
p3641
aS'204'
p3642
aa(lp3643
I3751
aS'259'
p3644
aS'360'
p3645
aa(lp3646
I3927
aS'76'
p3647
aS'294'
p3648
aa(lp3649
I4306
aS'12'
p3650
aS'88'
p3651
aa(lp3652
I4405
aS'32'
p3653
aS'87'
p3654
aa(lp3655
I5309
aS'88'
p3656
aS'254'
p3657
aasS'3O4O'
p3658
(lp3659
(lp3660
I157
aS'29'
p3661
aS'99'
p3662
aa(lp3663
I157
aS'137'
p3664
aS'195'
p3665
aa(lp3666
I157
aS'223'
p3667
aS'315'
p3668
aa(lp3669
I158
aS'125'
p3670
aS'208'
p3671
aa(lp3672
I2649
aS'31'
p3673
aS'148'
p3674
aa(lp3675
I4082
aS'229'
p3676
aS'327'
p3677
aasS'4EFI'
p3678
(lp3679
(lp3680
I4704
aS'125'
p3681
aS'201'
p3682
aa(lp3683
I6290
aS'258'
p3684
aS'345'
p3685
aasS'3AM9'
p3686
(lp3687
(lp3688
I3636
aS'233'
p3689
aS'411'
p3690
aa(lp3691
I4230
aS'87'
p3692
aS'160'
p3693
aa(lp3694
I4293
aS'9'
aS'76'
p3695
aa(lp3696
I5206
aS'710'
p3697
aS'1236'
p3698
aa(lp3699
I5615
aS'587'
p3700
aS'693'
p3701
aa(lp3702
I6492
aS'419'
p3703
aS'523'
p3704
aasS'3TGU'
p3705
(lp3706
(lp3707
I21
aS'2'
aS'77'
p3708
aa(lp3709
I843
aS'11'
p3710
aS'105'
p3711
aa(lp3712
I900
aS'8'
aS'59'
p3713
aa(lp3714
I1683
aS'15'
p3715
aS'78'
p3716
aa(lp3717
I1969
aS'24'
p3718
aS'170'
p3719
aa(lp3720
I1969
aS'37'
p3721
aS'180'
p3722
aa(lp3723
I3100
aS'177'
p3724
aS'361'
p3725
aa(lp3726
I3100
aS'185'
p3727
aS'364'
p3728
aa(lp3729
I3587
aS'105'
p3730
aS'183'
p3731
aa(lp3732
I3751
aS'259'
p3733
aS'360'
p3734
aa(lp3735
I3927
aS'12'
p3736
aS'228'
p3737
aa(lp3738
I4306
aS'3'
aS'78'
p3739
aa(lp3740
I4405
aS'2'
aS'67'
p3741
aa(lp3742
I5309
aS'90'
p3743
aS'254'
p3744
aasS'3TGZ'
p3745
(lp3746
(lp3747
I1924
aS'24'
p3748
aS'86'
p3749
aa(lp3750
I6764
aS'124'
p3751
aS'210'
p3752
aasS'1FO4'
p3753
(lp3754
(lp3755
I3636
aS'233'
p3756
aS'411'
p3757
aa(lp3758
I4230
aS'87'
p3759
aS'160'
p3760
aa(lp3761
I4293
aS'9'
aS'76'
p3762
aa(lp3763
I5206
aS'710'
p3764
aS'1236'
p3765
aa(lp3766
I5615
aS'587'
p3767
aS'693'
p3768
aa(lp3769
I6492
aS'419'
p3770
aS'523'
p3771
aasS'2IBZ'
p3772
(lp3773
(lp3774
I843
aS'20'
p3775
aS'117'
p3776
aa(lp3777
I900
aS'5'
aS'55'
p3778
aa(lp3779
I1683
aS'76'
p3780
aS'147'
p3781
aa(lp3782
I1969
aS'37'
p3783
aS'181'
p3784
aa(lp3785
I1969
aS'19'
p3786
aS'161'
p3787
aa(lp3788
I2388
aS'11'
p3789
aS'120'
p3790
aa(lp3791
I2388
aS'6'
aS'106'
p3792
aa(lp3793
I3100
aS'188'
p3794
aS'369'
p3795
aa(lp3796
I3587
aS'125'
p3797
aS'204'
p3798
aa(lp3799
I3751
aS'259'
p3800
aS'360'
p3801
aa(lp3802
I3927
aS'76'
p3803
aS'294'
p3804
aa(lp3805
I4306
aS'12'
p3806
aS'88'
p3807
aa(lp3808
I4405
aS'32'
p3809
aS'87'
p3810
aa(lp3811
I5309
aS'88'
p3812
aS'254'
p3813
aasS'4R6U'
p3814
(lp3815
(lp3816
I157
aS'215'
p3817
aS'300'
p3818
aa(lp3819
I2649
aS'38'
p3820
aS'148'
p3821
aasS'2FG1'
p3822
(lp3823
(lp3824
I538
aS'23'
p3825
aS'138'
p3826
aasS'4JED'
p3827
(lp3828
(lp3829
I1924
aS'8'
aS'83'
p3830
aa(lp3831
I6764
aS'126'
p3832
aS'193'
p3833
aasS'3SR6'
p3834
(lp3835
(lp3836
I3636
aS'233'
p3837
aS'411'
p3838
aa(lp3839
I4230
aS'87'
p3840
aS'160'
p3841
aa(lp3842
I4293
aS'9'
aS'77'
p3843
aa(lp3844
I5206
aS'710'
p3845
aS'1236'
p3846
aa(lp3847
I5615
aS'587'
p3848
aS'693'
p3849
aa(lp3850
I6492
aS'419'
p3851
aS'523'
p3852
aasS'4BUC'
p3853
(lp3854
(lp3855
I1752
aS'127'
p3856
aS'240'
p3857
aasS'4BUB'
p3858
(lp3859
(lp3860
I1752
aS'108'
p3861
aS'303'
p3862
aa(lp3863
I3142
aS'24'
p3864
aS'73'
p3865
aa(lp3866
I3166
aS'324'
p3867
aS'412'
p3868
aasS'2EFT'
p3869
(lp3870
(lp3871
I4704
aS'106'
p3872
aS'183'
p3873
aa(lp3874
I6290
aS'228'
p3875
aS'316'
p3876
aasS'3BDJ'
p3877
(lp3878
(lp3879
I3636
aS'233'
p3880
aS'411'
p3881
aa(lp3882
I4230
aS'87'
p3883
aS'160'
p3884
aa(lp3885
I4293
aS'9'
aS'76'
p3886
aa(lp3887
I5206
aS'710'
p3888
aS'1236'
p3889
aa(lp3890
I5615
aS'587'
p3891
aS'693'
p3892
aa(lp3893
I6492
aS'419'
p3894
aS'523'
p3895
aasS'1UGN'
p3896
(lp3897
(lp3898
I157
aS'101'
p3899
aS'176'
p3900
aa(lp3901
I158
aS'5'
aS'95'
p3902
aasS'3WD6'
p3903
(lp3904
(lp3905
I1924
aS'33'
p3906
aS'107'
p3907
aa(lp3908
I6764
aS'143'
p3909
aS'213'
p3910
aasS'2YIU'
p3911
(lp3912
(lp3913
I3587
aS'119'
p3914
aS'176'
p3915
aa(lp3916
I3751
aS'282'
p3917
aS'401'
p3918
aa(lp3919
I3927
aS'57'
p3920
aS'279'
p3921
aa(lp3922
I4050
aS'17'
p3923
aS'45'
p3924
aa(lp3925
I5309
aS'103'
p3926
aS'276'
p3927
aasS'1DGJ'
p3928
(lp3929
(lp3930
I4230
aS'75'
p3931
aS'149'
p3932
aa(lp3933
I4293
aS'8'
aS'60'
p3934
aa(lp3935
I5206
aS'329'
p3936
aS'845'
p3937
aa(lp3938
I5615
aS'201'
p3939
aS'307'
p3940
aasS'4IQA'
p3941
(lp3942
(lp3943
I1924
aS'24'
p3944
aS'86'
p3945
aa(lp3946
I6764
aS'124'
p3947
aS'210'
p3948
aasS'2GCA'
p3949
(lp3950
(lp3951
I1752
aS'44'
p3952
aS'271'
p3953
aa(lp3954
I3166
aS'297'
p3955
aS'373'
p3956
aasS'2GCB'
p3957
(lp3958
(lp3959
I1752
aS'44'
p3960
aS'271'
p3961
aa(lp3962
I3166
aS'297'
p3963
aS'373'
p3964
aasS'4IQY'
p3965
(lp3966
(lp3967
I538
aS'88'
p3968
aS'200'
p3969
aasS'2E76'
p3970
(lp3971
(lp3972
I2227
aS'1'
aS'36'
p3973
aa(lp3974
I2230
aS'3'
aS'31'
p3975
aa(lp3976
I2232
aS'1'
aS'29'
p3977
aa(lp3978
I2691
aS'9'
aS'46'
p3979
aa(lp3980
I3587
aS'91'
p3981
aS'149'
p3982
aa(lp3983
I3751
aS'65'
p3984
aS'151'
p3985
aa(lp3986
I4923
aS'1'
aS'156'
p3987
aa(lp3988
I4925
aS'168'
p3989
aS'288'
p3990
aa(lp3991
I5309
aS'92'
p3992
aS'212'
p3993
aasS'2E74'
p3994
(lp3995
(lp3996
I2227
aS'1'
aS'36'
p3997
aa(lp3998
I2230
aS'3'
aS'31'
p3999
aa(lp4000
I2232
aS'1'
aS'29'
p4001
aa(lp4002
I2691
aS'9'
aS'46'
p4003
aa(lp4004
I3587
aS'91'
p4005
aS'149'
p4006
aa(lp4007
I3751
aS'65'
p4008
aS'151'
p4009
aa(lp4010
I4923
aS'1'
aS'156'
p4011
aa(lp4012
I4925
aS'168'
p4013
aS'288'
p4014
aa(lp4015
I5309
aS'92'
p4016
aS'212'
p4017
aasS'2E75'
p4018
(lp4019
(lp4020
I2227
aS'1'
aS'36'
p4021
aa(lp4022
I2230
aS'3'
aS'31'
p4023
aa(lp4024
I2232
aS'1'
aS'29'
p4025
aa(lp4026
I2691
aS'9'
aS'46'
p4027
aa(lp4028
I3587
aS'91'
p4029
aS'149'
p4030
aa(lp4031
I3751
aS'65'
p4032
aS'151'
p4033
aa(lp4034
I4923
aS'1'
aS'156'
p4035
aa(lp4036
I4925
aS'168'
p4037
aS'288'
p4038
aa(lp4039
I5309
aS'92'
p4040
aS'212'
p4041
aasS'1K0M'
p4042
(lp4043
(lp4044
I1924
aS'24'
p4045
aS'86'
p4046
aa(lp4047
I6764
aS'124'
p4048
aS'210'
p4049
aasS'3GWA'
p4050
(lp4051
(lp4052
I4704
aS'115'
p4053
aS'194'
p4054
aa(lp4055
I6290
aS'258'
p4056
aS'343'
p4057
aasS'1K0O'
p4058
(lp4059
(lp4060
I1924
aS'24'
p4061
aS'86'
p4062
aa(lp4063
I6764
aS'124'
p4064
aS'210'
p4065
aasS'3GWE'
p4066
(lp4067
(lp4068
I4704
aS'115'
p4069
aS'194'
p4070
aa(lp4071
I6290
aS'258'
p4072
aS'343'
p4073
aasS'3AN1'
p4074
(lp4075
(lp4076
I3636
aS'232'
p4077
aS'410'
p4078
aa(lp4079
I4230
aS'87'
p4080
aS'159'
p4081
aa(lp4082
I4293
aS'9'
aS'77'
p4083
aa(lp4084
I5206
aS'710'
p4085
aS'1236'
p4086
aa(lp4087
I5615
aS'587'
p4088
aS'693'
p4089
aa(lp4090
I6492
aS'418'
p4091
aS'522'
p4092
aasS'1N5W'
p4093
(lp4094
(lp4095
I3636
aS'5'
aS'174'
p4096
aa(lp4097
I4230
aS'76'
p4098
aS'150'
p4099
aa(lp4100
I4293
aS'9'
aS'61'
p4101
aa(lp4102
I5206
aS'176'
p4103
aS'740'
p4104
aa(lp4105
I5615
aS'35'
p4106
aS'144'
p4107
aa(lp4108
I6492
aS'182'
p4109
aS'281'
p4110
aasS'1N5X'
p4111
(lp4112
(lp4113
I3636
aS'233'
p4114
aS'411'
p4115
aa(lp4116
I4230
aS'87'
p4117
aS'160'
p4118
aa(lp4119
I4293
aS'9'
aS'76'
p4120
aa(lp4121
I5206
aS'710'
p4122
aS'1236'
p4123
aa(lp4124
I5615
aS'587'
p4125
aS'693'
p4126
aa(lp4127
I6492
aS'419'
p4128
aS'523'
p4129
aasS'2YCD'
p4130
(lp4131
(lp4132
I2161
aS'30'
p4133
aS'95'
p4134
aa(lp4135
I6764
aS'143'
p4136
aS'206'
p4137
aasS'4IJI'
p4138
(lp4139
(lp4140
I1924
aS'3'
aS'82'
p4141
aa(lp4142
I6764
aS'125'
p4143
aS'188'
p4144
aasS'2GC5'
p4145
(lp4146
(lp4147
I1752
aS'44'
p4148
aS'271'
p4149
aa(lp4150
I3166
aS'297'
p4151
aS'373'
p4152
aasS'2GC6'
p4153
(lp4154
(lp4155
I1752
aS'44'
p4156
aS'271'
p4157
aa(lp4158
I3166
aS'297'
p4159
aS'373'
p4160
aasS'3NVY'
p4161
(lp4162
(lp4163
I3636
aS'233'
p4164
aS'411'
p4165
aa(lp4166
I4230
aS'87'
p4167
aS'160'
p4168
aa(lp4169
I4293
aS'9'
aS'77'
p4170
aa(lp4171
I5206
aS'710'
p4172
aS'1236'
p4173
aa(lp4174
I5615
aS'587'
p4175
aS'693'
p4176
aa(lp4177
I6492
aS'419'
p4178
aS'523'
p4179
aasS'3NVZ'
p4180
(lp4181
(lp4182
I3636
aS'233'
p4183
aS'411'
p4184
aa(lp4185
I4230
aS'87'
p4186
aS'160'
p4187
aa(lp4188
I4293
aS'9'
aS'77'
p4189
aa(lp4190
I5206
aS'710'
p4191
aS'1236'
p4192
aa(lp4193
I5615
aS'587'
p4194
aS'693'
p4195
aa(lp4196
I6492
aS'419'
p4197
aS'523'
p4198
aasS'3L74'
p4199
(lp4200
(lp4201
I21
aS'42'
p4202
aS'77'
p4203
aa(lp4204
I843
aS'11'
p4205
aS'105'
p4206
aa(lp4207
I900
aS'8'
aS'59'
p4208
aa(lp4209
I1683
aS'15'
p4210
aS'78'
p4211
aa(lp4212
I1969
aS'24'
p4213
aS'170'
p4214
aa(lp4215
I1969
aS'37'
p4216
aS'180'
p4217
aa(lp4218
I3100
aS'177'
p4219
aS'361'
p4220
aa(lp4221
I3100
aS'185'
p4222
aS'364'
p4223
aa(lp4224
I3587
aS'105'
p4225
aS'183'
p4226
aa(lp4227
I3751
aS'259'
p4228
aS'360'
p4229
aa(lp4230
I3927
aS'12'
p4231
aS'228'
p4232
aa(lp4233
I4306
aS'3'
aS'78'
p4234
aa(lp4235
I4405
aS'2'
aS'67'
p4236
aa(lp4237
I5309
aS'90'
p4238
aS'254'
p4239
aasS'3L75'
p4240
(lp4241
(lp4242
I21
aS'42'
p4243
aS'77'
p4244
aa(lp4245
I843
aS'11'
p4246
aS'105'
p4247
aa(lp4248
I900
aS'8'
aS'59'
p4249
aa(lp4250
I1683
aS'15'
p4251
aS'78'
p4252
aa(lp4253
I1969
aS'24'
p4254
aS'170'
p4255
aa(lp4256
I1969
aS'37'
p4257
aS'180'
p4258
aa(lp4259
I3100
aS'177'
p4260
aS'361'
p4261
aa(lp4262
I3100
aS'185'
p4263
aS'364'
p4264
aa(lp4265
I3587
aS'105'
p4266
aS'183'
p4267
aa(lp4268
I3751
aS'259'
p4269
aS'360'
p4270
aa(lp4271
I3927
aS'12'
p4272
aS'228'
p4273
aa(lp4274
I4306
aS'3'
aS'78'
p4275
aa(lp4276
I4405
aS'2'
aS'67'
p4277
aa(lp4278
I5309
aS'90'
p4279
aS'254'
p4280
aasS'3NVW'
p4281
(lp4282
(lp4283
I3636
aS'233'
p4284
aS'411'
p4285
aa(lp4286
I4230
aS'87'
p4287
aS'160'
p4288
aa(lp4289
I4293
aS'9'
aS'77'
p4290
aa(lp4291
I5206
aS'710'
p4292
aS'1236'
p4293
aa(lp4294
I5615
aS'587'
p4295
aS'693'
p4296
aa(lp4297
I6492
aS'419'
p4298
aS'523'
p4299
aasS'3NVV'
p4300
(lp4301
(lp4302
I3636
aS'233'
p4303
aS'411'
p4304
aa(lp4305
I4230
aS'87'
p4306
aS'160'
p4307
aa(lp4308
I4293
aS'9'
aS'77'
p4309
aa(lp4310
I5206
aS'710'
p4311
aS'1236'
p4312
aa(lp4313
I5615
aS'587'
p4314
aS'693'
p4315
aa(lp4316
I6492
aS'419'
p4317
aS'523'
p4318
aasS'3L70'
p4319
(lp4320
(lp4321
I21
aS'42'
p4322
aS'77'
p4323
aa(lp4324
I843
aS'11'
p4325
aS'105'
p4326
aa(lp4327
I900
aS'8'
aS'59'
p4328
aa(lp4329
I1683
aS'15'
p4330
aS'78'
p4331
aa(lp4332
I1969
aS'24'
p4333
aS'170'
p4334
aa(lp4335
I1969
aS'37'
p4336
aS'180'
p4337
aa(lp4338
I3100
aS'177'
p4339
aS'361'
p4340
aa(lp4341
I3100
aS'185'
p4342
aS'364'
p4343
aa(lp4344
I3587
aS'105'
p4345
aS'183'
p4346
aa(lp4347
I3751
aS'259'
p4348
aS'360'
p4349
aa(lp4350
I3927
aS'12'
p4351
aS'228'
p4352
aa(lp4353
I4306
aS'3'
aS'78'
p4354
aa(lp4355
I4405
aS'2'
aS'67'
p4356
aa(lp4357
I5309
aS'90'
p4358
aS'254'
p4359
aasS'3L71'
p4360
(lp4361
(lp4362
I21
aS'42'
p4363
aS'77'
p4364
aa(lp4365
I843
aS'11'
p4366
aS'105'
p4367
aa(lp4368
I900
aS'8'
aS'59'
p4369
aa(lp4370
I1683
aS'15'
p4371
aS'78'
p4372
aa(lp4373
I1969
aS'24'
p4374
aS'170'
p4375
aa(lp4376
I1969
aS'37'
p4377
aS'180'
p4378
aa(lp4379
I3100
aS'177'
p4380
aS'361'
p4381
aa(lp4382
I3100
aS'185'
p4383
aS'364'
p4384
aa(lp4385
I3587
aS'105'
p4386
aS'183'
p4387
aa(lp4388
I3751
aS'259'
p4389
aS'360'
p4390
aa(lp4391
I3927
aS'12'
p4392
aS'228'
p4393
aa(lp4394
I4306
aS'3'
aS'78'
p4395
aa(lp4396
I4405
aS'2'
aS'67'
p4397
aa(lp4398
I5309
aS'90'
p4399
aS'254'
p4400
aasS'3L72'
p4401
(lp4402
(lp4403
I21
aS'42'
p4404
aS'77'
p4405
aa(lp4406
I843
aS'11'
p4407
aS'105'
p4408
aa(lp4409
I900
aS'8'
aS'59'
p4410
aa(lp4411
I1683
aS'15'
p4412
aS'78'
p4413
aa(lp4414
I1969
aS'24'
p4415
aS'170'
p4416
aa(lp4417
I1969
aS'37'
p4418
aS'180'
p4419
aa(lp4420
I3100
aS'177'
p4421
aS'361'
p4422
aa(lp4423
I3100
aS'185'
p4424
aS'364'
p4425
aa(lp4426
I3587
aS'105'
p4427
aS'183'
p4428
aa(lp4429
I3751
aS'259'
p4430
aS'360'
p4431
aa(lp4432
I3927
aS'12'
p4433
aS'228'
p4434
aa(lp4435
I4306
aS'3'
aS'78'
p4436
aa(lp4437
I4405
aS'2'
aS'67'
p4438
aa(lp4439
I5309
aS'90'
p4440
aS'254'
p4441
aasS'1ZOW'
p4442
(lp4443
(lp4444
I4704
aS'107'
p4445
aS'184'
p4446
aa(lp4447
I6290
aS'223'
p4448
aS'311'
p4449
aasS'2FYN'
p4450
(lp4451
(lp4452
I3587
aS'117'
p4453
aS'174'
p4454
aa(lp4455
I3751
aS'282'
p4456
aS'401'
p4457
aa(lp4458
I3927
aS'11'
p4459
aS'254'
p4460
aa(lp4461
I4050
aS'9'
aS'41'
p4462
aa(lp4463
I5309
aS'103'
p4464
aS'275'
p4465
aasS'1AT1'
p4466
(lp4467
(lp4468
I1482
aS'102'
p4469
aS'149'
p4470
aa(lp4471
I1964
aS'7'
aS'147'
p4472
aa(lp4473
I2256
aS'154'
p4474
aS'302'
p4475
aa(lp4476
I5270
aS'8'
aS'96'
p4477
aasS'1N63'
p4478
(lp4479
(lp4480
I3636
aS'5'
aS'174'
p4481
aa(lp4482
I4230
aS'76'
p4483
aS'150'
p4484
aa(lp4485
I4293
aS'9'
aS'61'
p4486
aa(lp4487
I5206
aS'176'
p4488
aS'740'
p4489
aa(lp4490
I5615
aS'35'
p4491
aS'144'
p4492
aa(lp4493
I6492
aS'182'
p4494
aS'281'
p4495
aasS'2H3E'
p4496
(lp4497
(lp4498
I1482
aS'102'
p4499
aS'149'
p4500
aa(lp4501
I1964
aS'7'
aS'147'
p4502
aa(lp4503
I2256
aS'154'
p4504
aS'302'
p4505
aa(lp4506
I5270
aS'9'
aS'96'
p4507
aasS'2VRI'
p4508
(lp4509
(lp4510
I538
aS'29'
p4511
aS'132'
p4512
aasS'4FQU'
p4513
(lp4514
(lp4515
I1925
aS'52'
p4516
aS'147'
p4517
aa(lp4518
I6764
aS'193'
p4519
aS'261'
p4520
aasS'4V2P'
p4521
(lp4522
(lp4523
I4704
aS'117'
p4524
aS'195'
p4525
aa(lp4526
I6290
aS'252'
p4527
aS'334'
p4528
aasS'3IL3'
p4529
(lp4530
(lp4531
I4704
aS'106'
p4532
aS'181'
p4533
aa(lp4534
I6290
aS'229'
p4535
aS'315'
p4536
aasS'4PUA'
p4537
(lp4538
(lp4539
I2161
aS'43'
p4540
aS'125'
p4541
aa(lp4542
I6764
aS'175'
p4543
aS'243'
p4544
aasS'4ESS'
p4545
(lp4546
(lp4547
I538
aS'20'
p4548
aS'129'
p4549
aasS'3N2A'
p4550
(lp4551
(lp4552
I1752
aS'54'
p4553
aS'196'
p4554
aa(lp4555
I3166
aS'299'
p4556
aS'357'
p4557
aasS'2AHB'
p4558
(lp4559
(lp4560
I4704
aS'116'
p4561
aS'193'
p4562
aa(lp4563
I6290
aS'242'
p4564
aS'332'
p4565
aasS'1VDG'
p4566
(lp4567
(lp4568
I157
aS'101'
p4569
aS'176'
p4570
aa(lp4571
I158
aS'5'
aS'95'
p4572
aasS'2AHE'
p4573
(lp4574
(lp4575
I1924
aS'35'
p4576
aS'97'
p4577
aa(lp4578
I6764
aS'136'
p4579
aS'221'
p4580
aasS'3T5Y'
p4581
(lp4582
(lp4583
I4704
aS'112'
p4584
aS'190'
p4585
aa(lp4586
I4704
aS'112'
p4587
aS'190'
p4588
aa(lp4589
I6290
aS'248'
p4590
aS'338'
p4591
aa(lp4592
I6290
aS'248'
p4593
aS'338'
p4594
aasS'2DYP'
p4595
(lp4596
(lp4597
I157
aS'100'
p4598
aS'170'
p4599
aa(lp4600
I158
aS'5'
aS'90'
p4601
aa(lp4602
I1690
aS'197'
p4603
aS'270'
p4604
aa(lp4605
I1690
aS'12'
p4606
aS'91'
p4607
aa(lp4608
I3760
aS'2'
aS'179'
p4609
aasS'1U6E'
p4610
(lp4611
(lp4612
I4704
aS'106'
p4613
aS'183'
p4614
aa(lp4615
I6290
aS'228'
p4616
aS'317'
p4617
aasS'1VDV'
p4618
(lp4619
(lp4620
I3636
aS'233'
p4621
aS'411'
p4622
aa(lp4623
I4230
aS'87'
p4624
aS'160'
p4625
aa(lp4626
I4293
aS'9'
aS'76'
p4627
aa(lp4628
I5206
aS'710'
p4629
aS'1236'
p4630
aa(lp4631
I5615
aS'587'
p4632
aS'693'
p4633
aa(lp4634
I6492
aS'419'
p4635
aS'523'
p4636
aasS'2QGF'
p4637
(lp4638
(lp4639
I1482
aS'102'
p4640
aS'149'
p4641
aa(lp4642
I1964
aS'7'
aS'147'
p4643
aa(lp4644
I2256
aS'154'
p4645
aS'302'
p4646
aa(lp4647
I5270
aS'7'
aS'96'
p4648
aasS'2EEE'
p4649
(lp4650
(lp4651
I538
aS'32'
p4652
aS'131'
p4653
aasS'4U3F'
p4654
(lp4655
(lp4656
I21
aS'29'
p4657
aS'77'
p4658
aa(lp4659
I843
aS'11'
p4660
aS'105'
p4661
aa(lp4662
I900
aS'8'
aS'59'
p4663
aa(lp4664
I1683
aS'15'
p4665
aS'78'
p4666
aa(lp4667
I1969
aS'24'
p4668
aS'170'
p4669
aa(lp4670
I1969
aS'37'
p4671
aS'180'
p4672
aa(lp4673
I3100
aS'177'
p4674
aS'361'
p4675
aa(lp4676
I3100
aS'185'
p4677
aS'364'
p4678
aa(lp4679
I3587
aS'105'
p4680
aS'183'
p4681
aa(lp4682
I3751
aS'259'
p4683
aS'360'
p4684
aa(lp4685
I3927
aS'12'
p4686
aS'228'
p4687
aa(lp4688
I4306
aS'3'
aS'78'
p4689
aa(lp4690
I4405
aS'2'
aS'67'
p4691
aa(lp4692
I5309
aS'90'
p4693
aS'254'
p4694
aasS'1U6S'
p4695
(lp4696
(lp4697
I4704
aS'106'
p4698
aS'183'
p4699
aa(lp4700
I6290
aS'228'
p4701
aS'317'
p4702
aasS'2QG9'
p4703
(lp4704
(lp4705
I1482
aS'102'
p4706
aS'149'
p4707
aa(lp4708
I1964
aS'7'
aS'147'
p4709
aa(lp4710
I2256
aS'154'
p4711
aS'302'
p4712
aa(lp4713
I5270
aS'7'
aS'96'
p4714
aasS'3CWB'
p4715
(lp4716
(lp4717
I21
aS'42'
p4718
aS'77'
p4719
aa(lp4720
I843
aS'11'
p4721
aS'105'
p4722
aa(lp4723
I900
aS'8'
aS'59'
p4724
aa(lp4725
I1683
aS'15'
p4726
aS'78'
p4727
aa(lp4728
I1969
aS'24'
p4729
aS'170'
p4730
aa(lp4731
I1969
aS'37'
p4732
aS'180'
p4733
aa(lp4734
I3100
aS'177'
p4735
aS'361'
p4736
aa(lp4737
I3100
aS'185'
p4738
aS'364'
p4739
aa(lp4740
I3587
aS'105'
p4741
aS'183'
p4742
aa(lp4743
I3751
aS'259'
p4744
aS'360'
p4745
aa(lp4746
I3927
aS'12'
p4747
aS'228'
p4748
aa(lp4749
I4306
aS'3'
aS'78'
p4750
aa(lp4751
I4405
aS'2'
aS'67'
p4752
aa(lp4753
I5309
aS'90'
p4754
aS'254'
p4755
aasS'4ETK'
p4756
(lp4757
(lp4758
I538
aS'20'
p4759
aS'129'
p4760
aasS'4ETJ'
p4761
(lp4762
(lp4763
I538
aS'20'
p4764
aS'129'
p4765
aasS'2ZT9'
p4766
(lp4767
(lp4768
I2227
aS'1'
aS'36'
p4769
aa(lp4770
I2230
aS'3'
aS'31'
p4771
aa(lp4772
I2231
aS'1'
aS'30'
p4773
aa(lp4774
I2232
aS'1'
aS'29'
p4775
aa(lp4776
I2691
aS'9'
aS'46'
p4777
aa(lp4778
I3587
aS'88'
p4779
aS'157'
p4780
aa(lp4781
I3751
aS'65'
p4782
aS'151'
p4783
aa(lp4784
I4923
aS'1'
aS'156'
p4785
aa(lp4786
I4925
aS'168'
p4787
aS'289'
p4788
aa(lp4789
I5309
aS'92'
p4790
aS'212'
p4791
aasS'2HSE'
p4792
(lp4793
(lp4794
I1482
aS'102'
p4795
aS'149'
p4796
aa(lp4797
I1964
aS'7'
aS'147'
p4798
aa(lp4799
I2256
aS'154'
p4800
aS'302'
p4801
aa(lp4802
I5270
aS'8'
aS'96'
p4803
aasS'4YFD'
p4804
(lp4805
(lp4806
I157
aS'154'
p4807
aS'215'
p4808
aa(lp4809
I157
aS'242'
p4810
aS'336'
p4811
aa(lp4812
I4017
aS'332'
p4813
aS'412'
p4814
aa(lp4815
I4017
aS'426'
p4816
aS'511'
p4817
aa(lp4818
I5590
aS'31'
p4819
aS'122'
p4820
aa(lp4821
I5590
aS'134'
p4822
aS'223'
p4823
aa(lp4824
I5590
aS'243'
p4825
aS'326'
p4826
aasS'2AT1'
p4827
(lp4828
(lp4829
I1482
aS'102'
p4830
aS'149'
p4831
aa(lp4832
I1964
aS'7'
aS'147'
p4833
aa(lp4834
I2256
aS'154'
p4835
aS'302'
p4836
aa(lp4837
I5270
aS'8'
aS'96'
p4838
aasS'4QF5'
p4839
(lp4840
(lp4841
I1752
aS'120'
p4842
aS'303'
p4843
aa(lp4844
I3142
aS'36'
p4845
aS'104'
p4846
aa(lp4847
I3166
aS'325'
p4848
aS'403'
p4849
aasS'3LED'
p4850
(lp4851
(lp4852
I4704
aS'150'
p4853
aS'229'
p4854
aa(lp4855
I6290
aS'282'
p4856
aS'369'
p4857
aasS'1SKU'
p4858
(lp4859
(lp4860
I1482
aS'102'
p4861
aS'149'
p4862
aa(lp4863
I1964
aS'7'
aS'147'
p4864
aa(lp4865
I2256
aS'154'
p4866
aS'302'
p4867
aa(lp4868
I5270
aS'7'
aS'96'
p4869
aasS'3Q71'
p4870
(lp4871
(lp4872
I538
aS'1044'
p4873
aS'1146'
p4874
aa(lp4875
I538
aS'1044'
p4876
aS'1146'
p4877
aasS'4X9O'
p4878
(lp4879
(lp4880
I4704
aS'107'
p4881
aS'184'
p4882
aa(lp4883
I6290
aS'235'
p4884
aS'324'
p4885
aasS'4KU5'
p4886
(lp4887
(lp4888
I4704
aS'137'
p4889
aS'215'
p4890
aa(lp4891
I6290
aS'273'
p4892
aS'353'
p4893
aasS'4KU2'
p4894
(lp4895
(lp4896
I4704
aS'137'
p4897
aS'215'
p4898
aa(lp4899
I6290
aS'273'
p4900
aS'353'
p4901
aasS'2IZV'
p4902
(lp4903
(lp4904
I1107
aS'287'
p4905
aS'341'
p4906
aa(lp4907
I1442
aS'386'
p4908
aS'422'
p4909
aa(lp4910
I2656
aS'11'
p4911
aS'64'
p4912
aa(lp4913
I3329
aS'18'
p4914
aS'80'
p4915
aasS'4HWN'
p4916
(lp4917
(lp4918
I157
aS'189'
p4919
aS'259'
p4920
aasS'4YTY'
p4921
(lp4922
(lp4923
I3636
aS'232'
p4924
aS'410'
p4925
aa(lp4926
I4230
aS'87'
p4927
aS'159'
p4928
aa(lp4929
I4293
aS'9'
aS'77'
p4930
aa(lp4931
I5206
aS'710'
p4932
aS'1236'
p4933
aa(lp4934
I5615
aS'587'
p4935
aS'693'
p4936
aa(lp4937
I6492
aS'418'
p4938
aS'522'
p4939
aasS'4USS'
p4940
(lp4941
(lp4942
I1925
aS'48'
p4943
aS'155'
p4944
aa(lp4945
I6764
aS'203'
p4946
aS'270'
p4947
aasS'2W54'
p4948
(lp4949
(lp4950
I3636
aS'182'
p4951
aS'343'
p4952
aa(lp4953
I4230
aS'77'
p4954
aS'146'
p4955
aa(lp4956
I4293
aS'7'
aS'63'
p4957
aa(lp4958
I5206
aS'147'
p4959
aS'705'
p4960
aa(lp4961
I5615
aS'17'
p4962
aS'124'
p4963
aa(lp4964
I6492
aS'350'
p4965
aS'449'
p4966
aasS'2W55'
p4967
(lp4968
(lp4969
I3636
aS'182'
p4970
aS'343'
p4971
aa(lp4972
I4230
aS'77'
p4973
aS'146'
p4974
aa(lp4975
I4293
aS'7'
aS'63'
p4976
aa(lp4977
I5206
aS'147'
p4978
aS'705'
p4979
aa(lp4980
I5615
aS'17'
p4981
aS'124'
p4982
aa(lp4983
I6492
aS'350'
p4984
aS'449'
p4985
aasS'3EJJ'
p4986
(lp4987
(lp4988
I157
aS'28'
p4989
aS'85'
p4990
aa(lp4991
I4082
aS'210'
p4992
aS'292'
p4993
aa(lp4994
I7061
aS'5'
aS'148'
p4995
aasS'3EJF'
p4996
(lp4997
(lp4998
I538
aS'36'
p4999
aS'141'
p5000
aasS'3EJG'
p5001
(lp5002
(lp5003
I538
aS'32'
p5004
aS'136'
p5005
aasS'3NRZ'
p5006
(lp5007
(lp5008
I3636
aS'233'
p5009
aS'411'
p5010
aa(lp5011
I4230
aS'87'
p5012
aS'160'
p5013
aa(lp5014
I4293
aS'9'
aS'77'
p5015
aa(lp5016
I5206
aS'710'
p5017
aS'1236'
p5018
aa(lp5019
I5615
aS'587'
p5020
aS'693'
p5021
aa(lp5022
I6492
aS'419'
p5023
aS'523'
p5024
aasS'4USA'
p5025
(lp5026
(lp5027
I4230
aS'75'
p5028
aS'149'
p5029
aa(lp5030
I4293
aS'6'
aS'64'
p5031
aa(lp5032
I5206
aS'329'
p5033
aS'833'
p5034
aa(lp5035
I5615
aS'191'
p5036
aS'308'
p5037
aasS'4D86'
p5038
(lp5039
(lp5040
I538
aS'820'
p5041
aS'936'
p5042
aa(lp5043
I538
aS'1044'
p5044
aS'1146'
p5045
aasS'4QDI'
p5046
(lp5047
(lp5048
I1752
aS'120'
p5049
aS'303'
p5050
aa(lp5051
I3142
aS'36'
p5052
aS'104'
p5053
aa(lp5054
I3166
aS'325'
p5055
aS'403'
p5056
aasS'1OYJ'
p5057
(lp5058
(lp5059
I1924
aS'9'
aS'84'
p5060
aa(lp5061
I6764
aS'133'
p5062
aS'200'
p5063
aasS'3H1J'
p5064
(lp5065
(lp5066
I21
aS'42'
p5067
aS'77'
p5068
aa(lp5069
I843
aS'11'
p5070
aS'105'
p5071
aa(lp5072
I900
aS'8'
aS'59'
p5073
aa(lp5074
I1683
aS'15'
p5075
aS'78'
p5076
aa(lp5077
I1969
aS'24'
p5078
aS'170'
p5079
aa(lp5080
I1969
aS'37'
p5081
aS'180'
p5082
aa(lp5083
I3100
aS'177'
p5084
aS'361'
p5085
aa(lp5086
I3100
aS'185'
p5087
aS'364'
p5088
aa(lp5089
I3587
aS'105'
p5090
aS'183'
p5091
aa(lp5092
I3751
aS'259'
p5093
aS'360'
p5094
aa(lp5095
I3927
aS'12'
p5096
aS'228'
p5097
aa(lp5098
I4306
aS'3'
aS'78'
p5099
aa(lp5100
I4405
aS'2'
aS'67'
p5101
aa(lp5102
I5309
aS'90'
p5103
aS'254'
p5104
aasS'2DX6'
p5105
(lp5106
(lp5107
I538
aS'20'
p5108
aS'129'
p5109
aasS'2VOS'
p5110
(lp5111
(lp5112
I1752
aS'71'
p5113
aS'310'
p5114
aa(lp5115
I3166
aS'338'
p5116
aS'415'
p5117
aasS'2VOR'
p5118
(lp5119
(lp5120
I1752
aS'71'
p5121
aS'310'
p5122
aa(lp5123
I3166
aS'338'
p5124
aS'415'
p5125
aasS'2YWW'
p5126
(lp5127
(lp5128
I1482
aS'101'
p5129
aS'145'
p5130
aa(lp5131
I5270
aS'8'
aS'95'
p5132
aasS'6AT1'
p5133
(lp5134
(lp5135
I1482
aS'102'
p5136
aS'149'
p5137
aa(lp5138
I1964
aS'7'
aS'147'
p5139
aa(lp5140
I2256
aS'154'
p5141
aS'302'
p5142
aa(lp5143
I5270
aS'8'
aS'96'
p5144
aasS'4GUA'
p5145
(lp5146
(lp5147
I538
aS'1367'
p5148
aS'1466'
p5149
aa(lp5150
I6299
aS'1012'
p5151
aS'1179'
p5152
aasS'4UML'
p5153
(lp5154
(lp5155
I538
aS'72'
p5156
aS'185'
p5157
aasS'2ACF'
p5158
(lp5159
(lp5160
I538
aS'218'
p5161
aS'324'
p5162
aasS'3SWL'
p5163
(lp5164
(lp5165
I1924
aS'24'
p5166
aS'86'
p5167
aa(lp5168
I6764
aS'124'
p5169
aS'210'
p5170
aasS'4Z19'
p5171
(lp5172
(lp5173
I4704
aS'106'
p5174
aS'183'
p5175
aa(lp5176
I6290
aS'227'
p5177
aS'315'
p5178
aasS'1ACM'
p5179
(lp5180
(lp5181
I1482
aS'102'
p5182
aS'149'
p5183
aa(lp5184
I1482
aS'102'
p5185
aS'149'
p5186
aa(lp5187
I1964
aS'7'
aS'147'
p5188
aa(lp5189
I1964
aS'7'
aS'147'
p5190
aa(lp5191
I2256
aS'154'
p5192
aS'302'
p5193
aa(lp5194
I2256
aS'154'
p5195
aS'302'
p5196
aa(lp5197
I5270
aS'8'
aS'96'
p5198
aa(lp5199
I5270
aS'8'
aS'96'
p5200
aasS'3PYZ'
p5201
(lp5202
(lp5203
I1752
aS'54'
p5204
aS'196'
p5205
aa(lp5206
I3166
aS'299'
p5207
aS'357'
p5208
aasS'2VO4'
p5209
(lp5210
(lp5211
I2161
aS'6'
aS'75'
p5212
aa(lp5213
I6764
aS'120'
p5214
aS'188'
p5215
aasS'1R0C'
p5216
(lp5217
(lp5218
I1482
aS'102'
p5219
aS'149'
p5220
aa(lp5221
I1964
aS'7'
aS'147'
p5222
aa(lp5223
I2256
aS'154'
p5224
aS'302'
p5225
aa(lp5226
I5270
aS'7'
aS'96'
p5227
aasS'1R0B'
p5228
(lp5229
(lp5230
I1482
aS'102'
p5231
aS'149'
p5232
aa(lp5233
I1964
aS'7'
aS'147'
p5234
aa(lp5235
I2256
aS'154'
p5236
aS'302'
p5237
aa(lp5238
I5270
aS'7'
aS'96'
p5239
aasS'4OFY'
p5240
(lp5241
(lp5242
I157
aS'28'
p5243
aS'106'
p5244
aa(lp5245
I157
aS'344'
p5246
aS'414'
p5247
aa(lp5248
I158
aS'242'
p5249
aS'320'
p5250
aa(lp5251
I725
aS'150'
p5252
aS'253'
p5253
aa(lp5254
I725
aS'140'
p5255
aS'213'
p5256
aa(lp5257
I5590
aS'24'
p5258
aS'124'
p5259
aasS'4US8'
p5260
(lp5261
(lp5262
I4230
aS'75'
p5263
aS'149'
p5264
aa(lp5265
I4293
aS'6'
aS'64'
p5266
aa(lp5267
I5206
aS'329'
p5268
aS'833'
p5269
aa(lp5270
I5615
aS'191'
p5271
aS'308'
p5272
aasS'4US9'
p5273
(lp5274
(lp5275
I4230
aS'75'
p5276
aS'149'
p5277
aa(lp5278
I4293
aS'6'
aS'64'
p5279
aa(lp5280
I5206
aS'329'
p5281
aS'833'
p5282
aa(lp5283
I5615
aS'191'
p5284
aS'308'
p5285
aasS'2XPC'
p5286
(lp5287
(lp5288
I1752
aS'109'
p5289
aS'279'
p5290
aa(lp5291
I3166
aS'300'
p5292
aS'372'
p5293
aasS'3UNI'
p5294
(lp5295
(lp5296
I3636
aS'233'
p5297
aS'411'
p5298
aa(lp5299
I4230
aS'87'
p5300
aS'160'
p5301
aa(lp5302
I4293
aS'9'
aS'76'
p5303
aa(lp5304
I5206
aS'710'
p5305
aS'1236'
p5306
aa(lp5307
I5615
aS'587'
p5308
aS'693'
p5309
aa(lp5310
I6492
aS'419'
p5311
aS'523'
p5312
aasS'4PGZ'
p5313
(lp5314
(lp5315
I157
aS'425'
p5316
aS'495'
p5317
aasS'1G0X'
p5318
(lp5319
(lp5320
I157
aS'101'
p5321
aS'176'
p5322
aa(lp5323
I158
aS'5'
aS'95'
p5324
aasS'1G0Y'
p5325
(lp5326
(lp5327
I157
aS'208'
p5328
aS'299'
p5329
aa(lp5330
I158
aS'114'
p5331
aS'195'
p5332
aa(lp5333
I5590
aS'37'
p5334
aS'85'
p5335
aasS'3UNA'
p5336
(lp5337
(lp5338
I3636
aS'233'
p5339
aS'411'
p5340
aa(lp5341
I4230
aS'87'
p5342
aS'160'
p5343
aa(lp5344
I4293
aS'9'
aS'76'
p5345
aa(lp5346
I5206
aS'710'
p5347
aS'1236'
p5348
aa(lp5349
I5615
aS'587'
p5350
aS'693'
p5351
aa(lp5352
I6492
aS'419'
p5353
aS'523'
p5354
aasS'4J4Z'
p5355
(lp5356
(lp5357
I538
aS'20'
p5358
aS'129'
p5359
aasS'1JRO'
p5360
(lp5361
(lp5362
I3636
aS'182'
p5363
aS'343'
p5364
aa(lp5365
I4230
aS'77'
p5366
aS'146'
p5367
aa(lp5368
I4293
aS'7'
aS'63'
p5369
aa(lp5370
I5206
aS'147'
p5371
aS'705'
p5372
aa(lp5373
I5615
aS'17'
p5374
aS'124'
p5375
aa(lp5376
I6492
aS'350'
p5377
aS'449'
p5378
aasS'1ZXI'
p5379
(lp5380
(lp5381
I3636
aS'5'
aS'174'
p5382
aa(lp5383
I4230
aS'76'
p5384
aS'150'
p5385
aa(lp5386
I4293
aS'9'
aS'61'
p5387
aa(lp5388
I5206
aS'176'
p5389
aS'740'
p5390
aa(lp5391
I5615
aS'35'
p5392
aS'144'
p5393
aa(lp5394
I6492
aS'182'
p5395
aS'281'
p5396
aasS'3CXH'
p5397
(lp5398
(lp5399
I843
aS'20'
p5400
aS'117'
p5401
aa(lp5402
I900
aS'5'
aS'55'
p5403
aa(lp5404
I1683
aS'76'
p5405
aS'147'
p5406
aa(lp5407
I1969
aS'37'
p5408
aS'181'
p5409
aa(lp5410
I1969
aS'19'
p5411
aS'161'
p5412
aa(lp5413
I2388
aS'11'
p5414
aS'120'
p5415
aa(lp5416
I2388
aS'6'
aS'106'
p5417
aa(lp5418
I3100
aS'188'
p5419
aS'369'
p5420
aa(lp5421
I3587
aS'125'
p5422
aS'204'
p5423
aa(lp5424
I3751
aS'259'
p5425
aS'360'
p5426
aa(lp5427
I3927
aS'76'
p5428
aS'294'
p5429
aa(lp5430
I4306
aS'12'
p5431
aS'88'
p5432
aa(lp5433
I4405
aS'32'
p5434
aS'87'
p5435
aa(lp5436
I5098
aS'12'
p5437
aS'108'
p5438
aa(lp5439
I5309
aS'88'
p5440
aS'254'
p5441
aasS'3S3L'
p5442
(lp5443
(lp5444
I4704
aS'112'
p5445
aS'190'
p5446
aa(lp5447
I6290
aS'248'
p5448
aS'338'
p5449
aasS'1XJW'
p5450
(lp5451
(lp5452
I1482
aS'102'
p5453
aS'149'
p5454
aa(lp5455
I1964
aS'7'
aS'147'
p5456
aa(lp5457
I2256
aS'154'
p5458
aS'302'
p5459
aa(lp5460
I5270
aS'7'
aS'96'
p5461
aasS'4PQH'
p5462
(lp5463
(lp5464
I1924
aS'30'
p5465
aS'106'
p5466
aa(lp5467
I6764
aS'142'
p5468
aS'206'
p5469
aasS'1EZZ'
p5470
(lp5471
(lp5472
I1482
aS'102'
p5473
aS'149'
p5474
aa(lp5475
I1964
aS'7'
aS'147'
p5476
aa(lp5477
I2256
aS'154'
p5478
aS'302'
p5479
aa(lp5480
I5270
aS'7'
aS'96'
p5481
aasS'1EZV'
p5482
(lp5483
(lp5484
I843
aS'20'
p5485
aS'117'
p5486
aa(lp5487
I900
aS'5'
aS'55'
p5488
aa(lp5489
I1683
aS'76'
p5490
aS'147'
p5491
aa(lp5492
I1969
aS'37'
p5493
aS'180'
p5494
aa(lp5495
I1969
aS'19'
p5496
aS'161'
p5497
aa(lp5498
I2388
aS'11'
p5499
aS'120'
p5500
aa(lp5501
I2388
aS'6'
aS'106'
p5502
aa(lp5503
I3100
aS'187'
p5504
aS'368'
p5505
aa(lp5506
I3587
aS'125'
p5507
aS'204'
p5508
aa(lp5509
I3751
aS'259'
p5510
aS'360'
p5511
aa(lp5512
I3927
aS'76'
p5513
aS'294'
p5514
aa(lp5515
I4306
aS'12'
p5516
aS'88'
p5517
aa(lp5518
I4405
aS'32'
p5519
aS'87'
p5520
aa(lp5521
I5309
aS'88'
p5522
aS'254'
p5523
aasS'1JRP'
p5524
(lp5525
(lp5526
I3636
aS'182'
p5527
aS'343'
p5528
aa(lp5529
I4230
aS'77'
p5530
aS'146'
p5531
aa(lp5532
I4293
aS'7'
aS'63'
p5533
aa(lp5534
I5206
aS'147'
p5535
aS'705'
p5536
aa(lp5537
I5615
aS'17'
p5538
aS'124'
p5539
aa(lp5540
I6492
aS'350'
p5541
aS'449'
p5542
aasS'3V2B'
p5543
(lp5544
(lp5545
I538
aS'300'
p5546
aS'394'
p5547
aasS'4MZW'
p5548
(lp5549
(lp5550
I2161
aS'56'
p5551
aS'124'
p5552
aa(lp5553
I6764
aS'174'
p5554
aS'242'
p5555
aasS'3TOU'
p5556
(lp5557
(lp5558
I1924
aS'5'
aS'77'
p5559
aa(lp5560
I6764
aS'125'
p5561
aS'191'
p5562
aasS'3P2T'
p5563
(lp5564
(lp5565
I157
aS'100'
p5566
aS'175'
p5567
aa(lp5568
I158
aS'5'
aS'92'
p5569
aasS'2ATC'
p5570
(lp5571
(lp5572
I1482
aS'105'
p5573
aS'148'
p5574
aa(lp5575
I1964
aS'8'
aS'147'
p5576
aa(lp5577
I2256
aS'154'
p5578
aS'297'
p5579
aa(lp5580
I5270
aS'7'
aS'96'
p5581
aasS'3B9J'
p5582
(lp5583
(lp5584
I3636
aS'233'
p5585
aS'411'
p5586
aa(lp5587
I4230
aS'87'
p5588
aS'160'
p5589
aa(lp5590
I4293
aS'9'
aS'76'
p5591
aa(lp5592
I5206
aS'710'
p5593
aS'1236'
p5594
aa(lp5595
I5615
aS'587'
p5596
aS'693'
p5597
aa(lp5598
I6492
aS'419'
p5599
aS'523'
p5600
aasS'2R4V'
p5601
(lp5602
(lp5603
I1924
aS'30'
p5604
aS'97'
p5605
aa(lp5606
I6764
aS'137'
p5607
aS'216'
p5608
aasS'1RAB'
p5609
(lp5610
(lp5611
I1482
aS'102'
p5612
aS'149'
p5613
aa(lp5614
I1964
aS'7'
aS'147'
p5615
aa(lp5616
I2256
aS'154'
p5617
aS'302'
p5618
aa(lp5619
I5270
aS'7'
aS'96'
p5620
aasS'1RAC'
p5621
(lp5622
(lp5623
I1482
aS'102'
p5624
aS'149'
p5625
aa(lp5626
I1964
aS'7'
aS'147'
p5627
aa(lp5628
I2256
aS'154'
p5629
aS'302'
p5630
aa(lp5631
I5270
aS'7'
aS'96'
p5632
aasS'1RAA'
p5633
(lp5634
(lp5635
I1482
aS'102'
p5636
aS'149'
p5637
aa(lp5638
I1964
aS'7'
aS'147'
p5639
aa(lp5640
I2256
aS'154'
p5641
aS'302'
p5642
aa(lp5643
I5270
aS'7'
aS'96'
p5644
aasS'1RAF'
p5645
(lp5646
(lp5647
I1482
aS'102'
p5648
aS'149'
p5649
aa(lp5650
I1964
aS'7'
aS'147'
p5651
aa(lp5652
I2256
aS'154'
p5653
aS'302'
p5654
aa(lp5655
I5270
aS'7'
aS'96'
p5656
aasS'1RAG'
p5657
(lp5658
(lp5659
I1482
aS'102'
p5660
aS'149'
p5661
aa(lp5662
I1964
aS'7'
aS'147'
p5663
aa(lp5664
I2256
aS'154'
p5665
aS'302'
p5666
aa(lp5667
I5270
aS'7'
aS'96'
p5668
aasS'4I7Z'
p5669
(lp5670
(lp5671
I2227
aS'3'
aS'36'
p5672
aa(lp5673
I2230
aS'3'
aS'31'
p5674
aa(lp5675
I2232
aS'2'
aS'29'
p5676
aa(lp5677
I2691
aS'9'
aS'46'
p5678
aa(lp5679
I3751
aS'65'
p5680
aS'151'
p5681
aa(lp5682
I4923
aS'1'
aS'156'
p5683
aa(lp5684
I4925
aS'168'
p5685
aS'288'
p5686
aa(lp5687
I5309
aS'92'
p5688
aS'212'
p5689
aasS'4GLT'
p5690
(lp5691
(lp5692
I1924
aS'3'
aS'75'
p5693
aa(lp5694
I6764
aS'121'
p5695
aS'188'
p5696
aasS'1RAH'
p5697
(lp5698
(lp5699
I1482
aS'102'
p5700
aS'149'
p5701
aa(lp5702
I1964
aS'7'
aS'147'
p5703
aa(lp5704
I2256
aS'154'
p5705
aS'302'
p5706
aa(lp5707
I5270
aS'7'
aS'96'
p5708
aasS'3GPQ'
p5709
(lp5710
(lp5711
I538
aS'20'
p5712
aS'119'
p5713
aasS'1MZJ'
p5714
(lp5715
(lp5716
I4704
aS'115'
p5717
aS'183'
p5718
aa(lp5719
I6290
aS'241'
p5720
aS'329'
p5721
aasS'4KGV'
p5722
(lp5723
(lp5724
I1482
aS'102'
p5725
aS'149'
p5726
aa(lp5727
I1964
aS'7'
aS'147'
p5728
aa(lp5729
I2256
aS'154'
p5730
aS'302'
p5731
aa(lp5732
I5270
aS'9'
aS'96'
p5733
aasS'3GPO'
p5734
(lp5735
(lp5736
I538
aS'20'
p5737
aS'119'
p5738
aasS'1MZS'
p5739
(lp5740
(lp5741
I4704
aS'106'
p5742
aS'183'
p5743
aa(lp5744
I6290
aS'228'
p5745
aS'316'
p5746
aasS'4KGZ'
p5747
(lp5748
(lp5749
I1482
aS'102'
p5750
aS'149'
p5751
aa(lp5752
I1964
aS'7'
aS'147'
p5753
aa(lp5754
I2256
aS'154'
p5755
aS'302'
p5756
aa(lp5757
I5270
aS'10'
p5758
aS'96'
p5759
aasS'4KGX'
p5760
(lp5761
(lp5762
I1482
aS'102'
p5763
aS'149'
p5764
aa(lp5765
I1964
aS'7'
aS'147'
p5766
aa(lp5767
I2256
aS'154'
p5768
aS'302'
p5769
aa(lp5770
I5270
aS'9'
aS'96'
p5771
aasS'3GPG'
p5772
(lp5773
(lp5774
I538
aS'20'
p5775
aS'119'
p5776
aasS'3AT1'
p5777
(lp5778
(lp5779
I1482
aS'102'
p5780
aS'149'
p5781
aa(lp5782
I1964
aS'7'
aS'147'
p5783
aa(lp5784
I2256
aS'154'
p5785
aS'302'
p5786
aa(lp5787
I5270
aS'8'
aS'96'
p5788
aasS'4O7H'
p5789
(lp5790
(lp5791
I1924
aS'4'
aS'78'
p5792
aa(lp5793
I6764
aS'133'
p5794
aS'192'
p5795
aasS'3CX5'
p5796
(lp5797
(lp5798
I843
aS'20'
p5799
aS'117'
p5800
aa(lp5801
I900
aS'5'
aS'55'
p5802
aa(lp5803
I1683
aS'76'
p5804
aS'147'
p5805
aa(lp5806
I1969
aS'37'
p5807
aS'181'
p5808
aa(lp5809
I1969
aS'19'
p5810
aS'161'
p5811
aa(lp5812
I2388
aS'11'
p5813
aS'120'
p5814
aa(lp5815
I2388
aS'6'
aS'106'
p5816
aa(lp5817
I3100
aS'188'
p5818
aS'369'
p5819
aa(lp5820
I3587
aS'125'
p5821
aS'204'
p5822
aa(lp5823
I3751
aS'259'
p5824
aS'360'
p5825
aa(lp5826
I3927
aS'76'
p5827
aS'294'
p5828
aa(lp5829
I4306
aS'12'
p5830
aS'88'
p5831
aa(lp5832
I4405
aS'32'
p5833
aS'87'
p5834
aa(lp5835
I5098
aS'8'
aS'105'
p5836
aa(lp5837
I5309
aS'88'
p5838
aS'254'
p5839
aasS'2BFR'
p5840
(lp5841
(lp5842
I538
aS'30'
p5843
aS'155'
p5844
aasS'2BFQ'
p5845
(lp5846
(lp5847
I538
aS'30'
p5848
aS'155'
p5849
aasS'1P6F'
p5850
(lp5851
(lp5852
I157
aS'103'
p5853
aS'172'
p5854
aa(lp5855
I158
aS'7'
aS'96'
p5856
aasS'1OLL'
p5857
(lp5858
(lp5859
I157
aS'100'
p5860
aS'169'
p5861
aa(lp5862
I158
aS'4'
aS'93'
p5863
aasS'2FAV'
p5864
(lp5865
(lp5866
I538
aS'37'
p5867
aS'143'
p5868
aasS'2AFC'
p5869
(lp5870
(lp5871
I538
aS'23'
p5872
aS'138'
p5873
aasS'3P90'
p5874
(lp5875
(lp5876
I1924
aS'24'
p5877
aS'86'
p5878
aa(lp5879
I6764
aS'124'
p5880
aS'210'
p5881
aasS'1PG5'
p5882
(lp5883
(lp5884
I1482
aS'107'
p5885
aS'154'
p5886
aa(lp5887
I1964
aS'2'
aS'141'
p5888
aa(lp5889
I2256
aS'149'
p5890
aS'294'
p5891
aa(lp5892
I5270
aS'11'
p5893
aS'101'
p5894
aasS'1P84'
p5895
(lp5896
(lp5897
I843
aS'20'
p5898
aS'117'
p5899
aa(lp5900
I900
aS'5'
aS'55'
p5901
aa(lp5902
I1683
aS'76'
p5903
aS'147'
p5904
aa(lp5905
I1969
aS'37'
p5906
aS'181'
p5907
aa(lp5908
I1969
aS'19'
p5909
aS'161'
p5910
aa(lp5911
I2388
aS'11'
p5912
aS'120'
p5913
aa(lp5914
I2388
aS'6'
aS'106'
p5915
aa(lp5916
I3100
aS'188'
p5917
aS'369'
p5918
aa(lp5919
I3587
aS'125'
p5920
aS'204'
p5921
aa(lp5922
I3751
aS'259'
p5923
aS'360'
p5924
aa(lp5925
I3927
aS'76'
p5926
aS'294'
p5927
aa(lp5928
I4306
aS'12'
p5929
aS'88'
p5930
aa(lp5931
I4405
aS'32'
p5932
aS'87'
p5933
aa(lp5934
I5309
aS'88'
p5935
aS'254'
p5936
aasS'1J6U'
p5937
(lp5938
(lp5939
I1752
aS'107'
p5940
aS'276'
p5941
aa(lp5942
I3142
aS'2'
aS'96'
p5943
aa(lp5944
I3166
aS'310'
p5945
aS'377'
p5946
aasS'4CHS'
p5947
(lp5948
(lp5949
I2161
aS'6'
aS'75'
p5950
aa(lp5951
I6764
aS'120'
p5952
aS'188'
p5953
aasS'3KJY'
p5954
(lp5955
(lp5956
I1924
aS'21'
p5957
aS'88'
p5958
aa(lp5959
I6764
aS'126'
p5960
aS'207'
p5961
aasS'4KU3'
p5962
(lp5963
(lp5964
I4704
aS'137'
p5965
aS'215'
p5966
aa(lp5967
I6290
aS'273'
p5968
aS'353'
p5969
aasS'4JZQ'
p5970
(lp5971
(lp5972
I1924
aS'25'
p5973
aS'86'
p5974
aa(lp5975
I6764
aS'124'
p5976
aS'210'
p5977
aasS'2FZK'
p5978
(lp5979
(lp5980
I1482
aS'102'
p5981
aS'149'
p5982
aa(lp5983
I1964
aS'7'
aS'147'
p5984
aa(lp5985
I2256
aS'154'
p5986
aS'302'
p5987
aa(lp5988
I5270
aS'7'
aS'96'
p5989
aasS'2FZC'
p5990
(lp5991
(lp5992
I1482
aS'102'
p5993
aS'149'
p5994
aa(lp5995
I1964
aS'7'
aS'147'
p5996
aa(lp5997
I2256
aS'154'
p5998
aS'302'
p5999
aa(lp6000
I5270
aS'7'
aS'96'
p6001
aasS'2FZG'
p6002
(lp6003
(lp6004
I1482
aS'102'
p6005
aS'149'
p6006
aa(lp6007
I1964
aS'7'
aS'147'
p6008
aa(lp6009
I2256
aS'154'
p6010
aS'302'
p6011
aa(lp6012
I5270
aS'7'
aS'96'
p6013
aasS'4JCA'
p6014
(lp6015
(lp6016
I538
aS'20'
p6017
aS'129'
p6018
aasS'4UAG'
p6019
(lp6020
(lp6021
I1752
aS'109'
p6022
aS'279'
p6023
aa(lp6024
I3166
aS'300'
p6025
aS'372'
p6026
aasS'4PD4'
p6027
(lp6028
(lp6029
I843
aS'20'
p6030
aS'117'
p6031
aa(lp6032
I900
aS'5'
aS'55'
p6033
aa(lp6034
I1683
aS'76'
p6035
aS'147'
p6036
aa(lp6037
I1969
aS'37'
p6038
aS'181'
p6039
aa(lp6040
I1969
aS'19'
p6041
aS'161'
p6042
aa(lp6043
I2388
aS'11'
p6044
aS'120'
p6045
aa(lp6046
I2388
aS'6'
aS'106'
p6047
aa(lp6048
I3100
aS'188'
p6049
aS'369'
p6050
aa(lp6051
I3587
aS'125'
p6052
aS'204'
p6053
aa(lp6054
I3751
aS'259'
p6055
aS'360'
p6056
aa(lp6057
I3927
aS'76'
p6058
aS'294'
p6059
aa(lp6060
I4306
aS'12'
p6061
aS'88'
p6062
aa(lp6063
I4405
aS'32'
p6064
aS'87'
p6065
aa(lp6066
I5309
aS'88'
p6067
aS'254'
p6068
aasS'4KH1'
p6069
(lp6070
(lp6071
I1482
aS'102'
p6072
aS'149'
p6073
aa(lp6074
I1964
aS'7'
aS'147'
p6075
aa(lp6076
I2256
aS'154'
p6077
aS'302'
p6078
aa(lp6079
I5270
aS'7'
aS'96'
p6080
aasS'4KH0'
p6081
(lp6082
(lp6083
I1482
aS'102'
p6084
aS'149'
p6085
aa(lp6086
I1964
aS'7'
aS'147'
p6087
aa(lp6088
I2256
aS'154'
p6089
aS'302'
p6090
aa(lp6091
I5270
aS'7'
aS'96'
p6092
aasS'4KH7'
p6093
(lp6094
(lp6095
I1924
aS'5'
aS'81'
p6096
aa(lp6097
I6764
aS'127'
p6098
aS'191'
p6099
aasS'4BSJ'
p6100
(lp6101
(lp6102
I157
aS'347'
p6103
aS'399'
p6104
aasS'3ROW'
p6105
(lp6106
(lp6107
I4704
aS'137'
p6108
aS'215'
p6109
aa(lp6110
I6290
aS'273'
p6111
aS'353'
p6112
aasS'4YTZ'
p6113
(lp6114
(lp6115
I3636
aS'232'
p6116
aS'410'
p6117
aa(lp6118
I4230
aS'87'
p6119
aS'159'
p6120
aa(lp6121
I4293
aS'9'
aS'77'
p6122
aa(lp6123
I5206
aS'710'
p6124
aS'1236'
p6125
aa(lp6126
I5615
aS'587'
p6127
aS'693'
p6128
aa(lp6129
I6492
aS'418'
p6130
aS'522'
p6131
aasS'4WZU'
p6132
(lp6133
(lp6134
I4704
aS'107'
p6135
aS'184'
p6136
aa(lp6137
I6290
aS'235'
p6138
aS'324'
p6139
aasS'1F97'
p6140
(lp6141
(lp6142
I157
aS'133'
p6143
aS'216'
p6144
aa(lp6145
I2388
aS'34'
p6146
aS'128'
p6147
aasS'4IBP'
p6148
(lp6149
(lp6150
I1924
aS'3'
aS'82'
p6151
aa(lp6152
I6764
aS'125'
p6153
aS'188'
p6154
aasS'4UHX'
p6155
(lp6156
(lp6157
I3636
aS'240'
p6158
aS'418'
p6159
aa(lp6160
I4230
aS'88'
p6161
aS'162'
p6162
aa(lp6163
I4293
aS'10'
p6164
aS'78'
p6165
aa(lp6166
I5206
aS'720'
p6167
aS'1245'
p6168
aa(lp6169
I5615
aS'594'
p6170
aS'700'
p6171
aa(lp6172
I6492
aS'426'
p6173
aS'530'
p6174
aasS'4UHW'
p6175
(lp6176
(lp6177
I3636
aS'240'
p6178
aS'418'
p6179
aa(lp6180
I4230
aS'88'
p6181
aS'162'
p6182
aa(lp6183
I4293
aS'10'
p6184
aS'78'
p6185
aa(lp6186
I5206
aS'720'
p6187
aS'1245'
p6188
aa(lp6189
I5615
aS'594'
p6190
aS'700'
p6191
aa(lp6192
I6492
aS'426'
p6193
aS'530'
p6194
aasS'3NRS'
p6195
(lp6196
(lp6197
I1752
aS'54'
p6198
aS'196'
p6199
aa(lp6200
I3166
aS'299'
p6201
aS'357'
p6202
aasS'3UJ2'
p6203
(lp6204
(lp6205
I6837
aS'143'
p6206
aS'424'
p6207
aa(lp6208
I6840
aS'6'
aS'136'
p6209
aasS'2D2C'
p6210
(lp6211
(lp6212
I2227
aS'4'
aS'30'
p6213
aa(lp6214
I2230
aS'4'
aS'32'
p6215
aa(lp6216
I2232
aS'1'
aS'27'
p6217
aa(lp6218
I2691
aS'12'
p6219
aS'46'
p6220
aa(lp6221
I3587
aS'91'
p6222
aS'149'
p6223
aa(lp6224
I3751
aS'65'
p6225
aS'153'
p6226
aa(lp6227
I4923
aS'1'
aS'156'
p6228
aa(lp6229
I4925
aS'168'
p6230
aS'286'
p6231
aa(lp6232
I5309
aS'92'
p6233
aS'212'
p6234
aasS'2D2Z'
p6235
(lp6236
(lp6237
I1924
aS'35'
p6238
aS'97'
p6239
aa(lp6240
I6764
aS'136'
p6241
aS'221'
p6242
aasS'4RYB'
p6243
(lp6244
(lp6245
I4704
aS'108'
p6246
aS'185'
p6247
aa(lp6248
I6290
aS'231'
p6249
aS'320'
p6250
aasS'2Y67'
p6251
(lp6252
(lp6253
I1752
aS'109'
p6254
aS'279'
p6255
aa(lp6256
I3166
aS'300'
p6257
aS'372'
p6258
aasS'3C8E'
p6259
(lp6260
(lp6261
I2161
aS'65'
p6262
aS'127'
p6263
aa(lp6264
I6764
aS'175'
p6265
aS'244'
p6266
aasS'4KC3'
p6267
(lp6268
(lp6269
I157
aS'212'
p6270
aS'307'
p6271
aa(lp6272
I4793
aS'117'
p6273
aS'268'
p6274
aa(lp6275
I5590
aS'29'
p6276
aS'103'
p6277
aasS'2X47'
p6278
(lp6279
(lp6280
I538
aS'170'
p6281
aS'282'
p6282
aasS'2W3S'
p6283
(lp6284
(lp6285
I3636
aS'182'
p6286
aS'343'
p6287
aa(lp6288
I4230
aS'77'
p6289
aS'146'
p6290
aa(lp6291
I4293
aS'7'
aS'63'
p6292
aa(lp6293
I5206
aS'147'
p6294
aS'705'
p6295
aa(lp6296
I5615
aS'17'
p6297
aS'124'
p6298
aa(lp6299
I6492
aS'350'
p6300
aS'449'
p6301
aasS'2Y68'
p6302
(lp6303
(lp6304
I1752
aS'109'
p6305
aS'279'
p6306
aa(lp6307
I3166
aS'300'
p6308
aS'372'
p6309
aasS'7AT1'
p6310
(lp6311
(lp6312
I1482
aS'102'
p6313
aS'149'
p6314
aa(lp6315
I1964
aS'7'
aS'147'
p6316
aa(lp6317
I2256
aS'154'
p6318
aS'302'
p6319
aa(lp6320
I5270
aS'8'
aS'96'
p6321
aasS'1M1M'
p6322
(lp6323
(lp6324
I4704
aS'117'
p6325
aS'194'
p6326
aa(lp6327
I6290
aS'243'
p6328
aS'333'
p6329
aasS'1Q90'
p6330
(lp6331
(lp6332
I2227
aS'1'
aS'30'
p6333
aa(lp6334
I2227
aS'1'
aS'30'
p6335
aa(lp6336
I2230
aS'64'
p6337
aS'91'
p6338
aa(lp6339
I2230
aS'64'
p6340
aS'91'
p6341
aa(lp6342
I2231
aS'1'
aS'32'
p6343
aa(lp6344
I2231
aS'1'
aS'32'
p6345
aa(lp6346
I2232
aS'72'
p6347
aS'98'
p6348
aa(lp6349
I2232
aS'72'
p6350
aS'98'
p6351
aa(lp6352
I2691
aS'34'
p6353
aS'71'
p6354
aa(lp6355
I2691
aS'34'
p6356
aS'71'
p6357
aa(lp6358
I3587
aS'118'
p6359
aS'175'
p6360
aa(lp6361
I3587
aS'118'
p6362
aS'175'
p6363
aa(lp6364
I3751
aS'65'
p6365
aS'147'
p6366
aa(lp6367
I3751
aS'65'
p6368
aS'147'
p6369
aa(lp6370
I4923
aS'1'
aS'155'
p6371
aa(lp6372
I4923
aS'1'
aS'155'
p6373
aa(lp6374
I4925
aS'167'
p6375
aS'286'
p6376
aa(lp6377
I4925
aS'167'
p6378
aS'286'
p6379
aa(lp6380
I5309
aS'92'
p6381
aS'212'
p6382
aa(lp6383
I5309
aS'92'
p6384
aS'212'
p6385
aasS'1Q95'
p6386
(lp6387
(lp6388
I1482
aS'102'
p6389
aS'149'
p6390
aa(lp6391
I1964
aS'7'
aS'147'
p6392
aa(lp6393
I2256
aS'154'
p6394
aS'302'
p6395
aa(lp6396
I5270
aS'7'
aS'96'
p6397
aasS'2E1Q'
p6398
(lp6399
(lp6400
I3636
aS'233'
p6401
aS'411'
p6402
aa(lp6403
I4230
aS'87'
p6404
aS'160'
p6405
aa(lp6406
I4293
aS'9'
aS'77'
p6407
aa(lp6408
I5206
aS'712'
p6409
aS'1237'
p6410
aa(lp6411
I5615
aS'588'
p6412
aS'694'
p6413
aa(lp6414
I6492
aS'419'
p6415
aS'523'
p6416
aasS'1V97'
p6417
(lp6418
(lp6419
I3636
aS'233'
p6420
aS'411'
p6421
aa(lp6422
I4230
aS'87'
p6423
aS'160'
p6424
aa(lp6425
I4293
aS'9'
aS'76'
p6426
aa(lp6427
I5206
aS'710'
p6428
aS'1236'
p6429
aa(lp6430
I5615
aS'587'
p6431
aS'693'
p6432
aa(lp6433
I6492
aS'419'
p6434
aS'523'
p6435
aasS'3FAH'
p6436
(lp6437
(lp6438
I4230
aS'75'
p6439
aS'149'
p6440
aa(lp6441
I4293
aS'6'
aS'64'
p6442
aa(lp6443
I5206
aS'329'
p6444
aS'833'
p6445
aa(lp6446
I5615
aS'191'
p6447
aS'308'
p6448
aasS'1CS6'
p6449
(lp6450
(lp6451
I157
aS'125'
p6452
aS'185'
p6453
aa(lp6454
I158
aS'27'
p6455
aS'100'
p6456
aa(lp6457
I5590
aS'220'
p6458
aS'291'
p6459
aa(lp6460
I5590
aS'306'
p6461
aS'386'
p6462
aasS'4C7Z'
p6463
(lp6464
(lp6465
I4230
aS'75'
p6466
aS'149'
p6467
aa(lp6468
I4293
aS'6'
aS'64'
p6469
aa(lp6470
I5206
aS'329'
p6471
aS'833'
p6472
aa(lp6473
I5615
aS'191'
p6474
aS'308'
p6475
aasS'1D09'
p6476
(lp6477
(lp6478
I1482
aS'102'
p6479
aS'149'
p6480
aa(lp6481
I1964
aS'7'
aS'147'
p6482
aa(lp6483
I2256
aS'154'
p6484
aS'302'
p6485
aa(lp6486
I5270
aS'7'
aS'96'
p6487
aasS'4C7Y'
p6488
(lp6489
(lp6490
I4230
aS'75'
p6491
aS'149'
p6492
aa(lp6493
I4293
aS'6'
aS'64'
p6494
aa(lp6495
I5206
aS'329'
p6496
aS'833'
p6497
aa(lp6498
I5615
aS'191'
p6499
aS'308'
p6500
aasS'4H44'
p6501
(lp6502
(lp6503
I2227
aS'1'
aS'36'
p6504
aa(lp6505
I2230
aS'3'
aS'31'
p6506
aa(lp6507
I2231
aS'1'
aS'30'
p6508
aa(lp6509
I2232
aS'1'
aS'29'
p6510
aa(lp6511
I2691
aS'9'
aS'46'
p6512
aa(lp6513
I3587
aS'88'
p6514
aS'157'
p6515
aa(lp6516
I3751
aS'65'
p6517
aS'151'
p6518
aa(lp6519
I4923
aS'1'
aS'156'
p6520
aa(lp6521
I4925
aS'168'
p6522
aS'289'
p6523
aa(lp6524
I5309
aS'92'
p6525
aS'212'
p6526
aasS'1WYG'
p6527
(lp6528
(lp6529
I3636
aS'232'
p6530
aS'410'
p6531
aa(lp6532
I4230
aS'87'
p6533
aS'159'
p6534
aa(lp6535
I4293
aS'9'
aS'77'
p6536
aa(lp6537
I5206
aS'710'
p6538
aS'1236'
p6539
aa(lp6540
I5615
aS'587'
p6541
aS'693'
p6542
aa(lp6543
I6492
aS'418'
p6544
aS'522'
p6545
aasS'4DEP'
p6546
(lp6547
(lp6548
I157
aS'208'
p6549
aS'299'
p6550
aa(lp6551
I157
aS'137'
p6552
aS'195'
p6553
aa(lp6554
I157
aS'223'
p6555
aS'315'
p6556
aa(lp6557
I158
aS'114'
p6558
aS'195'
p6559
aa(lp6560
I2649
aS'31'
p6561
aS'148'
p6562
aa(lp6563
I5590
aS'37'
p6564
aS'85'
p6565
aasS'2L8R'
p6566
(lp6567
(lp6568
I538
aS'35'
p6569
aS'134'
p6570
aasS'2GYO'
p6571
(lp6572
(lp6573
I4704
aS'106'
p6574
aS'183'
p6575
aa(lp6576
I6290
aS'228'
p6577
aS'316'
p6578
aasS'1FGS'
p6579
(lp6580
(lp6581
I1752
aS'44'
p6582
aS'271'
p6583
aa(lp6584
I3166
aS'297'
p6585
aS'372'
p6586
aasS'3Q19'
p6587
(lp6588
(lp6589
I1924
aS'27'
p6590
aS'100'
p6591
aa(lp6592
I6764
aS'142'
p6593
aS'204'
p6594
aasS'3Q18'
p6595
(lp6596
(lp6597
I1924
aS'27'
p6598
aS'100'
p6599
aa(lp6600
I6764
aS'142'
p6601
aS'204'
p6602
aasS'1UFU'
p6603
(lp6604
(lp6605
I157
aS'101'
p6606
aS'176'
p6607
aa(lp6608
I158
aS'5'
aS'95'
p6609
aasS'1EEH'
p6610
(lp6611
(lp6612
I1752
aS'109'
p6613
aS'279'
p6614
aa(lp6615
I3166
aS'300'
p6616
aS'372'
p6617
aasS'3UVH'
p6618
(lp6619
(lp6620
I1924
aS'24'
p6621
aS'86'
p6622
aa(lp6623
I6764
aS'124'
p6624
aS'210'
p6625
aasS'3UNC'
p6626
(lp6627
(lp6628
I3636
aS'233'
p6629
aS'411'
p6630
aa(lp6631
I4230
aS'87'
p6632
aS'160'
p6633
aa(lp6634
I4293
aS'9'
aS'76'
p6635
aa(lp6636
I5206
aS'710'
p6637
aS'1236'
p6638
aa(lp6639
I5615
aS'587'
p6640
aS'693'
p6641
aa(lp6642
I6492
aS'419'
p6643
aS'523'
p6644
aasS'4PV1'
p6645
(lp6646
(lp6647
I2227
aS'1'
aS'36'
p6648
aa(lp6649
I2230
aS'3'
aS'31'
p6650
aa(lp6651
I2232
aS'2'
aS'29'
p6652
aa(lp6653
I2691
aS'9'
aS'46'
p6654
aa(lp6655
I3587
aS'91'
p6656
aS'149'
p6657
aa(lp6658
I3751
aS'65'
p6659
aS'151'
p6660
aa(lp6661
I4923
aS'1'
aS'156'
p6662
aa(lp6663
I4925
aS'168'
p6664
aS'288'
p6665
aa(lp6666
I5309
aS'92'
p6667
aS'212'
p6668
aasS'3LYP'
p6669
(lp6670
(lp6671
I1924
aS'12'
p6672
aS'85'
p6673
aa(lp6674
I6764
aS'123'
p6675
aS'188'
p6676
aasS'4G0L'
p6677
(lp6678
(lp6679
I1925
aS'62'
p6680
aS'159'
p6681
aa(lp6682
I6764
aS'203'
p6683
aS'257'
p6684
aasS'4G0K'
p6685
(lp6686
(lp6687
I1925
aS'62'
p6688
aS'159'
p6689
aa(lp6690
I6764
aS'203'
p6691
aS'257'
p6692
aasS'4G0I'
p6693
(lp6694
(lp6695
I1925
aS'62'
p6696
aS'159'
p6697
aa(lp6698
I6764
aS'203'
p6699
aS'257'
p6700
aasS'3LK7'
p6701
(lp6702
(lp6703
I1752
aS'117'
p6704
aS'290'
p6705
aa(lp6706
I3166
aS'310'
p6707
aS'383'
p6708
aasS'4J5Q'
p6709
(lp6710
(lp6711
I538
aS'35'
p6712
aS'134'
p6713
aasS'4J5S'
p6714
(lp6715
(lp6716
I538
aS'38'
p6717
aS'137'
p6718
aasS'4J5R'
p6719
(lp6720
(lp6721
I538
aS'35'
p6722
aS'134'
p6723
aasS'3R3E'
p6724
(lp6725
(lp6726
I1925
aS'62'
p6727
aS'159'
p6728
aa(lp6729
I6764
aS'203'
p6730
aS'257'
p6731
aasS'2QO0'
p6732
(lp6733
(lp6734
I4704
aS'106'
p6735
aS'183'
p6736
aa(lp6737
I6290
aS'228'
p6738
aS'317'
p6739
aasS'2QO1'
p6740
(lp6741
(lp6742
I4704
aS'106'
p6743
aS'183'
p6744
aa(lp6745
I6290
aS'228'
p6746
aS'317'
p6747
aasS'4KTI'
p6748
(lp6749
(lp6750
I4704
aS'137'
p6751
aS'215'
p6752
aa(lp6753
I6290
aS'273'
p6754
aS'353'
p6755
aasS'4JGK'
p6756
(lp6757
(lp6758
I538
aS'20'
p6759
aS'129'
p6760
aasS'2PER'
p6761
(lp6762
(lp6763
I1924
aS'30'
p6764
aS'97'
p6765
aa(lp6766
I6764
aS'137'
p6767
aS'216'
p6768
aasS'4JGH'
p6769
(lp6770
(lp6771
I377
aS'19'
p6772
aS'380'
p6773
aa(lp6774
I1107
aS'48'
p6775
aS'129'
p6776
aa(lp6777
I1442
aS'161'
p6778
aS'194'
p6779
aa(lp6780
I2656
aS'11'
p6781
aS'64'
p6782
aa(lp6783
I3329
aS'18'
p6784
aS'80'
p6785
aasS'3WYR'
p6786
(lp6787
(lp6788
I157
aS'102'
p6789
aS'175'
p6790
aa(lp6791
I4082
aS'12'
p6792
aS'87'
p6793
aasS'4TOP'
p6794
(lp6795
(lp6796
I2161
aS'6'
aS'75'
p6797
aa(lp6798
I6764
aS'120'
p6799
aS'188'
p6800
aasS'3WO3'
p6801
(lp6802
(lp6803
I157
aS'215'
p6804
aS'300'
p6805
aa(lp6806
I2649
aS'37'
p6807
aS'148'
p6808
aasS'4YLT'
p6809
(lp6810
(lp6811
I4704
aS'106'
p6812
aS'183'
p6813
aa(lp6814
I6290
aS'227'
p6815
aS'315'
p6816
aasS'3WO4'
p6817
(lp6818
(lp6819
I157
aS'215'
p6820
aS'300'
p6821
aa(lp6822
I157
aS'170'
p6823
aS'221'
p6824
aa(lp6825
I2649
aS'37'
p6826
aS'148'
p6827
aa(lp6828
I4082
aS'258'
p6829
aS'351'
p6830
aasS'3CBU'
p6831
(lp6832
(lp6833
I1924
aS'4'
aS'74'
p6834
aa(lp6835
I6764
aS'118'
p6836
aS'180'
p6837
aasS'1UAG'
p6838
(lp6839
(lp6840
I1752
aS'109'
p6841
aS'279'
p6842
aa(lp6843
I3166
aS'300'
p6844
aS'372'
p6845
aasS'4V8M'
p6846
(lp6847
(lp6848
I62
aS'85'
p6849
aS'162'
p6850
aa(lp6851
I86
aS'2'
aS'68'
p6852
aa(lp6853
I125
aS'29'
p6854
aS'107'
p6855
aa(lp6856
I143
aS'54'
p6857
aS'150'
p6858
aa(lp6859
I143
aS'148'
p6860
aS'218'
p6861
aa(lp6862
I145
aS'10'
p6863
aS'61'
p6864
aa(lp6865
I147
aS'86'
p6866
aS'150'
p6867
aa(lp6868
I341
aS'12'
p6869
aS'107'
p6870
aa(lp6871
I472
aS'273'
p6872
aS'349'
p6873
aa(lp6874
I481
aS'4'
aS'145'
p6875
aa(lp6876
I512
aS'2'
aS'60'
p6877
aa(lp6878
I587
aS'4'
aS'97'
p6879
aa(lp6880
I625
aS'37'
p6881
aS'102'
p6882
aa(lp6883
I672
aS'2'
aS'203'
p6884
aa(lp6885
I905
aS'15'
p6886
aS'122'
p6887
aa(lp6888
I1127
aS'209'
p6889
aS'256'
p6890
aa(lp6891
I1484
aS'3'
aS'88'
p6892
aa(lp6893
I1732
aS'12'
p6894
aS'166'
p6895
aa(lp6896
I1733
aS'74'
p6897
aS'143'
p6898
aa(lp6899
I1735
aS'42'
p6900
aS'125'
p6901
aa(lp6902
I1787
aS'71'
p6903
aS'169'
p6904
aa(lp6905
I1801
aS'8'
aS'191'
p6906
aa(lp6907
I2021
aS'100'
p6908
aS'149'
p6909
aa(lp6910
I2074
aS'20'
p6911
aS'207'
p6912
aa(lp6913
I2075
aS'2'
aS'51'
p6914
aa(lp6915
I2266
aS'3'
aS'99'
p6916
aa(lp6917
I2417
aS'175'
p6918
aS'199'
p6919
aa(lp6920
I2417
aS'49'
p6921
aS'80'
p6922
aa(lp6923
I2417
aS'6'
aS'31'
p6924
aa(lp6925
I2446
aS'106'
p6926
aS'187'
p6927
aa(lp6928
I2502
aS'9'
aS'36'
p6929
aa(lp6930
I2772
aS'11'
p6931
aS'85'
p6932
aa(lp6933
I2772
aS'97'
p6934
aS'176'
p6935
aa(lp6936
I2835
aS'44'
p6937
aS'87'
p6938
aa(lp6939
I2835
aS'106'
p6940
aS'150'
p6941
aa(lp6942
I3026
aS'51'
p6943
aS'133'
p6944
aa(lp6945
I3055
aS'6'
aS'128'
p6946
aa(lp6947
I3071
aS'21'
p6948
aS'139'
p6949
aa(lp6950
I3282
aS'9'
aS'191'
p6951
aa(lp6952
I3544
aS'15'
p6953
aS'143'
p6954
aa(lp6955
I3545
aS'19'
p6956
aS'111'
p6957
aa(lp6958
I3548
aS'89'
p6959
aS'156'
p6960
aa(lp6961
I3549
aS'16'
p6962
aS'55'
p6963
aa(lp6964
I3550
aS'74'
p6965
aS'142'
p6966
aa(lp6967
I3651
aS'27'
p6968
aS'96'
p6969
aa(lp6970
I3767
aS'20'
p6971
aS'223'
p6972
aa(lp6973
I3809
aS'169'
p6974
aS'240'
p6975
aa(lp6976
I3813
aS'3'
aS'60'
p6977
aa(lp6978
I4161
aS'27'
p6979
aS'179'
p6980
aa(lp6981
I4162
aS'48'
p6982
aS'128'
p6983
aa(lp6984
I4162
aS'28'
p6985
aS'143'
p6986
aa(lp6987
I4222
aS'2'
aS'53'
p6988
aa(lp6989
I4304
aS'19'
p6990
aS'87'
p6991
aa(lp6992
I4410
aS'48'
p6993
aS'120'
p6994
aa(lp6995
I4667
aS'22'
p6996
aS'156'
p6997
aa(lp6998
I4691
aS'9'
aS'49'
p6999
aa(lp7000
I4935
aS'2'
aS'118'
p7001
aa(lp7002
I4980
aS'3'
aS'39'
p7003
aa(lp7004
I5041
aS'6'
aS'130'
p7005
aa(lp7006
I5042
aS'16'
p7007
aS'149'
p7008
aa(lp7009
I5050
aS'48'
p7010
aS'190'
p7011
aa(lp7012
I5273
aS'98'
p7013
aS'229'
p7014
aa(lp7015
I5516
aS'14'
p7016
aS'67'
p7017
aa(lp7018
I5517
aS'22'
p7019
aS'260'
p7020
aa(lp7021
I5519
aS'17'
p7022
aS'210'
p7023
aa(lp7024
I5520
aS'53'
p7025
aS'424'
p7026
aa(lp7027
I5521
aS'69'
p7028
aS'88'
p7029
aa(lp7030
I5532
aS'9'
aS'142'
p7031
aa(lp7032
I5683
aS'15'
p7033
aS'67'
p7034
aa(lp7035
I5807
aS'8'
aS'83'
p7036
aa(lp7037
I5992
aS'44'
p7038
aS'64'
p7039
aa(lp7040
I5993
aS'8'
aS'119'
p7041
aa(lp7042
I5996
aS'17'
p7043
aS'149'
p7044
aa(lp7045
I5997
aS'84'
p7046
aS'143'
p7047
aa(lp7048
I6062
aS'198'
p7049
aS'295'
p7050
aa(lp7051
I6236
aS'20'
p7052
aS'93'
p7053
aa(lp7054
I6345
aS'21'
p7055
aS'90'
p7056
aa(lp7057
I6388
aS'5'
aS'100'
p7058
aa(lp7059
I6403
aS'22'
p7060
aS'132'
p7061
aa(lp7062
I6412
aS'62'
p7063
aS'135'
p7064
aa(lp7065
I6453
aS'22'
p7066
aS'124'
p7067
aa(lp7068
I6484
aS'69'
p7069
aS'192'
p7070
aa(lp7071
I6625
aS'32'
p7072
aS'125'
p7073
aa(lp7074
I6625
aS'20'
p7075
aS'111'
p7076
aa(lp7077
I6625
aS'145'
p7078
aS'218'
p7079
aa(lp7080
I6680
aS'92'
p7081
aS'166'
p7082
aa(lp7083
I6703
aS'1'
aS'69'
p7084
aa(lp7085
I6753
aS'38'
p7086
aS'142'
p7087
aa(lp7088
I6925
aS'1'
aS'129'
p7089
aa(lp7090
I7161
aS'27'
p7091
aS'110'
p7092
aa(lp7093
I7213
aS'9'
aS'43'
p7094
aa(lp7095
I7213
aS'62'
p7096
aS'95'
p7097
aa(lp7098
I7213
aS'99'
p7099
aS'137'
p7100
aa(lp7101
I7213
aS'140'
p7102
aS'182'
p7103
aa(lp7104
I7213
aS'187'
p7105
aS'224'
p7106
aa(lp7107
I7223
aS'7'
aS'113'
p7108
aa(lp7109
I7397
aS'29'
p7110
aS'82'
p7111
aa(lp7112
I7432
aS'2'
aS'102'
p7113
aa(lp7114
I7504
aS'101'
p7115
aS'149'
p7116
aasS'8ATC'
p7117
(lp7118
(lp7119
I1482
aS'102'
p7120
aS'149'
p7121
aa(lp7122
I1964
aS'7'
aS'147'
p7123
aa(lp7124
I2256
aS'154'
p7125
aS'302'
p7126
aa(lp7127
I5270
aS'8'
aS'96'
p7128
aasS'1HJZ'
p7129
(lp7130
(lp7131
I538
aS'30'
p7132
aS'155'
p7133
aasS'3MPU'
p7134
(lp7135
(lp7136
I1482
aS'102'
p7137
aS'149'
p7138
aa(lp7139
I1964
aS'7'
aS'147'
p7140
aa(lp7141
I2256
aS'154'
p7142
aS'302'
p7143
aa(lp7144
I5270
aS'11'
p7145
aS'96'
p7146
aasS'2WTZ'
p7147
(lp7148
(lp7149
I1752
aS'151'
p7150
aS'354'
p7151
aa(lp7152
I3142
aS'61'
p7153
aS'138'
p7154
aa(lp7155
I3166
aS'374'
p7156
aS'458'
p7157
aasS'3GQE'
p7158
(lp7159
(lp7160
I538
aS'20'
p7161
aS'121'
p7162
aasS'1SPV'
p7163
(lp7164
(lp7165
I538
aS'21'
p7166
aS'137'
p7167
aasS'4CVM'
p7168
(lp7169
(lp7170
I1752
aS'108'
p7171
aS'300'
p7172
aa(lp7173
I3142
aS'26'
p7174
aS'94'
p7175
aa(lp7176
I3166
aS'320'
p7177
aS'391'
p7178
aasS'4CVL'
p7179
(lp7180
(lp7181
I1752
aS'108'
p7182
aS'300'
p7183
aa(lp7184
I3142
aS'26'
p7185
aS'94'
p7186
aa(lp7187
I3166
aS'320'
p7188
aS'391'
p7189
aasS'3GQO'
p7190
(lp7191
(lp7192
I538
aS'20'
p7193
aS'121'
p7194
aa(lp7195
I538
aS'20'
p7196
aS'121'
p7197
aasS'4H0L'
p7198
(lp7199
(lp7200
I2227
aS'1'
aS'36'
p7201
aa(lp7202
I2230
aS'3'
aS'31'
p7203
aa(lp7204
I2232
aS'1'
aS'29'
p7205
aa(lp7206
I2691
aS'9'
aS'46'
p7207
aa(lp7208
I3587
aS'91'
p7209
aS'149'
p7210
aa(lp7211
I3751
aS'65'
p7212
aS'151'
p7213
aa(lp7214
I4923
aS'1'
aS'156'
p7215
aa(lp7216
I4925
aS'168'
p7217
aS'286'
p7218
aa(lp7219
I5309
aS'92'
p7220
aS'212'
p7221
aasS'4CVK'
p7222
(lp7223
(lp7224
I1752
aS'108'
p7225
aS'300'
p7226
aa(lp7227
I3142
aS'26'
p7228
aS'94'
p7229
aa(lp7230
I3166
aS'320'
p7231
aS'391'
p7232
aasS'1HZP'
p7233
(lp7234
(lp7235
I4704
aS'106'
p7236
aS'183'
p7237
aa(lp7238
I6290
aS'228'
p7239
aS'317'
p7240
aasS'2C9W'
p7241
(lp7242
(lp7243
I1107
aS'48'
p7244
aS'129'
p7245
aa(lp7246
I1442
aS'161'
p7247
aS'194'
p7248
aa(lp7249
I2656
aS'11'
p7250
aS'64'
p7251
aa(lp7252
I3329
aS'18'
p7253
aS'80'
p7254
aasS'2W3R'
p7255
(lp7256
(lp7257
I3636
aS'182'
p7258
aS'343'
p7259
aa(lp7260
I4230
aS'77'
p7261
aS'146'
p7262
aa(lp7263
I4293
aS'7'
aS'63'
p7264
aa(lp7265
I5206
aS'147'
p7266
aS'705'
p7267
aa(lp7268
I5615
aS'17'
p7269
aS'124'
p7270
aa(lp7271
I6492
aS'350'
p7272
aS'449'
p7273
aasS'4YSW'
p7274
(lp7275
(lp7276
I3636
aS'232'
p7277
aS'410'
p7278
aa(lp7279
I4230
aS'87'
p7280
aS'159'
p7281
aa(lp7282
I4293
aS'9'
aS'77'
p7283
aa(lp7284
I5206
aS'710'
p7285
aS'1236'
p7286
aa(lp7287
I5615
aS'587'
p7288
aS'693'
p7289
aa(lp7290
I6492
aS'418'
p7291
aS'522'
p7292
aasS'1EBL'
p7293
(lp7294
(lp7295
I4704
aS'106'
p7296
aS'183'
p7297
aa(lp7298
I6290
aS'228'
p7299
aS'316'
p7300
aasS'2Y66'
p7301
(lp7302
(lp7303
I1752
aS'109'
p7304
aS'279'
p7305
aa(lp7306
I3166
aS'300'
p7307
aS'372'
p7308
aasS'3EKE'
p7309
(lp7310
(lp7311
I538
aS'36'
p7312
aS'141'
p7313
aasS'4MK3'
p7314
(lp7315
(lp7316
I1924
aS'3'
aS'75'
p7317
aa(lp7318
I6764
aS'122'
p7319
aS'186'
p7320
aasS'1NBQ'
p7321
(lp7322
(lp7323
I157
aS'134'
p7324
aS'216'
p7325
aa(lp7326
I4082
aS'35'
p7327
aS'119'
p7328
aasS'8AT1'
p7329
(lp7330
(lp7331
I1482
aS'102'
p7332
aS'149'
p7333
aa(lp7334
I1964
aS'7'
aS'147'
p7335
aa(lp7336
I2256
aS'154'
p7337
aS'302'
p7338
aa(lp7339
I5270
aS'8'
aS'96'
p7340
aasS'1NBE'
p7341
(lp7342
(lp7343
I1482
aS'102'
p7344
aS'149'
p7345
aa(lp7346
I1964
aS'7'
aS'147'
p7347
aa(lp7348
I2256
aS'154'
p7349
aS'302'
p7350
aa(lp7351
I5270
aS'7'
aS'96'
p7352
aas.