(dp1
S'4DE2'
p2
(lp3
(lp4
I6991
aS'53'
p5
aS'262'
p6
aasS'3BFC'
p7
(lp8
(lp9
I6991
aS'53'
p10
aS'262'
p11
aasS'3BFE'
p12
(lp13
(lp14
I6991
aS'53'
p15
aS'262'
p16
aasS'3BFD'
p17
(lp18
(lp19
I6991
aS'53'
p20
aS'262'
p21
aasS'3BFG'
p22
(lp23
(lp24
I6991
aS'53'
p25
aS'262'
p26
aasS'3BFF'
p27
(lp28
(lp29
I6991
aS'53'
p30
aS'262'
p31
aasS'1GHP'
p32
(lp33
(lp34
I6991
aS'52'
p35
aS'255'
p36
aasS'3T0K'
p37
(lp38
(lp39
I7341
aS'3'
aS'301'
p40
aasS'4MY7'
p41
(lp42
(lp43
I6266
aS'14'
p44
aS'153'
p45
aasS'5CVN'
p46
(lp47
(lp48
I2656
aS'6'
aS'74'
p49
aa(lp50
I6821
aS'34'
p51
aS'362'
p52
aa(lp53
I6825
aS'509'
p54
aS'562'
p55
aa(lp56
I7213
aS'72'
p57
aS'103'
p58
aa(lp59
I7213
aS'109'
p60
aS'145'
p61
aa(lp62
I7213
aS'161'
p63
aS'196'
p64
aa(lp65
I7213
aS'203'
p66
aS'238'
p67
aasS'3H7G'
p68
(lp69
(lp70
I6266
aS'14'
p71
aS'153'
p72
aasS'1GHI'
p73
(lp74
(lp75
I6991
aS'52'
p76
aS'255'
p77
aasS'2ZA8'
p78
(lp79
(lp80
I6266
aS'15'
p81
aS'154'
p82
aasS'1GHM'
p83
(lp84
(lp85
I6991
aS'52'
p86
aS'255'
p87
aasS'3R9U'
p88
(lp89
(lp90
I7341
aS'3'
aS'297'
p91
aasS'3RNM'
p92
(lp93
(lp94
I3210
aS'111'
p95
aS'145'
p96
aa(lp97
I4854
aS'354'
p98
aS'462'
p99
aa(lp100
I7341
aS'8'
aS'335'
p101
aasS'3CGE'
p102
(lp103
(lp104
I4854
aS'330'
p105
aS'430'
p106
aa(lp107
I7341
aS'1'
aS'294'
p108
aasS'3CGD'
p109
(lp110
(lp111
I4854
aS'330'
p112
aS'430'
p113
aa(lp114
I7341
aS'1'
aS'294'
p115
aasS'2ZA7'
p116
(lp117
(lp118
I6266
aS'15'
p119
aS'154'
p120
aasS'2ZA6'
p121
(lp122
(lp123
I6266
aS'15'
p124
aS'154'
p125
aasS'3N0E'
p126
(lp127
(lp128
I7213
aS'39'
p129
aS'72'
p130
aa(lp131
I7213
aS'79'
p132
aS'115'
p133
aa(lp134
I7213
aS'119'
p135
aS'157'
p136
aa(lp137
I7213
aS'161'
p138
aS'199'
p139
aa(lp140
I7213
aS'203'
p141
aS'242'
p142
aa(lp143
I7213
aS'246'
p144
aS'287'
p145
aa(lp146
I7213
aS'293'
p147
aS'330'
p148
aa(lp149
I7213
aS'39'
p150
aS'72'
p151
aa(lp152
I7213
aS'79'
p153
aS'115'
p154
aa(lp155
I7213
aS'119'
p156
aS'157'
p157
aa(lp158
I7213
aS'161'
p159
aS'199'
p160
aa(lp161
I7213
aS'203'
p162
aS'242'
p163
aa(lp164
I7213
aS'246'
p165
aS'287'
p166
aa(lp167
I7213
aS'293'
p168
aS'330'
p169
aasS'3N0D'
p170
(lp171
(lp172
I7213
aS'39'
p173
aS'72'
p174
aa(lp175
I7213
aS'79'
p176
aS'115'
p177
aa(lp178
I7213
aS'119'
p179
aS'157'
p180
aa(lp181
I7213
aS'161'
p182
aS'199'
p183
aa(lp184
I7213
aS'203'
p185
aS'242'
p186
aa(lp187
I7213
aS'246'
p188
aS'287'
p189
aasS'3W15'
p190
(lp191
(lp192
I7017
aS'40'
p193
aS'335'
p194
aa(lp195
I7213
aS'96'
p196
aS'133'
p197
aa(lp198
I7213
aS'212'
p199
aS'249'
p200
aa(lp201
I7213
aS'275'
p202
aS'311'
p203
aasS'1JGC'
p204
(lp205
(lp206
I6266
aS'8'
aS'143'
p207
aasS'3ISH'
p208
(lp209
(lp210
I7341
aS'3'
aS'297'
p211
aasS'4EV4'
p212
(lp213
(lp214
I6991
aS'53'
p215
aS'263'
p216
aasS'3ISE'
p217
(lp218
(lp219
I6266
aS'8'
aS'143'
p220
aasS'4KPR'
p221
(lp222
(lp223
I4854
aS'370'
p224
aS'481'
p225
aa(lp226
I7341
aS'13'
p227
aS'350'
p228
aasS'3ISF'
p229
(lp230
(lp231
I6266
aS'8'
aS'143'
p232
aasS'3URH'
p233
(lp234
(lp235
I4854
aS'349'
p236
aS'458'
p237
aa(lp238
I7341
aS'3'
aS'330'
p239
aasS'2YW7'
p240
(lp241
(lp242
I6266
aS'19'
p243
aS'156'
p244
aasS'4CY9'
p245
(lp246
(lp247
I6266
aS'28'
p248
aS'162'
p249
aasS'2Q7V'
p250
(lp251
(lp252
I7341
aS'9'
aS'300'
p253
aasS'4CY1'
p254
(lp255
(lp256
I7213
aS'39'
p257
aS'72'
p258
aa(lp259
I7213
aS'79'
p260
aS'115'
p261
aa(lp262
I7213
aS'119'
p263
aS'157'
p264
aa(lp265
I7213
aS'161'
p266
aS'199'
p267
aa(lp268
I7213
aS'203'
p269
aS'242'
p270
aa(lp271
I7213
aS'246'
p272
aS'287'
p273
aa(lp274
I7213
aS'293'
p275
aS'331'
p276
aasS'3B3X'
p277
(lp278
(lp279
I6991
aS'53'
p280
aS'263'
p281
aasS'1ALQ'
p282
(lp283
(lp284
I6991
aS'52'
p285
aS'252'
p286
aasS'3V50'
p287
(lp288
(lp289
I6991
aS'53'
p290
aS'262'
p291
aasS'4CY5'
p292
(lp293
(lp294
I7213
aS'66'
p295
aS'99'
p296
aa(lp297
I7213
aS'106'
p298
aS'141'
p299
aa(lp300
I7213
aS'146'
p301
aS'184'
p302
aa(lp303
I7213
aS'188'
p304
aS'226'
p305
aa(lp306
I7213
aS'230'
p307
aS'269'
p308
aa(lp309
I7213
aS'273'
p310
aS'314'
p311
aa(lp312
I7213
aS'321'
p313
aS'358'
p314
aasS'3UOF'
p315
(lp316
(lp317
I6266
aS'10'
p318
aS'143'
p319
aasS'3V5M'
p320
(lp321
(lp322
I6991
aS'53'
p323
aS'262'
p324
aasS'3OW8'
p325
(lp326
(lp327
I7213
aS'14'
p328
aS'48'
p329
aa(lp330
I7213
aS'55'
p331
aS'92'
p332
aa(lp333
I7213
aS'150'
p334
aS'176'
p335
aa(lp336
I7213
aS'180'
p337
aS'218'
p338
aa(lp339
I7213
aS'225'
p340
aS'260'
p341
aa(lp342
I7213
aS'265'
p343
aS'302'
p344
aasS'1JRE'
p345
(lp346
(lp347
I6266
aS'31'
p348
aS'166'
p349
aasS'3F38'
p350
(lp351
(lp352
I6266
aS'14'
p353
aS'153'
p354
aasS'4IA9'
p355
(lp356
(lp357
I7213
aS'39'
p358
aS'72'
p359
aa(lp360
I7213
aS'79'
p361
aS'115'
p362
aa(lp363
I7213
aS'119'
p364
aS'157'
p365
aa(lp366
I7213
aS'161'
p367
aS'199'
p368
aa(lp369
I7213
aS'203'
p370
aS'242'
p371
aa(lp372
I7213
aS'246'
p373
aS'287'
p374
aa(lp375
I7213
aS'293'
p376
aS'331'
p377
aasS'4CYA'
p378
(lp379
(lp380
I6266
aS'28'
p381
aS'162'
p382
aasS'4CYB'
p383
(lp384
(lp385
I6266
aS'53'
p386
aS'196'
p387
aasS'1D7Y'
p388
(lp389
(lp390
I6641
aS'318'
p391
aS'403'
p392
aa(lp393
I7341
aS'10'
p394
aS'298'
p395
aasS'3HRE'
p396
(lp397
(lp398
I6991
aS'53'
p399
aS'262'
p400
aasS'2XU7'
p401
(lp402
(lp403
I39
aS'19'
p404
aS'88'
p405
aa(lp406
I7213
aS'173'
p407
aS'206'
p408
aa(lp409
I7213
aS'264'
p410
aS'302'
p411
aa(lp412
I7213
aS'310'
p413
aS'346'
p414
aasS'4EVC'
p415
(lp416
(lp417
I6266
aS'5'
aS'143'
p418
aasS'4EVB'
p419
(lp420
(lp421
I6266
aS'5'
aS'143'
p422
aasS'3UR4'
p423
(lp424
(lp425
I7213
aS'39'
p426
aS'72'
p427
aa(lp428
I7213
aS'79'
p429
aS'115'
p430
aa(lp431
I7213
aS'119'
p432
aS'157'
p433
aa(lp434
I7213
aS'161'
p435
aS'199'
p436
aa(lp437
I7213
aS'203'
p438
aS'242'
p439
aa(lp440
I7213
aS'246'
p441
aS'287'
p442
aa(lp443
I7213
aS'293'
p444
aS'331'
p445
aasS'3RAV'
p446
(lp447
(lp448
I6266
aS'14'
p449
aS'153'
p450
aasS'3T9J'
p451
(lp452
(lp453
I6266
aS'5'
aS'143'
p454
aasS'3IS8'
p455
(lp456
(lp457
I6266
aS'8'
aS'143'
p458
aasS'4EVE'
p459
(lp460
(lp461
I6266
aS'5'
aS'143'
p462
aasS'4EVD'
p463
(lp464
(lp465
I6266
aS'5'
aS'143'
p466
aasS'3IS7'
p467
(lp468
(lp469
I6266
aS'8'
aS'143'
p470
aasS'4MBK'
p471
(lp472
(lp473
I6991
aS'53'
p474
aS'262'
p475
aasS'2F7N'
p476
(lp477
(lp478
I6266
aS'63'
p479
aS'204'
p480
aasS'2CDU'
p481
(lp482
(lp483
I4854
aS'339'
p484
aS'430'
p485
aa(lp486
I7341
aS'1'
aS'307'
p487
aasS'1XDI'
p488
(lp489
(lp490
I4854
aS'352'
p491
aS'460'
p492
aa(lp493
I7341
aS'4'
aS'332'
p494
aasS'3F35'
p495
(lp496
(lp497
I6266
aS'14'
p498
aS'153'
p499
aasS'4GAP'
p500
(lp501
(lp502
I7341
aS'55'
p503
aS'400'
p504
aasS'3FVB'
p505
(lp506
(lp507
I6266
aS'8'
aS'143'
p508
aasS'5CMQ'
p509
(lp510
(lp511
I6266
aS'18'
p512
aS'158'
p513
aasS'3H8L'
p514
(lp515
(lp516
I7341
aS'3'
aS'143'
p517
aa(lp518
I7341
aS'198'
p519
aS'322'
p520
aasS'3CG5'
p521
(lp522
(lp523
I6991
aS'68'
p524
aS'277'
p525
aasS'4HBU'
p526
(lp527
(lp528
I6991
aS'54'
p529
aS'260'
p530
aasS'3H8I'
p531
(lp532
(lp533
I7341
aS'3'
aS'143'
p534
aa(lp535
I7341
aS'198'
p536
aS'322'
p537
aasS'4DYX'
p538
(lp539
(lp540
I6266
aS'18'
p541
aS'158'
p542
aasS'2HQM'
p543
(lp544
(lp545
I4854
aS'372'
p546
aS'482'
p547
aa(lp548
I7341
aS'24'
p549
aS'349'
p550
aasS'3VNX'
p551
(lp552
(lp553
I6266
aS'42'
p554
aS'186'
p555
aa(lp556
I6266
aS'42'
p557
aS'186'
p558
aasS'1OME'
p559
(lp560
(lp561
I6991
aS'52'
p562
aS'255'
p563
aasS'3E2L'
p564
(lp565
(lp566
I1291
aS'2'
aS'164'
p567
aa(lp568
I6991
aS'53'
p569
aS'263'
p570
aasS'3E2K'
p571
(lp572
(lp573
I1291
aS'2'
aS'164'
p574
aa(lp575
I6991
aS'53'
p576
aS'263'
p577
aasS'1ZMD'
p578
(lp579
(lp580
I4854
aS'354'
p581
aS'462'
p582
aa(lp583
I7341
aS'8'
aS'335'
p584
aasS'1ZMC'
p585
(lp586
(lp587
I4854
aS'354'
p588
aS'462'
p589
aa(lp590
I7341
aS'8'
aS'335'
p591
aasS'3NI9'
p592
(lp593
(lp594
I6991
aS'48'
p595
aS'255'
p596
aasS'3NP2'
p597
(lp598
(lp599
I6266
aS'14'
p600
aS'153'
p601
aasS'3NP0'
p602
(lp603
(lp604
I6266
aS'14'
p605
aS'153'
p606
aasS'2JD6'
p607
(lp608
(lp609
I6266
aS'7'
aS'142'
p610
aasS'2ZZ0'
p611
(lp612
(lp613
I4854
aS'370'
p614
aS'481'
p615
aa(lp616
I7341
aS'13'
p617
aS'350'
p618
aasS'2BJY'
p619
(lp620
(lp621
I6266
aS'12'
p622
aS'153'
p623
aasS'2JD7'
p624
(lp625
(lp626
I6266
aS'7'
aS'142'
p627
aasS'4LEN'
p628
(lp629
(lp630
I6991
aS'53'
p631
aS'262'
p632
aasS'1DAT'
p633
(lp634
(lp635
I6266
aS'14'
p636
aS'153'
p637
aasS'1G68'
p638
(lp639
(lp640
I6991
aS'52'
p641
aS'262'
p642
aasS'3NY4'
p643
(lp644
(lp645
I6991
aS'68'
p646
aS'277'
p647
aasS'4Z3B'
p648
(lp649
(lp650
I6266
aS'14'
p651
aS'153'
p652
aasS'3FRX'
p653
(lp654
(lp655
I7213
aS'11'
p656
aS'45'
p657
aa(lp658
I7213
aS'56'
p659
aS'93'
p660
aa(lp661
I7213
aS'101'
p662
aS'134'
p663
aa(lp664
I7213
aS'138'
p665
aS'182'
p666
aa(lp667
I7213
aS'191'
p668
aS'224'
p669
aasS'3CGC'
p670
(lp671
(lp672
I4854
aS'330'
p673
aS'430'
p674
aa(lp675
I7341
aS'1'
aS'294'
p676
aasS'3SMR'
p677
(lp678
(lp679
I7213
aS'39'
p680
aS'72'
p681
aa(lp682
I7213
aS'79'
p683
aS'115'
p684
aa(lp685
I7213
aS'119'
p686
aS'157'
p687
aa(lp688
I7213
aS'161'
p689
aS'199'
p690
aa(lp691
I7213
aS'203'
p692
aS'242'
p693
aa(lp694
I7213
aS'246'
p695
aS'287'
p696
aa(lp697
I7213
aS'293'
p698
aS'331'
p699
aasS'3CGB'
p700
(lp701
(lp702
I4854
aS'330'
p703
aS'430'
p704
aa(lp705
I7341
aS'1'
aS'294'
p706
aasS'4M35'
p707
(lp708
(lp709
I6266
aS'22'
p710
aS'156'
p711
aasS'1VM1'
p712
(lp713
(lp714
I6991
aS'53'
p715
aS'262'
p716
aasS'1LQT'
p717
(lp718
(lp719
I7341
aS'6'
aS'215'
p720
aasS'1LQU'
p721
(lp722
(lp723
I7341
aS'6'
aS'215'
p724
aasS'4M32'
p725
(lp726
(lp727
I6266
aS'22'
p728
aS'156'
p729
aasS'4M33'
p730
(lp731
(lp732
I6266
aS'22'
p733
aS'156'
p734
aasS'4ZJ2'
p735
(lp736
(lp737
I6991
aS'51'
p738
aS'261'
p739
aasS'3AK9'
p740
(lp741
(lp742
I6266
aS'31'
p743
aS'166'
p744
aasS'4O5U'
p745
(lp746
(lp747
I6322
aS'126'
p748
aS'195'
p749
aa(lp750
I7341
aS'213'
p751
aS'504'
p752
aasS'3DTM'
p753
(lp754
(lp755
I6991
aS'51'
p756
aS'259'
p757
aasS'1F8W'
p758
(lp759
(lp760
I4854
aS'329'
p761
aS'429'
p762
aa(lp763
I7341
aS'1'
aS'306'
p764
aasS'2BC1'
p765
(lp766
(lp767
I4854
aS'347'
p768
aS'441'
p769
aa(lp770
I7341
aS'3'
aS'317'
p771
aasS'2BC0'
p772
(lp773
(lp774
I4854
aS'347'
p775
aS'441'
p776
aa(lp777
I7341
aS'3'
aS'317'
p778
aasS'1AEW'
p779
(lp780
(lp781
I6266
aS'18'
p782
aS'157'
p783
aasS'1S4U'
p784
(lp785
(lp786
I7213
aS'13'
p787
aS'42'
p788
aa(lp789
I7213
aS'288'
p790
aS'319'
p791
aasS'4M3K'
p792
(lp793
(lp794
I2388
aS'11'
p795
aS'118'
p796
aa(lp797
I6991
aS'53'
p798
aS'263'
p799
aasS'4QQE'
p800
(lp801
(lp802
I7213
aS'39'
p803
aS'72'
p804
aa(lp805
I7213
aS'79'
p806
aS'115'
p807
aa(lp808
I7213
aS'119'
p809
aS'157'
p810
aa(lp811
I7213
aS'161'
p812
aS'199'
p813
aa(lp814
I7213
aS'203'
p815
aS'242'
p816
aa(lp817
I7213
aS'246'
p818
aS'287'
p819
aa(lp820
I7213
aS'293'
p821
aS'331'
p822
aasS'4XUZ'
p823
(lp824
(lp825
I6991
aS'29'
p826
aS'235'
p827
aasS'4DF6'
p828
(lp829
(lp830
I6991
aS'54'
p831
aS'263'
p832
aasS'2AAQ'
p833
(lp834
(lp835
I4854
aS'367'
p836
aS'477'
p837
aa(lp838
I7341
aS'21'
p839
aS'346'
p840
aasS'1G6A'
p841
(lp842
(lp843
I6991
aS'52'
p844
aS'262'
p845
aasS'1BLH'
p846
(lp847
(lp848
I6991
aS'52'
p849
aS'255'
p850
aasS'5A1U'
p851
(lp852
(lp853
I2136
aS'342'
p854
aS'766'
p855
aa(lp856
I2136
aS'319'
p857
aS'762'
p858
aa(lp859
I2201
aS'739'
p860
aS'822'
p861
aa(lp862
I2349
aS'761'
p863
aS'873'
p864
aa(lp865
I4117
aS'25'
p866
aS'538'
p867
aa(lp868
I4117
aS'24'
p869
aS'528'
p870
aa(lp871
I4132
aS'18'
p872
aS'176'
p873
aa(lp874
I5064
aS'12'
p875
aS'148'
p876
aa(lp877
I5064
aS'9'
aS'130'
p878
aa(lp879
I5070
aS'612'
p880
aS'759'
p881
aa(lp882
I5268
aS'828'
p883
aS'959'
p884
aa(lp885
I7213
aS'44'
p886
aS'79'
p887
aa(lp888
I7213
aS'84'
p889
aS'121'
p890
aa(lp891
I7213
aS'126'
p892
aS'163'
p893
aa(lp894
I7213
aS'199'
p895
aS'232'
p896
aa(lp897
I7213
aS'242'
p898
aS'277'
p899
aa(lp900
I7213
aS'91'
p901
aS'127'
p902
aa(lp903
I7213
aS'132'
p904
aS'170'
p905
aa(lp906
I7213
aS'178'
p907
aS'215'
p908
aa(lp909
I7213
aS'220'
p910
aS'256'
p911
aasS'1L8I'
p912
(lp913
(lp914
I6266
aS'31'
p915
aS'166'
p916
aasS'1L8H'
p917
(lp918
(lp919
I6266
aS'31'
p920
aS'166'
p921
aasS'3MKE'
p922
(lp923
(lp924
I6991
aS'53'
p925
aS'262'
p926
aasS'1DNC'
p927
(lp928
(lp929
I4854
aS'367'
p930
aS'477'
p931
aa(lp932
I7341
aS'21'
p933
aS'346'
p934
aasS'3MKF'
p935
(lp936
(lp937
I6991
aS'53'
p938
aS'262'
p939
aasS'2X50'
p940
(lp941
(lp942
I4854
aS'363'
p943
aS'468'
p944
aa(lp945
I7341
aS'5'
aS'342'
p946
aasS'2WYX'
p947
(lp948
(lp949
I6991
aS'53'
p950
aS'262'
p951
aasS'2JK6'
p952
(lp953
(lp954
I4854
aS'363'
p955
aS'468'
p956
aa(lp957
I7341
aS'5'
aS'342'
p958
aasS'3MKQ'
p959
(lp960
(lp961
I2136
aS'326'
p962
aS'776'
p963
aa(lp964
I2136
aS'642'
p965
aS'770'
p966
aa(lp967
I7213
aS'89'
p968
aS'125'
p969
aa(lp970
I7213
aS'134'
p971
aS'169'
p972
aa(lp973
I7213
aS'186'
p974
aS'214'
p975
aa(lp976
I7213
aS'219'
p977
aS'256'
p978
aasS'2H14'
p979
(lp980
(lp981
I7213
aS'39'
p982
aS'72'
p983
aa(lp984
I7213
aS'79'
p985
aS'115'
p986
aa(lp987
I7213
aS'119'
p988
aS'157'
p989
aa(lp990
I7213
aS'161'
p991
aS'199'
p992
aa(lp993
I7213
aS'203'
p994
aS'242'
p995
aa(lp996
I7213
aS'246'
p997
aS'287'
p998
aa(lp999
I7213
aS'293'
p1000
aS'331'
p1001
aasS'5A1V'
p1002
(lp1003
(lp1004
I1854
aS'17'
p1005
aS'305'
p1006
aa(lp1007
I2136
aS'342'
p1008
aS'766'
p1009
aa(lp1010
I2136
aS'319'
p1011
aS'762'
p1012
aa(lp1013
I2201
aS'739'
p1014
aS'822'
p1015
aa(lp1016
I2349
aS'761'
p1017
aS'873'
p1018
aa(lp1019
I4117
aS'25'
p1020
aS'538'
p1021
aa(lp1022
I4117
aS'24'
p1023
aS'528'
p1024
aa(lp1025
I4132
aS'18'
p1026
aS'176'
p1027
aa(lp1028
I5064
aS'12'
p1029
aS'148'
p1030
aa(lp1031
I5064
aS'9'
aS'130'
p1032
aa(lp1033
I5070
aS'612'
p1034
aS'759'
p1035
aa(lp1036
I5268
aS'828'
p1037
aS'959'
p1038
aa(lp1039
I7213
aS'44'
p1040
aS'79'
p1041
aa(lp1042
I7213
aS'84'
p1043
aS'121'
p1044
aa(lp1045
I7213
aS'126'
p1046
aS'163'
p1047
aa(lp1048
I7213
aS'199'
p1049
aS'232'
p1050
aa(lp1051
I7213
aS'242'
p1052
aS'277'
p1053
aa(lp1054
I7213
aS'91'
p1055
aS'127'
p1056
aa(lp1057
I7213
aS'132'
p1058
aS'170'
p1059
aa(lp1060
I7213
aS'178'
p1061
aS'215'
p1062
aa(lp1063
I7213
aS'220'
p1064
aS'256'
p1065
aasS'2H10'
p1066
(lp1067
(lp1068
I6991
aS'53'
p1069
aS'262'
p1070
aasS'2H13'
p1071
(lp1072
(lp1073
I7213
aS'39'
p1074
aS'72'
p1075
aa(lp1076
I7213
aS'79'
p1077
aS'115'
p1078
aa(lp1079
I7213
aS'119'
p1080
aS'157'
p1081
aa(lp1082
I7213
aS'161'
p1083
aS'199'
p1084
aa(lp1085
I7213
aS'203'
p1086
aS'242'
p1087
aa(lp1088
I7213
aS'246'
p1089
aS'287'
p1090
aa(lp1091
I7213
aS'293'
p1092
aS'331'
p1093
aasS'1VDC'
p1094
(lp1095
(lp1096
I7341
aS'7'
aS'302'
p1097
aasS'3N6I'
p1098
(lp1099
(lp1100
I6991
aS'68'
p1101
aS'277'
p1102
aasS'2ZZB'
p1103
(lp1104
(lp1105
I4854
aS'370'
p1106
aS'481'
p1107
aa(lp1108
I7341
aS'13'
p1109
aS'350'
p1110
aasS'2ZZC'
p1111
(lp1112
(lp1113
I4854
aS'370'
p1114
aS'481'
p1115
aa(lp1116
I7341
aS'13'
p1117
aS'350'
p1118
aasS'4J8G'
p1119
(lp1120
(lp1121
I7213
aS'45'
p1122
aS'81'
p1123
aa(lp1124
I7213
aS'86'
p1125
aS'123'
p1126
aa(lp1127
I7213
aS'128'
p1128
aS'165'
p1129
aa(lp1130
I7213
aS'207'
p1131
aS'239'
p1132
aa(lp1133
I7213
aS'249'
p1134
aS'284'
p1135
aasS'4YKH'
p1136
(lp1137
(lp1138
I6266
aS'18'
p1139
aS'158'
p1140
aasS'4EQI'
p1141
(lp1142
(lp1143
I6991
aS'53'
p1144
aS'263'
p1145
aasS'4JDR'
p1146
(lp1147
(lp1148
I4854
aS'347'
p1149
aS'455'
p1150
aa(lp1151
I7341
aS'8'
aS'328'
p1152
aasS'4ZLW'
p1153
(lp1154
(lp1155
I6266
aS'8'
aS'143'
p1156
aasS'4OQ0'
p1157
(lp1158
(lp1159
I6991
aS'51'
p1160
aS'258'
p1161
aasS'4EWR'
p1162
(lp1163
(lp1164
I7213
aS'39'
p1165
aS'72'
p1166
aa(lp1167
I7213
aS'79'
p1168
aS'115'
p1169
aa(lp1170
I7213
aS'119'
p1171
aS'157'
p1172
aa(lp1173
I7213
aS'161'
p1174
aS'199'
p1175
aa(lp1176
I7213
aS'203'
p1177
aS'242'
p1178
aa(lp1179
I7213
aS'246'
p1180
aS'287'
p1181
aa(lp1182
I7213
aS'293'
p1183
aS'331'
p1184
aasS'4YKF'
p1185
(lp1186
(lp1187
I6322
aS'126'
p1188
aS'195'
p1189
aa(lp1190
I7341
aS'213'
p1191
aS'504'
p1192
aasS'4YKG'
p1193
(lp1194
(lp1195
I6322
aS'126'
p1196
aS'195'
p1197
aa(lp1198
I7341
aS'213'
p1199
aS'504'
p1200
aasS'2G2W'
p1201
(lp1202
(lp1203
I1291
aS'2'
aS'164'
p1204
aa(lp1205
I6991
aS'53'
p1206
aS'262'
p1207
aasS'2G2U'
p1208
(lp1209
(lp1210
I1291
aS'2'
aS'164'
p1211
aa(lp1212
I6991
aS'53'
p1213
aS'262'
p1214
aasS'1TRB'
p1215
(lp1216
(lp1217
I7341
aS'7'
aS'302'
p1218
aasS'3C99'
p1219
(lp1220
(lp1221
I39
aS'23'
p1222
aS'92'
p1223
aa(lp1224
I7213
aS'177'
p1225
aS'210'
p1226
aa(lp1227
I7213
aS'268'
p1228
aS'306'
p1229
aa(lp1230
I7213
aS'314'
p1231
aS'350'
p1232
aasS'4EQS'
p1233
(lp1234
(lp1235
I4854
aS'326'
p1236
aS'424'
p1237
aa(lp1238
I7341
aS'3'
aS'287'
p1239
aasS'4N92'
p1240
(lp1241
(lp1242
I6991
aS'53'
p1243
aS'263'
p1244
aasS'4EQW'
p1245
(lp1246
(lp1247
I4854
aS'326'
p1248
aS'424'
p1249
aa(lp1250
I7341
aS'3'
aS'287'
p1251
aasS'1DXL'
p1252
(lp1253
(lp1254
I4854
aS'351'
p1255
aS'460'
p1256
aa(lp1257
I7341
aS'8'
aS'332'
p1258
aasS'2YNO'
p1259
(lp1260
(lp1261
I7213
aS'89'
p1262
aS'125'
p1263
aa(lp1264
I7213
aS'134'
p1265
aS'169'
p1266
aa(lp1267
I7213
aS'182'
p1268
aS'214'
p1269
aa(lp1270
I7213
aS'219'
p1271
aS'256'
p1272
aasS'2YNN'
p1273
(lp1274
(lp1275
I7213
aS'89'
p1276
aS'125'
p1277
aa(lp1278
I7213
aS'134'
p1279
aS'169'
p1280
aa(lp1281
I7213
aS'182'
p1282
aS'214'
p1283
aa(lp1284
I7213
aS'219'
p1285
aS'256'
p1286
aasS'3DK4'
p1287
(lp1288
(lp1289
I4854
aS'367'
p1290
aS'477'
p1291
aa(lp1292
I7341
aS'21'
p1293
aS'346'
p1294
aasS'2IU2'
p1295
(lp1296
(lp1297
I6266
aS'18'
p1298
aS'158'
p1299
aasS'3KWO'
p1300
(lp1301
(lp1302
I6266
aS'5'
aS'144'
p1303
aasS'4LPM'
p1304
(lp1305
(lp1306
I6266
aS'14'
p1307
aS'153'
p1308
aasS'4LPN'
p1309
(lp1310
(lp1311
I6266
aS'14'
p1312
aS'153'
p1313
aasS'1PZP'
p1314
(lp1315
(lp1316
I6991
aS'51'
p1317
aS'261'
p1318
aasS'4LPJ'
p1319
(lp1320
(lp1321
I6266
aS'14'
p1322
aS'153'
p1323
aasS'4H50'
p1324
(lp1325
(lp1326
I6641
aS'318'
p1327
aS'403'
p1328
aa(lp1329
I7341
aS'10'
p1330
aS'298'
p1331
aasS'3IWA'
p1332
(lp1333
(lp1334
I4854
aS'348'
p1335
aS'446'
p1336
aa(lp1337
I7341
aS'4'
aS'301'
p1338
aasS'1PZO'
p1339
(lp1340
(lp1341
I6991
aS'51'
p1342
aS'261'
p1343
aasS'2YNP'
p1344
(lp1345
(lp1346
I2136
aS'326'
p1347
aS'601'
p1348
aa(lp1349
I7213
aS'89'
p1350
aS'125'
p1351
aa(lp1352
I7213
aS'134'
p1353
aS'169'
p1354
aa(lp1355
I7213
aS'182'
p1356
aS'214'
p1357
aa(lp1358
I7213
aS'219'
p1359
aS'256'
p1360
aasS'1RCD'
p1361
(lp1362
(lp1363
I6266
aS'14'
p1364
aS'153'
p1365
aasS'1RCE'
p1366
(lp1367
(lp1368
I6266
aS'14'
p1369
aS'153'
p1370
aasS'1RCG'
p1371
(lp1372
(lp1373
I6266
aS'14'
p1374
aS'153'
p1375
aa(lp1376
I6266
aS'14'
p1377
aS'153'
p1378
aasS'1RCC'
p1379
(lp1380
(lp1381
I6266
aS'14'
p1382
aS'153'
p1383
aasS'3GRT'
p1384
(lp1385
(lp1386
I4854
aS'367'
p1387
aS'477'
p1388
aa(lp1389
I7341
aS'21'
p1390
aS'346'
p1391
aasS'3T31'
p1392
(lp1393
(lp1394
I7341
aS'3'
aS'301'
p1395
aasS'3JB9'
p1396
(lp1397
(lp1398
I259
aS'66'
p1399
aS'131'
p1400
aa(lp1401
I1307
aS'1784'
p1402
aS'2013'
p1403
aa(lp1404
I1427
aS'68'
p1405
aS'122'
p1406
aa(lp1407
I1773
aS'176'
p1408
aS'235'
p1409
aa(lp1410
I1775
aS'228'
p1411
aS'283'
p1412
aa(lp1413
I1775
aS'24'
p1414
aS'81'
p1415
aa(lp1416
I1776
aS'1009'
p1417
aS'1099'
p1418
aa(lp1419
I1858
aS'1026'
p1420
aS'1192'
p1421
aa(lp1422
I1913
aS'8'
aS'71'
p1423
aa(lp1424
I1913
aS'7'
aS'70'
p1425
aa(lp1426
I1913
aS'6'
aS'79'
p1427
aa(lp1428
I1913
aS'38'
p1429
aS'110'
p1430
aa(lp1431
I1913
aS'19'
p1432
aS'82'
p1433
aa(lp1434
I1913
aS'11'
p1435
aS'74'
p1436
aa(lp1437
I2479
aS'9'
aS'69'
p1438
aa(lp1439
I2516
aS'2'
aS'162'
p1440
aa(lp1441
I3359
aS'183'
p1442
aS'315'
p1443
aa(lp1444
I3569
aS'7'
aS'184'
p1445
aa(lp1446
I4012
aS'1234'
p1447
aS'1367'
p1448
aa(lp1449
I4483
aS'185'
p1450
aS'216'
p1451
aa(lp1452
I4654
aS'504'
p1453
aS'579'
p1454
aa(lp1455
I4668
aS'49'
p1456
aS'153'
p1457
aa(lp1458
I5102
aS'419'
p1459
aS'824'
p1460
aa(lp1461
I5218
aS'1466'
p1462
aS'1624'
p1463
aa(lp1464
I5265
aS'719'
p1465
aS'838'
p1466
aa(lp1467
I5589
aS'840'
p1468
aS'928'
p1469
aa(lp1470
I5805
aS'401'
p1471
aS'523'
p1472
aa(lp1473
I5806
aS'532'
p1474
aS'633'
p1475
aa(lp1476
I6226
aS'140'
p1477
aS'331'
p1478
aa(lp1479
I6482
aS'8'
aS'689'
p1480
aa(lp1481
I6690
aS'3'
aS'144'
p1482
aa(lp1483
I7027
aS'4'
aS'152'
p1484
aa(lp1485
I7164
aS'79'
p1486
aS'229'
p1487
aa(lp1488
I7213
aS'155'
p1489
aS'191'
p1490
aa(lp1491
I7213
aS'199'
p1492
aS'233'
p1493
aa(lp1494
I7213
aS'238'
p1495
aS'275'
p1496
aa(lp1497
I7213
aS'280'
p1498
aS'317'
p1499
aa(lp1500
I7213
aS'321'
p1501
aS'357'
p1502
aa(lp1503
I7213
aS'366'
p1504
aS'399'
p1505
aa(lp1506
I7213
aS'48'
p1507
aS'78'
p1508
aa(lp1509
I7213
aS'126'
p1510
aS'164'
p1511
aa(lp1512
I7213
aS'211'
p1513
aS'247'
p1514
aa(lp1515
I7213
aS'301'
p1516
aS'335'
p1517
aa(lp1518
I7399
aS'24'
p1519
aS'264'
p1520
aasS'1RCI'
p1521
(lp1522
(lp1523
I6266
aS'14'
p1524
aS'153'
p1525
aasS'3TA8'
p1526
(lp1527
(lp1528
I6266
aS'5'
aS'143'
p1529
aasS'3GRS'
p1530
(lp1531
(lp1532
I4854
aS'367'
p1533
aS'477'
p1534
aa(lp1535
I7341
aS'21'
p1536
aS'346'
p1537
aasS'4S2I'
p1538
(lp1539
(lp1540
I6991
aS'53'
p1541
aS'262'
p1542
aasS'3SZF'
p1543
(lp1544
(lp1545
I7341
aS'3'
aS'301'
p1546
aasS'3HUO'
p1547
(lp1548
(lp1549
I6991
aS'53'
p1550
aS'262'
p1551
aasS'4C6Y'
p1552
(lp1553
(lp1554
I6991
aS'52'
p1555
aS'263'
p1556
aasS'3NBL'
p1557
(lp1558
(lp1559
I6991
aS'68'
p1560
aS'277'
p1561
aasS'3TSG'
p1562
(lp1563
(lp1564
I6991
aS'48'
p1565
aS'255'
p1566
aasS'3ES3'
p1567
(lp1568
(lp1569
I6266
aS'18'
p1570
aS'158'
p1571
aasS'4CY3'
p1572
(lp1573
(lp1574
I7213
aS'66'
p1575
aS'99'
p1576
aa(lp1577
I7213
aS'106'
p1578
aS'141'
p1579
aa(lp1580
I7213
aS'146'
p1581
aS'184'
p1582
aa(lp1583
I7213
aS'188'
p1584
aS'226'
p1585
aa(lp1586
I7213
aS'230'
p1587
aS'269'
p1588
aa(lp1589
I7213
aS'273'
p1590
aS'314'
p1591
aa(lp1592
I7213
aS'321'
p1593
aS'358'
p1594
aasS'4N9L'
p1595
(lp1596
(lp1597
I6991
aS'53'
p1598
aS'263'
p1599
aasS'3NOZ'
p1600
(lp1601
(lp1602
I6266
aS'14'
p1603
aS'153'
p1604
aasS'4ZL6'
p1605
(lp1606
(lp1607
I6266
aS'8'
aS'143'
p1608
aasS'5A9Q'
p1609
(lp1610
(lp1611
I427
aS'774'
p1612
aS'1178'
p1613
aa(lp1614
I427
aS'598'
p1615
aS'1002'
p1616
aa(lp1617
I429
aS'79'
p1618
aS'508'
p1619
aa(lp1620
I466
aS'54'
p1621
aS'475'
p1622
aa(lp1623
I2255
aS'78'
p1624
aS'577'
p1625
aa(lp1626
I5349
aS'452'
p1627
aS'745'
p1628
aa(lp1629
I6078
aS'210'
p1630
aS'908'
p1631
aa(lp1632
I7213
aS'118'
p1633
aS'153'
p1634
aa(lp1635
I7213
aS'14'
p1636
aS'41'
p1637
aa(lp1638
I7213
aS'50'
p1639
aS'86'
p1640
aa(lp1641
I7213
aS'97'
p1642
aS'130'
p1643
aa(lp1644
I7213
aS'205'
p1645
aS'243'
p1646
aa(lp1647
I7213
aS'11'
p1648
aS'40'
p1649
aa(lp1650
I7213
aS'48'
p1651
aS'86'
p1652
aa(lp1653
I7213
aS'115'
p1654
aS'142'
p1655
aa(lp1656
I7213
aS'273'
p1657
aS'306'
p1658
aasS'4ZL5'
p1659
(lp1660
(lp1661
I6266
aS'7'
aS'142'
p1662
aasS'4O5Q'
p1663
(lp1664
(lp1665
I6322
aS'126'
p1666
aS'195'
p1667
aa(lp1668
I7341
aS'213'
p1669
aS'504'
p1670
aasS'1XHM'
p1671
(lp1672
(lp1673
I5179
aS'8'
aS'52'
p1674
aa(lp1675
I7213
aS'47'
p1676
aS'83'
p1677
aa(lp1678
I7213
aS'98'
p1679
aS'125'
p1680
aa(lp1681
I7213
aS'174'
p1682
aS'212'
p1683
aa(lp1684
I7213
aS'217'
p1685
aS'254'
p1686
aa(lp1687
I7213
aS'260'
p1688
aS'298'
p1689
aa(lp1690
I7213
aS'307'
p1691
aS'340'
p1692
aasS'1PS9'
p1693
(lp1694
(lp1695
I6243
aS'4'
aS'330'
p1696
aa(lp1697
I7341
aS'375'
p1698
aS'634'
p1699
aasS'4OQH'
p1700
(lp1701
(lp1702
I6991
aS'51'
p1703
aS'258'
p1704
aasS'4OQI'
p1705
(lp1706
(lp1707
I6991
aS'51'
p1708
aS'258'
p1709
aasS'4OQG'
p1710
(lp1711
(lp1712
I6991
aS'51'
p1713
aS'261'
p1714
aasS'1XHC'
p1715
(lp1716
(lp1717
I7341
aS'2'
aS'276'
p1718
aasS'4NWZ'
p1719
(lp1720
(lp1721
I7341
aS'5'
aS'323'
p1722
aasS'4ID4'
p1723
(lp1724
(lp1725
I6991
aS'51'
p1726
aS'261'
p1727
aasS'2VXI'
p1728
(lp1729
(lp1730
I6266
aS'8'
aS'144'
p1731
aasS'3DWL'
p1732
(lp1733
(lp1734
I2051
aS'7'
aS'419'
p1735
aa(lp1736
I2958
aS'52'
p1737
aS'301'
p1738
aa(lp1739
I4149
aS'3'
aS'166'
p1740
aa(lp1741
I5784
aS'32'
p1742
aS'149'
p1743
aa(lp1744
I6553
aS'44'
p1745
aS'172'
p1746
aa(lp1747
I7213
aS'46'
p1748
aS'82'
p1749
aasS'1M6I'
p1750
(lp1751
(lp1752
I6590
aS'465'
p1753
aS'594'
p1754
aa(lp1755
I7341
aS'136'
p1756
aS'459'
p1757
aasS'4NEV'
p1758
(lp1759
(lp1760
I4854
aS'362'
p1761
aS'468'
p1762
aa(lp1763
I7341
aS'5'
aS'342'
p1764
aasS'1GV4'
p1765
(lp1766
(lp1767
I6590
aS'464'
p1768
aS'593'
p1769
aa(lp1770
I7341
aS'135'
p1771
aS'458'
p1772
aasS'4BZK'
p1773
(lp1774
(lp1775
I3599
aS'514'
p1776
aS'682'
p1777
aa(lp1778
I7213
aS'248'
p1779
aS'286'
p1780
aa(lp1781
I7213
aS'12'
p1782
aS'36'
p1783
aa(lp1784
I7213
aS'45'
p1785
aS'83'
p1786
aa(lp1787
I7213
aS'198'
p1788
aS'234'
p1789
aa(lp1790
I7213
aS'45'
p1791
aS'83'
p1792
aa(lp1793
I7213
aS'198'
p1794
aS'234'
p1795
aasS'2VXX'
p1796
(lp1797
(lp1798
I6266
aS'32'
p1799
aS'171'
p1800
aasS'2H5S'
p1801
(lp1802
(lp1803
I6991
aS'53'
p1804
aS'262'
p1805
aasS'3RD0'
p1806
(lp1807
(lp1808
I6266
aS'14'
p1809
aS'153'
p1810
aasS'3DWZ'
p1811
(lp1812
(lp1813
I6991
aS'68'
p1814
aS'277'
p1815
aasS'3SZW'
p1816
(lp1817
(lp1818
I7341
aS'3'
aS'301'
p1819
aasS'2CN7'
p1820
(lp1821
(lp1822
I6266
aS'18'
p1823
aS'158'
p1824
aasS'2TMD'
p1825
(lp1826
(lp1827
I6243
aS'9'
aS'340'
p1828
aa(lp1829
I7341
aS'391'
p1830
aS'684'
p1831
aasS'3KXU'
p1832
(lp1833
(lp1834
I6266
aS'15'
p1835
aS'154'
p1836
aasS'2YQU'
p1837
(lp1838
(lp1839
I4854
aS'336'
p1840
aS'444'
p1841
aa(lp1842
I7341
aS'2'
aS'317'
p1843
aasS'4LII'
p1844
(lp1845
(lp1846
I6590
aS'465'
p1847
aS'594'
p1848
aa(lp1849
I7341
aS'136'
p1850
aS'459'
p1851
aasS'1HYU'
p1852
(lp1853
(lp1854
I6322
aS'126'
p1855
aS'194'
p1856
aa(lp1857
I7341
aS'213'
p1858
aS'504'
p1859
aasS'1TKO'
p1860
(lp1861
(lp1862
I6266
aS'32'
p1863
aS'173'
p1864
aasS'4OCG'
p1865
(lp1866
(lp1867
I3419
aS'482'
p1868
aS'562'
p1869
aa(lp1870
I4854
aS'350'
p1871
aS'451'
p1872
aa(lp1873
I7341
aS'2'
aS'327'
p1874
aasS'1FQG'
p1875
(lp1876
(lp1877
I6991
aS'51'
p1878
aS'259'
p1879
aasS'1H96'
p1880
(lp1881
(lp1882
I6266
aS'14'
p1883
aS'154'
p1884
aasS'3KLJ'
p1885
(lp1886
(lp1887
I7341
aS'5'
aS'278'
p1888
aasS'4DZ0'
p1889
(lp1890
(lp1891
I6266
aS'18'
p1892
aS'158'
p1893
aasS'3EG6'
p1894
(lp1895
(lp1896
I7213
aS'39'
p1897
aS'72'
p1898
aa(lp1899
I7213
aS'79'
p1900
aS'115'
p1901
aa(lp1902
I7213
aS'119'
p1903
aS'157'
p1904
aa(lp1905
I7213
aS'161'
p1906
aS'199'
p1907
aa(lp1908
I7213
aS'203'
p1909
aS'242'
p1910
aa(lp1911
I7213
aS'246'
p1912
aS'287'
p1913
aa(lp1914
I7213
aS'293'
p1915
aS'331'
p1916
aasS'1XZ1'
p1917
(lp1918
(lp1919
I6266
aS'14'
p1920
aS'153'
p1921
aasS'3N7W'
p1922
(lp1923
(lp1924
I6991
aS'68'
p1925
aS'277'
p1926
aasS'1XZ3'
p1927
(lp1928
(lp1929
I6266
aS'14'
p1930
aS'153'
p1931
aasS'2CN6'
p1932
(lp1933
(lp1934
I6266
aS'18'
p1935
aS'158'
p1936
aasS'3O7S'
p1937
(lp1938
(lp1939
I6266
aS'14'
p1940
aS'153'
p1941
aasS'3O7R'
p1942
(lp1943
(lp1944
I6266
aS'14'
p1945
aS'153'
p1946
aasS'3KX9'
p1947
(lp1948
(lp1949
I6266
aS'10'
p1950
aS'145'
p1951
aasS'1BCF'
p1952
(lp1953
(lp1954
I6266
aS'8'
aS'144'
p1955
aasS'4QB8'
p1956
(lp1957
(lp1958
I6991
aS'68'
p1959
aS'277'
p1960
aasS'3FI6'
p1961
(lp1962
(lp1963
I6266
aS'14'
p1964
aS'153'
p1965
aasS'1HRS'
p1966
(lp1967
(lp1968
I6266
aS'14'
p1969
aS'153'
p1970
aasS'3OPR'
p1971
(lp1972
(lp1973
I6991
aS'53'
p1974
aS'262'
p1975
aa(lp1976
I6991
aS'53'
p1977
aS'262'
p1978
aasS'3OPP'
p1979
(lp1980
(lp1981
I6991
aS'53'
p1982
aS'262'
p1983
aasS'5D8Y'
p1984
(lp1985
(lp1986
I6266
aS'8'
aS'143'
p1987
aasS'5D8X'
p1988
(lp1989
(lp1990
I6266
aS'8'
aS'143'
p1991
aasS'1DJA'
p1992
(lp1993
(lp1994
I6991
aS'52'
p1995
aS'255'
p1996
aasS'4GR1'
p1997
(lp1998
(lp1999
I4854
aS'367'
p2000
aS'477'
p2001
aa(lp2002
I7341
aS'21'
p2003
aS'346'
p2004
aasS'1DJC'
p2005
(lp2006
(lp2007
I6991
aS'52'
p2008
aS'255'
p2009
aasS'1DJB'
p2010
(lp2011
(lp2012
I6991
aS'52'
p2013
aS'255'
p2014
aasS'5D8S'
p2015
(lp2016
(lp2017
I6266
aS'8'
aS'143'
p2018
aasS'5D8R'
p2019
(lp2020
(lp2021
I6266
aS'8'
aS'143'
p2022
aasS'3R2S'
p2023
(lp2024
(lp2025
I6266
aS'8'
aS'144'
p2026
aasS'3R2R'
p2027
(lp2028
(lp2029
I6266
aS'8'
aS'144'
p2030
aasS'3R2M'
p2031
(lp2032
(lp2033
I6266
aS'8'
aS'144'
p2034
aasS'3R2L'
p2035
(lp2036
(lp2037
I6266
aS'8'
aS'144'
p2038
aasS'4UJE'
p2039
(lp2040
(lp2041
I62
aS'19'
p2042
aS'100'
p2043
aa(lp2044
I86
aS'2'
aS'69'
p2045
aa(lp2046
I125
aS'24'
p2047
aS'101'
p2048
aa(lp2049
I143
aS'19'
p2050
aS'112'
p2051
aa(lp2052
I143
aS'114'
p2053
aS'182'
p2054
aa(lp2055
I145
aS'10'
p2056
aS'63'
p2057
aa(lp2058
I147
aS'102'
p2059
aS'166'
p2060
aa(lp2061
I341
aS'6'
aS'99'
p2062
aa(lp2063
I472
aS'275'
p2064
aS'348'
p2065
aa(lp2066
I481
aS'4'
aS'145'
p2067
aa(lp2068
I512
aS'2'
aS'60'
p2069
aa(lp2070
I587
aS'2'
aS'96'
p2071
aa(lp2072
I625
aS'8'
aS'68'
p2073
aa(lp2074
I672
aS'2'
aS'190'
p2075
aa(lp2076
I905
aS'17'
p2077
aS'124'
p2078
aa(lp2079
I1127
aS'212'
p2080
aS'258'
p2081
aa(lp2082
I1431
aS'38'
p2083
aS'67'
p2084
aa(lp2085
I1484
aS'3'
aS'88'
p2086
aa(lp2087
I1732
aS'12'
p2088
aS'165'
p2089
aa(lp2090
I1735
aS'16'
p2091
aS'116'
p2092
aa(lp2093
I1787
aS'67'
p2094
aS'165'
p2095
aa(lp2096
I1801
aS'9'
aS'184'
p2097
aa(lp2098
I2021
aS'90'
p2099
aS'140'
p2100
aa(lp2101
I2074
aS'2'
aS'190'
p2102
aa(lp2103
I2075
aS'78'
p2104
aS'127'
p2105
aa(lp2106
I2266
aS'3'
aS'99'
p2107
aa(lp2108
I2417
aS'51'
p2109
aS'83'
p2110
aa(lp2111
I2417
aS'7'
aS'35'
p2112
aa(lp2113
I2417
aS'178'
p2114
aS'211'
p2115
aa(lp2116
I2446
aS'106'
p2117
aS'188'
p2118
aa(lp2119
I2502
aS'3'
aS'39'
p2120
aa(lp2121
I2772
aS'12'
p2122
aS'85'
p2123
aa(lp2124
I2772
aS'99'
p2125
aS'178'
p2126
aa(lp2127
I2835
aS'108'
p2128
aS'151'
p2129
aa(lp2130
I3026
aS'52'
p2131
aS'136'
p2132
aa(lp2133
I3055
aS'7'
aS'130'
p2134
aa(lp2135
I3071
aS'22'
p2136
aS'139'
p2137
aa(lp2138
I3282
aS'7'
aS'191'
p2139
aa(lp2140
I3544
aS'14'
p2141
aS'142'
p2142
aa(lp2143
I3545
aS'21'
p2144
aS'115'
p2145
aa(lp2146
I3548
aS'75'
p2147
aS'144'
p2148
aa(lp2149
I3549
aS'9'
aS'54'
p2150
aa(lp2151
I3550
aS'74'
p2152
aS'147'
p2153
aa(lp2154
I3651
aS'17'
p2155
aS'87'
p2156
aa(lp2157
I3767
aS'21'
p2158
aS'221'
p2159
aa(lp2160
I3809
aS'185'
p2161
aS'256'
p2162
aa(lp2163
I3813
aS'6'
aS'56'
p2164
aa(lp2165
I4048
aS'202'
p2166
aS'219'
p2167
aa(lp2168
I4161
aS'27'
p2169
aS'173'
p2170
aa(lp2171
I4162
aS'28'
p2172
aS'146'
p2173
aa(lp2174
I4222
aS'2'
aS'54'
p2175
aa(lp2176
I4304
aS'5'
aS'73'
p2177
aa(lp2178
I4410
aS'47'
p2179
aS'120'
p2180
aa(lp2181
I4667
aS'5'
aS'139'
p2182
aa(lp2183
I4691
aS'9'
aS'49'
p2184
aa(lp2185
I4935
aS'2'
aS'119'
p2186
aa(lp2187
I4980
aS'3'
aS'42'
p2188
aa(lp2189
I5041
aS'6'
aS'130'
p2190
aa(lp2191
I5042
aS'14'
p2192
aS'146'
p2193
aa(lp2194
I5050
aS'62'
p2195
aS'204'
p2196
aa(lp2197
I5273
aS'97'
p2198
aS'230'
p2199
aa(lp2200
I5516
aS'10'
p2201
aS'63'
p2202
aa(lp2203
I5517
aS'22'
p2204
aS'262'
p2205
aa(lp2206
I5519
aS'12'
p2207
aS'207'
p2208
aa(lp2209
I5520
aS'2'
aS'375'
p2210
aa(lp2211
I5521
aS'13'
p2212
aS'90'
p2213
aa(lp2214
I5532
aS'9'
aS'140'
p2215
aa(lp2216
I5807
aS'1'
aS'79'
p2217
aa(lp2218
I5992
aS'8'
aS'63'
p2219
aa(lp2220
I5993
aS'8'
aS'122'
p2221
aa(lp2222
I5996
aS'18'
p2223
aS'151'
p2224
aa(lp2225
I5997
aS'76'
p2226
aS'140'
p2227
aa(lp2228
I6062
aS'192'
p2229
aS'283'
p2230
aa(lp2231
I6235
aS'1'
aS'25'
p2232
aa(lp2233
I6236
aS'17'
p2234
aS'94'
p2235
aa(lp2236
I6345
aS'20'
p2237
aS'92'
p2238
aa(lp2239
I6388
aS'3'
aS'95'
p2240
aa(lp2241
I6403
aS'29'
p2242
aS'147'
p2243
aa(lp2244
I6412
aS'47'
p2245
aS'128'
p2246
aa(lp2247
I6453
aS'16'
p2248
aS'117'
p2249
aa(lp2250
I6484
aS'181'
p2251
aS'288'
p2252
aa(lp2253
I6625
aS'17'
p2254
aS'110'
p2255
aa(lp2256
I6625
aS'131'
p2257
aS'212'
p2258
aa(lp2259
I6625
aS'13'
p2260
aS'105'
p2261
aa(lp2262
I6680
aS'95'
p2263
aS'169'
p2264
aa(lp2265
I6703
aS'1'
aS'64'
p2266
aa(lp2267
I6753
aS'5'
aS'104'
p2268
aa(lp2269
I6925
aS'1'
aS'126'
p2270
aa(lp2271
I7161
aS'40'
p2272
aS'112'
p2273
aa(lp2274
I7213
aS'9'
aS'44'
p2275
aa(lp2276
I7213
aS'55'
p2277
aS'91'
p2278
aa(lp2279
I7213
aS'96'
p2280
aS'133'
p2281
aa(lp2282
I7213
aS'145'
p2283
aS'178'
p2284
aa(lp2285
I7213
aS'188'
p2286
aS'220'
p2287
aa(lp2288
I7213
aS'225'
p2289
aS'260'
p2290
aa(lp2291
I7223
aS'5'
aS'120'
p2292
aa(lp2293
I7397
aS'28'
p2294
aS'82'
p2295
aa(lp2296
I7432
aS'2'
aS'97'
p2297
aa(lp2298
I7504
aS'102'
p2299
aS'147'
p2300
aasS'4UJD'
p2301
(lp2302
(lp2303
I62
aS'19'
p2304
aS'100'
p2305
aa(lp2306
I86
aS'2'
aS'69'
p2307
aa(lp2308
I125
aS'24'
p2309
aS'101'
p2310
aa(lp2311
I143
aS'19'
p2312
aS'112'
p2313
aa(lp2314
I143
aS'114'
p2315
aS'182'
p2316
aa(lp2317
I145
aS'10'
p2318
aS'63'
p2319
aa(lp2320
I147
aS'102'
p2321
aS'166'
p2322
aa(lp2323
I341
aS'6'
aS'99'
p2324
aa(lp2325
I472
aS'275'
p2326
aS'348'
p2327
aa(lp2328
I481
aS'4'
aS'145'
p2329
aa(lp2330
I512
aS'2'
aS'60'
p2331
aa(lp2332
I587
aS'2'
aS'96'
p2333
aa(lp2334
I625
aS'8'
aS'68'
p2335
aa(lp2336
I672
aS'2'
aS'190'
p2337
aa(lp2338
I905
aS'17'
p2339
aS'124'
p2340
aa(lp2341
I1127
aS'212'
p2342
aS'258'
p2343
aa(lp2344
I1431
aS'38'
p2345
aS'67'
p2346
aa(lp2347
I1484
aS'3'
aS'88'
p2348
aa(lp2349
I1732
aS'12'
p2350
aS'165'
p2351
aa(lp2352
I1735
aS'16'
p2353
aS'116'
p2354
aa(lp2355
I1787
aS'67'
p2356
aS'165'
p2357
aa(lp2358
I1801
aS'9'
aS'184'
p2359
aa(lp2360
I2021
aS'90'
p2361
aS'140'
p2362
aa(lp2363
I2074
aS'2'
aS'190'
p2364
aa(lp2365
I2075
aS'78'
p2366
aS'127'
p2367
aa(lp2368
I2266
aS'3'
aS'99'
p2369
aa(lp2370
I2417
aS'51'
p2371
aS'83'
p2372
aa(lp2373
I2417
aS'7'
aS'35'
p2374
aa(lp2375
I2417
aS'178'
p2376
aS'211'
p2377
aa(lp2378
I2446
aS'106'
p2379
aS'188'
p2380
aa(lp2381
I2502
aS'3'
aS'39'
p2382
aa(lp2383
I2772
aS'12'
p2384
aS'85'
p2385
aa(lp2386
I2772
aS'99'
p2387
aS'178'
p2388
aa(lp2389
I2835
aS'108'
p2390
aS'151'
p2391
aa(lp2392
I3026
aS'52'
p2393
aS'136'
p2394
aa(lp2395
I3055
aS'7'
aS'130'
p2396
aa(lp2397
I3071
aS'22'
p2398
aS'139'
p2399
aa(lp2400
I3282
aS'7'
aS'191'
p2401
aa(lp2402
I3544
aS'14'
p2403
aS'142'
p2404
aa(lp2405
I3545
aS'21'
p2406
aS'115'
p2407
aa(lp2408
I3548
aS'75'
p2409
aS'144'
p2410
aa(lp2411
I3549
aS'9'
aS'54'
p2412
aa(lp2413
I3550
aS'74'
p2414
aS'147'
p2415
aa(lp2416
I3651
aS'17'
p2417
aS'87'
p2418
aa(lp2419
I3767
aS'21'
p2420
aS'221'
p2421
aa(lp2422
I3809
aS'185'
p2423
aS'256'
p2424
aa(lp2425
I3813
aS'6'
aS'56'
p2426
aa(lp2427
I4048
aS'202'
p2428
aS'219'
p2429
aa(lp2430
I4161
aS'27'
p2431
aS'173'
p2432
aa(lp2433
I4162
aS'28'
p2434
aS'146'
p2435
aa(lp2436
I4222
aS'2'
aS'54'
p2437
aa(lp2438
I4304
aS'5'
aS'73'
p2439
aa(lp2440
I4410
aS'47'
p2441
aS'120'
p2442
aa(lp2443
I4654
aS'1084'
p2444
aS'1160'
p2445
aa(lp2446
I4667
aS'5'
aS'139'
p2447
aa(lp2448
I4691
aS'9'
aS'49'
p2449
aa(lp2450
I4935
aS'2'
aS'119'
p2451
aa(lp2452
I4980
aS'3'
aS'42'
p2453
aa(lp2454
I5041
aS'6'
aS'130'
p2455
aa(lp2456
I5042
aS'14'
p2457
aS'146'
p2458
aa(lp2459
I5050
aS'62'
p2460
aS'204'
p2461
aa(lp2462
I5273
aS'97'
p2463
aS'230'
p2464
aa(lp2465
I5516
aS'10'
p2466
aS'63'
p2467
aa(lp2468
I5517
aS'22'
p2469
aS'262'
p2470
aa(lp2471
I5519
aS'12'
p2472
aS'207'
p2473
aa(lp2474
I5520
aS'2'
aS'375'
p2475
aa(lp2476
I5521
aS'13'
p2477
aS'90'
p2478
aa(lp2479
I5532
aS'9'
aS'140'
p2480
aa(lp2481
I5807
aS'1'
aS'79'
p2482
aa(lp2483
I5903
aS'1189'
p2484
aS'1283'
p2485
aa(lp2486
I5992
aS'8'
aS'63'
p2487
aa(lp2488
I5993
aS'8'
aS'122'
p2489
aa(lp2490
I5996
aS'18'
p2491
aS'151'
p2492
aa(lp2493
I5997
aS'76'
p2494
aS'140'
p2495
aa(lp2496
I6062
aS'192'
p2497
aS'283'
p2498
aa(lp2499
I6226
aS'847'
p2500
aS'1057'
p2501
aa(lp2502
I6235
aS'1'
aS'25'
p2503
aa(lp2504
I6236
aS'17'
p2505
aS'94'
p2506
aa(lp2507
I6345
aS'20'
p2508
aS'92'
p2509
aa(lp2510
I6388
aS'3'
aS'95'
p2511
aa(lp2512
I6403
aS'29'
p2513
aS'147'
p2514
aa(lp2515
I6412
aS'47'
p2516
aS'128'
p2517
aa(lp2518
I6453
aS'16'
p2519
aS'117'
p2520
aa(lp2521
I6484
aS'181'
p2522
aS'288'
p2523
aa(lp2524
I6625
aS'131'
p2525
aS'212'
p2526
aa(lp2527
I6625
aS'13'
p2528
aS'105'
p2529
aa(lp2530
I6625
aS'17'
p2531
aS'110'
p2532
aa(lp2533
I6680
aS'95'
p2534
aS'169'
p2535
aa(lp2536
I6703
aS'1'
aS'64'
p2537
aa(lp2538
I6753
aS'5'
aS'104'
p2539
aa(lp2540
I6925
aS'1'
aS'126'
p2541
aa(lp2542
I7161
aS'40'
p2543
aS'112'
p2544
aa(lp2545
I7213
aS'9'
aS'44'
p2546
aa(lp2547
I7213
aS'55'
p2548
aS'91'
p2549
aa(lp2550
I7213
aS'96'
p2551
aS'133'
p2552
aa(lp2553
I7213
aS'145'
p2554
aS'178'
p2555
aa(lp2556
I7213
aS'188'
p2557
aS'220'
p2558
aa(lp2559
I7213
aS'225'
p2560
aS'260'
p2561
aa(lp2562
I7223
aS'5'
aS'120'
p2563
aa(lp2564
I7397
aS'28'
p2565
aS'82'
p2566
aa(lp2567
I7432
aS'2'
aS'97'
p2568
aa(lp2569
I7504
aS'102'
p2570
aS'147'
p2571
aasS'4UJC'
p2572
(lp2573
(lp2574
I62
aS'19'
p2575
aS'100'
p2576
aa(lp2577
I86
aS'2'
aS'69'
p2578
aa(lp2579
I125
aS'24'
p2580
aS'101'
p2581
aa(lp2582
I143
aS'19'
p2583
aS'112'
p2584
aa(lp2585
I143
aS'114'
p2586
aS'182'
p2587
aa(lp2588
I145
aS'10'
p2589
aS'63'
p2590
aa(lp2591
I147
aS'102'
p2592
aS'166'
p2593
aa(lp2594
I341
aS'6'
aS'99'
p2595
aa(lp2596
I472
aS'275'
p2597
aS'348'
p2598
aa(lp2599
I481
aS'4'
aS'145'
p2600
aa(lp2601
I512
aS'2'
aS'60'
p2602
aa(lp2603
I587
aS'2'
aS'96'
p2604
aa(lp2605
I625
aS'8'
aS'68'
p2606
aa(lp2607
I672
aS'2'
aS'190'
p2608
aa(lp2609
I905
aS'17'
p2610
aS'124'
p2611
aa(lp2612
I1127
aS'212'
p2613
aS'258'
p2614
aa(lp2615
I1431
aS'38'
p2616
aS'67'
p2617
aa(lp2618
I1484
aS'3'
aS'88'
p2619
aa(lp2620
I1732
aS'12'
p2621
aS'165'
p2622
aa(lp2623
I1735
aS'16'
p2624
aS'116'
p2625
aa(lp2626
I1787
aS'67'
p2627
aS'165'
p2628
aa(lp2629
I1801
aS'9'
aS'184'
p2630
aa(lp2631
I2021
aS'90'
p2632
aS'140'
p2633
aa(lp2634
I2074
aS'2'
aS'190'
p2635
aa(lp2636
I2075
aS'78'
p2637
aS'127'
p2638
aa(lp2639
I2266
aS'3'
aS'99'
p2640
aa(lp2641
I2417
aS'51'
p2642
aS'83'
p2643
aa(lp2644
I2417
aS'7'
aS'35'
p2645
aa(lp2646
I2417
aS'178'
p2647
aS'211'
p2648
aa(lp2649
I2446
aS'106'
p2650
aS'188'
p2651
aa(lp2652
I2502
aS'3'
aS'39'
p2653
aa(lp2654
I2772
aS'12'
p2655
aS'85'
p2656
aa(lp2657
I2772
aS'99'
p2658
aS'178'
p2659
aa(lp2660
I2835
aS'108'
p2661
aS'151'
p2662
aa(lp2663
I3026
aS'52'
p2664
aS'136'
p2665
aa(lp2666
I3055
aS'7'
aS'130'
p2667
aa(lp2668
I3071
aS'22'
p2669
aS'139'
p2670
aa(lp2671
I3282
aS'7'
aS'191'
p2672
aa(lp2673
I3544
aS'14'
p2674
aS'142'
p2675
aa(lp2676
I3545
aS'21'
p2677
aS'115'
p2678
aa(lp2679
I3548
aS'75'
p2680
aS'144'
p2681
aa(lp2682
I3549
aS'9'
aS'54'
p2683
aa(lp2684
I3550
aS'74'
p2685
aS'147'
p2686
aa(lp2687
I3651
aS'17'
p2688
aS'87'
p2689
aa(lp2690
I3767
aS'21'
p2691
aS'221'
p2692
aa(lp2693
I3809
aS'185'
p2694
aS'256'
p2695
aa(lp2696
I3813
aS'6'
aS'56'
p2697
aa(lp2698
I4048
aS'202'
p2699
aS'219'
p2700
aa(lp2701
I4161
aS'27'
p2702
aS'173'
p2703
aa(lp2704
I4162
aS'28'
p2705
aS'146'
p2706
aa(lp2707
I4222
aS'2'
aS'54'
p2708
aa(lp2709
I4304
aS'5'
aS'73'
p2710
aa(lp2711
I4410
aS'47'
p2712
aS'120'
p2713
aa(lp2714
I4654
aS'1084'
p2715
aS'1160'
p2716
aa(lp2717
I4667
aS'5'
aS'139'
p2718
aa(lp2719
I4691
aS'9'
aS'49'
p2720
aa(lp2721
I4935
aS'2'
aS'119'
p2722
aa(lp2723
I4980
aS'3'
aS'42'
p2724
aa(lp2725
I5041
aS'6'
aS'130'
p2726
aa(lp2727
I5042
aS'14'
p2728
aS'146'
p2729
aa(lp2730
I5050
aS'62'
p2731
aS'204'
p2732
aa(lp2733
I5273
aS'97'
p2734
aS'230'
p2735
aa(lp2736
I5516
aS'10'
p2737
aS'63'
p2738
aa(lp2739
I5517
aS'22'
p2740
aS'262'
p2741
aa(lp2742
I5519
aS'12'
p2743
aS'207'
p2744
aa(lp2745
I5520
aS'2'
aS'375'
p2746
aa(lp2747
I5521
aS'13'
p2748
aS'90'
p2749
aa(lp2750
I5532
aS'9'
aS'140'
p2751
aa(lp2752
I5807
aS'1'
aS'79'
p2753
aa(lp2754
I5903
aS'1189'
p2755
aS'1283'
p2756
aa(lp2757
I5992
aS'8'
aS'63'
p2758
aa(lp2759
I5993
aS'8'
aS'122'
p2760
aa(lp2761
I5996
aS'18'
p2762
aS'151'
p2763
aa(lp2764
I5997
aS'76'
p2765
aS'140'
p2766
aa(lp2767
I6062
aS'192'
p2768
aS'283'
p2769
aa(lp2770
I6226
aS'847'
p2771
aS'1057'
p2772
aa(lp2773
I6235
aS'1'
aS'25'
p2774
aa(lp2775
I6236
aS'17'
p2776
aS'94'
p2777
aa(lp2778
I6345
aS'20'
p2779
aS'92'
p2780
aa(lp2781
I6388
aS'3'
aS'95'
p2782
aa(lp2783
I6403
aS'29'
p2784
aS'147'
p2785
aa(lp2786
I6412
aS'47'
p2787
aS'128'
p2788
aa(lp2789
I6453
aS'16'
p2790
aS'117'
p2791
aa(lp2792
I6484
aS'181'
p2793
aS'288'
p2794
aa(lp2795
I6625
aS'131'
p2796
aS'212'
p2797
aa(lp2798
I6625
aS'13'
p2799
aS'105'
p2800
aa(lp2801
I6625
aS'17'
p2802
aS'110'
p2803
aa(lp2804
I6680
aS'95'
p2805
aS'169'
p2806
aa(lp2807
I6703
aS'1'
aS'64'
p2808
aa(lp2809
I6753
aS'5'
aS'104'
p2810
aa(lp2811
I6925
aS'1'
aS'126'
p2812
aa(lp2813
I7161
aS'40'
p2814
aS'112'
p2815
aa(lp2816
I7213
aS'9'
aS'44'
p2817
aa(lp2818
I7213
aS'55'
p2819
aS'91'
p2820
aa(lp2821
I7213
aS'96'
p2822
aS'133'
p2823
aa(lp2824
I7213
aS'145'
p2825
aS'178'
p2826
aa(lp2827
I7213
aS'188'
p2828
aS'220'
p2829
aa(lp2830
I7213
aS'225'
p2831
aS'260'
p2832
aa(lp2833
I7223
aS'5'
aS'120'
p2834
aa(lp2835
I7397
aS'28'
p2836
aS'82'
p2837
aa(lp2838
I7432
aS'2'
aS'97'
p2839
aa(lp2840
I7504
aS'102'
p2841
aS'147'
p2842
aasS'2QXV'
p2843
(lp2844
(lp2845
I5387
aS'40'
p2846
aS'68'
p2847
aa(lp2848
I7213
aS'180'
p2849
aS'218'
p2850
aasS'1JI4'
p2851
(lp2852
(lp2853
I6266
aS'5'
aS'143'
p2854
aasS'1JI5'
p2855
(lp2856
(lp2857
I6266
aS'6'
aS'145'
p2858
aasS'1DJQ'
p2859
(lp2860
(lp2861
I6243
aS'9'
aS'340'
p2862
aa(lp2863
I7341
aS'391'
p2864
aS'684'
p2865
aasS'3OPH'
p2866
(lp2867
(lp2868
I6991
aS'53'
p2869
aS'262'
p2870
aasS'2FFX'
p2871
(lp2872
(lp2873
I6266
aS'18'
p2874
aS'157'
p2875
aasS'3VFF'
p2876
(lp2877
(lp2878
I6991
aS'54'
p2879
aS'263'
p2880
aasS'1SQ3'
p2881
(lp2882
(lp2883
I6266
aS'10'
p2884
aS'145'
p2885
aasS'4B1B'
p2886
(lp2887
(lp2888
I4854
aS'393'
p2889
aS'505'
p2890
aa(lp2891
I7341
aS'42'
p2892
aS'373'
p2893
aasS'4XMM'
p2894
(lp2895
(lp2896
I466
aS'89'
p2897
aS'697'
p2898
aa(lp2899
I1690
aS'167'
p2900
aS'247'
p2901
aa(lp2902
I1690
aS'123'
p2903
aS'208'
p2904
aa(lp2905
I2388
aS'38'
p2906
aS'126'
p2907
aa(lp2908
I2388
aS'9'
aS'109'
p2909
aa(lp2910
I5349
aS'293'
p2911
aS'548'
p2912
aa(lp2913
I6078
aS'66'
p2914
aS'442'
p2915
aa(lp2916
I7213
aS'12'
p2917
aS'36'
p2918
aa(lp2919
I7213
aS'45'
p2920
aS'83'
p2921
aa(lp2922
I7213
aS'198'
p2923
aS'234'
p2924
aa(lp2925
I7213
aS'6'
aS'36'
p2926
aa(lp2927
I7213
aS'49'
p2928
aS'84'
p2929
aa(lp2930
I7213
aS'208'
p2931
aS'243'
p2932
aa(lp2933
I7213
aS'300'
p2934
aS'332'
p2935
aasS'1YM1'
p2936
(lp2937
(lp2938
I6991
aS'53'
p2939
aS'262'
p2940
aasS'3VFH'
p2941
(lp2942
(lp2943
I6991
aS'54'
p2944
aS'263'
p2945
aasS'1SQ9'
p2946
(lp2947
(lp2948
I7213
aS'13'
p2949
aS'42'
p2950
aa(lp2951
I7213
aS'288'
p2952
aS'319'
p2953
aasS'3ZHH'
p2954
(lp2955
(lp2956
I6991
aS'54'
p2957
aS'261'
p2958
aasS'3UVO'
p2959
(lp2960
(lp2961
I7213
aS'39'
p2962
aS'72'
p2963
aa(lp2964
I7213
aS'79'
p2965
aS'115'
p2966
aa(lp2967
I7213
aS'119'
p2968
aS'157'
p2969
aa(lp2970
I7213
aS'161'
p2971
aS'199'
p2972
aa(lp2973
I7213
aS'203'
p2974
aS'242'
p2975
aa(lp2976
I7213
aS'246'
p2977
aS'287'
p2978
aa(lp2979
I7213
aS'293'
p2980
aS'331'
p2981
aasS'4BD0'
p2982
(lp2983
(lp2984
I6991
aS'53'
p2985
aS'262'
p2986
aasS'1UMN'
p2987
(lp2988
(lp2989
I6266
aS'27'
p2990
aS'170'
p2991
aasS'3II4'
p2992
(lp2993
(lp2994
I4854
aS'346'
p2995
aS'452'
p2996
aa(lp2997
I7341
aS'4'
aS'324'
p2998
aasS'3BVK'
p2999
(lp3000
(lp3001
I6266
aS'7'
aS'144'
p3002
aasS'3N8S'
p3003
(lp3004
(lp3005
I6991
aS'68'
p3006
aS'277'
p3007
aasS'3N8R'
p3008
(lp3009
(lp3010
I6991
aS'68'
p3011
aS'277'
p3012
aasS'2C7G'
p3013
(lp3014
(lp3015
I7341
aS'6'
aS'215'
p3016
aasS'2XJM'
p3017
(lp3018
(lp3019
I6266
aS'27'
p3020
aS'170'
p3021
aasS'2XJN'
p3022
(lp3023
(lp3024
I6266
aS'27'
p3025
aS'170'
p3026
aasS'2XJO'
p3027
(lp3028
(lp3029
I6266
aS'27'
p3030
aS'170'
p3031
aasS'1BHY'
p3032
(lp3033
(lp3034
I4854
aS'474'
p3035
aS'582'
p3036
aa(lp3037
I7341
aS'123'
p3038
aS'455'
p3039
aasS'3UZS'
p3040
(lp3041
(lp3042
I252
aS'192'
p3043
aS'453'
p3044
aa(lp3045
I2564
aS'560'
p3046
aS'650'
p3047
aa(lp3048
I2578
aS'55'
p3049
aS'174'
p3050
aa(lp3051
I5179
aS'8'
aS'68'
p3052
aa(lp3053
I7213
aS'47'
p3054
aS'83'
p3055
aa(lp3056
I7213
aS'98'
p3057
aS'125'
p3058
aa(lp3059
I7213
aS'174'
p3060
aS'212'
p3061
aa(lp3062
I7213
aS'217'
p3063
aS'254'
p3064
aa(lp3065
I7213
aS'260'
p3066
aS'298'
p3067
aa(lp3068
I7213
aS'307'
p3069
aS'340'
p3070
aasS'2PM7'
p3071
(lp3072
(lp3073
I3599
aS'514'
p3074
aS'682'
p3075
aa(lp3076
I7213
aS'45'
p3077
aS'83'
p3078
aa(lp3079
I7213
aS'198'
p3080
aS'234'
p3081
aasS'2PM6'
p3082
(lp3083
(lp3084
I3599
aS'514'
p3085
aS'684'
p3086
aa(lp3087
I7213
aS'12'
p3088
aS'36'
p3089
aa(lp3090
I7213
aS'45'
p3091
aS'83'
p3092
aa(lp3093
I7213
aS'198'
p3094
aS'234'
p3095
aasS'4A0A'
p3096
(lp3097
(lp3098
I357
aS'75'
p3099
aS'392'
p3100
aa(lp3101
I6913
aS'791'
p3102
aS'1099'
p3103
aa(lp3104
I7213
aS'280'
p3105
aS'307'
p3106
aasS'4A0B'
p3107
(lp3108
(lp3109
I357
aS'75'
p3110
aS'543'
p3111
aa(lp3112
I6913
aS'791'
p3113
aS'1099'
p3114
aa(lp3115
I7213
aS'280'
p3116
aS'307'
p3117
aasS'3FG2'
p3118
(lp3119
(lp3120
I6641
aS'319'
p3121
aS'402'
p3122
aa(lp3123
I7341
aS'4'
aS'300'
p3124
aasS'4FK1'
p3125
(lp3126
(lp3127
I7341
aS'5'
aS'285'
p3128
aa(lp3129
I7341
aS'5'
aS'285'
p3130
aasS'2YJJ'
p3131
(lp3132
(lp3133
I6266
aS'34'
p3134
aS'160'
p3135
aasS'4MN9'
p3136
(lp3137
(lp3138
I6266
aS'14'
p3139
aS'153'
p3140
aasS'3N8L'
p3141
(lp3142
(lp3143
I6991
aS'68'
p3144
aS'277'
p3145
aasS'2CC1'
p3146
(lp3147
(lp3148
I6991
aS'51'
p3149
aS'262'
p3150
aasS'4BH6'
p3151
(lp3152
(lp3153
I7213
aS'335'
p3154
aS'366'
p3155
aa(lp3156
I7213
aS'418'
p3157
aS'458'
p3158
aa(lp3159
I7213
aS'506'
p3160
aS'543'
p3161
aasS'3PVU'
p3162
(lp3163
(lp3164
I252
aS'192'
p3165
aS'453'
p3166
aa(lp3167
I2564
aS'560'
p3168
aS'650'
p3169
aa(lp3170
I2578
aS'55'
p3171
aS'174'
p3172
aa(lp3173
I5179
aS'8'
aS'68'
p3174
aa(lp3175
I7213
aS'47'
p3176
aS'83'
p3177
aa(lp3178
I7213
aS'98'
p3179
aS'125'
p3180
aa(lp3181
I7213
aS'174'
p3182
aS'212'
p3183
aa(lp3184
I7213
aS'217'
p3185
aS'254'
p3186
aa(lp3187
I7213
aS'260'
p3188
aS'298'
p3189
aa(lp3190
I7213
aS'307'
p3191
aS'340'
p3192
aasS'3EMH'
p3193
(lp3194
(lp3195
I7213
aS'39'
p3196
aS'72'
p3197
aa(lp3198
I7213
aS'79'
p3199
aS'115'
p3200
aa(lp3201
I7213
aS'119'
p3202
aS'157'
p3203
aa(lp3204
I7213
aS'161'
p3205
aS'199'
p3206
aa(lp3207
I7213
aS'203'
p3208
aS'242'
p3209
aa(lp3210
I7213
aS'246'
p3211
aS'287'
p3212
aa(lp3213
I7213
aS'293'
p3214
aS'331'
p3215
aasS'4QY6'
p3216
(lp3217
(lp3218
I6991
aS'51'
p3219
aS'261'
p3220
aasS'4A08'
p3221
(lp3222
(lp3223
I357
aS'75'
p3224
aS'543'
p3225
aa(lp3226
I6913
aS'791'
p3227
aS'1099'
p3228
aa(lp3229
I7213
aS'280'
p3230
aS'307'
p3231
aasS'4QY5'
p3232
(lp3233
(lp3234
I6991
aS'51'
p3235
aS'261'
p3236
aasS'4GNU'
p3237
(lp3238
(lp3239
I6991
aS'48'
p3240
aS'255'
p3241
aasS'4GAV'
p3242
(lp3243
(lp3244
I7341
aS'55'
p3245
aS'400'
p3246
aasS'4EUZ'
p3247
(lp3248
(lp3249
I6991
aS'53'
p3250
aS'263'
p3251
aasS'4WJU'
p3252
(lp3253
(lp3254
I3903
aS'33'
p3255
aS'82'
p3256
aa(lp3257
I7213
aS'141'
p3258
aS'172'
p3259
aa(lp3260
I7213
aS'178'
p3261
aS'214'
p3262
aa(lp3263
I7213
aS'218'
p3264
aS'264'
p3265
aa(lp3266
I7213
aS'269'
p3267
aS'305'
p3268
aa(lp3269
I7213
aS'394'
p3270
aS'430'
p3271
aa(lp3272
I7213
aS'434'
p3273
aS'472'
p3274
aa(lp3275
I7213
aS'481'
p3276
aS'513'
p3277
aasS'3M6H'
p3278
(lp3279
(lp3280
I6991
aS'68'
p3281
aS'277'
p3282
aasS'2GR3'
p3283
(lp3284
(lp3285
I6641
aS'318'
p3286
aS'403'
p3287
aa(lp3288
I7341
aS'10'
p3289
aS'298'
p3290
aasS'2GR2'
p3291
(lp3292
(lp3293
I6641
aS'318'
p3294
aS'403'
p3295
aa(lp3296
I7341
aS'10'
p3297
aS'298'
p3298
aasS'2GR1'
p3299
(lp3300
(lp3301
I6641
aS'318'
p3302
aS'403'
p3303
aa(lp3304
I7341
aS'10'
p3305
aS'298'
p3306
aasS'2GR0'
p3307
(lp3308
(lp3309
I6641
aS'318'
p3310
aS'403'
p3311
aa(lp3312
I7341
aS'10'
p3313
aS'298'
p3314
aasS'3M6B'
p3315
(lp3316
(lp3317
I6991
aS'68'
p3318
aS'277'
p3319
aasS'3L8K'
p3320
(lp3321
(lp3322
I4854
aS'343'
p3323
aS'448'
p3324
aa(lp3325
I7341
aS'3'
aS'319'
p3326
aasS'4JSV'
p3327
(lp3328
(lp3329
I2217
aS'2519'
p3330
aS'2549'
p3331
aa(lp3332
I2217
aS'2519'
p3333
aS'2549'
p3334
aa(lp3335
I3104
aS'1513'
p3336
aS'1908'
p3337
aa(lp3338
I3104
aS'1513'
p3339
aS'1908'
p3340
aa(lp3341
I5073
aS'2183'
p3342
aS'2430'
p3343
aa(lp3344
I5073
aS'2183'
p3345
aS'2430'
p3346
aa(lp3347
I5948
aS'2015'
p3348
aS'2113'
p3349
aa(lp3350
I5948
aS'2015'
p3351
aS'2113'
p3352
aa(lp3353
I7213
aS'87'
p3354
aS'113'
p3355
aa(lp3356
I7213
aS'120'
p3357
aS'156'
p3358
aa(lp3359
I7213
aS'223'
p3360
aS'247'
p3361
aa(lp3362
I7213
aS'87'
p3363
aS'113'
p3364
aa(lp3365
I7213
aS'120'
p3366
aS'156'
p3367
aa(lp3368
I7213
aS'223'
p3369
aS'247'
p3370
aasS'2F5Z'
p3371
(lp3372
(lp3373
I3210
aS'130'
p3374
aS'164'
p3375
aa(lp3376
I4854
aS'354'
p3377
aS'462'
p3378
aa(lp3379
I7341
aS'8'
aS'335'
p3380
aasS'3G2Y'
p3381
(lp3382
(lp3383
I6991
aS'53'
p3384
aS'262'
p3385
aasS'3G2Z'
p3386
(lp3387
(lp3388
I6991
aS'53'
p3389
aS'262'
p3390
aasS'4JSP'
p3391
(lp3392
(lp3393
I2217
aS'2519'
p3394
aS'2549'
p3395
aa(lp3396
I3104
aS'1513'
p3397
aS'1908'
p3398
aa(lp3399
I5073
aS'2183'
p3400
aS'2430'
p3401
aa(lp3402
I5948
aS'2015'
p3403
aS'2113'
p3404
aa(lp3405
I7213
aS'87'
p3406
aS'113'
p3407
aa(lp3408
I7213
aS'120'
p3409
aS'156'
p3410
aa(lp3411
I7213
aS'223'
p3412
aS'247'
p3413
aasS'4AEZ'
p3414
(lp3415
(lp3416
I178
aS'13'
p3417
aS'191'
p3418
aa(lp3419
I3442
aS'54'
p3420
aS'176'
p3421
aa(lp3422
I4097
aS'294'
p3423
aS'426'
p3424
aa(lp3425
I7213
aS'432'
p3426
aS'463'
p3427
aasS'2A8X'
p3428
(lp3429
(lp3430
I4854
aS'346'
p3431
aS'452'
p3432
aa(lp3433
I7341
aS'4'
aS'324'
p3434
aasS'3HVF'
p3435
(lp3436
(lp3437
I6991
aS'53'
p3438
aS'262'
p3439
aasS'1YMS'
p3440
(lp3441
(lp3442
I6991
aS'53'
p3443
aS'262'
p3444
aasS'4JSX'
p3445
(lp3446
(lp3447
I2217
aS'2519'
p3448
aS'2549'
p3449
aa(lp3450
I3104
aS'1513'
p3451
aS'1908'
p3452
aa(lp3453
I5073
aS'2183'
p3454
aS'2430'
p3455
aa(lp3456
I5948
aS'2015'
p3457
aS'2113'
p3458
aa(lp3459
I7213
aS'87'
p3460
aS'113'
p3461
aa(lp3462
I7213
aS'120'
p3463
aS'156'
p3464
aa(lp3465
I7213
aS'223'
p3466
aS'247'
p3467
aasS'1NXY'
p3468
(lp3469
(lp3470
I6991
aS'51'
p3471
aS'261'
p3472
aasS'4NSX'
p3473
(lp3474
(lp3475
I7213
aS'582'
p3476
aS'613'
p3477
aasS'3C5A'
p3478
(lp3479
(lp3480
I6991
aS'53'
p3481
aS'263'
p3482
aasS'4MJY'
p3483
(lp3484
(lp3485
I6266
aS'14'
p3486
aS'153'
p3487
aasS'3IIW'
p3488
(lp3489
(lp3490
I7213
aS'181'
p3491
aS'219'
p3492
aasS'4JSN'
p3493
(lp3494
(lp3495
I2217
aS'2519'
p3496
aS'2549'
p3497
aa(lp3498
I3104
aS'1513'
p3499
aS'1908'
p3500
aa(lp3501
I5073
aS'2183'
p3502
aS'2430'
p3503
aa(lp3504
I5948
aS'2015'
p3505
aS'2113'
p3506
aa(lp3507
I7213
aS'87'
p3508
aS'113'
p3509
aa(lp3510
I7213
aS'120'
p3511
aS'156'
p3512
aa(lp3513
I7213
aS'223'
p3514
aS'247'
p3515
aasS'3MZL'
p3516
(lp3517
(lp3518
I3599
aS'514'
p3519
aS'685'
p3520
aa(lp3521
I7213
aS'12'
p3522
aS'36'
p3523
aa(lp3524
I7213
aS'45'
p3525
aS'83'
p3526
aa(lp3527
I7213
aS'198'
p3528
aS'234'
p3529
aasS'3F8P'
p3530
(lp3531
(lp3532
I7341
aS'16'
p3533
aS'305'
p3534
aasS'4TOC'
p3535
(lp3536
(lp3537
I6266
aS'8'
aS'143'
p3538
aasS'3KA4'
p3539
(lp3540
(lp3541
I6266
aS'14'
p3542
aS'153'
p3543
aasS'4G74'
p3544
(lp3545
(lp3546
I7341
aS'55'
p3547
aS'400'
p3548
aasS'3D4F'
p3549
(lp3550
(lp3551
I6991
aS'53'
p3552
aS'262'
p3553
aasS'4G73'
p3554
(lp3555
(lp3556
I7341
aS'55'
p3557
aS'400'
p3558
aasS'4PM9'
p3559
(lp3560
(lp3561
I6991
aS'53'
p3562
aS'262'
p3563
aasS'4PM8'
p3564
(lp3565
(lp3566
I6991
aS'53'
p3567
aS'262'
p3568
aasS'4K7Z'
p3569
(lp3570
(lp3571
I4854
aS'343'
p3572
aS'451'
p3573
aa(lp3574
I7341
aS'6'
aS'324'
p3575
aasS'4PM6'
p3576
(lp3577
(lp3578
I6991
aS'53'
p3579
aS'262'
p3580
aasS'1VLG'
p3581
(lp3582
(lp3583
I6266
aS'10'
p3584
aS'145'
p3585
aasS'1GRE'
p3586
(lp3587
(lp3588
I4854
aS'367'
p3589
aS'477'
p3590
aa(lp3591
I7341
aS'21'
p3592
aS'346'
p3593
aasS'4CCR'
p3594
(lp3595
(lp3596
I7341
aS'5'
aS'300'
p3597
aasS'1ONG'
p3598
(lp3599
(lp3600
I6991
aS'53'
p3601
aS'262'
p3602
aasS'1GRA'
p3603
(lp3604
(lp3605
I4854
aS'367'
p3606
aS'477'
p3607
aa(lp3608
I7341
aS'21'
p3609
aS'346'
p3610
aasS'4EBN'
p3611
(lp3612
(lp3613
I6991
aS'54'
p3614
aS'263'
p3615
aasS'4EBL'
p3616
(lp3617
(lp3618
I6991
aS'54'
p3619
aS'263'
p3620
aasS'2TPR'
p3621
(lp3622
(lp3623
I4854
aS'362'
p3624
aS'467'
p3625
aa(lp3626
I7341
aS'4'
aS'341'
p3627
aasS'3CMZ'
p3628
(lp3629
(lp3630
I6991
aS'51'
p3631
aS'261'
p3632
aasS'4GRT'
p3633
(lp3634
(lp3635
I4854
aS'367'
p3636
aS'477'
p3637
aa(lp3638
I7341
aS'21'
p3639
aS'346'
p3640
aasS'1GRT'
p3641
(lp3642
(lp3643
I4854
aS'367'
p3644
aS'477'
p3645
aa(lp3646
I7341
aS'21'
p3647
aS'346'
p3648
aasS'3QB9'
p3649
(lp3650
(lp3651
I6266
aS'10'
p3652
aS'143'
p3653
aasS'5GRT'
p3654
(lp3655
(lp3656
I4854
aS'367'
p3657
aS'477'
p3658
aa(lp3659
I7341
aS'21'
p3660
aS'346'
p3661
aasS'3F8R'
p3662
(lp3663
(lp3664
I7341
aS'16'
p3665
aS'305'
p3666
aasS'4A0K'
p3667
(lp3668
(lp3669
I357
aS'75'
p3670
aS'543'
p3671
aa(lp3672
I377
aS'63'
p3673
aS'660'
p3674
aa(lp3675
I1246
aS'690'
p3676
aS'751'
p3677
aa(lp3678
I1788
aS'21'
p3679
aS'39'
p3680
aa(lp3681
I6913
aS'791'
p3682
aS'1099'
p3683
aa(lp3684
I7213
aS'280'
p3685
aS'307'
p3686
aasS'1ZKQ'
p3687
(lp3688
(lp3689
I4854
aS'395'
p3690
aS'506'
p3691
aa(lp3692
I7341
aS'40'
p3693
aS'375'
p3694
aasS'1I2W'
p3695
(lp3696
(lp3697
I6991
aS'53'
p3698
aS'263'
p3699
aasS'3QD8'
p3700
(lp3701
(lp3702
I6266
aS'14'
p3703
aS'144'
p3704
aasS'1CJC'
p3705
(lp3706
(lp3707
I7341
aS'8'
aS'164'
p3708
aasS'4H4T'
p3709
(lp3710
(lp3711
I6641
aS'318'
p3712
aS'403'
p3713
aa(lp3714
I7341
aS'10'
p3715
aS'298'
p3716
aasS'1BG7'
p3717
(lp3718
(lp3719
I6266
aS'14'
p3720
aS'153'
p3721
aasS'3SH6'
p3722
(lp3723
(lp3724
I6266
aS'14'
p3725
aS'153'
p3726
aasS'3SH7'
p3727
(lp3728
(lp3729
I6991
aS'53'
p3730
aS'263'
p3731
aasS'1BUE'
p3732
(lp3733
(lp3734
I6991
aS'53'
p3735
aS'263'
p3736
aasS'3UVL'
p3737
(lp3738
(lp3739
I7213
aS'39'
p3740
aS'72'
p3741
aa(lp3742
I7213
aS'79'
p3743
aS'115'
p3744
aa(lp3745
I7213
aS'119'
p3746
aS'157'
p3747
aa(lp3748
I7213
aS'161'
p3749
aS'199'
p3750
aa(lp3751
I7213
aS'203'
p3752
aS'242'
p3753
aa(lp3754
I7213
aS'246'
p3755
aS'287'
p3756
aa(lp3757
I7213
aS'293'
p3758
aS'331'
p3759
aasS'4TOE'
p3760
(lp3761
(lp3762
I6266
aS'8'
aS'143'
p3763
aasS'1BUL'
p3764
(lp3765
(lp3766
I6991
aS'53'
p3767
aS'263'
p3768
aasS'2Z5R'
p3769
(lp3770
(lp3771
I6266
aS'14'
p3772
aS'153'
p3773
aasS'3SH8'
p3774
(lp3775
(lp3776
I6991
aS'53'
p3777
aS'263'
p3778
aasS'3SH9'
p3779
(lp3780
(lp3781
I6991
aS'53'
p3782
aS'263'
p3783
aasS'3SHF'
p3784
(lp3785
(lp3786
I721
aS'130'
p3787
aS'411'
p3788
aa(lp3789
I7213
aS'612'
p3790
aS'642'
p3791
aa(lp3792
I7213
aS'648'
p3793
aS'685'
p3794
aa(lp3795
I7213
aS'689'
p3796
aS'729'
p3797
aa(lp3798
I7213
aS'734'
p3799
aS'771'
p3800
aa(lp3801
I7213
aS'876'
p3802
aS'909'
p3803
aa(lp3804
I7213
aS'1000'
p3805
aS'1031'
p3806
aa(lp3807
I7213
aS'1078'
p3808
aS'1113'
p3809
aa(lp3810
I7213
aS'1118'
p3811
aS'1155'
p3812
aasS'1LI9'
p3813
(lp3814
(lp3815
I6991
aS'51'
p3816
aS'261'
p3817
aasS'3Q6J'
p3818
(lp3819
(lp3820
I4854
aS'387'
p3821
aS'509'
p3822
aa(lp3823
I7341
aS'44'
p3824
aS'368'
p3825
aasS'3EI2'
p3826
(lp3827
(lp3828
I357
aS'75'
p3829
aS'543'
p3830
aa(lp3831
I6913
aS'791'
p3832
aS'1099'
p3833
aa(lp3834
I7213
aS'280'
p3835
aS'307'
p3836
aasS'1LI0'
p3837
(lp3838
(lp3839
I6991
aS'51'
p3840
aS'261'
p3841
aasS'4DAS'
p3842
(lp3843
(lp3844
I6266
aS'15'
p3845
aS'154'
p3846
aasS'1VEQ'
p3847
(lp3848
(lp3849
I6266
aS'19'
p3850
aS'157'
p3851
aasS'3EI1'
p3852
(lp3853
(lp3854
I357
aS'75'
p3855
aS'543'
p3856
aa(lp3857
I6913
aS'791'
p3858
aS'1099'
p3859
aa(lp3860
I7213
aS'280'
p3861
aS'307'
p3862
aasS'3PSL'
p3863
(lp3864
(lp3865
I7213
aS'39'
p3866
aS'72'
p3867
aa(lp3868
I7213
aS'79'
p3869
aS'115'
p3870
aa(lp3871
I7213
aS'119'
p3872
aS'157'
p3873
aa(lp3874
I7213
aS'161'
p3875
aS'199'
p3876
aa(lp3877
I7213
aS'203'
p3878
aS'242'
p3879
aa(lp3880
I7213
aS'246'
p3881
aS'287'
p3882
aa(lp3883
I7213
aS'293'
p3884
aS'331'
p3885
aasS'4AM2'
p3886
(lp3887
(lp3888
I6266
aS'8'
aS'142'
p3889
aasS'5A1W'
p3890
(lp3891
(lp3892
I308
aS'270'
p3893
aS'496'
p3894
aa(lp3895
I2136
aS'342'
p3896
aS'766'
p3897
aa(lp3898
I2136
aS'319'
p3899
aS'762'
p3900
aa(lp3901
I2201
aS'739'
p3902
aS'822'
p3903
aa(lp3904
I4117
aS'25'
p3905
aS'538'
p3906
aa(lp3907
I4117
aS'24'
p3908
aS'528'
p3909
aa(lp3910
I4132
aS'18'
p3911
aS'176'
p3912
aa(lp3913
I5064
aS'12'
p3914
aS'148'
p3915
aa(lp3916
I5064
aS'9'
aS'130'
p3917
aa(lp3918
I5268
aS'828'
p3919
aS'959'
p3920
aa(lp3921
I7213
aS'44'
p3922
aS'79'
p3923
aa(lp3924
I7213
aS'84'
p3925
aS'121'
p3926
aa(lp3927
I7213
aS'126'
p3928
aS'163'
p3929
aa(lp3930
I7213
aS'199'
p3931
aS'232'
p3932
aa(lp3933
I7213
aS'242'
p3934
aS'277'
p3935
aa(lp3936
I7213
aS'91'
p3937
aS'127'
p3938
aa(lp3939
I7213
aS'132'
p3940
aS'170'
p3941
aa(lp3942
I7213
aS'178'
p3943
aS'215'
p3944
aa(lp3945
I7213
aS'220'
p3946
aS'256'
p3947
aasS'1VEI'
p3948
(lp3949
(lp3950
I6266
aS'19'
p3951
aS'157'
p3952
aasS'2C41'
p3953
(lp3954
(lp3955
I6266
aS'15'
p3956
aS'153'
p3957
aasS'1VEL'
p3958
(lp3959
(lp3960
I6266
aS'19'
p3961
aS'157'
p3962
aasS'2FHA'
p3963
(lp3964
(lp3965
I6266
aS'18'
p3966
aS'158'
p3967
aasS'5A1Y'
p3968
(lp3969
(lp3970
I308
aS'270'
p3971
aS'496'
p3972
aa(lp3973
I1854
aS'17'
p3974
aS'305'
p3975
aa(lp3976
I2136
aS'342'
p3977
aS'766'
p3978
aa(lp3979
I2136
aS'319'
p3980
aS'762'
p3981
aa(lp3982
I2201
aS'739'
p3983
aS'822'
p3984
aa(lp3985
I2349
aS'761'
p3986
aS'873'
p3987
aa(lp3988
I4117
aS'25'
p3989
aS'538'
p3990
aa(lp3991
I4117
aS'24'
p3992
aS'528'
p3993
aa(lp3994
I4132
aS'18'
p3995
aS'176'
p3996
aa(lp3997
I5064
aS'12'
p3998
aS'148'
p3999
aa(lp4000
I5064
aS'9'
aS'130'
p4001
aa(lp4002
I5070
aS'612'
p4003
aS'759'
p4004
aa(lp4005
I5268
aS'828'
p4006
aS'959'
p4007
aa(lp4008
I5710
aS'913'
p4009
aS'1224'
p4010
aa(lp4011
I7213
aS'44'
p4012
aS'79'
p4013
aa(lp4014
I7213
aS'84'
p4015
aS'121'
p4016
aa(lp4017
I7213
aS'126'
p4018
aS'163'
p4019
aa(lp4020
I7213
aS'199'
p4021
aS'232'
p4022
aa(lp4023
I7213
aS'242'
p4024
aS'277'
p4025
aa(lp4026
I7213
aS'91'
p4027
aS'127'
p4028
aa(lp4029
I7213
aS'132'
p4030
aS'170'
p4031
aa(lp4032
I7213
aS'178'
p4033
aS'215'
p4034
aa(lp4035
I7213
aS'220'
p4036
aS'256'
p4037
aasS'5A1X'
p4038
(lp4039
(lp4040
I308
aS'270'
p4041
aS'496'
p4042
aa(lp4043
I2136
aS'342'
p4044
aS'766'
p4045
aa(lp4046
I2136
aS'319'
p4047
aS'762'
p4048
aa(lp4049
I2201
aS'739'
p4050
aS'822'
p4051
aa(lp4052
I4117
aS'25'
p4053
aS'538'
p4054
aa(lp4055
I4117
aS'24'
p4056
aS'528'
p4057
aa(lp4058
I4132
aS'18'
p4059
aS'176'
p4060
aa(lp4061
I5064
aS'12'
p4062
aS'148'
p4063
aa(lp4064
I5064
aS'9'
aS'130'
p4065
aa(lp4066
I5268
aS'828'
p4067
aS'959'
p4068
aa(lp4069
I7213
aS'44'
p4070
aS'79'
p4071
aa(lp4072
I7213
aS'84'
p4073
aS'121'
p4074
aa(lp4075
I7213
aS'126'
p4076
aS'163'
p4077
aa(lp4078
I7213
aS'199'
p4079
aS'232'
p4080
aa(lp4081
I7213
aS'242'
p4082
aS'277'
p4083
aa(lp4084
I7213
aS'91'
p4085
aS'127'
p4086
aa(lp4087
I7213
aS'132'
p4088
aS'170'
p4089
aa(lp4090
I7213
aS'178'
p4091
aS'215'
p4092
aa(lp4093
I7213
aS'220'
p4094
aS'256'
p4095
aasS'3SHX'
p4096
(lp4097
(lp4098
I6266
aS'14'
p4099
aS'153'
p4100
aasS'3PSC'
p4101
(lp4102
(lp4103
I252
aS'192'
p4104
aS'453'
p4105
aa(lp4106
I2564
aS'560'
p4107
aS'650'
p4108
aa(lp4109
I2578
aS'55'
p4110
aS'174'
p4111
aa(lp4112
I5179
aS'8'
aS'68'
p4113
aa(lp4114
I7213
aS'47'
p4115
aS'83'
p4116
aa(lp4117
I7213
aS'98'
p4118
aS'125'
p4119
aa(lp4120
I7213
aS'174'
p4121
aS'212'
p4122
aa(lp4123
I7213
aS'217'
p4124
aS'254'
p4125
aa(lp4126
I7213
aS'260'
p4127
aS'298'
p4128
aa(lp4129
I7213
aS'307'
p4130
aS'340'
p4131
aasS'3ITJ'
p4132
(lp4133
(lp4134
I7341
aS'4'
aS'303'
p4135
aasS'4J78'
p4136
(lp4137
(lp4138
I7213
aS'89'
p4139
aS'125'
p4140
aa(lp4141
I7213
aS'134'
p4142
aS'169'
p4143
aa(lp4144
I7213
aS'182'
p4145
aS'214'
p4146
aa(lp4147
I7213
aS'219'
p4148
aS'256'
p4149
aasS'4OPY'
p4150
(lp4151
(lp4152
I6991
aS'51'
p4153
aS'258'
p4154
aasS'4J73'
p4155
(lp4156
(lp4157
I7213
aS'89'
p4158
aS'125'
p4159
aa(lp4160
I7213
aS'134'
p4161
aS'169'
p4162
aa(lp4163
I7213
aS'182'
p4164
aS'214'
p4165
aa(lp4166
I7213
aS'219'
p4167
aS'256'
p4168
aasS'2FJC'
p4169
(lp4170
(lp4171
I6266
aS'37'
p4172
aS'176'
p4173
aasS'3GD4'
p4174
(lp4175
(lp4176
I6590
aS'464'
p4177
aS'593'
p4178
aa(lp4179
I7341
aS'135'
p4180
aS'458'
p4181
aasS'3WVW'
p4182
(lp4183
(lp4184
I6266
aS'14'
p4185
aS'153'
p4186
aasS'4J77'
p4187
(lp4188
(lp4189
I7213
aS'89'
p4190
aS'125'
p4191
aa(lp4192
I7213
aS'134'
p4193
aS'169'
p4194
aa(lp4195
I7213
aS'182'
p4196
aS'214'
p4197
aa(lp4198
I7213
aS'219'
p4199
aS'256'
p4200
aasS'3GD3'
p4201
(lp4202
(lp4203
I6590
aS'464'
p4204
aS'593'
p4205
aa(lp4206
I7341
aS'135'
p4207
aS'458'
p4208
aasS'2PBI'
p4209
(lp4210
(lp4211
I1321
aS'33'
p4212
aS'103'
p4213
aa(lp4214
I2578
aS'299'
p4215
aS'413'
p4216
aa(lp4217
I5179
aS'216'
p4218
aS'280'
p4219
aa(lp4220
I7213
aS'54'
p4221
aS'91'
p4222
aa(lp4223
I7213
aS'185'
p4224
aS'225'
p4225
aa(lp4226
I7213
aS'229'
p4227
aS'267'
p4228
aa(lp4229
I7213
aS'320'
p4230
aS'352'
p4231
aasS'2YMU'
p4232
(lp4233
(lp4234
I7213
aS'12'
p4235
aS'44'
p4236
aa(lp4237
I7213
aS'47'
p4238
aS'85'
p4239
aa(lp4240
I7213
aS'88'
p4241
aS'126'
p4242
aa(lp4243
I7213
aS'129'
p4244
aS'167'
p4245
aa(lp4246
I7213
aS'170'
p4247
aS'208'
p4248
aa(lp4249
I7213
aS'211'
p4250
aS'249'
p4251
aa(lp4252
I7213
aS'252'
p4253
aS'290'
p4254
aa(lp4255
I7213
aS'293'
p4256
aS'331'
p4257
aa(lp4258
I7213
aS'334'
p4259
aS'372'
p4260
aa(lp4261
I7213
aS'375'
p4262
aS'413'
p4263
aa(lp4264
I7213
aS'416'
p4265
aS'454'
p4266
aa(lp4267
I7213
aS'457'
p4268
aS'495'
p4269
aa(lp4270
I7213
aS'498'
p4271
aS'536'
p4272
aa(lp4273
I7213
aS'539'
p4274
aS'577'
p4275
aasS'2CE9'
p4276
(lp4277
(lp4278
I7213
aS'608'
p4279
aS'644'
p4280
aasS'2C2F'
p4281
(lp4282
(lp4283
I6266
aS'63'
p4284
aS'204'
p4285
aasS'3OJ5'
p4286
(lp4287
(lp4288
I6266
aS'14'
p4289
aS'144'
p4290
aasS'3SQP'
p4291
(lp4292
(lp4293
I4854
aS'367'
p4294
aS'477'
p4295
aa(lp4296
I7341
aS'21'
p4297
aS'346'
p4298
aasS'3JAP'
p4299
(lp4300
(lp4301
I82
aS'32'
p4302
aS'94'
p4303
aa(lp4304
I125
aS'24'
p4305
aS'102'
p4306
aa(lp4307
I143
aS'17'
p4308
aS'112'
p4309
aa(lp4310
I143
aS'116'
p4311
aS'181'
p4312
aa(lp4313
I145
aS'8'
aS'61'
p4314
aa(lp4315
I147
aS'81'
p4316
aS'145'
p4317
aa(lp4318
I423
aS'45'
p4319
aS'91'
p4320
aa(lp4321
I512
aS'2'
aS'60'
p4322
aa(lp4323
I625
aS'6'
aS'66'
p4324
aa(lp4325
I672
aS'2'
aS'185'
p4326
aa(lp4327
I842
aS'218'
p4328
aS'639'
p4329
aa(lp4330
I1127
aS'212'
p4331
aS'258'
p4332
aa(lp4333
I2355
aS'393'
p4334
aS'492'
p4335
aa(lp4336
I2355
aS'651'
p4337
aS'780'
p4338
aa(lp4339
I2417
aS'178'
p4340
aS'211'
p4341
aa(lp4342
I2446
aS'107'
p4343
aS'188'
p4344
aa(lp4345
I2502
aS'3'
aS'39'
p4346
aa(lp4347
I2828
aS'429'
p4348
aS'517'
p4349
aa(lp4350
I2833
aS'14'
p4351
aS'88'
p4352
aa(lp4353
I2835
aS'107'
p4354
aS'151'
p4355
aa(lp4356
I2835
aS'43'
p4357
aS'90'
p4358
aa(lp4359
I3282
aS'10'
p4360
aS'186'
p4361
aa(lp4362
I3544
aS'16'
p4363
aS'144'
p4364
aa(lp4365
I3545
aS'23'
p4366
aS'116'
p4367
aa(lp4368
I3548
aS'73'
p4369
aS'141'
p4370
aa(lp4371
I3549
aS'7'
aS'56'
p4372
aa(lp4373
I3550
aS'74'
p4374
aS'147'
p4375
aa(lp4376
I3767
aS'19'
p4377
aS'221'
p4378
aa(lp4379
I3809
aS'165'
p4380
aS'235'
p4381
aa(lp4382
I3813
aS'8'
aS'60'
p4383
aa(lp4384
I4254
aS'157'
p4385
aS'264'
p4386
aa(lp4387
I4304
aS'8'
aS'71'
p4388
aa(lp4389
I4654
aS'335'
p4390
aS'417'
p4391
aa(lp4392
I4667
aS'5'
aS'140'
p4393
aa(lp4394
I4935
aS'2'
aS'116'
p4395
aa(lp4396
I5041
aS'6'
aS'130'
p4397
aa(lp4398
I5042
aS'11'
p4399
aS'143'
p4400
aa(lp4401
I5050
aS'85'
p4402
aS'227'
p4403
aa(lp4404
I5532
aS'11'
p4405
aS'144'
p4406
aa(lp4407
I5807
aS'1'
aS'80'
p4408
aa(lp4409
I6226
aS'100'
p4410
aS'303'
p4411
aa(lp4412
I6235
aS'1'
aS'25'
p4413
aa(lp4414
I6345
aS'20'
p4415
aS'92'
p4416
aa(lp4417
I6388
aS'3'
aS'92'
p4418
aa(lp4419
I6403
aS'15'
p4420
aS'133'
p4421
aa(lp4422
I6412
aS'47'
p4423
aS'128'
p4424
aa(lp4425
I6625
aS'20'
p4426
aS'113'
p4427
aa(lp4428
I6680
aS'95'
p4429
aS'169'
p4430
aa(lp4431
I6742
aS'23'
p4432
aS'98'
p4433
aa(lp4434
I6925
aS'1'
aS'126'
p4435
aa(lp4436
I7161
aS'36'
p4437
aS'104'
p4438
aa(lp4439
I7213
aS'12'
p4440
aS'46'
p4441
aa(lp4442
I7213
aS'57'
p4443
aS'94'
p4444
aa(lp4445
I7213
aS'104'
p4446
aS'136'
p4447
aa(lp4448
I7213
aS'139'
p4449
aS'187'
p4450
aa(lp4451
I7213
aS'198'
p4452
aS'231'
p4453
aa(lp4454
I7213
aS'5'
aS'37'
p4455
aa(lp4456
I7213
aS'43'
p4457
aS'80'
p4458
aa(lp4459
I7397
aS'28'
p4460
aS'82'
p4461
aa(lp4462
I7432
aS'2'
aS'99'
p4463
aa(lp4464
I7504
aS'102'
p4465
aS'145'
p4466
aa(lp4467
I7551
aS'126'
p4468
aS'237'
p4469
aasS'3JAQ'
p4470
(lp4471
(lp4472
I82
aS'32'
p4473
aS'94'
p4474
aa(lp4475
I125
aS'24'
p4476
aS'102'
p4477
aa(lp4478
I145
aS'8'
aS'61'
p4479
aa(lp4480
I147
aS'81'
p4481
aS'145'
p4482
aa(lp4483
I423
aS'45'
p4484
aS'91'
p4485
aa(lp4486
I512
aS'2'
aS'60'
p4487
aa(lp4488
I625
aS'6'
aS'66'
p4489
aa(lp4490
I672
aS'2'
aS'185'
p4491
aa(lp4492
I1127
aS'212'
p4493
aS'258'
p4494
aa(lp4495
I2417
aS'178'
p4496
aS'211'
p4497
aa(lp4498
I2446
aS'107'
p4499
aS'188'
p4500
aa(lp4501
I2502
aS'3'
aS'39'
p4502
aa(lp4503
I2828
aS'429'
p4504
aS'517'
p4505
aa(lp4506
I2833
aS'14'
p4507
aS'88'
p4508
aa(lp4509
I2835
aS'107'
p4510
aS'151'
p4511
aa(lp4512
I2835
aS'43'
p4513
aS'90'
p4514
aa(lp4515
I3282
aS'10'
p4516
aS'186'
p4517
aa(lp4518
I3544
aS'16'
p4519
aS'144'
p4520
aa(lp4521
I3545
aS'23'
p4522
aS'116'
p4523
aa(lp4524
I3548
aS'73'
p4525
aS'141'
p4526
aa(lp4527
I3549
aS'7'
aS'56'
p4528
aa(lp4529
I3550
aS'74'
p4530
aS'147'
p4531
aa(lp4532
I3767
aS'19'
p4533
aS'221'
p4534
aa(lp4535
I3809
aS'165'
p4536
aS'235'
p4537
aa(lp4538
I3813
aS'8'
aS'60'
p4539
aa(lp4540
I4254
aS'157'
p4541
aS'264'
p4542
aa(lp4543
I4304
aS'8'
aS'71'
p4544
aa(lp4545
I4654
aS'335'
p4546
aS'417'
p4547
aa(lp4548
I4667
aS'5'
aS'140'
p4549
aa(lp4550
I4935
aS'2'
aS'116'
p4551
aa(lp4552
I5041
aS'6'
aS'130'
p4553
aa(lp4554
I5042
aS'11'
p4555
aS'143'
p4556
aa(lp4557
I5050
aS'85'
p4558
aS'227'
p4559
aa(lp4560
I5532
aS'11'
p4561
aS'144'
p4562
aa(lp4563
I5807
aS'1'
aS'80'
p4564
aa(lp4565
I6226
aS'100'
p4566
aS'303'
p4567
aa(lp4568
I6235
aS'1'
aS'25'
p4569
aa(lp4570
I6345
aS'20'
p4571
aS'92'
p4572
aa(lp4573
I6388
aS'3'
aS'92'
p4574
aa(lp4575
I6403
aS'15'
p4576
aS'133'
p4577
aa(lp4578
I6412
aS'47'
p4579
aS'128'
p4580
aa(lp4581
I6625
aS'20'
p4582
aS'113'
p4583
aa(lp4584
I6680
aS'95'
p4585
aS'169'
p4586
aa(lp4587
I6742
aS'23'
p4588
aS'98'
p4589
aa(lp4590
I6925
aS'1'
aS'126'
p4591
aa(lp4592
I7161
aS'36'
p4593
aS'104'
p4594
aa(lp4595
I7213
aS'12'
p4596
aS'46'
p4597
aa(lp4598
I7213
aS'57'
p4599
aS'94'
p4600
aa(lp4601
I7213
aS'104'
p4602
aS'136'
p4603
aa(lp4604
I7213
aS'139'
p4605
aS'187'
p4606
aa(lp4607
I7213
aS'198'
p4608
aS'231'
p4609
aa(lp4610
I7432
aS'2'
aS'99'
p4611
aa(lp4612
I7504
aS'102'
p4613
aS'145'
p4614
aa(lp4615
I7551
aS'126'
p4616
aS'237'
p4617
aasS'4PMA'
p4618
(lp4619
(lp4620
I6991
aS'53'
p4621
aS'262'
p4622
aasS'1ZK7'
p4623
(lp4624
(lp4625
I4854
aS'343'
p4626
aS'451'
p4627
aa(lp4628
I7341
aS'6'
aS'324'
p4629
aasS'2ZUR'
p4630
(lp4631
(lp4632
I6266
aS'14'
p4633
aS'153'
p4634
aasS'1JTS'
p4635
(lp4636
(lp4637
I6266
aS'31'
p4638
aS'166'
p4639
aasS'3D8X'
p4640
(lp4641
(lp4642
I7341
aS'5'
aS'304'
p4643
aasS'3KA3'
p4644
(lp4645
(lp4646
I6266
aS'14'
p4647
aS'153'
p4648
aasS'3DJG'
p4649
(lp4650
(lp4651
I4854
aS'367'
p4652
aS'477'
p4653
aa(lp4654
I7341
aS'21'
p4655
aS'346'
p4656
aasS'1XPB'
p4657
(lp4658
(lp4659
I6991
aS'51'
p4660
aS'261'
p4661
aasS'3KA6'
p4662
(lp4663
(lp4664
I6266
aS'14'
p4665
aS'153'
p4666
aasS'3KA9'
p4667
(lp4668
(lp4669
I6266
aS'14'
p4670
aS'153'
p4671
aasS'3KA8'
p4672
(lp4673
(lp4674
I6266
aS'14'
p4675
aS'153'
p4676
aasS'2XQZ'
p4677
(lp4678
(lp4679
I6991
aS'53'
p4680
aS'262'
p4681
aasS'1JTD'
p4682
(lp4683
(lp4684
I4932
aS'106'
p4685
aS'133'
p4686
aa(lp4687
I6991
aS'51'
p4688
aS'259'
p4689
aasS'1JTG'
p4690
(lp4691
(lp4692
I1291
aS'2'
aS'164'
p4693
aa(lp4694
I6991
aS'51'
p4695
aS'259'
p4696
aasS'3EI3'
p4697
(lp4698
(lp4699
I357
aS'75'
p4700
aS'543'
p4701
aa(lp4702
I6913
aS'791'
p4703
aS'1099'
p4704
aa(lp4705
I7213
aS'280'
p4706
aS'307'
p4707
aasS'4NTC'
p4708
(lp4709
(lp4710
I7341
aS'15'
p4711
aS'309'
p4712
aasS'2V15'
p4713
(lp4714
(lp4715
I6266
aS'27'
p4716
aS'170'
p4717
aasS'4OPZ'
p4718
(lp4719
(lp4720
I6991
aS'51'
p4721
aS'258'
p4722
aasS'4NTD'
p4723
(lp4724
(lp4725
I7341
aS'10'
p4726
aS'285'
p4727
aasS'4NTE'
p4728
(lp4729
(lp4730
I7341
aS'6'
aS'279'
p4731
aasS'4JLF'
p4732
(lp4733
(lp4734
I6991
aS'68'
p4735
aS'277'
p4736
aasS'1BLP'
p4737
(lp4738
(lp4739
I6991
aS'52'
p4740
aS'255'
p4741
aasS'1WE4'
p4742
(lp4743
(lp4744
I6991
aS'53'
p4745
aS'262'
p4746
aasS'4OPR'
p4747
(lp4748
(lp4749
I6991
aS'51'
p4750
aS'258'
p4751
aasS'4OPQ'
p4752
(lp4753
(lp4754
I6991
aS'51'
p4755
aS'258'
p4756
aasS'2X8C'
p4757
(lp4758
(lp4759
I1028
aS'20'
p4760
aS'82'
p4761
aa(lp4762
I4854
aS'469'
p4763
aS'580'
p4764
aa(lp4765
I7341
aS'108'
p4766
aS'449'
p4767
aasS'1W7F'
p4768
(lp4769
(lp4770
I6991
aS'53'
p4771
aS'263'
p4772
aasS'2X8G'
p4773
(lp4774
(lp4775
I1028
aS'20'
p4776
aS'82'
p4777
aa(lp4778
I4854
aS'469'
p4779
aS'580'
p4780
aa(lp4781
I7341
aS'108'
p4782
aS'449'
p4783
aasS'1IES'
p4784
(lp4785
(lp4786
I6266
aS'14'
p4787
aS'153'
p4788
aasS'1IER'
p4789
(lp4790
(lp4791
I6266
aS'14'
p4792
aS'153'
p4793
aasS'2H68'
p4794
(lp4795
(lp4796
I7213
aS'39'
p4797
aS'72'
p4798
aa(lp4799
I7213
aS'79'
p4800
aS'115'
p4801
aa(lp4802
I7213
aS'119'
p4803
aS'157'
p4804
aa(lp4805
I7213
aS'161'
p4806
aS'199'
p4807
aa(lp4808
I7213
aS'203'
p4809
aS'242'
p4810
aa(lp4811
I7213
aS'246'
p4812
aS'287'
p4813
aa(lp4814
I7213
aS'293'
p4815
aS'331'
p4816
aasS'4GDB'
p4817
(lp4818
(lp4819
I6991
aS'53'
p4820
aS'262'
p4821
aasS'1BLC'
p4822
(lp4823
(lp4824
I6991
aS'52'
p4825
aS'255'
p4826
aasS'4MEZ'
p4827
(lp4828
(lp4829
I6991
aS'51'
p4830
aS'261'
p4831
aasS'2CVJ'
p4832
(lp4833
(lp4834
I7341
aS'3'
aS'106'
p4835
aasS'3C7U'
p4836
(lp4837
(lp4838
I1291
aS'2'
aS'164'
p4839
aa(lp4840
I6991
aS'51'
p4841
aS'259'
p4842
aasS'4YVD'
p4843
(lp4844
(lp4845
I7213
aS'196'
p4846
aS'232'
p4847
aa(lp4848
I7213
aS'237'
p4849
aS'274'
p4850
aa(lp4851
I7213
aS'279'
p4852
aS'316'
p4853
aa(lp4854
I7213
aS'322'
p4855
aS'358'
p4856
aa(lp4857
I7213
aS'404'
p4858
aS'440'
p4859
aasS'3FM0'
p4860
(lp4861
(lp4862
I7213
aS'12'
p4863
aS'43'
p4864
aa(lp4865
I7213
aS'52'
p4866
aS'89'
p4867
aa(lp4868
I7213
aS'96'
p4869
aS'132'
p4870
aa(lp4871
I7213
aS'141'
p4872
aS'177'
p4873
aa(lp4874
I7213
aS'185'
p4875
aS'221'
p4876
aa(lp4877
I7213
aS'297'
p4878
aS'332'
p4879
aasS'3A68'
p4880
(lp4881
(lp4882
I6266
aS'48'
p4883
aS'191'
p4884
aasS'3GVY'
p4885
(lp4886
(lp4887
I6266
aS'8'
aS'141'
p4888
aasS'1Z4A'
p4889
(lp4890
(lp4891
I6266
aS'10'
p4892
aS'145'
p4893
aasS'4OP5'
p4894
(lp4895
(lp4896
I6991
aS'51'
p4897
aS'258'
p4898
aasS'3LB8'
p4899
(lp4900
(lp4901
I4293
aS'8'
aS'91'
p4902
aa(lp4903
I6641
aS'328'
p4904
aS'411'
p4905
aa(lp4906
I7341
aS'6'
aS'309'
p4907
aasS'2V1Z'
p4908
(lp4909
(lp4910
I6991
aS'31'
p4911
aS'237'
p4912
aasS'3MMY'
p4913
(lp4914
(lp4915
I7213
aS'85'
p4916
aS'114'
p4917
aa(lp4918
I7213
aS'125'
p4919
aS'157'
p4920
aasS'4R3B'
p4921
(lp4922
(lp4923
I6991
aS'53'
p4924
aS'262'
p4925
aasS'2H6Q'
p4926
(lp4927
(lp4928
I7213
aS'39'
p4929
aS'72'
p4930
aa(lp4931
I7213
aS'79'
p4932
aS'115'
p4933
aa(lp4934
I7213
aS'119'
p4935
aS'157'
p4936
aa(lp4937
I7213
aS'161'
p4938
aS'199'
p4939
aa(lp4940
I7213
aS'203'
p4941
aS'242'
p4942
aa(lp4943
I7213
aS'246'
p4944
aS'287'
p4945
aa(lp4946
I7213
aS'293'
p4947
aS'331'
p4948
aasS'3AJP'
p4949
(lp4950
(lp4951
I6266
aS'18'
p4952
aS'158'
p4953
aasS'3AJQ'
p4954
(lp4955
(lp4956
I6266
aS'18'
p4957
aS'158'
p4958
aasS'4O45'
p4959
(lp4960
(lp4961
I7213
aS'39'
p4962
aS'72'
p4963
aa(lp4964
I7213
aS'79'
p4965
aS'115'
p4966
aa(lp4967
I7213
aS'119'
p4968
aS'157'
p4969
aa(lp4970
I7213
aS'161'
p4971
aS'199'
p4972
aa(lp4973
I7213
aS'203'
p4974
aS'242'
p4975
aa(lp4976
I7213
aS'246'
p4977
aS'287'
p4978
aa(lp4979
I7213
aS'293'
p4980
aS'331'
p4981
aasS'3EWE'
p4982
(lp4983
(lp4984
I466
aS'89'
p4985
aS'555'
p4986
aa(lp4987
I7213
aS'12'
p4988
aS'36'
p4989
aa(lp4990
I7213
aS'49'
p4991
aS'84'
p4992
aa(lp4993
I7213
aS'208'
p4994
aS'243'
p4995
aa(lp4996
I7213
aS'305'
p4997
aS'332'
p4998
aasS'1O9R'
p4999
(lp5000
(lp5001
I6266
aS'21'
p5002
aS'159'
p5003
aasS'2X8H'
p5004
(lp5005
(lp5006
I1028
aS'20'
p5007
aS'82'
p5008
aa(lp5009
I4854
aS'469'
p5010
aS'580'
p5011
aa(lp5012
I7341
aS'108'
p5013
aS'449'
p5014
aasS'1IYO'
p5015
(lp5016
(lp5017
I6991
aS'53'
p5018
aS'262'
p5019
aasS'3EAO'
p5020
(lp5021
(lp5022
I4854
aS'370'
p5023
aS'481'
p5024
aa(lp5025
I7341
aS'13'
p5026
aS'350'
p5027
aasS'3M2J'
p5028
(lp5029
(lp5030
I6991
aS'53'
p5031
aS'263'
p5032
aasS'1LPF'
p5033
(lp5034
(lp5035
I4854
aS'352'
p5036
aS'460'
p5037
aa(lp5038
I7341
aS'4'
aS'333'
p5039
aasS'3MXR'
p5040
(lp5041
(lp5042
I6991
aS'53'
p5043
aS'262'
p5044
aasS'1FEB'
p5045
(lp5046
(lp5047
I4854
aS'362'
p5048
aS'467'
p5049
aa(lp5050
I7341
aS'4'
aS'341'
p5051
aasS'1FEC'
p5052
(lp5053
(lp5054
I4854
aS'362'
p5055
aS'467'
p5056
aa(lp5057
I7341
aS'4'
aS'341'
p5058
aasS'3JZG'
p5059
(lp5060
(lp5061
I7213
aS'181'
p5062
aS'219'
p5063
aasS'1DJN'
p5064
(lp5065
(lp5066
I6243
aS'9'
aS'340'
p5067
aa(lp5068
I7341
aS'391'
p5069
aS'684'
p5070
aasS'4CMY'
p5071
(lp5072
(lp5073
I6266
aS'8'
aS'142'
p5074
aa(lp5075
I6266
aS'8'
aS'142'
p5076
aasS'1FL2'
p5077
(lp5078
(lp5079
I7341
aS'213'
p5080
aS'504'
p5081
aasS'4RVA'
p5082
(lp5083
(lp5084
I6991
aS'51'
p5085
aS'261'
p5086
aasS'3OC4'
p5087
(lp5088
(lp5089
I4854
aS'328'
p5090
aS'423'
p5091
aa(lp5092
I7341
aS'2'
aS'300'
p5093
aasS'4JT5'
p5094
(lp5095
(lp5096
I2217
aS'2519'
p5097
aS'2549'
p5098
aa(lp5099
I3104
aS'1513'
p5100
aS'1908'
p5101
aa(lp5102
I5073
aS'2183'
p5103
aS'2430'
p5104
aa(lp5105
I5948
aS'2015'
p5106
aS'2113'
p5107
aa(lp5108
I7213
aS'87'
p5109
aS'113'
p5110
aa(lp5111
I7213
aS'120'
p5112
aS'156'
p5113
aa(lp5114
I7213
aS'223'
p5115
aS'247'
p5116
aasS'1NDA'
p5117
(lp5118
(lp5119
I4854
aS'361'
p5120
aS'467'
p5121
aa(lp5122
I7341
aS'5'
aS'341'
p5123
aasS'1MBL'
p5124
(lp5125
(lp5126
I6991
aS'53'
p5127
aS'263'
p5128
aasS'3EAN'
p5129
(lp5130
(lp5131
I4854
aS'370'
p5132
aS'481'
p5133
aa(lp5134
I7341
aS'13'
p5135
aS'350'
p5136
aasS'4ZJK'
p5137
(lp5138
(lp5139
I6266
aS'18'
p5140
aS'158'
p5141
aasS'1OJT'
p5142
(lp5143
(lp5144
I4854
aS'474'
p5145
aS'582'
p5146
aa(lp5147
I7341
aS'123'
p5148
aS'455'
p5149
aasS'3DJJ'
p5150
(lp5151
(lp5152
I4854
aS'367'
p5153
aS'477'
p5154
aa(lp5155
I7341
aS'21'
p5156
aS'346'
p5157
aasS'3LY4'
p5158
(lp5159
(lp5160
I6991
aS'53'
p5161
aS'263'
p5162
aasS'3ZWL'
p5163
(lp5164
(lp5165
I7213
aS'43'
p5166
aS'80'
p5167
aasS'4GD8'
p5168
(lp5169
(lp5170
I6991
aS'53'
p5171
aS'262'
p5172
aasS'2ZG9'
p5173
(lp5174
(lp5175
I6266
aS'14'
p5176
aS'153'
p5177
aasS'5D8Q'
p5178
(lp5179
(lp5180
I6266
aS'8'
aS'143'
p5181
aasS'3VL1'
p5182
(lp5183
(lp5184
I7213
aS'134'
p5185
aS'164'
p5186
aa(lp5187
I7213
aS'171'
p5188
aS'205'
p5189
aasS'2CF7'
p5190
(lp5191
(lp5192
I6266
aS'27'
p5193
aS'170'
p5194
aasS'3OPL'
p5195
(lp5196
(lp5197
I6991
aS'53'
p5198
aS'262'
p5199
aasS'2ZG7'
p5200
(lp5201
(lp5202
I6266
aS'14'
p5203
aS'153'
p5204
aasS'5D8P'
p5205
(lp5206
(lp5207
I6266
aS'8'
aS'143'
p5208
aasS'4TOD'
p5209
(lp5210
(lp5211
I6266
aS'8'
aS'143'
p5212
aasS'5D8O'
p5213
(lp5214
(lp5215
I6266
aS'8'
aS'143'
p5216
aasS'4ITW'
p5217
(lp5218
(lp5219
I6266
aS'6'
aS'141'
p5220
aasS'3IQA'
p5221
(lp5222
(lp5223
I6991
aS'68'
p5224
aS'277'
p5225
aasS'1JIG'
p5226
(lp5227
(lp5228
I6266
aS'9'
aS'146'
p5229
aasS'2XR0'
p5230
(lp5231
(lp5232
I6991
aS'53'
p5233
aS'262'
p5234
aasS'4OP8'
p5235
(lp5236
(lp5237
I6991
aS'51'
p5238
aS'258'
p5239
aasS'3R2O'
p5240
(lp5241
(lp5242
I6266
aS'8'
aS'144'
p5243
aasS'1F3P'
p5244
(lp5245
(lp5246
I6641
aS'318'
p5247
aS'403'
p5248
aa(lp5249
I7341
aS'10'
p5250
aS'298'
p5251
aasS'3RGD'
p5252
(lp5253
(lp5254
I6266
aS'15'
p5255
aS'154'
p5256
aasS'1BZL'
p5257
(lp5258
(lp5259
I4854
aS'362'
p5260
aS'468'
p5261
aa(lp5262
I7341
aS'6'
aS'342'
p5263
aasS'4TOH'
p5264
(lp5265
(lp5266
I6266
aS'8'
aS'143'
p5267
aasS'3LXD'
p5268
(lp5269
(lp5270
I6641
aS'330'
p5271
aS'414'
p5272
aa(lp5273
I7341
aS'11'
p5274
aS'311'
p5275
aasS'3DW0'
p5276
(lp5277
(lp5278
I6991
aS'53'
p5279
aS'263'
p5280
aasS'1ZY8'
p5281
(lp5282
(lp5283
I3210
aS'130'
p5284
aS'164'
p5285
aa(lp5286
I4854
aS'354'
p5287
aS'462'
p5288
aa(lp5289
I7341
aS'8'
aS'335'
p5290
aasS'1NR0'
p5291
(lp5292
(lp5293
I7213
aS'183'
p5294
aS'218'
p5295
aa(lp5296
I7213
aS'237'
p5297
aS'267'
p5298
aa(lp5299
I7213
aS'532'
p5300
aS'564'
p5301
aa(lp5302
I7213
aS'577'
p5303
aS'608'
p5304
aasS'4ZOY'
p5305
(lp5306
(lp5307
I1058
aS'379'
p5308
aS'405'
p5309
aa(lp5310
I7213
aS'130'
p5311
aS'167'
p5312
aasS'3E2C'
p5313
(lp5314
(lp5315
I6266
aS'8'
aS'144'
p5316
aasS'3NDG'
p5317
(lp5318
(lp5319
I6991
aS'68'
p5320
aS'277'
p5321
aasS'3NDE'
p5322
(lp5323
(lp5324
I6991
aS'68'
p5325
aS'277'
p5326
aasS'2H6K'
p5327
(lp5328
(lp5329
I7213
aS'39'
p5330
aS'72'
p5331
aa(lp5332
I7213
aS'79'
p5333
aS'115'
p5334
aa(lp5335
I7213
aS'119'
p5336
aS'157'
p5337
aa(lp5338
I7213
aS'161'
p5339
aS'199'
p5340
aa(lp5341
I7213
aS'203'
p5342
aS'242'
p5343
aa(lp5344
I7213
aS'246'
p5345
aS'287'
p5346
aa(lp5347
I7213
aS'293'
p5348
aS'331'
p5349
aasS'3R2K'
p5350
(lp5351
(lp5352
I6266
aS'8'
aS'144'
p5353
aasS'4BLM'
p5354
(lp5355
(lp5356
I6991
aS'53'
p5357
aS'263'
p5358
aasS'1EUM'
p5359
(lp5360
(lp5361
I6266
aS'7'
aS'143'
p5362
aasS'2A87'
p5363
(lp5364
(lp5365
I7341
aS'16'
p5366
aS'304'
p5367
aasS'3P4F'
p5368
(lp5369
(lp5370
I7213
aS'39'
p5371
aS'72'
p5372
aa(lp5373
I7213
aS'79'
p5374
aS'115'
p5375
aa(lp5376
I7213
aS'119'
p5377
aS'157'
p5378
aa(lp5379
I7213
aS'161'
p5380
aS'199'
p5381
aa(lp5382
I7213
aS'203'
p5383
aS'242'
p5384
aa(lp5385
I7213
aS'246'
p5386
aS'287'
p5387
aa(lp5388
I7213
aS'293'
p5389
aS'331'
p5390
aasS'1F30'
p5391
(lp5392
(lp5393
I6266
aS'31'
p5394
aS'166'
p5395
aasS'3SZ0'
p5396
(lp5397
(lp5398
I7341
aS'3'
aS'301'
p5399
aasS'1F33'
p5400
(lp5401
(lp5402
I6266
aS'31'
p5403
aS'166'
p5404
aasS'2FG4'
p5405
(lp5406
(lp5407
I6266
aS'18'
p5408
aS'157'
p5409
aasS'3IQ1'
p5410
(lp5411
(lp5412
I6266
aS'18'
p5413
aS'155'
p5414
aasS'1TEM'
p5415
(lp5416
(lp5417
I6991
aS'51'
p5418
aS'261'
p5419
aasS'2FG8'
p5420
(lp5421
(lp5422
I6266
aS'18'
p5423
aS'157'
p5424
aasS'4ZMC'
p5425
(lp5426
(lp5427
I6266
aS'8'
aS'143'
p5428
aasS'4X61'
p5429
(lp5430
(lp5431
I5298
aS'183'
p5432
aS'618'
p5433
aa(lp5434
I7213
aS'160'
p5435
aS'196'
p5436
aasS'5A5U'
p5437
(lp5438
(lp5439
I1773
aS'110'
p5440
aS'160'
p5441
aa(lp5442
I4097
aS'410'
p5443
aS'605'
p5444
aa(lp5445
I7213
aS'5'
aS'37'
p5446
aa(lp5447
I7213
aS'43'
p5448
aS'80'
p5449
aasS'5CMR'
p5450
(lp5451
(lp5452
I6266
aS'18'
p5453
aS'158'
p5454
aasS'4V1W'
p5455
(lp5456
(lp5457
I6266
aS'14'
p5458
aS'153'
p5459
aasS'3SY4'
p5460
(lp5461
(lp5462
I7341
aS'3'
aS'301'
p5463
aasS'3T2Z'
p5464
(lp5465
(lp5466
I7341
aS'3'
aS'301'
p5467
aasS'3T2Y'
p5468
(lp5469
(lp5470
I7341
aS'3'
aS'301'
p5471
aasS'4D2O'
p5472
(lp5473
(lp5474
I6991
aS'60'
p5475
aS'263'
p5476
aasS'2Z5Q'
p5477
(lp5478
(lp5479
I6266
aS'14'
p5480
aS'153'
p5481
aasS'2Z5P'
p5482
(lp5483
(lp5484
I6266
aS'14'
p5485
aS'153'
p5486
aasS'1JVJ'
p5487
(lp5488
(lp5489
I6991
aS'51'
p5490
aS'261'
p5491
aasS'4LQN'
p5492
(lp5493
(lp5494
I6266
aS'14'
p5495
aS'153'
p5496
aasS'1LB3'
p5497
(lp5498
(lp5499
I6266
aS'18'
p5500
aS'158'
p5501
aasS'4LQJ'
p5502
(lp5503
(lp5504
I6266
aS'14'
p5505
aS'153'
p5506
aasS'4LQH'
p5507
(lp5508
(lp5509
I6266
aS'14'
p5510
aS'153'
p5511
aasS'3T2K'
p5512
(lp5513
(lp5514
I7341
aS'3'
aS'301'
p5515
aasS'4LQV'
p5516
(lp5517
(lp5518
I6266
aS'14'
p5519
aS'153'
p5520
aasS'2BW1'
p5521
(lp5522
(lp5523
I6266
aS'27'
p5524
aS'170'
p5525
aasS'3WVU'
p5526
(lp5527
(lp5528
I6266
aS'14'
p5529
aS'153'
p5530
aasS'2CFY'
p5531
(lp5532
(lp5533
I4854
aS'370'
p5534
aS'481'
p5535
aa(lp5536
I7341
aS'13'
p5537
aS'350'
p5538
aasS'2BCP'
p5539
(lp5540
(lp5541
I4854
aS'347'
p5542
aS'441'
p5543
aa(lp5544
I7341
aS'3'
aS'317'
p5545
aasS'1ERM'
p5546
(lp5547
(lp5548
I6991
aS'51'
p5549
aS'259'
p5550
aasS'1GEU'
p5551
(lp5552
(lp5553
I4854
aS'339'
p5554
aS'449'
p5555
aa(lp5556
I7341
aS'5'
aS'318'
p5557
aasS'1GET'
p5558
(lp5559
(lp5560
I4854
aS'339'
p5561
aS'449'
p5562
aa(lp5563
I7341
aS'5'
aS'318'
p5564
aasS'1GES'
p5565
(lp5566
(lp5567
I4854
aS'339'
p5568
aS'449'
p5569
aa(lp5570
I7341
aS'5'
aS'318'
p5571
aasS'1GER'
p5572
(lp5573
(lp5574
I4854
aS'339'
p5575
aS'449'
p5576
aa(lp5577
I7341
aS'5'
aS'318'
p5578
aasS'4V6B'
p5579
(lp5580
(lp5581
I6266
aS'15'
p5582
aS'154'
p5583
aasS'4ZJ3'
p5584
(lp5585
(lp5586
I6991
aS'51'
p5587
aS'261'
p5588
aa(lp5589
I6991
aS'51'
p5590
aS'261'
p5591
aasS'4CI8'
p5592
(lp5593
(lp5594
I4490
aS'185'
p5595
aS'259'
p5596
aa(lp5597
I7213
aS'262'
p5598
aS'309'
p5599
aa(lp5600
I7213
aS'776'
p5601
aS'812'
p5602
aasS'3SFZ'
p5603
(lp5604
(lp5605
I721
aS'130'
p5606
aS'411'
p5607
aa(lp5608
I7213
aS'612'
p5609
aS'642'
p5610
aa(lp5611
I7213
aS'648'
p5612
aS'685'
p5613
aa(lp5614
I7213
aS'689'
p5615
aS'729'
p5616
aa(lp5617
I7213
aS'734'
p5618
aS'771'
p5619
aa(lp5620
I7213
aS'876'
p5621
aS'909'
p5622
aa(lp5623
I7213
aS'1000'
p5624
aS'1031'
p5625
aa(lp5626
I7213
aS'1078'
p5627
aS'1113'
p5628
aa(lp5629
I7213
aS'1118'
p5630
aS'1155'
p5631
aasS'3WVV'
p5632
(lp5633
(lp5634
I6266
aS'14'
p5635
aS'153'
p5636
aasS'2CIH'
p5637
(lp5638
(lp5639
I6266
aS'18'
p5640
aS'158'
p5641
aasS'4UP3'
p5642
(lp5643
(lp5644
I7341
aS'5'
aS'300'
p5645
aasS'4N1H'
p5646
(lp5647
(lp5648
I2388
aS'11'
p5649
aS'125'
p5650
aa(lp5651
I6991
aS'53'
p5652
aS'263'
p5653
aasS'2ZQC'
p5654
(lp5655
(lp5656
I6991
aS'53'
p5657
aS'262'
p5658
aasS'2XEP'
p5659
(lp5660
(lp5661
I6991
aS'162'
p5662
aS'270'
p5663
aasS'2ZQA'
p5664
(lp5665
(lp5666
I6991
aS'53'
p5667
aS'262'
p5668
aasS'2ZQD'
p5669
(lp5670
(lp5671
I6991
aS'53'
p5672
aS'262'
p5673
aasS'1FHA'
p5674
(lp5675
(lp5676
I6266
aS'18'
p5677
aS'158'
p5678
aasS'3NIA'
p5679
(lp5680
(lp5681
I6991
aS'48'
p5682
aS'255'
p5683
aasS'4EM4'
p5684
(lp5685
(lp5686
I4854
aS'326'
p5687
aS'424'
p5688
aa(lp5689
I7341
aS'3'
aS'287'
p5690
aasS'4EM3'
p5691
(lp5692
(lp5693
I4854
aS'326'
p5694
aS'424'
p5695
aa(lp5696
I7341
aS'3'
aS'287'
p5697
aasS'3IJC'
p5698
(lp5699
(lp5700
I7213
aS'181'
p5701
aS'219'
p5702
aasS'4ADW'
p5703
(lp5704
(lp5705
I4854
aS'363'
p5706
aS'468'
p5707
aa(lp5708
I7341
aS'5'
aS'342'
p5709
aasS'1KRQ'
p5710
(lp5711
(lp5712
I6266
aS'8'
aS'144'
p5713
aasS'3JYI'
p5714
(lp5715
(lp5716
I6991
aS'51'
p5717
aS'259'
p5718
aasS'3EGM'
p5719
(lp5720
(lp5721
I6266
aS'7'
aS'144'
p5722
aasS'2VZB'
p5723
(lp5724
(lp5725
I6266
aS'19'
p5726
aS'163'
p5727
aasS'4DDS'
p5728
(lp5729
(lp5730
I6991
aS'53'
p5731
aS'262'
p5732
aasS'1JOA'
p5733
(lp5734
(lp5735
I4854
aS'329'
p5736
aS'429'
p5737
aa(lp5738
I7341
aS'1'
aS'306'
p5739
aasS'4DDY'
p5740
(lp5741
(lp5742
I6991
aS'53'
p5743
aS'262'
p5744
aasS'4IXK'
p5745
(lp5746
(lp5747
I6266
aS'6'
aS'141'
p5748
aasS'3QFA'
p5749
(lp5750
(lp5751
I4854
aS'370'
p5752
aS'481'
p5753
aa(lp5754
I5839
aS'7'
aS'103'
p5755
aa(lp5756
I7341
aS'13'
p5757
aS'350'
p5758
aasS'1NHS'
p5759
(lp5760
(lp5761
I4854
aS'329'
p5762
aS'429'
p5763
aa(lp5764
I7341
aS'1'
aS'306'
p5765
aasS'2IY4'
p5766
(lp5767
(lp5768
I6266
aS'12'
p5769
aS'153'
p5770
aasS'4JPM'
p5771
(lp5772
(lp5773
I6991
aS'53'
p5774
aS'262'
p5775
aasS'4EMW'
p5776
(lp5777
(lp5778
I4854
aS'326'
p5779
aS'424'
p5780
aa(lp5781
I7341
aS'3'
aS'287'
p5782
aasS'1GWG'
p5783
(lp5784
(lp5785
I6266
aS'14'
p5786
aS'153'
p5787
aasS'1Q1W'
p5788
(lp5789
(lp5790
I6641
aS'328'
p5791
aS'411'
p5792
aa(lp5793
I7341
aS'6'
aS'309'
p5794
aasS'3G35'
p5795
(lp5796
(lp5797
I6991
aS'53'
p5798
aS'262'
p5799
aasS'3G34'
p5800
(lp5801
(lp5802
I6991
aS'53'
p5803
aS'262'
p5804
aasS'3G32'
p5805
(lp5806
(lp5807
I6991
aS'53'
p5808
aS'262'
p5809
aasS'3G31'
p5810
(lp5811
(lp5812
I6991
aS'53'
p5813
aS'262'
p5814
aasS'3G30'
p5815
(lp5816
(lp5817
I6991
aS'53'
p5818
aS'262'
p5819
aasS'3JZN'
p5820
(lp5821
(lp5822
I7213
aS'181'
p5823
aS'219'
p5824
aasS'3BVE'
p5825
(lp5826
(lp5827
I6266
aS'7'
aS'144'
p5828
aasS'2Z6M'
p5829
(lp5830
(lp5831
I6266
aS'18'
p5832
aS'158'
p5833
aasS'3BVF'
p5834
(lp5835
(lp5836
I6266
aS'7'
aS'144'
p5837
aasS'3BVI'
p5838
(lp5839
(lp5840
I6266
aS'7'
aS'144'
p5841
aasS'4J79'
p5842
(lp5843
(lp5844
I7213
aS'89'
p5845
aS'125'
p5846
aa(lp5847
I7213
aS'134'
p5848
aS'169'
p5849
aa(lp5850
I7213
aS'182'
p5851
aS'214'
p5852
aa(lp5853
I7213
aS'219'
p5854
aS'256'
p5855
aasS'3IJ0'
p5856
(lp5857
(lp5858
I7213
aS'181'
p5859
aS'219'
p5860
aasS'3IJ1'
p5861
(lp5862
(lp5863
I7213
aS'181'
p5864
aS'219'
p5865
aasS'4EMJ'
p5866
(lp5867
(lp5868
I3587
aS'2'
aS'94'
p5869
aa(lp5870
I6641
aS'320'
p5871
aS'401'
p5872
aa(lp5873
I7341
aS'4'
aS'299'
p5874
aasS'3BVL'
p5875
(lp5876
(lp5877
I6266
aS'7'
aS'144'
p5878
aasS'3JZH'
p5879
(lp5880
(lp5881
I7213
aS'181'
p5882
aS'219'
p5883
aasS'4FH4'
p5884
(lp5885
(lp5886
I6991
aS'53'
p5887
aS'262'
p5888
aasS'2ZQ8'
p5889
(lp5890
(lp5891
I6991
aS'53'
p5892
aS'262'
p5893
aasS'4FH2'
p5894
(lp5895
(lp5896
I6991
aS'53'
p5897
aS'262'
p5898
aasS'4FCF'
p5899
(lp5900
(lp5901
I6991
aS'53'
p5902
aS'262'
p5903
aasS'1PEV'
p5904
(lp5905
(lp5906
I7213
aS'183'
p5907
aS'218'
p5908
aa(lp5909
I7213
aS'237'
p5910
aS'267'
p5911
aa(lp5912
I7213
aS'532'
p5913
aS'564'
p5914
aa(lp5915
I7213
aS'577'
p5916
aS'608'
p5917
aasS'2ZQ7'
p5918
(lp5919
(lp5920
I6991
aS'53'
p5921
aS'262'
p5922
aasS'1GXF'
p5923
(lp5924
(lp5925
I4854
aS'362'
p5926
aS'468'
p5927
aa(lp5928
I7341
aS'6'
aS'342'
p5929
aasS'2GDN'
p5930
(lp5931
(lp5932
I6991
aS'54'
p5933
aS'263'
p5934
aasS'4GM8'
p5935
(lp5936
(lp5937
I7213
aS'39'
p5938
aS'72'
p5939
aa(lp5940
I7213
aS'79'
p5941
aS'115'
p5942
aa(lp5943
I7213
aS'119'
p5944
aS'157'
p5945
aa(lp5946
I7213
aS'161'
p5947
aS'199'
p5948
aa(lp5949
I7213
aS'203'
p5950
aS'242'
p5951
aa(lp5952
I7213
aS'246'
p5953
aS'287'
p5954
aa(lp5955
I7213
aS'293'
p5956
aS'331'
p5957
aasS'1YQZ'
p5958
(lp5959
(lp5960
I4854
aS'326'
p5961
aS'424'
p5962
aa(lp5963
I7341
aS'3'
aS'287'
p5964
aasS'4GM9'
p5965
(lp5966
(lp5967
I7213
aS'39'
p5968
aS'72'
p5969
aa(lp5970
I7213
aS'79'
p5971
aS'115'
p5972
aa(lp5973
I7213
aS'119'
p5974
aS'157'
p5975
aa(lp5976
I7213
aS'161'
p5977
aS'199'
p5978
aa(lp5979
I7213
aS'203'
p5980
aS'242'
p5981
aa(lp5982
I7213
aS'246'
p5983
aS'287'
p5984
aa(lp5985
I7213
aS'293'
p5986
aS'331'
p5987
aasS'3R2H'
p5988
(lp5989
(lp5990
I6266
aS'8'
aS'144'
p5991
aasS'1GXR'
p5992
(lp5993
(lp5994
I7213
aS'608'
p5995
aS'644'
p5996
aasS'4FX9'
p5997
(lp5998
(lp5999
I4854
aS'330'
p6000
aS'431'
p6001
aa(lp6002
I7341
aS'7'
aS'308'
p6003
aasS'4AM4'
p6004
(lp6005
(lp6006
I6266
aS'8'
aS'142'
p6007
aasS'4AM5'
p6008
(lp6009
(lp6010
I6266
aS'8'
aS'142'
p6011
aasS'1JWP'
p6012
(lp6013
(lp6014
I6991
aS'51'
p6015
aS'261'
p6016
aasS'1MFR'
p6017
(lp6018
(lp6019
I6266
aS'14'
p6020
aS'153'
p6021
aasS'1FEA'
p6022
(lp6023
(lp6024
I4854
aS'362'
p6025
aS'467'
p6026
aa(lp6027
I7341
aS'4'
aS'341'
p6028
aasS'1NPX'
p6029
(lp6030
(lp6031
I4854
aS'329'
p6032
aS'429'
p6033
aa(lp6034
I7341
aS'1'
aS'306'
p6035
aasS'1BFR'
p6036
(lp6037
(lp6038
I6266
aS'8'
aS'144'
p6039
aasS'4ESG'
p6040
(lp6041
(lp6042
I7213
aS'39'
p6043
aS'72'
p6044
aa(lp6045
I7213
aS'79'
p6046
aS'115'
p6047
aa(lp6048
I7213
aS'119'
p6049
aS'157'
p6050
aa(lp6051
I7213
aS'161'
p6052
aS'199'
p6053
aa(lp6054
I7213
aS'203'
p6055
aS'242'
p6056
aa(lp6057
I7213
aS'246'
p6058
aS'287'
p6059
aa(lp6060
I7213
aS'293'
p6061
aS'331'
p6062
aasS'2AQ5'
p6063
(lp6064
(lp6065
I695
aS'345'
p6066
aS'387'
p6067
aa(lp6068
I5802
aS'8'
aS'68'
p6069
aa(lp6070
I7213
aS'79'
p6071
aS'109'
p6072
aa(lp6073
I7213
aS'122'
p6074
aS'160'
p6075
aa(lp6076
I7213
aS'174'
p6077
aS'202'
p6078
aasS'3EF6'
p6079
(lp6080
(lp6081
I6641
aS'320'
p6082
aS'401'
p6083
aa(lp6084
I7341
aS'4'
aS'299'
p6085
aasS'4J82'
p6086
(lp6087
(lp6088
I7213
aS'89'
p6089
aS'125'
p6090
aa(lp6091
I7213
aS'134'
p6092
aS'169'
p6093
aa(lp6094
I7213
aS'182'
p6095
aS'214'
p6096
aa(lp6097
I7213
aS'219'
p6098
aS'256'
p6099
aasS'3AF7'
p6100
(lp6101
(lp6102
I6266
aS'14'
p6103
aS'153'
p6104
aasS'1BZA'
p6105
(lp6106
(lp6107
I6991
aS'53'
p6108
aS'262'
p6109
aasS'4RX2'
p6110
(lp6111
(lp6112
I6991
aS'51'
p6113
aS'261'
p6114
aasS'4RX3'
p6115
(lp6116
(lp6117
I6991
aS'51'
p6118
aS'261'
p6119
aasS'3IC9'
p6120
(lp6121
(lp6122
I4854
aS'348'
p6123
aS'459'
p6124
aa(lp6125
I7341
aS'7'
aS'325'
p6126
aasS'2D5K'
p6127
(lp6128
(lp6129
I6266
aS'10'
p6130
aS'148'
p6131
aasS'1JEH'
p6132
(lp6133
(lp6134
I4854
aS'359'
p6135
aS'467'
p6136
aa(lp6137
I7341
aS'6'
aS'340'
p6138
aasS'2PYB'
p6139
(lp6140
(lp6141
I6266
aS'19'
p6142
aS'160'
p6143
aasS'1XAN'
p6144
(lp6145
(lp6146
I4854
aS'367'
p6147
aS'477'
p6148
aa(lp6149
I7341
aS'21'
p6150
aS'346'
p6151
aasS'3HLW'
p6152
(lp6153
(lp6154
I6991
aS'53'
p6155
aS'262'
p6156
aasS'2FKZ'
p6157
(lp6158
(lp6159
I6266
aS'8'
aS'143'
p6160
aasS'1MOK'
p6161
(lp6162
(lp6163
I4854
aS'387'
p6164
aS'509'
p6165
aa(lp6166
I7341
aS'44'
p6167
aS'368'
p6168
aasS'1MOJ'
p6169
(lp6170
(lp6171
I6266
aS'32'
p6172
aS'173'
p6173
aasS'1Q1R'
p6174
(lp6175
(lp6176
I6641
aS'328'
p6177
aS'411'
p6178
aa(lp6179
I7341
aS'6'
aS'309'
p6180
aasS'4J84'
p6181
(lp6182
(lp6183
I7213
aS'89'
p6184
aS'125'
p6185
aa(lp6186
I7213
aS'134'
p6187
aS'169'
p6188
aa(lp6189
I7213
aS'182'
p6190
aS'214'
p6191
aa(lp6192
I7213
aS'219'
p6193
aS'256'
p6194
aasS'4G6G'
p6195
(lp6196
(lp6197
I7341
aS'55'
p6198
aS'400'
p6199
aasS'3F39'
p6200
(lp6201
(lp6202
I6266
aS'14'
p6203
aS'153'
p6204
aasS'4G6H'
p6205
(lp6206
(lp6207
I7341
aS'55'
p6208
aS'400'
p6209
aasS'4U3G'
p6210
(lp6211
(lp6212
I6266
aS'8'
aS'144'
p6213
aasS'4HES'
p6214
(lp6215
(lp6216
I6991
aS'45'
p6217
aS'240'
p6218
aasS'4QHC'
p6219
(lp6220
(lp6221
I6991
aS'68'
p6222
aS'277'
p6223
aasS'2CHP'
p6224
(lp6225
(lp6226
I6266
aS'15'
p6227
aS'153'
p6228
aasS'2JBF'
p6229
(lp6230
(lp6231
I6991
aS'43'
p6232
aS'244'
p6233
aasS'2PM9'
p6234
(lp6235
(lp6236
I7213
aS'248'
p6237
aS'286'
p6238
aa(lp6239
I7213
aS'45'
p6240
aS'83'
p6241
aa(lp6242
I7213
aS'198'
p6243
aS'234'
p6244
aasS'1MO9'
p6245
(lp6246
(lp6247
I4854
aS'387'
p6248
aS'509'
p6249
aa(lp6250
I7341
aS'44'
p6251
aS'368'
p6252
aasS'4GD6'
p6253
(lp6254
(lp6255
I6991
aS'53'
p6256
aS'262'
p6257
aasS'1JWV'
p6258
(lp6259
(lp6260
I6991
aS'51'
p6261
aS'261'
p6262
aasS'2ZBW'
p6263
(lp6264
(lp6265
I7341
aS'7'
aS'299'
p6266
aasS'3ICT'
p6267
(lp6268
(lp6269
I3419
aS'463'
p6270
aS'544'
p6271
aa(lp6272
I4854
aS'333'
p6273
aS'434'
p6274
aa(lp6275
I7341
aS'4'
aS'309'
p6276
aasS'1JWZ'
p6277
(lp6278
(lp6279
I6991
aS'51'
p6280
aS'261'
p6281
aasS'3Q07'
p6282
(lp6283
(lp6284
I6991
aS'54'
p6285
aS'260'
p6286
aasS'2CEI'
p6287
(lp6288
(lp6289
I6266
aS'18'
p6290
aS'158'
p6291
aasS'3ICS'
p6292
(lp6293
(lp6294
I3419
aS'463'
p6295
aS'544'
p6296
aa(lp6297
I4854
aS'333'
p6298
aS'434'
p6299
aa(lp6300
I7341
aS'4'
aS'309'
p6301
aasS'3ICR'
p6302
(lp6303
(lp6304
I3419
aS'463'
p6305
aS'544'
p6306
aa(lp6307
I4854
aS'333'
p6308
aS'434'
p6309
aa(lp6310
I7341
aS'4'
aS'309'
p6311
aasS'3E1J'
p6312
(lp6313
(lp6314
I6266
aS'8'
aS'144'
p6315
aasS'4YFM'
p6316
(lp6317
(lp6318
I6991
aS'55'
p6319
aS'260'
p6320
aasS'4BV6'
p6321
(lp6322
(lp6323
I6590
aS'465'
p6324
aS'594'
p6325
aa(lp6326
I7341
aS'136'
p6327
aS'459'
p6328
aasS'2ZD8'
p6329
(lp6330
(lp6331
I6991
aS'53'
p6332
aS'262'
p6333
aasS'4GM3'
p6334
(lp6335
(lp6336
I7213
aS'39'
p6337
aS'72'
p6338
aa(lp6339
I7213
aS'79'
p6340
aS'115'
p6341
aa(lp6342
I7213
aS'119'
p6343
aS'157'
p6344
aa(lp6345
I7213
aS'161'
p6346
aS'199'
p6347
aa(lp6348
I7213
aS'203'
p6349
aS'242'
p6350
aa(lp6351
I7213
aS'246'
p6352
aS'287'
p6353
aa(lp6354
I7213
aS'293'
p6355
aS'331'
p6356
aasS'1E25'
p6357
(lp6358
(lp6359
I6991
aS'57'
p6360
aS'263'
p6361
aasS'4V8M'
p6362
(lp6363
(lp6364
I62
aS'85'
p6365
aS'162'
p6366
aa(lp6367
I86
aS'2'
aS'68'
p6368
aa(lp6369
I125
aS'29'
p6370
aS'107'
p6371
aa(lp6372
I143
aS'54'
p6373
aS'150'
p6374
aa(lp6375
I143
aS'148'
p6376
aS'218'
p6377
aa(lp6378
I145
aS'10'
p6379
aS'61'
p6380
aa(lp6381
I147
aS'86'
p6382
aS'150'
p6383
aa(lp6384
I341
aS'12'
p6385
aS'107'
p6386
aa(lp6387
I472
aS'273'
p6388
aS'349'
p6389
aa(lp6390
I481
aS'4'
aS'145'
p6391
aa(lp6392
I512
aS'2'
aS'60'
p6393
aa(lp6394
I587
aS'4'
aS'97'
p6395
aa(lp6396
I625
aS'37'
p6397
aS'102'
p6398
aa(lp6399
I672
aS'2'
aS'203'
p6400
aa(lp6401
I905
aS'15'
p6402
aS'122'
p6403
aa(lp6404
I1127
aS'209'
p6405
aS'256'
p6406
aa(lp6407
I1484
aS'3'
aS'88'
p6408
aa(lp6409
I1732
aS'12'
p6410
aS'166'
p6411
aa(lp6412
I1733
aS'74'
p6413
aS'143'
p6414
aa(lp6415
I1735
aS'42'
p6416
aS'125'
p6417
aa(lp6418
I1787
aS'71'
p6419
aS'169'
p6420
aa(lp6421
I1801
aS'8'
aS'191'
p6422
aa(lp6423
I2021
aS'100'
p6424
aS'149'
p6425
aa(lp6426
I2074
aS'20'
p6427
aS'207'
p6428
aa(lp6429
I2075
aS'2'
aS'51'
p6430
aa(lp6431
I2266
aS'3'
aS'99'
p6432
aa(lp6433
I2417
aS'175'
p6434
aS'199'
p6435
aa(lp6436
I2417
aS'49'
p6437
aS'80'
p6438
aa(lp6439
I2417
aS'6'
aS'31'
p6440
aa(lp6441
I2446
aS'106'
p6442
aS'187'
p6443
aa(lp6444
I2502
aS'9'
aS'36'
p6445
aa(lp6446
I2772
aS'11'
p6447
aS'85'
p6448
aa(lp6449
I2772
aS'97'
p6450
aS'176'
p6451
aa(lp6452
I2835
aS'44'
p6453
aS'87'
p6454
aa(lp6455
I2835
aS'106'
p6456
aS'150'
p6457
aa(lp6458
I3026
aS'51'
p6459
aS'133'
p6460
aa(lp6461
I3055
aS'6'
aS'128'
p6462
aa(lp6463
I3071
aS'21'
p6464
aS'139'
p6465
aa(lp6466
I3282
aS'9'
aS'191'
p6467
aa(lp6468
I3544
aS'15'
p6469
aS'143'
p6470
aa(lp6471
I3545
aS'19'
p6472
aS'111'
p6473
aa(lp6474
I3548
aS'89'
p6475
aS'156'
p6476
aa(lp6477
I3549
aS'16'
p6478
aS'55'
p6479
aa(lp6480
I3550
aS'74'
p6481
aS'142'
p6482
aa(lp6483
I3651
aS'27'
p6484
aS'96'
p6485
aa(lp6486
I3767
aS'20'
p6487
aS'223'
p6488
aa(lp6489
I3809
aS'169'
p6490
aS'240'
p6491
aa(lp6492
I3813
aS'3'
aS'60'
p6493
aa(lp6494
I4161
aS'27'
p6495
aS'179'
p6496
aa(lp6497
I4162
aS'48'
p6498
aS'128'
p6499
aa(lp6500
I4162
aS'28'
p6501
aS'143'
p6502
aa(lp6503
I4222
aS'2'
aS'53'
p6504
aa(lp6505
I4304
aS'19'
p6506
aS'87'
p6507
aa(lp6508
I4410
aS'48'
p6509
aS'120'
p6510
aa(lp6511
I4667
aS'22'
p6512
aS'156'
p6513
aa(lp6514
I4691
aS'9'
aS'49'
p6515
aa(lp6516
I4935
aS'2'
aS'118'
p6517
aa(lp6518
I4980
aS'3'
aS'39'
p6519
aa(lp6520
I5041
aS'6'
aS'130'
p6521
aa(lp6522
I5042
aS'16'
p6523
aS'149'
p6524
aa(lp6525
I5050
aS'48'
p6526
aS'190'
p6527
aa(lp6528
I5273
aS'98'
p6529
aS'229'
p6530
aa(lp6531
I5516
aS'14'
p6532
aS'67'
p6533
aa(lp6534
I5517
aS'22'
p6535
aS'260'
p6536
aa(lp6537
I5519
aS'17'
p6538
aS'210'
p6539
aa(lp6540
I5520
aS'53'
p6541
aS'424'
p6542
aa(lp6543
I5521
aS'69'
p6544
aS'88'
p6545
aa(lp6546
I5532
aS'9'
aS'142'
p6547
aa(lp6548
I5683
aS'15'
p6549
aS'67'
p6550
aa(lp6551
I5807
aS'8'
aS'83'
p6552
aa(lp6553
I5992
aS'44'
p6554
aS'64'
p6555
aa(lp6556
I5993
aS'8'
aS'119'
p6557
aa(lp6558
I5996
aS'17'
p6559
aS'149'
p6560
aa(lp6561
I5997
aS'84'
p6562
aS'143'
p6563
aa(lp6564
I6062
aS'198'
p6565
aS'295'
p6566
aa(lp6567
I6236
aS'20'
p6568
aS'93'
p6569
aa(lp6570
I6345
aS'21'
p6571
aS'90'
p6572
aa(lp6573
I6388
aS'5'
aS'100'
p6574
aa(lp6575
I6403
aS'22'
p6576
aS'132'
p6577
aa(lp6578
I6412
aS'62'
p6579
aS'135'
p6580
aa(lp6581
I6453
aS'22'
p6582
aS'124'
p6583
aa(lp6584
I6484
aS'69'
p6585
aS'192'
p6586
aa(lp6587
I6625
aS'32'
p6588
aS'125'
p6589
aa(lp6590
I6625
aS'20'
p6591
aS'111'
p6592
aa(lp6593
I6625
aS'145'
p6594
aS'218'
p6595
aa(lp6596
I6680
aS'92'
p6597
aS'166'
p6598
aa(lp6599
I6703
aS'1'
aS'69'
p6600
aa(lp6601
I6753
aS'38'
p6602
aS'142'
p6603
aa(lp6604
I6925
aS'1'
aS'129'
p6605
aa(lp6606
I7161
aS'27'
p6607
aS'110'
p6608
aa(lp6609
I7213
aS'9'
aS'43'
p6610
aa(lp6611
I7213
aS'62'
p6612
aS'95'
p6613
aa(lp6614
I7213
aS'99'
p6615
aS'137'
p6616
aa(lp6617
I7213
aS'140'
p6618
aS'182'
p6619
aa(lp6620
I7213
aS'187'
p6621
aS'224'
p6622
aa(lp6623
I7223
aS'7'
aS'113'
p6624
aa(lp6625
I7397
aS'29'
p6626
aS'82'
p6627
aa(lp6628
I7432
aS'2'
aS'102'
p6629
aa(lp6630
I7504
aS'101'
p6631
aS'149'
p6632
aasS'4ZN4'
p6633
(lp6634
(lp6635
I1058
aS'379'
p6636
aS'405'
p6637
aa(lp6638
I7213
aS'130'
p6639
aS'167'
p6640
aasS'4D6V'
p6641
(lp6642
(lp6643
I7213
aS'11'
p6644
aS'43'
p6645
aa(lp6646
I7213
aS'55'
p6647
aS'91'
p6648
aa(lp6649
I7213
aS'98'
p6650
aS'133'
p6651
aa(lp6652
I7213
aS'145'
p6653
aS'177'
p6654
aa(lp6655
I7213
aS'185'
p6656
aS'220'
p6657
aasS'4A65'
p6658
(lp6659
(lp6660
I7341
aS'5'
aS'300'
p6661
aasS'1TYP'
p6662
(lp6663
(lp6664
I4854
aS'363'
p6665
aS'468'
p6666
aa(lp6667
I7341
aS'5'
aS'342'
p6668
aasS'1DY6'
p6669
(lp6670
(lp6671
I6991
aS'53'
p6672
aS'262'
p6673
aasS'1TYT'
p6674
(lp6675
(lp6676
I4854
aS'363'
p6677
aS'468'
p6678
aa(lp6679
I7341
aS'5'
aS'342'
p6680
aasS'2GQW'
p6681
(lp6682
(lp6683
I6641
aS'318'
p6684
aS'403'
p6685
aa(lp6686
I7341
aS'10'
p6687
aS'298'
p6688
aasS'2XKQ'
p6689
(lp6690
(lp6691
I6266
aS'27'
p6692
aS'170'
p6693
aasS'4ES0'
p6694
(lp6695
(lp6696
I7213
aS'39'
p6697
aS'72'
p6698
aa(lp6699
I7213
aS'79'
p6700
aS'115'
p6701
aa(lp6702
I7213
aS'119'
p6703
aS'157'
p6704
aa(lp6705
I7213
aS'161'
p6706
aS'199'
p6707
aa(lp6708
I7213
aS'203'
p6709
aS'242'
p6710
aa(lp6711
I7213
aS'246'
p6712
aS'287'
p6713
aa(lp6714
I7213
aS'293'
p6715
aS'331'
p6716
aasS'3KPK'
p6717
(lp6718
(lp6719
I7341
aS'3'
aS'301'
p6720
aasS'4GCM'
p6721
(lp6722
(lp6723
I7341
aS'6'
aS'293'
p6724
aasS'2GH5'
p6725
(lp6726
(lp6727
I4854
aS'367'
p6728
aS'477'
p6729
aa(lp6730
I7341
aS'21'
p6731
aS'346'
p6732
aasS'2V2S'
p6733
(lp6734
(lp6735
I6266
aS'14'
p6736
aS'153'
p6737
aasS'2V2P'
p6738
(lp6739
(lp6740
I6266
aS'14'
p6741
aS'153'
p6742
aasS'1GT8'
p6743
(lp6744
(lp6745
I1416
aS'946'
p6746
aS'1004'
p6747
aa(lp6748
I1417
aS'57'
p6749
aS'166'
p6750
aa(lp6751
I4812
aS'534'
p6752
aS'838'
p6753
aa(lp6754
I7341
aS'189'
p6755
aS'490'
p6756
aasS'1CK3'
p6757
(lp6758
(lp6759
I6991
aS'51'
p6760
aS'261'
p6761
aasS'2P74'
p6762
(lp6763
(lp6764
I6991
aS'53'
p6765
aS'262'
p6766
aasS'3JRO'
p6767
(lp6768
(lp6769
I5349
aS'1293'
p6770
aS'1548'
p6771
aa(lp6772
I6078
aS'66'
p6773
aS'423'
p6774
aa(lp6775
I7213
aS'45'
p6776
aS'83'
p6777
aa(lp6778
I7213
aS'198'
p6779
aS'234'
p6780
aasS'1AXB'
p6781
(lp6782
(lp6783
I6991
aS'51'
p6784
aS'261'
p6785
aasS'1TKP'
p6786
(lp6787
(lp6788
I6266
aS'32'
p6789
aS'173'
p6790
aasS'2Y3Q'
p6791
(lp6792
(lp6793
I6266
aS'8'
aS'144'
p6794
aasS'1OMW'
p6795
(lp6796
(lp6797
I252
aS'192'
p6798
aS'453'
p6799
aa(lp6800
I2564
aS'560'
p6801
aS'650'
p6802
aa(lp6803
I2578
aS'55'
p6804
aS'174'
p6805
aa(lp6806
I5179
aS'8'
aS'68'
p6807
aa(lp6808
I7213
aS'47'
p6809
aS'83'
p6810
aa(lp6811
I7213
aS'98'
p6812
aS'125'
p6813
aa(lp6814
I7213
aS'174'
p6815
aS'212'
p6816
aa(lp6817
I7213
aS'217'
p6818
aS'254'
p6819
aa(lp6820
I7213
aS'260'
p6821
aS'298'
p6822
aa(lp6823
I7213
aS'307'
p6824
aS'340'
p6825
aasS'3JRP'
p6826
(lp6827
(lp6828
I7213
aS'12'
p6829
aS'36'
p6830
aa(lp6831
I7213
aS'45'
p6832
aS'83'
p6833
aa(lp6834
I7213
aS'198'
p6835
aS'234'
p6836
aasS'2V2J'
p6837
(lp6838
(lp6839
I6266
aS'14'
p6840
aS'153'
p6841
aasS'2B4E'
p6842
(lp6843
(lp6844
I695
aS'345'
p6845
aS'387'
p6846
aa(lp6847
I5802
aS'9'
aS'68'
p6848
aa(lp6849
I7213
aS'79'
p6850
aS'109'
p6851
aa(lp6852
I7213
aS'122'
p6853
aS'160'
p6854
aa(lp6855
I7213
aS'174'
p6856
aS'202'
p6857
aasS'2V2I'
p6858
(lp6859
(lp6860
I6266
aS'14'
p6861
aS'153'
p6862
aasS'2V2N'
p6863
(lp6864
(lp6865
I6266
aS'14'
p6866
aS'153'
p6867
aasS'2V2O'
p6868
(lp6869
(lp6870
I6266
aS'14'
p6871
aS'153'
p6872
aasS'2V2L'
p6873
(lp6874
(lp6875
I6266
aS'14'
p6876
aS'153'
p6877
aasS'2V2M'
p6878
(lp6879
(lp6880
I6266
aS'14'
p6881
aS'153'
p6882
aasS'1K4Q'
p6883
(lp6884
(lp6885
I4854
aS'367'
p6886
aS'477'
p6887
aa(lp6888
I7341
aS'21'
p6889
aS'346'
p6890
aasS'3HYX'
p6891
(lp6892
(lp6893
I7341
aS'4'
aS'296'
p6894
aasS'1BSG'
p6895
(lp6896
(lp6897
I6991
aS'53'
p6898
aS'262'
p6899
aasS'4PM5'
p6900
(lp6901
(lp6902
I6991
aS'53'
p6903
aS'262'
p6904
aasS'2YWL'
p6905
(lp6906
(lp6907
I7341
aS'3'
aS'106'
p6908
aasS'1N1Q'
p6909
(lp6910
(lp6911
I6266
aS'12'
p6912
aS'149'
p6913
aasS'3ZDJ'
p6914
(lp6915
(lp6916
I6991
aS'51'
p6917
aS'261'
p6918
aasS'3AB1'
p6919
(lp6920
(lp6921
I7341
aS'16'
p6922
aS'314'
p6923
aasS'3HYV'
p6924
(lp6925
(lp6926
I7341
aS'4'
aS'296'
p6927
aasS'3GE4'
p6928
(lp6929
(lp6930
I6266
aS'23'
p6931
aS'163'
p6932
aasS'1R03'
p6933
(lp6934
(lp6935
I6266
aS'18'
p6936
aS'157'
p6937
aasS'3ZNY'
p6938
(lp6939
(lp6940
I6991
aS'53'
p6941
aS'262'
p6942
aasS'2A3U'
p6943
(lp6944
(lp6945
I6991
aS'53'
p6946
aS'262'
p6947
aasS'2EQ7'
p6948
(lp6949
(lp6950
I3210
aS'130'
p6951
aS'163'
p6952
aa(lp6953
I4854
aS'336'
p6954
aS'444'
p6955
aa(lp6956
I7341
aS'2'
aS'317'
p6957
aasS'1E1M'
p6958
(lp6959
(lp6960
I7341
aS'8'
aS'164'
p6961
aasS'3CJM'
p6962
(lp6963
(lp6964
I6991
aS'90'
p6965
aS'281'
p6966
aasS'2WHD'
p6967
(lp6968
(lp6969
I7341
aS'12'
p6970
aS'309'
p6971
aasS'4CBQ'
p6972
(lp6973
(lp6974
I7341
aS'5'
aS'300'
p6975
aasS'4ML5'
p6976
(lp6977
(lp6978
I6266
aS'14'
p6979
aS'153'
p6980
aasS'3I2N'
p6981
(lp6982
(lp6983
I7213
aS'103'
p6984
aS'145'
p6985
aasS'3F36'
p6986
(lp6987
(lp6988
I6266
aS'14'
p6989
aS'153'
p6990
aasS'1ERO'
p6991
(lp6992
(lp6993
I6991
aS'51'
p6994
aS'259'
p6995
aasS'1ZDL'
p6996
(lp6997
(lp6998
I4854
aS'395'
p6999
aS'506'
p7000
aa(lp7001
I7341
aS'40'
p7002
aS'375'
p7003
aasS'4LG9'
p7004
(lp7005
(lp7006
I7213
aS'164'
p7007
aS'197'
p7008
aa(lp7009
I7213
aS'226'
p7010
aS'252'
p7011
aa(lp7012
I7213
aS'258'
p7013
aS'294'
p7014
aa(lp7015
I7213
aS'340'
p7016
aS'377'
p7017
aa(lp7018
I7213
aS'382'
p7019
aS'428'
p7020
aa(lp7021
I7213
aS'434'
p7022
aS'470'
p7023
aasS'4LG8'
p7024
(lp7025
(lp7026
I7213
aS'255'
p7027
aS'292'
p7028
aa(lp7029
I7213
aS'297'
p7030
aS'328'
p7031
aa(lp7032
I7213
aS'352'
p7033
aS'378'
p7034
aa(lp7035
I7213
aS'384'
p7036
aS'420'
p7037
aa(lp7038
I7213
aS'255'
p7039
aS'292'
p7040
aa(lp7041
I7213
aS'297'
p7042
aS'328'
p7043
aa(lp7044
I7213
aS'352'
p7045
aS'378'
p7046
aa(lp7047
I7213
aS'384'
p7048
aS'420'
p7049
aasS'4GMB'
p7050
(lp7051
(lp7052
I7213
aS'39'
p7053
aS'72'
p7054
aa(lp7055
I7213
aS'79'
p7056
aS'115'
p7057
aa(lp7058
I7213
aS'119'
p7059
aS'157'
p7060
aa(lp7061
I7213
aS'161'
p7062
aS'199'
p7063
aa(lp7064
I7213
aS'203'
p7065
aS'242'
p7066
aa(lp7067
I7213
aS'246'
p7068
aS'287'
p7069
aa(lp7070
I7213
aS'293'
p7071
aS'331'
p7072
aasS'2YW6'
p7073
(lp7074
(lp7075
I6266
aS'19'
p7076
aS'157'
p7077
aasS'2YJK'
p7078
(lp7079
(lp7080
I6266
aS'31'
p7081
aS'157'
p7082
aasS'1LHY'
p7083
(lp7084
(lp7085
I6991
aS'51'
p7086
aS'251'
p7087
aasS'2C3C'
p7088
(lp7089
(lp7090
I4854
aS'387'
p7091
aS'509'
p7092
aa(lp7093
I7341
aS'44'
p7094
aS'368'
p7095
aasS'2C3D'
p7096
(lp7097
(lp7098
I4854
aS'387'
p7099
aS'509'
p7100
aa(lp7101
I7341
aS'44'
p7102
aS'368'
p7103
aasS'1TK6'
p7104
(lp7105
(lp7106
I6266
aS'32'
p7107
aS'173'
p7108
aasS'4XXR'
p7109
(lp7110
(lp7111
I6991
aS'53'
p7112
aS'262'
p7113
aasS'3JPX'
p7114
(lp7115
(lp7116
I7213
aS'181'
p7117
aS'219'
p7118
aasS'4BZJ'
p7119
(lp7120
(lp7121
I3599
aS'514'
p7122
aS'682'
p7123
aa(lp7124
I7213
aS'248'
p7125
aS'286'
p7126
aa(lp7127
I7213
aS'12'
p7128
aS'36'
p7129
aa(lp7130
I7213
aS'45'
p7131
aS'83'
p7132
aa(lp7133
I7213
aS'198'
p7134
aS'234'
p7135
aa(lp7136
I7213
aS'45'
p7137
aS'83'
p7138
aa(lp7139
I7213
aS'198'
p7140
aS'234'
p7141
aasS'3RBC'
p7142
(lp7143
(lp7144
I6266
aS'14'
p7145
aS'153'
p7146
aasS'4UA7'
p7147
(lp7148
(lp7149
I6991
aS'53'
p7150
aS'262'
p7151
aasS'3LZX'
p7152
(lp7153
(lp7154
I7341
aS'8'
aS'301'
p7155
aasS'1GTH'
p7156
(lp7157
(lp7158
I1416
aS'946'
p7159
aS'1004'
p7160
aa(lp7161
I1417
aS'57'
p7162
aS'166'
p7163
aa(lp7164
I4812
aS'534'
p7165
aS'838'
p7166
aa(lp7167
I7341
aS'189'
p7168
aS'490'
p7169
aasS'3AK8'
p7170
(lp7171
(lp7172
I6266
aS'31'
p7173
aS'166'
p7174
aasS'1GTE'
p7175
(lp7176
(lp7177
I1416
aS'946'
p7178
aS'1004'
p7179
aa(lp7180
I1417
aS'57'
p7181
aS'166'
p7182
aa(lp7183
I4812
aS'534'
p7184
aS'838'
p7185
aa(lp7186
I7341
aS'189'
p7187
aS'490'
p7188
aasS'4D5L'
p7189
(lp7190
(lp7191
I125
aS'24'
p7192
aS'101'
p7193
aa(lp7194
I143
aS'19'
p7195
aS'112'
p7196
aa(lp7197
I143
aS'114'
p7198
aS'182'
p7199
aa(lp7200
I145
aS'10'
p7201
aS'63'
p7202
aa(lp7203
I147
aS'102'
p7204
aS'166'
p7205
aa(lp7206
I512
aS'2'
aS'60'
p7207
aa(lp7208
I625
aS'8'
aS'68'
p7209
aa(lp7210
I672
aS'2'
aS'190'
p7211
aa(lp7212
I1127
aS'212'
p7213
aS'258'
p7214
aa(lp7215
I2417
aS'178'
p7216
aS'211'
p7217
aa(lp7218
I2446
aS'106'
p7219
aS'188'
p7220
aa(lp7221
I2502
aS'3'
aS'39'
p7222
aa(lp7223
I2835
aS'108'
p7224
aS'151'
p7225
aa(lp7226
I3282
aS'7'
aS'191'
p7227
aa(lp7228
I3544
aS'14'
p7229
aS'142'
p7230
aa(lp7231
I3545
aS'21'
p7232
aS'115'
p7233
aa(lp7234
I3548
aS'75'
p7235
aS'144'
p7236
aa(lp7237
I3549
aS'9'
aS'54'
p7238
aa(lp7239
I3550
aS'74'
p7240
aS'147'
p7241
aa(lp7242
I3767
aS'21'
p7243
aS'221'
p7244
aa(lp7245
I3809
aS'185'
p7246
aS'256'
p7247
aa(lp7248
I3813
aS'6'
aS'56'
p7249
aa(lp7250
I4048
aS'202'
p7251
aS'219'
p7252
aa(lp7253
I4304
aS'5'
aS'73'
p7254
aa(lp7255
I4667
aS'5'
aS'139'
p7256
aa(lp7257
I4935
aS'2'
aS'119'
p7258
aa(lp7259
I5041
aS'6'
aS'130'
p7260
aa(lp7261
I5042
aS'14'
p7262
aS'146'
p7263
aa(lp7264
I5050
aS'62'
p7265
aS'204'
p7266
aa(lp7267
I5532
aS'9'
aS'140'
p7268
aa(lp7269
I5807
aS'1'
aS'79'
p7270
aa(lp7271
I6345
aS'20'
p7272
aS'92'
p7273
aa(lp7274
I6388
aS'3'
aS'95'
p7275
aa(lp7276
I6403
aS'29'
p7277
aS'147'
p7278
aa(lp7279
I6412
aS'47'
p7280
aS'128'
p7281
aa(lp7282
I6625
aS'17'
p7283
aS'110'
p7284
aa(lp7285
I6680
aS'95'
p7286
aS'169'
p7287
aa(lp7288
I6925
aS'1'
aS'126'
p7289
aa(lp7290
I7161
aS'40'
p7291
aS'112'
p7292
aa(lp7293
I7213
aS'9'
aS'44'
p7294
aa(lp7295
I7213
aS'55'
p7296
aS'91'
p7297
aa(lp7298
I7213
aS'96'
p7299
aS'133'
p7300
aa(lp7301
I7213
aS'145'
p7302
aS'178'
p7303
aa(lp7304
I7213
aS'188'
p7305
aS'220'
p7306
aa(lp7307
I7213
aS'225'
p7308
aS'260'
p7309
aa(lp7310
I7397
aS'28'
p7311
aS'82'
p7312
aa(lp7313
I7432
aS'2'
aS'97'
p7314
aa(lp7315
I7504
aS'102'
p7316
aS'147'
p7317
aasS'3LZW'
p7318
(lp7319
(lp7320
I7341
aS'8'
aS'301'
p7321
aasS'1BTL'
p7322
(lp7323
(lp7324
I6991
aS'51'
p7325
aS'261'
p7326
aasS'2ZG8'
p7327
(lp7328
(lp7329
I6266
aS'14'
p7330
aS'153'
p7331
aasS'4GGD'
p7332
(lp7333
(lp7334
I7213
aS'302'
p7335
aS'336'
p7336
aa(lp7337
I7213
aS'346'
p7338
aS'386'
p7339
aa(lp7340
I7213
aS'437'
p7341
aS'470'
p7342
aasS'2X99'
p7343
(lp7344
(lp7345
I1028
aS'20'
p7346
aS'82'
p7347
aa(lp7348
I4854
aS'469'
p7349
aS'580'
p7350
aa(lp7351
I7341
aS'108'
p7352
aS'449'
p7353
aasS'4GGC'
p7354
(lp7355
(lp7356
I7213
aS'302'
p7357
aS'336'
p7358
aa(lp7359
I7213
aS'346'
p7360
aS'386'
p7361
aa(lp7362
I7213
aS'437'
p7363
aS'470'
p7364
aasS'4MBF'
p7365
(lp7366
(lp7367
I6991
aS'53'
p7368
aS'262'
p7369
aasS'4GGA'
p7370
(lp7371
(lp7372
I7213
aS'302'
p7373
aS'336'
p7374
aa(lp7375
I7213
aS'346'
p7376
aS'386'
p7377
aa(lp7378
I7213
aS'437'
p7379
aS'470'
p7380
aasS'4TOB'
p7381
(lp7382
(lp7383
I6266
aS'8'
aS'143'
p7384
aasS'1SHV'
p7385
(lp7386
(lp7387
I6991
aS'53'
p7388
aS'262'
p7389
aasS'1VYH'
p7390
(lp7391
(lp7392
I7213
aS'104'
p7393
aS'136'
p7394
aa(lp7395
I7213
aS'141'
p7396
aS'178'
p7397
aa(lp7398
I7213
aS'183'
p7399
aS'219'
p7400
aa(lp7401
I7213
aS'224'
p7402
aS'261'
p7403
aa(lp7404
I7213
aS'267'
p7405
aS'324'
p7406
aa(lp7407
I7213
aS'329'
p7408
aS'366'
p7409
aa(lp7410
I7213
aS'371'
p7411
aS'407'
p7412
aa(lp7413
I7327
aS'43'
p7414
aS'205'
p7415
aasS'4R7A'
p7416
(lp7417
(lp7418
I39
aS'19'
p7419
aS'88'
p7420
aa(lp7421
I7213
aS'173'
p7422
aS'206'
p7423
aa(lp7424
I7213
aS'264'
p7425
aS'302'
p7426
aa(lp7427
I7213
aS'310'
p7428
aS'346'
p7429
aasS'1YLJ'
p7430
(lp7431
(lp7432
I6991
aS'53'
p7433
aS'262'
p7434
aasS'2YAU'
p7435
(lp7436
(lp7437
I4854
aS'363'
p7438
aS'468'
p7439
aa(lp7440
I7341
aS'5'
aS'342'
p7441
aasS'4EWF'
p7442
(lp7443
(lp7444
I6991
aS'34'
p7445
aS'238'
p7446
aasS'4REU'
p7447
(lp7448
(lp7449
I6266
aS'7'
aS'143'
p7450
aasS'1E6E'
p7451
(lp7452
(lp7453
I4293
aS'13'
p7454
aS'96'
p7455
aa(lp7456
I7341
aS'8'
aS'164'
p7457
aasS'3BLM'
p7458
(lp7459
(lp7460
I6991
aS'52'
p7461
aS'255'
p7462
aasS'3LEZ'
p7463
(lp7464
(lp7465
I6991
aS'70'
p7466
aS'275'
p7467
aasS'1ESU'
p7468
(lp7469
(lp7470
I6991
aS'51'
p7471
aS'261'
p7472
aasS'2G99'
p7473
(lp7474
(lp7475
I7213
aS'39'
p7476
aS'72'
p7477
aa(lp7478
I7213
aS'79'
p7479
aS'115'
p7480
aa(lp7481
I7213
aS'119'
p7482
aS'157'
p7483
aa(lp7484
I7213
aS'161'
p7485
aS'199'
p7486
aa(lp7487
I7213
aS'203'
p7488
aS'242'
p7489
aa(lp7490
I7213
aS'246'
p7491
aS'287'
p7492
aa(lp7493
I7213
aS'293'
p7494
aS'331'
p7495
aasS'3E1O'
p7496
(lp7497
(lp7498
I6266
aS'8'
aS'144'
p7499
aasS'3E1N'
p7500
(lp7501
(lp7502
I6266
aS'8'
aS'144'
p7503
aasS'3E1M'
p7504
(lp7505
(lp7506
I6266
aS'8'
aS'144'
p7507
aasS'3E1L'
p7508
(lp7509
(lp7510
I6266
aS'8'
aS'144'
p7511
aasS'4FD8'
p7512
(lp7513
(lp7514
I6991
aS'53'
p7515
aS'262'
p7516
aasS'3DGZ'
p7517
(lp7518
(lp7519
I4854
aS'362'
p7520
aS'473'
p7521
aa(lp7522
I7341
aS'7'
aS'342'
p7523
aasS'4BD1'
p7524
(lp7525
(lp7526
I6991
aS'53'
p7527
aS'262'
p7528
aasS'4JT6'
p7529
(lp7530
(lp7531
I2217
aS'2519'
p7532
aS'2549'
p7533
aa(lp7534
I3104
aS'1513'
p7535
aS'1908'
p7536
aa(lp7537
I5073
aS'2183'
p7538
aS'2430'
p7539
aa(lp7540
I5948
aS'2015'
p7541
aS'2113'
p7542
aa(lp7543
I7213
aS'87'
p7544
aS'113'
p7545
aa(lp7546
I7213
aS'120'
p7547
aS'156'
p7548
aa(lp7549
I7213
aS'223'
p7550
aS'247'
p7551
aasS'4A09'
p7552
(lp7553
(lp7554
I357
aS'75'
p7555
aS'543'
p7556
aa(lp7557
I6913
aS'791'
p7558
aS'1099'
p7559
aa(lp7560
I7213
aS'280'
p7561
aS'307'
p7562
aasS'2XF3'
p7563
(lp7564
(lp7565
I6991
aS'162'
p7566
aS'270'
p7567
aasS'3PVW'
p7568
(lp7569
(lp7570
I252
aS'192'
p7571
aS'453'
p7572
aa(lp7573
I2564
aS'560'
p7574
aS'650'
p7575
aa(lp7576
I2578
aS'55'
p7577
aS'174'
p7578
aa(lp7579
I5179
aS'8'
aS'68'
p7580
aa(lp7581
I7213
aS'47'
p7582
aS'83'
p7583
aa(lp7584
I7213
aS'98'
p7585
aS'125'
p7586
aa(lp7587
I7213
aS'174'
p7588
aS'212'
p7589
aa(lp7590
I7213
aS'217'
p7591
aS'254'
p7592
aa(lp7593
I7213
aS'260'
p7594
aS'298'
p7595
aa(lp7596
I7213
aS'307'
p7597
aS'339'
p7598
aasS'3TOI'
p7599
(lp7600
(lp7601
I6991
aS'51'
p7602
aS'261'
p7603
aasS'2VDC'
p7604
(lp7605
(lp7606
I708
aS'1'
aS'419'
p7607
aa(lp7608
I1417
aS'27'
p7609
aS'135'
p7610
aa(lp7611
I4818
aS'449'
p7612
aS'731'
p7613
aa(lp7614
I5198
aS'1234'
p7615
aS'1416'
p7616
aa(lp7617
I6974
aS'793'
p7618
aS'1156'
p7619
aa(lp7620
I7341
aS'150'
p7621
aS'457'
p7622
aasS'3E1Q'
p7623
(lp7624
(lp7625
I6266
aS'8'
aS'144'
p7626
aasS'3E1P'
p7627
(lp7628
(lp7629
I6266
aS'8'
aS'144'
p7630
aasS'3DGH'
p7631
(lp7632
(lp7633
I4854
aS'362'
p7634
aS'473'
p7635
aa(lp7636
I7341
aS'10'
p7637
aS'342'
p7638
aasS'3WNW'
p7639
(lp7640
(lp7641
I6266
aS'18'
p7642
aS'158'
p7643
aasS'4Y08'
p7644
(lp7645
(lp7646
I6266
aS'18'
p7647
aS'158'
p7648
aasS'1TBG'
p7649
(lp7650
(lp7651
I5179
aS'510'
p7652
aS'566'
p7653
aa(lp7654
I7213
aS'47'
p7655
aS'83'
p7656
aa(lp7657
I7213
aS'98'
p7658
aS'125'
p7659
aa(lp7660
I7213
aS'174'
p7661
aS'212'
p7662
aa(lp7663
I7213
aS'217'
p7664
aS'254'
p7665
aa(lp7666
I7213
aS'260'
p7667
aS'298'
p7668
aa(lp7669
I7213
aS'307'
p7670
aS'340'
p7671
aasS'2RAB'
p7672
(lp7673
(lp7674
I4854
aS'338'
p7675
aS'446'
p7676
aa(lp7677
I7341
aS'6'
aS'317'
p7678
aasS'1Z6O'
p7679
(lp7680
(lp7681
I6266
aS'41'
p7682
aS'187'
p7683
aa(lp7684
I6266
aS'25'
p7685
aS'169'
p7686
aasS'3V3S'
p7687
(lp7688
(lp7689
I6991
aS'48'
p7690
aS'255'
p7691
aasS'4ITT'
p7692
(lp7693
(lp7694
I6266
aS'6'
aS'141'
p7695
aasS'2CE8'
p7696
(lp7697
(lp7698
I7213
aS'608'
p7699
aS'644'
p7700
aasS'2XFS'
p7701
(lp7702
(lp7703
I6991
aS'162'
p7704
aS'270'
p7705
aasS'2XFT'
p7706
(lp7707
(lp7708
I6991
aS'162'
p7709
aS'270'
p7710
aasS'2WUQ'
p7711
(lp7712
(lp7713
I6991
aS'30'
p7714
aS'280'
p7715
aasS'2J8Y'
p7716
(lp7717
(lp7718
I6991
aS'43'
p7719
aS'244'
p7720
aasS'4B88'
p7721
(lp7722
(lp7723
I6991
aS'52'
p7724
aS'262'
p7725
aasS'2G9A'
p7726
(lp7727
(lp7728
I7213
aS'39'
p7729
aS'72'
p7730
aa(lp7731
I7213
aS'79'
p7732
aS'115'
p7733
aa(lp7734
I7213
aS'119'
p7735
aS'157'
p7736
aa(lp7737
I7213
aS'161'
p7738
aS'199'
p7739
aa(lp7740
I7213
aS'203'
p7741
aS'242'
p7742
aa(lp7743
I7213
aS'246'
p7744
aS'287'
p7745
aa(lp7746
I7213
aS'293'
p7747
aS'331'
p7748
aasS'4A25'
p7749
(lp7750
(lp7751
I6266
aS'29'
p7752
aS'162'
p7753
aasS'1YLW'
p7754
(lp7755
(lp7756
I6991
aS'53'
p7757
aS'262'
p7758
aasS'3SE1'
p7759
(lp7760
(lp7761
I6266
aS'14'
p7762
aS'153'
p7763
aasS'1YLT'
p7764
(lp7765
(lp7766
I6991
aS'53'
p7767
aS'262'
p7768
aasS'4LYX'
p7769
(lp7770
(lp7771
I6266
aS'14'
p7772
aS'153'
p7773
aasS'2WLA'
p7774
(lp7775
(lp7776
I6266
aS'30'
p7777
aS'169'
p7778
aasS'4LYU'
p7779
(lp7780
(lp7781
I6266
aS'14'
p7782
aS'153'
p7783
aasS'2WK0'
p7784
(lp7785
(lp7786
I6991
aS'53'
p7787
aS'263'
p7788
aasS'1YT4'
p7789
(lp7790
(lp7791
I6991
aS'51'
p7792
aS'261'
p7793
aasS'1SOF'
p7794
(lp7795
(lp7796
I6266
aS'8'
aS'143'
p7797
aasS'3MXX'
p7798
(lp7799
(lp7800
I7213
aS'39'
p7801
aS'72'
p7802
aa(lp7803
I7213
aS'79'
p7804
aS'115'
p7805
aa(lp7806
I7213
aS'119'
p7807
aS'157'
p7808
aa(lp7809
I7213
aS'161'
p7810
aS'199'
p7811
aa(lp7812
I7213
aS'203'
p7813
aS'242'
p7814
aa(lp7815
I7213
aS'246'
p7816
aS'287'
p7817
aa(lp7818
I7213
aS'293'
p7819
aS'331'
p7820
aasS'1YLZ'
p7821
(lp7822
(lp7823
I6991
aS'53'
p7824
aS'262'
p7825
aasS'1ZX9'
p7826
(lp7827
(lp7828
I4854
aS'343'
p7829
aS'451'
p7830
aa(lp7831
I7341
aS'6'
aS'324'
p7832
aasS'2GYD'
p7833
(lp7834
(lp7835
I6266
aS'14'
p7836
aS'153'
p7837
aasS'3C7V'
p7838
(lp7839
(lp7840
I1291
aS'2'
aS'164'
p7841
aa(lp7842
I6991
aS'51'
p7843
aS'259'
p7844
aasS'3LAD'
p7845
(lp7846
(lp7847
I4854
aS'352'
p7848
aS'460'
p7849
aa(lp7850
I7341
aS'4'
aS'333'
p7851
aasS'3MXS'
p7852
(lp7853
(lp7854
I6991
aS'53'
p7855
aS'262'
p7856
aasS'2WLU'
p7857
(lp7858
(lp7859
I6266
aS'30'
p7860
aS'169'
p7861
aasS'1UVH'
p7862
(lp7863
(lp7864
I6266
aS'19'
p7865
aS'157'
p7866
aasS'4P18'
p7867
(lp7868
(lp7869
I6266
aS'14'
p7870
aS'153'
p7871
aasS'4WJS'
p7872
(lp7873
(lp7874
I7213
aS'140'
p7875
aS'175'
p7876
aa(lp7877
I7213
aS'180'
p7878
aS'217'
p7879
aa(lp7880
I7213
aS'226'
p7881
aS'265'
p7882
aa(lp7883
I7213
aS'271'
p7884
aS'307'
p7885
aa(lp7886
I7213
aS'397'
p7887
aS'432'
p7888
aa(lp7889
I7213
aS'436'
p7890
aS'474'
p7891
aa(lp7892
I7213
aS'479'
p7893
aS'515'
p7894
aasS'1NHQ'
p7895
(lp7896
(lp7897
I4854
aS'329'
p7898
aS'429'
p7899
aa(lp7900
I7341
aS'1'
aS'306'
p7901
aasS'1NHP'
p7902
(lp7903
(lp7904
I4854
aS'329'
p7905
aS'429'
p7906
aa(lp7907
I7341
aS'1'
aS'306'
p7908
aasS'2HES'
p7909
(lp7910
(lp7911
I7213
aS'55'
p7912
aS'85'
p7913
aa(lp7914
I7213
aS'99'
p7915
aS'134'
p7916
aa(lp7917
I7213
aS'144'
p7918
aS'181'
p7919
aa(lp7920
I7213
aS'187'
p7921
aS'227'
p7922
aa(lp7923
I7213
aS'299'
p7924
aS'325'
p7925
aasS'1NHR'
p7926
(lp7927
(lp7928
I4854
aS'329'
p7929
aS'429'
p7930
aa(lp7931
I7341
aS'1'
aS'306'
p7932
aasS'1S3Q'
p7933
(lp7934
(lp7935
I6266
aS'10'
p7936
aS'145'
p7937
aasS'2C6R'
p7938
(lp7939
(lp7940
I6266
aS'50'
p7941
aS'190'
p7942
aasS'2X71'
p7943
(lp7944
(lp7945
I6991
aS'53'
p7946
aS'263'
p7947
aasS'2W0O'
p7948
(lp7949
(lp7950
I6266
aS'14'
p7951
aS'153'
p7952
aasS'3GFC'
p7953
(lp7954
(lp7955
I39
aS'24'
p7956
aS'88'
p7957
aa(lp7958
I7213
aS'173'
p7959
aS'206'
p7960
aa(lp7961
I7213
aS'264'
p7962
aS'302'
p7963
aa(lp7964
I7213
aS'310'
p7965
aS'346'
p7966
aasS'2W0H'
p7967
(lp7968
(lp7969
I4854
aS'363'
p7970
aS'468'
p7971
aa(lp7972
I7341
aS'5'
aS'342'
p7973
aasS'3AF8'
p7974
(lp7975
(lp7976
I6266
aS'14'
p7977
aS'153'
p7978
aasS'3AF9'
p7979
(lp7980
(lp7981
I6266
aS'14'
p7982
aS'153'
p7983
aasS'3BYD'
p7984
(lp7985
(lp7986
I6991
aS'60'
p7987
aS'263'
p7988
aasS'1BT5'
p7989
(lp7990
(lp7991
I6991
aS'51'
p7992
aS'261'
p7993
aasS'4J81'
p7994
(lp7995
(lp7996
I7213
aS'89'
p7997
aS'125'
p7998
aa(lp7999
I7213
aS'134'
p8000
aS'169'
p8001
aa(lp8002
I7213
aS'182'
p8003
aS'214'
p8004
aa(lp8005
I7213
aS'219'
p8006
aS'256'
p8007
aasS'4J86'
p8008
(lp8009
(lp8010
I7213
aS'89'
p8011
aS'125'
p8012
aa(lp8013
I7213
aS'134'
p8014
aS'169'
p8015
aa(lp8016
I7213
aS'182'
p8017
aS'214'
p8018
aa(lp8019
I7213
aS'219'
p8020
aS'256'
p8021
aasS'4J87'
p8022
(lp8023
(lp8024
I7213
aS'45'
p8025
aS'81'
p8026
aa(lp8027
I7213
aS'86'
p8028
aS'123'
p8029
aa(lp8030
I7213
aS'128'
p8031
aS'165'
p8032
aa(lp8033
I7213
aS'207'
p8034
aS'239'
p8035
aa(lp8036
I7213
aS'249'
p8037
aS'284'
p8038
aasS'4G56'
p8039
(lp8040
(lp8041
I5298
aS'180'
p8042
aS'614'
p8043
aa(lp8044
I7213
aS'114'
p8045
aS'143'
p8046
aa(lp8047
I7213
aS'150'
p8048
aS'186'
p8049
aasS'3SXI'
p8050
(lp8051
(lp8052
I7341
aS'3'
aS'301'
p8053
aasS'2H0Y'
p8054
(lp8055
(lp8056
I6991
aS'53'
p8057
aS'262'
p8058
aasS'4M52'
p8059
(lp8060
(lp8061
I4854
aS'346'
p8062
aS'452'
p8063
aa(lp8064
I7341
aS'4'
aS'324'
p8065
aasS'4CVT'
p8066
(lp8067
(lp8068
I6266
aS'8'
aS'144'
p8069
aasS'2V6O'
p8070
(lp8071
(lp8072
I1028
aS'20'
p8073
aS'82'
p8074
aa(lp8075
I4854
aS'469'
p8076
aS'580'
p8077
aa(lp8078
I7341
aS'108'
p8079
aS'449'
p8080
aasS'1BWC'
p8081
(lp8082
(lp8083
I4854
aS'367'
p8084
aS'477'
p8085
aa(lp8086
I7341
aS'21'
p8087
aS'346'
p8088
aasS'3A9Q'
p8089
(lp8090
(lp8091
I6266
aS'48'
p8092
aS'191'
p8093
aasS'2H0T'
p8094
(lp8095
(lp8096
I6991
aS'53'
p8097
aS'262'
p8098
aasS'1DPS'
p8099
(lp8100
(lp8101
I6266
aS'31'
p8102
aS'163'
p8103
aasS'3T14'
p8104
(lp8105
(lp8106
I7341
aS'3'
aS'301'
p8107
aasS'4UA9'
p8108
(lp8109
(lp8110
I6991
aS'53'
p8111
aS'262'
p8112
aasS'4CVR'
p8113
(lp8114
(lp8115
I6266
aS'8'
aS'144'
p8116
aasS'3BG0'
p8117
(lp8118
(lp8119
I5349
aS'292'
p8120
aS'547'
p8121
aa(lp8122
I7213
aS'14'
p8123
aS'41'
p8124
aa(lp8125
I7213
aS'50'
p8126
aS'86'
p8127
aa(lp8128
I7213
aS'97'
p8129
aS'130'
p8130
aa(lp8131
I7213
aS'205'
p8132
aS'243'
p8133
aasS'3BG1'
p8134
(lp8135
(lp8136
I5349
aS'292'
p8137
aS'547'
p8138
aa(lp8139
I7213
aS'14'
p8140
aS'41'
p8141
aa(lp8142
I7213
aS'50'
p8143
aS'86'
p8144
aa(lp8145
I7213
aS'97'
p8146
aS'130'
p8147
aa(lp8148
I7213
aS'205'
p8149
aS'243'
p8150
aasS'2CLB'
p8151
(lp8152
(lp8153
I6266
aS'28'
p8154
aS'167'
p8155
aasS'4UA6'
p8156
(lp8157
(lp8158
I6991
aS'53'
p8159
aS'262'
p8160
aasS'3FBS'
p8161
(lp8162
(lp8163
I7341
aS'3'
aS'277'
p8164
aasS'4CVP'
p8165
(lp8166
(lp8167
I6266
aS'8'
aS'144'
p8168
aasS'4O9D'
p8169
(lp8170
(lp8171
I7213
aS'293'
p8172
aS'327'
p8173
aa(lp8174
I7213
aS'553'
p8175
aS'574'
p8176
aasS'4U7A'
p8177
(lp8178
(lp8179
I1887
aS'416'
p8180
aS'426'
p8181
aa(lp8182
I7213
aS'428'
p8183
aS'464'
p8184
aa(lp8185
I7213
aS'766'
p8186
aS'805'
p8187
aasS'3SZC'
p8188
(lp8189
(lp8190
I7341
aS'3'
aS'301'
p8191
aasS'2H6N'
p8192
(lp8193
(lp8194
I7213
aS'39'
p8195
aS'72'
p8196
aa(lp8197
I7213
aS'79'
p8198
aS'115'
p8199
aa(lp8200
I7213
aS'119'
p8201
aS'157'
p8202
aa(lp8203
I7213
aS'161'
p8204
aS'199'
p8205
aa(lp8206
I7213
aS'203'
p8207
aS'242'
p8208
aa(lp8209
I7213
aS'246'
p8210
aS'287'
p8211
aa(lp8212
I7213
aS'293'
p8213
aS'331'
p8214
aasS'2WBA'
p8215
(lp8216
(lp8217
I4854
aS'362'
p8218
aS'468'
p8219
aa(lp8220
I7341
aS'5'
aS'342'
p8221
aasS'4ZKH'
p8222
(lp8223
(lp8224
I6266
aS'7'
aS'142'
p8225
aasS'2CLU'
p8226
(lp8227
(lp8228
I6266
aS'18'
p8229
aS'158'
p8230
aasS'1GOT'
p8231
(lp8232
(lp8233
I4172
aS'8'
aS'339'
p8234
aa(lp8235
I5179
aS'10'
p8236
aS'66'
p8237
aa(lp8238
I7213
aS'47'
p8239
aS'83'
p8240
aa(lp8241
I7213
aS'98'
p8242
aS'125'
p8243
aa(lp8244
I7213
aS'174'
p8245
aS'212'
p8246
aa(lp8247
I7213
aS'217'
p8248
aS'254'
p8249
aa(lp8250
I7213
aS'260'
p8251
aS'298'
p8252
aa(lp8253
I7213
aS'307'
p8254
aS'340'
p8255
aasS'3F3G'
p8256
(lp8257
(lp8258
I466
aS'89'
p8259
aS'561'
p8260
aa(lp8261
I7213
aS'6'
aS'36'
p8262
aa(lp8263
I7213
aS'49'
p8264
aS'84'
p8265
aa(lp8266
I7213
aS'208'
p8267
aS'243'
p8268
aa(lp8269
I7213
aS'300'
p8270
aS'332'
p8271
aasS'4UAA'
p8272
(lp8273
(lp8274
I6991
aS'53'
p8275
aS'262'
p8276
aasS'4L9O'
p8277
(lp8278
(lp8279
I7213
aS'2018'
p8280
aS'2047'
p8281
aa(lp8282
I7213
aS'2056'
p8283
aS'2094'
p8284
aa(lp8285
I7213
aS'2203'
p8286
aS'2237'
p8287
aasS'1HTZ'
p8288
(lp8289
(lp8290
I6991
aS'51'
p8291
aS'261'
p8292
aasS'2NPX'
p8293
(lp8294
(lp8295
I4854
aS'329'
p8296
aS'429'
p8297
aa(lp8298
I7341
aS'1'
aS'306'
p8299
aasS'4ZKX'
p8300
(lp8301
(lp8302
I6266
aS'8'
aS'143'
p8303
aasS'4ZKW'
p8304
(lp8305
(lp8306
I6266
aS'8'
aS'143'
p8307
aasS'1NFV'
p8308
(lp8309
(lp8310
I6266
aS'13'
p8311
aS'142'
p8312
aasS'3SYI'
p8313
(lp8314
(lp8315
I7341
aS'3'
aS'301'
p8316
aasS'1YMX'
p8317
(lp8318
(lp8319
I6991
aS'53'
p8320
aS'262'
p8321
aasS'3SX6'
p8322
(lp8323
(lp8324
I7341
aS'3'
aS'301'
p8325
aasS'4IBR'
p8326
(lp8327
(lp8328
I6991
aS'51'
p8329
aS'258'
p8330
aasS'1ZG4'
p8331
(lp8332
(lp8333
I6991
aS'51'
p8334
aS'261'
p8335
aasS'1ZG6'
p8336
(lp8337
(lp8338
I6991
aS'51'
p8339
aS'261'
p8340
aasS'2QQY'
p8341
(lp8342
(lp8343
I6266
aS'9'
aS'139'
p8344
aasS'4J8B'
p8345
(lp8346
(lp8347
I7213
aS'45'
p8348
aS'81'
p8349
aa(lp8350
I7213
aS'86'
p8351
aS'123'
p8352
aa(lp8353
I7213
aS'128'
p8354
aS'165'
p8355
aa(lp8356
I7213
aS'207'
p8357
aS'239'
p8358
aa(lp8359
I7213
aS'249'
p8360
aS'284'
p8361
aasS'4IBX'
p8362
(lp8363
(lp8364
I6991
aS'52'
p8365
aS'261'
p8366
aasS'4EQX'
p8367
(lp8368
(lp8369
I4854
aS'326'
p8370
aS'424'
p8371
aa(lp8372
I7341
aS'3'
aS'287'
p8373
aasS'1AOG'
p8374
(lp8375
(lp8376
I4854
aS'362'
p8377
aS'468'
p8378
aa(lp8379
I7341
aS'6'
aS'342'
p8380
aasS'1GP2'
p8381
(lp8382
(lp8383
I4172
aS'9'
aS'343'
p8384
aa(lp8385
I5179
aS'8'
aS'61'
p8386
aa(lp8387
I7213
aS'47'
p8388
aS'83'
p8389
aa(lp8390
I7213
aS'98'
p8391
aS'125'
p8392
aa(lp8393
I7213
aS'174'
p8394
aS'212'
p8395
aa(lp8396
I7213
aS'217'
p8397
aS'254'
p8398
aa(lp8399
I7213
aS'260'
p8400
aS'298'
p8401
aa(lp8402
I7213
aS'307'
p8403
aS'340'
p8404
aasS'3RFG'
p8405
(lp8406
(lp8407
I7213
aS'11'
p8408
aS'45'
p8409
aa(lp8410
I7213
aS'56'
p8411
aS'93'
p8412
aa(lp8413
I7213
aS'101'
p8414
aS'134'
p8415
aa(lp8416
I7213
aS'138'
p8417
aS'182'
p8418
aa(lp8419
I7213
aS'191'
p8420
aS'224'
p8421
aasS'3RFH'
p8422
(lp8423
(lp8424
I7213
aS'11'
p8425
aS'45'
p8426
aa(lp8427
I7213
aS'56'
p8428
aS'93'
p8429
aa(lp8430
I7213
aS'101'
p8431
aS'134'
p8432
aa(lp8433
I7213
aS'138'
p8434
aS'158'
p8435
aa(lp8436
I7213
aS'191'
p8437
aS'224'
p8438
aasS'1PGU'
p8439
(lp8440
(lp8441
I7213
aS'332'
p8442
aS'362'
p8443
aasS'1M40'
p8444
(lp8445
(lp8446
I6991
aS'51'
p8447
aS'261'
p8448
aasS'1NF6'
p8449
(lp8450
(lp8451
I6266
aS'13'
p8452
aS'142'
p8453
aasS'1NF4'
p8454
(lp8455
(lp8456
I6266
aS'13'
p8457
aS'142'
p8458
aasS'4H4X'
p8459
(lp8460
(lp8461
I6641
aS'318'
p8462
aS'403'
p8463
aa(lp8464
I7341
aS'10'
p8465
aS'298'
p8466
aasS'4H4Y'
p8467
(lp8468
(lp8469
I6641
aS'318'
p8470
aS'403'
p8471
aa(lp8472
I7341
aS'10'
p8473
aS'298'
p8474
aasS'4H4Z'
p8475
(lp8476
(lp8477
I6641
aS'318'
p8478
aS'403'
p8479
aa(lp8480
I7341
aS'10'
p8481
aS'298'
p8482
aasS'2WP5'
p8483
(lp8484
(lp8485
I4854
aS'362'
p8486
aS'468'
p8487
aa(lp8488
I7341
aS'5'
aS'342'
p8489
aasS'4H4U'
p8490
(lp8491
(lp8492
I6641
aS'318'
p8493
aS'403'
p8494
aa(lp8495
I7341
aS'10'
p8496
aS'298'
p8497
aasS'4H4V'
p8498
(lp8499
(lp8500
I6641
aS'318'
p8501
aS'403'
p8502
aa(lp8503
I7341
aS'10'
p8504
aS'298'
p8505
aasS'4H4W'
p8506
(lp8507
(lp8508
I6641
aS'318'
p8509
aS'403'
p8510
aa(lp8511
I7341
aS'10'
p8512
aS'298'
p8513
aasS'4H4P'
p8514
(lp8515
(lp8516
I6641
aS'318'
p8517
aS'403'
p8518
aa(lp8519
I7341
aS'10'
p8520
aS'298'
p8521
aasS'4H4Q'
p8522
(lp8523
(lp8524
I6641
aS'318'
p8525
aS'403'
p8526
aa(lp8527
I7341
aS'10'
p8528
aS'298'
p8529
aasS'3W4P'
p8530
(lp8531
(lp8532
I6991
aS'54'
p8533
aS'262'
p8534
aasS'4H4S'
p8535
(lp8536
(lp8537
I6641
aS'318'
p8538
aS'403'
p8539
aa(lp8540
I7341
aS'10'
p8541
aS'298'
p8542
aasS'4DE3'
p8543
(lp8544
(lp8545
I6991
aS'53'
p8546
aS'262'
p8547
aasS'4EQR'
p8548
(lp8549
(lp8550
I4854
aS'326'
p8551
aS'424'
p8552
aa(lp8553
I7341
aS'3'
aS'287'
p8554
aasS'4DE1'
p8555
(lp8556
(lp8557
I6991
aS'53'
p8558
aS'262'
p8559
aasS'3CTY'
p8560
(lp8561
(lp8562
I7341
aS'17'
p8563
aS'304'
p8564
aasS'4DE6'
p8565
(lp8566
(lp8567
I6266
aS'14'
p8568
aS'153'
p8569
aasS'4FDC'
p8570
(lp8571
(lp8572
I6590
aS'465'
p8573
aS'594'
p8574
aa(lp8575
I7341
aS'136'
p8576
aS'459'
p8577
aasS'2O9K'
p8578
(lp8579
(lp8580
I7213
aS'39'
p8581
aS'72'
p8582
aa(lp8583
I7213
aS'79'
p8584
aS'115'
p8585
aa(lp8586
I7213
aS'119'
p8587
aS'157'
p8588
aa(lp8589
I7213
aS'161'
p8590
aS'199'
p8591
aa(lp8592
I7213
aS'203'
p8593
aS'242'
p8594
aa(lp8595
I7213
aS'246'
p8596
aS'287'
p8597
aa(lp8598
I7213
aS'293'
p8599
aS'331'
p8600
aa(lp8601
I7213
aS'39'
p8602
aS'72'
p8603
aa(lp8604
I7213
aS'79'
p8605
aS'115'
p8606
aa(lp8607
I7213
aS'119'
p8608
aS'157'
p8609
aa(lp8610
I7213
aS'161'
p8611
aS'199'
p8612
aa(lp8613
I7213
aS'203'
p8614
aS'242'
p8615
aa(lp8616
I7213
aS'246'
p8617
aS'287'
p8618
aa(lp8619
I7213
aS'293'
p8620
aS'331'
p8621
aasS'3F8D'
p8622
(lp8623
(lp8624
I7341
aS'16'
p8625
aS'305'
p8626
aasS'3NCK'
p8627
(lp8628
(lp8629
I6991
aS'68'
p8630
aS'277'
p8631
aasS'1R5M'
p8632
(lp8633
(lp8634
I7213
aS'221'
p8635
aS'248'
p8636
aa(lp8637
I7213
aS'351'
p8638
aS'386'
p8639
aa(lp8640
I7213
aS'392'
p8641
aS'428'
p8642
aasS'4GKU'
p8643
(lp8644
(lp8645
I6991
aS'49'
p8646
aS'257'
p8647
aasS'3RE7'
p8648
(lp8649
(lp8650
I6266
aS'15'
p8651
aS'154'
p8652
aasS'4JNA'
p8653
(lp8654
(lp8655
I7341
aS'49'
p8656
aS'322'
p8657
aasS'2BKC'
p8658
(lp8659
(lp8660
I6266
aS'12'
p8661
aS'153'
p8662
aasS'1TRJ'
p8663
(lp8664
(lp8665
I7213
aS'11'
p8666
aS'45'
p8667
aa(lp8668
I7213
aS'56'
p8669
aS'93'
p8670
aa(lp8671
I7213
aS'101'
p8672
aS'134'
p8673
aa(lp8674
I7213
aS'138'
p8675
aS'182'
p8676
aa(lp8677
I7213
aS'191'
p8678
aS'224'
p8679
aasS'2OV5'
p8680
(lp8681
(lp8682
I6991
aS'53'
p8683
aS'263'
p8684
aasS'3UNO'
p8685
(lp8686
(lp8687
I6266
aS'14'
p8688
aS'144'
p8689
aasS'1Q2P'
p8690
(lp8691
(lp8692
I6991
aS'53'
p8693
aS'262'
p8694
aasS'2WOI'
p8695
(lp8696
(lp8697
I4854
aS'362'
p8698
aS'468'
p8699
aa(lp8700
I7341
aS'5'
aS'342'
p8701
aasS'1KGE'
p8702
(lp8703
(lp8704
I6991
aS'52'
p8705
aS'255'
p8706
aasS'1KGG'
p8707
(lp8708
(lp8709
I6991
aS'52'
p8710
aS'255'
p8711
aasS'1KGF'
p8712
(lp8713
(lp8714
I6991
aS'52'
p8715
aS'255'
p8716
aasS'4JNQ'
p8717
(lp8718
(lp8719
I7341
aS'8'
aS'302'
p8720
aasS'1PI6'
p8721
(lp8722
(lp8723
I7213
aS'332'
p8724
aS'362'
p8725
aasS'2WOV'
p8726
(lp8727
(lp8728
I4854
aS'362'
p8729
aS'468'
p8730
aa(lp8731
I7341
aS'5'
aS'342'
p8732
aasS'3RXX'
p8733
(lp8734
(lp8735
I6991
aS'53'
p8736
aS'263'
p8737
aasS'3RXW'
p8738
(lp8739
(lp8740
I6991
aS'53'
p8741
aS'261'
p8742
aasS'3F37'
p8743
(lp8744
(lp8745
I6266
aS'14'
p8746
aS'153'
p8747
aasS'3F34'
p8748
(lp8749
(lp8750
I6266
aS'14'
p8751
aS'153'
p8752
aasS'4APN'
p8753
(lp8754
(lp8755
I4854
aS'363'
p8756
aS'468'
p8757
aa(lp8758
I7341
aS'5'
aS'342'
p8759
aasS'3F32'
p8760
(lp8761
(lp8762
I6266
aS'14'
p8763
aS'153'
p8764
aasS'3F33'
p8765
(lp8766
(lp8767
I6266
aS'14'
p8768
aS'153'
p8769
aasS'1CL0'
p8770
(lp8771
(lp8772
I7341
aS'7'
aS'302'
p8773
aasS'3ODT'
p8774
(lp8775
(lp8776
I7213
aS'6'
aS'40'
p8777
aa(lp8778
I7213
aS'90'
p8779
aS'125'
p8780
aa(lp8781
I7213
aS'128'
p8782
aS'165'
p8783
aa(lp8784
I7213
aS'210'
p8785
aS'247'
p8786
aasS'4YWO'
p8787
(lp8788
(lp8789
I4854
aS'327'
p8790
aS'431'
p8791
aa(lp8792
I7341
aS'3'
aS'300'
p8793
aasS'3IIY'
p8794
(lp8795
(lp8796
I7213
aS'181'
p8797
aS'219'
p8798
aasS'4JXM'
p8799
(lp8800
(lp8801
I7213
aS'139'
p8802
aS'173'
p8803
aa(lp8804
I7213
aS'196'
p8805
aS'226'
p8806
aa(lp8807
I7213
aS'232'
p8808
aS'269'
p8809
aa(lp8810
I7213
aS'276'
p8811
aS'311'
p8812
aa(lp8813
I7213
aS'316'
p8814
aS'350'
p8815
aasS'3F3F'
p8816
(lp8817
(lp8818
I466
aS'89'
p8819
aS'544'
p8820
aa(lp8821
I7213
aS'6'
aS'36'
p8822
aa(lp8823
I7213
aS'49'
p8824
aS'84'
p8825
aa(lp8826
I7213
aS'208'
p8827
aS'243'
p8828
aa(lp8829
I7213
aS'300'
p8830
aS'332'
p8831
aasS'3UOI'
p8832
(lp8833
(lp8834
I6266
aS'10'
p8835
aS'143'
p8836
aasS'4N9K'
p8837
(lp8838
(lp8839
I6991
aS'53'
p8840
aS'263'
p8841
aasS'1PIO'
p8842
(lp8843
(lp8844
I6991
aS'52'
p8845
aS'255'
p8846
aasS'2JD8'
p8847
(lp8848
(lp8849
I6266
aS'7'
aS'142'
p8850
aasS'1XXM'
p8851
(lp8852
(lp8853
I1291
aS'1002'
p8854
aS'1164'
p8855
aa(lp8856
I6991
aS'51'
p8857
aS'259'
p8858
aasS'1GRH'
p8859
(lp8860
(lp8861
I4854
aS'367'
p8862
aS'477'
p8863
aa(lp8864
I7341
aS'21'
p8865
aS'346'
p8866
aasS'5CVO'
p8867
(lp8868
(lp8869
I2656
aS'6'
aS'74'
p8870
aa(lp8871
I6821
aS'34'
p8872
aS'362'
p8873
aa(lp8874
I7213
aS'72'
p8875
aS'103'
p8876
aa(lp8877
I7213
aS'109'
p8878
aS'145'
p8879
aa(lp8880
I7213
aS'161'
p8881
aS'196'
p8882
aa(lp8883
I7213
aS'203'
p8884
aS'238'
p8885
aasS'1IYQ'
p8886
(lp8887
(lp8888
I6991
aS'53'
p8889
aS'262'
p8890
aasS'1IYP'
p8891
(lp8892
(lp8893
I6991
aS'53'
p8894
aS'262'
p8895
aasS'1IYS'
p8896
(lp8897
(lp8898
I6991
aS'53'
p8899
aS'262'
p8900
aasS'2BK6'
p8901
(lp8902
(lp8903
I6266
aS'12'
p8904
aS'153'
p8905
aasS'1GG2'
p8906
(lp8907
(lp8908
I4172
aS'9'
aS'343'
p8909
aa(lp8910
I5179
aS'8'
aS'61'
p8911
aa(lp8912
I7213
aS'47'
p8913
aS'83'
p8914
aa(lp8915
I7213
aS'98'
p8916
aS'125'
p8917
aa(lp8918
I7213
aS'174'
p8919
aS'212'
p8920
aa(lp8921
I7213
aS'217'
p8922
aS'254'
p8923
aa(lp8924
I7213
aS'260'
p8925
aS'298'
p8926
aa(lp8927
I7213
aS'307'
p8928
aS'340'
p8929
aasS'4JN9'
p8930
(lp8931
(lp8932
I7341
aS'49'
p8933
aS'322'
p8934
aasS'1QGH'
p8935
(lp8936
(lp8937
I6266
aS'12'
p8938
aS'153'
p8939
aasS'3F3P'
p8940
(lp8941
(lp8942
I466
aS'89'
p8943
aS'547'
p8944
aa(lp8945
I7213
aS'6'
aS'36'
p8946
aa(lp8947
I7213
aS'49'
p8948
aS'84'
p8949
aa(lp8950
I7213
aS'208'
p8951
aS'243'
p8952
aa(lp8953
I7213
aS'300'
p8954
aS'332'
p8955
aasS'2H9L'
p8956
(lp8957
(lp8958
I7213
aS'39'
p8959
aS'72'
p8960
aa(lp8961
I7213
aS'79'
p8962
aS'115'
p8963
aa(lp8964
I7213
aS'119'
p8965
aS'157'
p8966
aa(lp8967
I7213
aS'161'
p8968
aS'199'
p8969
aa(lp8970
I7213
aS'203'
p8971
aS'242'
p8972
aa(lp8973
I7213
aS'246'
p8974
aS'287'
p8975
aa(lp8976
I7213
aS'293'
p8977
aS'331'
p8978
aasS'1N4O'
p8979
(lp8980
(lp8981
I6991
aS'53'
p8982
aS'259'
p8983
aasS'2Z90'
p8984
(lp8985
(lp8986
I6266
aS'22'
p8987
aS'156'
p8988
aasS'4XFV'
p8989
(lp8990
(lp8991
I7213
aS'54'
p8992
aS'87'
p8993
aa(lp8994
I7213
aS'95'
p8995
aS'129'
p8996
aa(lp8997
I7213
aS'195'
p8998
aS'233'
p8999
aa(lp9000
I7213
aS'279'
p9001
aS'308'
p9002
aa(lp9003
I7213
aS'551'
p9004
aS'579'
p9005
aa(lp9006
I7213
aS'656'
p9007
aS'682'
p9008
aasS'1E1L'
p9009
(lp9010
(lp9011
I7341
aS'8'
aS'164'
p9012
aasS'1LVL'
p9013
(lp9014
(lp9015
I4854
aS'339'
p9016
aS'448'
p9017
aa(lp9018
I7341
aS'8'
aS'320'
p9019
aasS'3NC8'
p9020
(lp9021
(lp9022
I6991
aS'68'
p9023
aS'277'
p9024
aasS'3DK8'
p9025
(lp9026
(lp9027
I4854
aS'367'
p9028
aS'477'
p9029
aa(lp9030
I7341
aS'21'
p9031
aS'346'
p9032
aasS'1E1N'
p9033
(lp9034
(lp9035
I7341
aS'8'
aS'164'
p9036
aasS'4Y7R'
p9037
(lp9038
(lp9039
I7213
aS'39'
p9040
aS'72'
p9041
aa(lp9042
I7213
aS'79'
p9043
aS'115'
p9044
aa(lp9045
I7213
aS'119'
p9046
aS'157'
p9047
aa(lp9048
I7213
aS'161'
p9049
aS'199'
p9050
aa(lp9051
I7213
aS'203'
p9052
aS'242'
p9053
aa(lp9054
I7213
aS'246'
p9055
aS'287'
p9056
aa(lp9057
I7213
aS'293'
p9058
aS'331'
p9059
aasS'4IWJ'
p9060
(lp9061
(lp9062
I6266
aS'6'
aS'141'
p9063
aasS'4IWK'
p9064
(lp9065
(lp9066
I6266
aS'6'
aS'141'
p9067
aasS'2WPE'
p9068
(lp9069
(lp9070
I4854
aS'362'
p9071
aS'468'
p9072
aa(lp9073
I7341
aS'5'
aS'342'
p9074
aasS'2WPF'
p9075
(lp9076
(lp9077
I4854
aS'362'
p9078
aS'468'
p9079
aa(lp9080
I7341
aS'5'
aS'342'
p9081
aasS'2WPC'
p9082
(lp9083
(lp9084
I4854
aS'362'
p9085
aS'468'
p9086
aa(lp9087
I7341
aS'5'
aS'342'
p9088
aasS'2NVK'
p9089
(lp9090
(lp9091
I4854
aS'362'
p9092
aS'473'
p9093
aa(lp9094
I7341
aS'10'
p9095
aS'342'
p9096
aasS'2FL0'
p9097
(lp9098
(lp9099
I6266
aS'8'
aS'143'
p9100
aasS'1E1K'
p9101
(lp9102
(lp9103
I7341
aS'8'
aS'164'
p9104
aasS'4ISM'
p9105
(lp9106
(lp9107
I6266
aS'6'
aS'141'
p9108
aasS'1GRF'
p9109
(lp9110
(lp9111
I4854
aS'367'
p9112
aS'477'
p9113
aa(lp9114
I7341
aS'21'
p9115
aS'346'
p9116
aasS'3HYW'
p9117
(lp9118
(lp9119
I7341
aS'4'
aS'296'
p9120
aasS'2GRT'
p9121
(lp9122
(lp9123
I4854
aS'367'
p9124
aS'477'
p9125
aa(lp9126
I7341
aS'21'
p9127
aS'346'
p9128
aasS'4CY2'
p9129
(lp9130
(lp9131
I7213
aS'39'
p9132
aS'72'
p9133
aa(lp9134
I7213
aS'79'
p9135
aS'115'
p9136
aa(lp9137
I7213
aS'119'
p9138
aS'157'
p9139
aa(lp9140
I7213
aS'161'
p9141
aS'199'
p9142
aa(lp9143
I7213
aS'203'
p9144
aS'242'
p9145
aa(lp9146
I7213
aS'246'
p9147
aS'287'
p9148
aa(lp9149
I7213
aS'293'
p9150
aS'331'
p9151
aasS'4X63'
p9152
(lp9153
(lp9154
I5298
aS'183'
p9155
aS'618'
p9156
aa(lp9157
I7213
aS'160'
p9158
aS'196'
p9159
aasS'4JQ9'
p9160
(lp9161
(lp9162
I4854
aS'347'
p9163
aS'455'
p9164
aa(lp9165
I7341
aS'8'
aS'328'
p9166
aasS'3UVN'
p9167
(lp9168
(lp9169
I7213
aS'39'
p9170
aS'72'
p9171
aa(lp9172
I7213
aS'79'
p9173
aS'115'
p9174
aa(lp9175
I7213
aS'119'
p9176
aS'157'
p9177
aa(lp9178
I7213
aS'161'
p9179
aS'199'
p9180
aa(lp9181
I7213
aS'203'
p9182
aS'242'
p9183
aa(lp9184
I7213
aS'246'
p9185
aS'287'
p9186
aa(lp9187
I7213
aS'293'
p9188
aS'331'
p9189
aasS'4X60'
p9190
(lp9191
(lp9192
I5298
aS'183'
p9193
aS'618'
p9194
aa(lp9195
I7213
aS'160'
p9196
aS'196'
p9197
aasS'3N4I'
p9198
(lp9199
(lp9200
I1291
aS'2'
aS'164'
p9201
aa(lp9202
I1291
aS'2'
aS'164'
p9203
aa(lp9204
I6991
aS'53'
p9205
aS'262'
p9206
aa(lp9207
I6991
aS'53'
p9208
aS'262'
p9209
aasS'3UVM'
p9210
(lp9211
(lp9212
I7213
aS'39'
p9213
aS'72'
p9214
aa(lp9215
I7213
aS'79'
p9216
aS'115'
p9217
aa(lp9218
I7213
aS'119'
p9219
aS'157'
p9220
aa(lp9221
I7213
aS'161'
p9222
aS'199'
p9223
aa(lp9224
I7213
aS'203'
p9225
aS'242'
p9226
aa(lp9227
I7213
aS'246'
p9228
aS'287'
p9229
aa(lp9230
I7213
aS'293'
p9231
aS'331'
p9232
aasS'3U90'
p9233
(lp9234
(lp9235
I6266
aS'14'
p9236
aS'153'
p9237
aasS'4N14'
p9238
(lp9239
(lp9240
I7213
aS'302'
p9241
aS'336'
p9242
aa(lp9243
I7213
aS'346'
p9244
aS'386'
p9245
aa(lp9246
I7213
aS'437'
p9247
aS'470'
p9248
aasS'3AJO'
p9249
(lp9250
(lp9251
I6266
aS'18'
p9252
aS'158'
p9253
aasS'1GRG'
p9254
(lp9255
(lp9256
I4854
aS'367'
p9257
aS'477'
p9258
aa(lp9259
I7341
aS'21'
p9260
aS'346'
p9261
aasS'2C2J'
p9262
(lp9263
(lp9264
I6266
aS'50'
p9265
aS'190'
p9266
aasS'4MBH'
p9267
(lp9268
(lp9269
I6991
aS'53'
p9270
aS'262'
p9271
aasS'3QHY'
p9272
(lp9273
(lp9274
I4932
aS'106'
p9275
aS'133'
p9276
aa(lp9277
I6991
aS'53'
p9278
aS'263'
p9279
aasS'2A49'
p9280
(lp9281
(lp9282
I6991
aS'53'
p9283
aS'262'
p9284
aasS'2V20'
p9285
(lp9286
(lp9287
I6991
aS'31'
p9288
aS'237'
p9289
aasS'4PM7'
p9290
(lp9291
(lp9292
I6991
aS'53'
p9293
aS'262'
p9294
aasS'3ACP'
p9295
(lp9296
(lp9297
I7213
aS'134'
p9298
aS'164'
p9299
aa(lp9300
I7213
aS'171'
p9301
aS'205'
p9302
aasS'2C2U'
p9303
(lp9304
(lp9305
I6266
aS'63'
p9306
aS'204'
p9307
aasS'2Y91'
p9308
(lp9309
(lp9310
I6991
aS'53'
p9311
aS'263'
p9312
aasS'4TO9'
p9313
(lp9314
(lp9315
I6266
aS'8'
aS'143'
p9316
aasS'3VRD'
p9317
(lp9318
(lp9319
I2152
aS'330'
p9320
aS'400'
p9321
aa(lp9322
I7341
aS'4'
aS'116'
p9323
aasS'3K26'
p9324
(lp9325
(lp9326
I7213
aS'181'
p9327
aS'219'
p9328
aasS'3K27'
p9329
(lp9330
(lp9331
I7213
aS'181'
p9332
aS'219'
p9333
aasS'4TOA'
p9334
(lp9335
(lp9336
I6266
aS'8'
aS'143'
p9337
aasS'2R9Z'
p9338
(lp9339
(lp9340
I4854
aS'338'
p9341
aS'446'
p9342
aa(lp9343
I7341
aS'6'
aS'317'
p9344
aasS'1ONF'
p9345
(lp9346
(lp9347
I4854
aS'380'
p9348
aS'493'
p9349
aa(lp9350
I7341
aS'2'
aS'316'
p9351
aasS'2WP6'
p9352
(lp9353
(lp9354
I4854
aS'362'
p9355
aS'468'
p9356
aa(lp9357
I7341
aS'5'
aS'342'
p9358
aasS'3BKN'
p9359
(lp9360
(lp9361
I6266
aS'9'
aS'143'
p9362
aasS'3LY3'
p9363
(lp9364
(lp9365
I6991
aS'53'
p9366
aS'263'
p9367
aasS'4TOG'
p9368
(lp9369
(lp9370
I6266
aS'8'
aS'143'
p9371
aasS'4TOF'
p9372
(lp9373
(lp9374
I6266
aS'8'
aS'143'
p9375
aasS'1GRB'
p9376
(lp9377
(lp9378
I4854
aS'367'
p9379
aS'477'
p9380
aa(lp9381
I7341
aS'21'
p9382
aS'346'
p9383
aasS'4EMI'
p9384
(lp9385
(lp9386
I6641
aS'320'
p9387
aS'401'
p9388
aa(lp9389
I7341
aS'4'
aS'299'
p9390
aasS'3ERZ'
p9391
(lp9392
(lp9393
I6266
aS'18'
p9394
aS'158'
p9395
aasS'2X17'
p9396
(lp9397
(lp9398
I6266
aS'7'
aS'142'
p9399
aasS'3GHQ'
p9400
(lp9401
(lp9402
I6266
aS'8'
aS'144'
p9403
aasS'4J57'
p9404
(lp9405
(lp9406
I4854
aS'393'
p9407
aS'517'
p9408
aa(lp9409
I5839
aS'5'
aS'101'
p9410
aa(lp9411
I7341
aS'42'
p9412
aS'373'
p9413
aasS'4J56'
p9414
(lp9415
(lp9416
I4854
aS'393'
p9417
aS'517'
p9418
aa(lp9419
I5839
aS'5'
aS'101'
p9420
aa(lp9421
I7341
aS'42'
p9422
aS'373'
p9423
aasS'2BLM'
p9424
(lp9425
(lp9426
I6991
aS'53'
p9427
aS'263'
p9428
aasS'3H4K'
p9429
(lp9430
(lp9431
I1028
aS'20'
p9432
aS'82'
p9433
aa(lp9434
I4854
aS'469'
p9435
aS'580'
p9436
aa(lp9437
I7341
aS'108'
p9438
aS'449'
p9439
aasS'4CCQ'
p9440
(lp9441
(lp9442
I7341
aS'5'
aS'300'
p9443
aasS'3QFB'
p9444
(lp9445
(lp9446
I4854
aS'370'
p9447
aS'481'
p9448
aa(lp9449
I5839
aS'7'
aS'103'
p9450
aa(lp9451
I7341
aS'13'
p9452
aS'350'
p9453
aasS'3DK9'
p9454
(lp9455
(lp9456
I4854
aS'367'
p9457
aS'477'
p9458
aa(lp9459
I7341
aS'21'
p9460
aS'346'
p9461
aasS'1ERQ'
p9462
(lp9463
(lp9464
I6991
aS'51'
p9465
aS'259'
p9466
aasS'2Q0K'
p9467
(lp9468
(lp9469
I7341
aS'3'
aS'297'
p9470
aasS'4QU3'
p9471
(lp9472
(lp9473
I6991
aS'48'
p9474
aS'255'
p9475
aasS'4J0X'
p9476
(lp9477
(lp9478
I7213
aS'231'
p9479
aS'264'
p9480
aa(lp9481
I7213
aS'474'
p9482
aS'500'
p9483
aasS'2ZQ9'
p9484
(lp9485
(lp9486
I6991
aS'53'
p9487
aS'262'
p9488
aasS'2Q0L'
p9489
(lp9490
(lp9491
I7341
aS'3'
aS'297'
p9492
aasS'2CHI'
p9493
(lp9494
(lp9495
I6266
aS'18'
p9496
aS'158'
p9497
aasS'4OYN'
p9498
(lp9499
(lp9500
I6266
aS'18'
p9501
aS'158'
p9502
aasS'4X69'
p9503
(lp9504
(lp9505
I6991
aS'53'
p9506
aS'262'
p9507
aasS'4A5L'
p9508
(lp9509
(lp9510
I7341
aS'5'
aS'300'
p9511
aa(lp9512
I7341
aS'5'
aS'300'
p9513
aasS'2QAE'
p9514
(lp9515
(lp9516
I4854
aS'349'
p9517
aS'457'
p9518
aa(lp9519
I7341
aS'3'
aS'330'
p9520
aasS'3E6R'
p9521
(lp9522
(lp9523
I6266
aS'6'
aS'141'
p9524
aasS'3E6S'
p9525
(lp9526
(lp9527
I6266
aS'6'
aS'141'
p9528
aasS'4DE0'
p9529
(lp9530
(lp9531
I6991
aS'53'
p9532
aS'262'
p9533
aasS'1I2S'
p9534
(lp9535
(lp9536
I6991
aS'53'
p9537
aS'263'
p9538
aasS'4G9K'
p9539
(lp9540
(lp9541
I7341
aS'55'
p9542
aS'400'
p9543
aasS'3Q1F'
p9544
(lp9545
(lp9546
I6991
aS'54'
p9547
aS'260'
p9548
aasS'2J7V'
p9549
(lp9550
(lp9551
I6991
aS'43'
p9552
aS'244'
p9553
aasS'4X3E'
p9554
(lp9555
(lp9556
I7213
aS'181'
p9557
aS'219'
p9558
aasS'1HZO'
p9559
(lp9560
(lp9561
I6991
aS'53'
p9562
aS'263'
p9563
aasS'3SOI'
p9564
(lp9565
(lp9566
I6991
aS'53'
p9567
aS'263'
p9568
aasS'4KFM'
p9569
(lp9570
(lp9571
I799
aS'59'
p9572
aS'382'
p9573
aa(lp9574
I5179
aS'8'
aS'67'
p9575
aa(lp9576
I7213
aS'47'
p9577
aS'83'
p9578
aa(lp9579
I7213
aS'98'
p9580
aS'125'
p9581
aa(lp9582
I7213
aS'174'
p9583
aS'212'
p9584
aa(lp9585
I7213
aS'217'
p9586
aS'254'
p9587
aa(lp9588
I7213
aS'260'
p9589
aS'298'
p9590
aa(lp9591
I7213
aS'307'
p9592
aS'340'
p9593
aasS'3NT6'
p9594
(lp9595
(lp9596
I3419
aS'482'
p9597
aS'562'
p9598
aa(lp9599
I4854
aS'350'
p9600
aS'451'
p9601
aa(lp9602
I7341
aS'2'
aS'327'
p9603
aasS'2EQ8'
p9604
(lp9605
(lp9606
I3210
aS'130'
p9607
aS'164'
p9608
aa(lp9609
I4854
aS'348'
p9610
aS'456'
p9611
aa(lp9612
I7341
aS'10'
p9613
aS'329'
p9614
aasS'2EQ9'
p9615
(lp9616
(lp9617
I3210
aS'130'
p9618
aS'164'
p9619
aa(lp9620
I4854
aS'348'
p9621
aS'456'
p9622
aa(lp9623
I7341
aS'10'
p9624
aS'329'
p9625
aasS'2UX1'
p9626
(lp9627
(lp9628
I6266
aS'27'
p9629
aS'170'
p9630
aasS'2WTL'
p9631
(lp9632
(lp9633
I6266
aS'10'
p9634
aS'143'
p9635
aasS'2EQ6'
p9636
(lp9637
(lp9638
I4854
aS'348'
p9639
aS'456'
p9640
aa(lp9641
I7341
aS'10'
p9642
aS'329'
p9643
aasS'4DNA'
p9644
(lp9645
(lp9646
I4854
aS'341'
p9647
aS'449'
p9648
aa(lp9649
I7341
aS'6'
aS'321'
p9650
aasS'2J9O'
p9651
(lp9652
(lp9653
I6991
aS'43'
p9654
aS'244'
p9655
aasS'2XGN'
p9656
(lp9657
(lp9658
I6991
aS'162'
p9659
aS'270'
p9660
aasS'4Q8I'
p9661
(lp9662
(lp9663
I6991
aS'68'
p9664
aS'277'
p9665
aasS'4ISP'
p9666
(lp9667
(lp9668
I6266
aS'6'
aS'141'
p9669
aasS'2GNQ'
p9670
(lp9671
(lp9672
I7213
aS'39'
p9673
aS'72'
p9674
aa(lp9675
I7213
aS'79'
p9676
aS'115'
p9677
aa(lp9678
I7213
aS'119'
p9679
aS'157'
p9680
aa(lp9681
I7213
aS'161'
p9682
aS'199'
p9683
aa(lp9684
I7213
aS'203'
p9685
aS'242'
p9686
aa(lp9687
I7213
aS'246'
p9688
aS'287'
p9689
aa(lp9690
I7213
aS'293'
p9691
aS'331'
p9692
aasS'2XGW'
p9693
(lp9694
(lp9695
I6266
aS'30'
p9696
aS'169'
p9697
aasS'2G4H'
p9698
(lp9699
(lp9700
I6266
aS'18'
p9701
aS'157'
p9702
aasS'4GOG'
p9703
(lp9704
(lp9705
I6991
aS'48'
p9706
aS'255'
p9707
aasS'4AOW'
p9708
(lp9709
(lp9710
I7213
aS'9'
aS'44'
p9711
aa(lp9712
I7213
aS'55'
p9713
aS'91'
p9714
aa(lp9715
I7213
aS'96'
p9716
aS'133'
p9717
aa(lp9718
I7213
aS'145'
p9719
aS'178'
p9720
aa(lp9721
I7213
aS'188'
p9722
aS'220'
p9723
aa(lp9724
I7213
aS'225'
p9725
aS'260'
p9726
aasS'3V3R'
p9727
(lp9728
(lp9729
I6991
aS'48'
p9730
aS'255'
p9731
aasS'3O0H'
p9732
(lp9733
(lp9734
I4854
aS'341'
p9735
aS'448'
p9736
aa(lp9737
I7341
aS'6'
aS'320'
p9738
aasS'4C3Q'
p9739
(lp9740
(lp9741
I6991
aS'53'
p9742
aS'262'
p9743
aasS'2HTN'
p9744
(lp9745
(lp9746
I6266
aS'8'
aS'144'
p9747
aasS'1H7W'
p9748
(lp9749
(lp9750
I1416
aS'946'
p9751
aS'1004'
p9752
aa(lp9753
I1417
aS'57'
p9754
aS'166'
p9755
aa(lp9756
I4812
aS'534'
p9757
aS'838'
p9758
aa(lp9759
I7341
aS'189'
p9760
aS'490'
p9761
aasS'1YLP'
p9762
(lp9763
(lp9764
I6991
aS'53'
p9765
aS'262'
p9766
aasS'1NYM'
p9767
(lp9768
(lp9769
I6991
aS'51'
p9770
aS'261'
p9771
aasS'3C4O'
p9772
(lp9773
(lp9774
I1291
aS'2'
aS'164'
p9775
aa(lp9776
I6991
aS'53'
p9777
aS'262'
p9778
aasS'2XH9'
p9779
(lp9780
(lp9781
I6991
aS'162'
p9782
aS'270'
p9783
aasS'1O7E'
p9784
(lp9785
(lp9786
I6991
aS'53'
p9787
aS'259'
p9788
aasS'1GSN'
p9789
(lp9790
(lp9791
I4854
aS'367'
p9792
aS'477'
p9793
aa(lp9794
I7341
aS'21'
p9795
aS'346'
p9796
aasS'2WOW'
p9797
(lp9798
(lp9799
I4854
aS'362'
p9800
aS'468'
p9801
aa(lp9802
I7341
aS'5'
aS'342'
p9803
aasS'2V2R'
p9804
(lp9805
(lp9806
I6266
aS'14'
p9807
aS'153'
p9808
aasS'1TDG'
p9809
(lp9810
(lp9811
I6991
aS'53'
p9812
aS'262'
p9813
aasS'1TDF'
p9814
(lp9815
(lp9816
I7341
aS'7'
aS'302'
p9817
aasS'1TDE'
p9818
(lp9819
(lp9820
I7341
aS'7'
aS'302'
p9821
aasS'3NTD'
p9822
(lp9823
(lp9824
I3419
aS'482'
p9825
aS'562'
p9826
aa(lp9827
I4854
aS'350'
p9828
aS'451'
p9829
aa(lp9830
I7341
aS'2'
aS'327'
p9831
aasS'4QL1'
p9832
(lp9833
(lp9834
I7213
aS'39'
p9835
aS'72'
p9836
aa(lp9837
I7213
aS'79'
p9838
aS'115'
p9839
aa(lp9840
I7213
aS'119'
p9841
aS'157'
p9842
aa(lp9843
I7213
aS'161'
p9844
aS'199'
p9845
aa(lp9846
I7213
aS'203'
p9847
aS'242'
p9848
aa(lp9849
I7213
aS'246'
p9850
aS'287'
p9851
aa(lp9852
I7213
aS'293'
p9853
aS'331'
p9854
aasS'2J3N'
p9855
(lp9856
(lp9857
I4854
aS'370'
p9858
aS'481'
p9859
aa(lp9860
I7341
aS'13'
p9861
aS'350'
p9862
aasS'4CVS'
p9863
(lp9864
(lp9865
I6266
aS'8'
aS'144'
p9866
aasS'1NYY'
p9867
(lp9868
(lp9869
I6991
aS'51'
p9870
aS'261'
p9871
aasS'3UVK'
p9872
(lp9873
(lp9874
I7213
aS'39'
p9875
aS'72'
p9876
aa(lp9877
I7213
aS'79'
p9878
aS'115'
p9879
aa(lp9880
I7213
aS'119'
p9881
aS'157'
p9882
aa(lp9883
I7213
aS'161'
p9884
aS'199'
p9885
aa(lp9886
I7213
aS'203'
p9887
aS'242'
p9888
aa(lp9889
I7213
aS'246'
p9890
aS'287'
p9891
aa(lp9892
I7213
aS'293'
p9893
aS'331'
p9894
aasS'4MKU'
p9895
(lp9896
(lp9897
I6266
aS'14'
p9898
aS'153'
p9899
aasS'3C4P'
p9900
(lp9901
(lp9902
I1291
aS'2'
aS'164'
p9903
aa(lp9904
I6991
aS'53'
p9905
aS'262'
p9906
aasS'1TDL'
p9907
(lp9908
(lp9909
I6991
aS'53'
p9910
aS'262'
p9911
aasS'3W4Q'
p9912
(lp9913
(lp9914
I6991
aS'54'
p9915
aS'263'
p9916
aasS'4J0W'
p9917
(lp9918
(lp9919
I7213
aS'139'
p9920
aS'173'
p9921
aa(lp9922
I7213
aS'196'
p9923
aS'226'
p9924
aa(lp9925
I7213
aS'232'
p9926
aS'269'
p9927
aa(lp9928
I7213
aS'276'
p9929
aS'311'
p9930
aa(lp9931
I7213
aS'316'
p9932
aS'350'
p9933
aasS'1EBD'
p9934
(lp9935
(lp9936
I3210
aS'130'
p9937
aS'163'
p9938
aa(lp9939
I4854
aS'348'
p9940
aS'456'
p9941
aa(lp9942
I7341
aS'12'
p9943
aS'329'
p9944
aasS'1H6V'
p9945
(lp9946
(lp9947
I4854
aS'370'
p9948
aS'481'
p9949
aa(lp9950
I7341
aS'13'
p9951
aS'350'
p9952
aasS'1S0W'
p9953
(lp9954
(lp9955
I1291
aS'1002'
p9956
aS'1164'
p9957
aa(lp9958
I6991
aS'51'
p9959
aS'259'
p9960
aasS'2XL2'
p9961
(lp9962
(lp9963
I7213
aS'39'
p9964
aS'72'
p9965
aa(lp9966
I7213
aS'79'
p9967
aS'115'
p9968
aa(lp9969
I7213
aS'119'
p9970
aS'157'
p9971
aa(lp9972
I7213
aS'161'
p9973
aS'199'
p9974
aa(lp9975
I7213
aS'203'
p9976
aS'242'
p9977
aa(lp9978
I7213
aS'246'
p9979
aS'287'
p9980
aa(lp9981
I7213
aS'293'
p9982
aS'331'
p9983
aasS'2QPN'
p9984
(lp9985
(lp9986
I6991
aS'48'
p9987
aS'255'
p9988
aasS'4K8D'
p9989
(lp9990
(lp9991
I4854
aS'343'
p9992
aS'451'
p9993
aa(lp9994
I7341
aS'6'
aS'324'
p9995
aasS'1N9B'
p9996
(lp9997
(lp9998
I6991
aS'53'
p9999
aS'262'
p10000
aasS'2B5R'
p10001
(lp10002
(lp10003
I1291
aS'1002'
p10004
aS'1164'
p10005
aa(lp10006
I6991
aS'51'
p10007
aS'259'
p10008
aasS'5CVL'
p10009
(lp10010
(lp10011
I6825
aS'509'
p10012
aS'563'
p10013
aa(lp10014
I7213
aS'72'
p10015
aS'103'
p10016
aa(lp10017
I7213
aS'109'
p10018
aS'145'
p10019
aa(lp10020
I7213
aS'161'
p10021
aS'196'
p10022
aa(lp10023
I7213
aS'203'
p10024
aS'238'
p10025
aasS'1V59'
p10026
(lp10027
(lp10028
I4854
aS'359'
p10029
aS'467'
p10030
aa(lp10031
I7341
aS'6'
aS'340'
p10032
aasS'1RCJ'
p10033
(lp10034
(lp10035
I6991
aS'53'
p10036
aS'262'
p10037
aasS'1TJO'
p10038
(lp10039
(lp10040
I6266
aS'32'
p10041
aS'173'
p10042
aasS'2V3A'
p10043
(lp10044
(lp10045
I7341
aS'7'
aS'282'
p10046
aasS'1NY0'
p10047
(lp10048
(lp10049
I6991
aS'51'
p10050
aS'261'
p10051
aasS'2V3B'
p10052
(lp10053
(lp10054
I404
aS'3'
aS'49'
p10055
aa(lp10056
I404
aS'3'
aS'49'
p10057
aa(lp10058
I7341
aS'7'
aS'282'
p10059
aa(lp10060
I7341
aS'7'
aS'282'
p10061
aasS'3DH9'
p10062
(lp10063
(lp10064
I4854
aS'362'
p10065
aS'473'
p10066
aa(lp10067
I7341
aS'10'
p10068
aS'342'
p10069
aasS'4DYU'
p10070
(lp10071
(lp10072
I6266
aS'30'
p10073
aS'166'
p10074
aasS'4BUR'
p10075
(lp10076
(lp10077
I6590
aS'465'
p10078
aS'594'
p10079
aa(lp10080
I7341
aS'136'
p10081
aS'459'
p10082
aasS'4LA1'
p10083
(lp10084
(lp10085
I1028
aS'20'
p10086
aS'82'
p10087
aa(lp10088
I4854
aS'469'
p10089
aS'580'
p10090
aa(lp10091
I7341
aS'108'
p10092
aS'449'
p10093
aasS'1H7X'
p10094
(lp10095
(lp10096
I1416
aS'946'
p10097
aS'1004'
p10098
aa(lp10099
I1417
aS'57'
p10100
aS'166'
p10101
aa(lp10102
I4812
aS'534'
p10103
aS'838'
p10104
aa(lp10105
I7341
aS'189'
p10106
aS'490'
p10107
aasS'3KD9'
p10108
(lp10109
(lp10110
I4854
aS'327'
p10111
aS'428'
p10112
aa(lp10113
I7341
aS'4'
aS'305'
p10114
aasS'4DYZ'
p10115
(lp10116
(lp10117
I6266
aS'18'
p10118
aS'158'
p10119
aasS'4DYY'
p10120
(lp10121
(lp10122
I6266
aS'18'
p10123
aS'158'
p10124
aasS'4ZJ1'
p10125
(lp10126
(lp10127
I6991
aS'51'
p10128
aS'261'
p10129
aasS'3QZ3'
p10130
(lp10131
(lp10132
I6266
aS'14'
p10133
aS'149'
p10134
aasS'2YVG'
p10135
(lp10136
(lp10137
I6641
aS'318'
p10138
aS'403'
p10139
aa(lp10140
I7341
aS'10'
p10141
aS'298'
p10142
aasS'2YVF'
p10143
(lp10144
(lp10145
I6641
aS'318'
p10146
aS'403'
p10147
aa(lp10148
I7341
aS'10'
p10149
aS'298'
p10150
aasS'1FCD'
p10151
(lp10152
(lp10153
I2152
aS'330'
p10154
aS'400'
p10155
aa(lp10156
I7341
aS'4'
aS'120'
p10157
aasS'1ERJ'
p10158
(lp10159
(lp10160
I7213
aS'342'
p10161
aS'368'
p10162
aa(lp10163
I7213
aS'443'
p10164
aS'471'
p10165
aa(lp10166
I7213
aS'476'
p10167
aS'513'
p10168
aa(lp10169
I7213
aS'518'
p10170
aS'555'
p10171
aa(lp10172
I7213
aS'573'
p10173
aS'604'
p10174
aa(lp10175
I7213
aS'621'
p10176
aS'658'
p10177
aa(lp10178
I7213
aS'662'
p10179
aS'706'
p10180
aasS'3NTA'
p10181
(lp10182
(lp10183
I3419
aS'482'
p10184
aS'562'
p10185
aa(lp10186
I4854
aS'350'
p10187
aS'451'
p10188
aa(lp10189
I7341
aS'2'
aS'327'
p10190
aasS'3M2K'
p10191
(lp10192
(lp10193
I6991
aS'53'
p10194
aS'263'
p10195
aasS'3W4O'
p10196
(lp10197
(lp10198
I6991
aS'54'
p10199
aS'262'
p10200
aas.