(dp1
S'3EWM'
p2
(lp3
(lp4
I4800
aS'2'
aS'286'
p5
aasS'1JX4'
p6
(lp7
(lp8
I2188
aS'169'
p9
aS'199'
p10
aa(lp11
I6340
aS'6'
aS'155'
p12
aasS'2BQR'
p13
(lp14
(lp15
I2188
aS'169'
p16
aS'199'
p17
aa(lp18
I2188
aS'169'
p19
aS'199'
p20
aa(lp21
I6340
aS'6'
aS'155'
p22
aa(lp23
I6340
aS'6'
aS'155'
p24
aasS'1CP6'
p25
(lp26
(lp27
I6193
aS'78'
p28
aS'272'
p29
aasS'1CP7'
p30
(lp31
(lp32
I6193
aS'66'
p33
aS'270'
p34
aasS'2BQU'
p35
(lp36
(lp37
I2188
aS'169'
p38
aS'199'
p39
aa(lp40
I6340
aS'6'
aS'155'
p41
aasS'2NQX'
p42
(lp43
(lp44
I6795
aS'21'
p45
aS'567'
p46
aasS'2ZED'
p47
(lp48
(lp49
I6193
aS'122'
p50
aS'354'
p51
aasS'2DEA'
p52
(lp53
(lp54
I6193
aS'78'
p55
aS'272'
p56
aasS'3B3C'
p57
(lp58
(lp59
I6193
aS'78'
p60
aS'272'
p61
aasS'4MPJ'
p62
(lp63
(lp64
I5925
aS'9'
aS'169'
p65
aa(lp66
I5928
aS'193'
p67
aS'325'
p68
aa(lp69
I5932
aS'380'
p70
aS'521'
p71
aasS'3KHL'
p72
(lp73
(lp74
I2188
aS'169'
p75
aS'199'
p76
aa(lp77
I6340
aS'6'
aS'155'
p78
aasS'3B3L'
p79
(lp80
(lp81
I4800
aS'4'
aS'289'
p82
aasS'3B3S'
p83
(lp84
(lp85
I6193
aS'78'
p86
aS'272'
p87
aasS'1N0H'
p88
(lp89
(lp90
I5925
aS'93'
p91
aS'256'
p92
aa(lp93
I5928
aS'289'
p94
aS'431'
p95
aa(lp96
I5932
aS'496'
p97
aS'643'
p98
aasS'3B3V'
p99
(lp100
(lp101
I6193
aS'78'
p102
aS'272'
p103
aasS'3B3W'
p104
(lp105
(lp106
I6193
aS'78'
p107
aS'272'
p108
aasS'3B3T'
p109
(lp110
(lp111
I6193
aS'78'
p112
aS'272'
p113
aasS'2W8L'
p114
(lp115
(lp116
I2188
aS'169'
p117
aS'199'
p118
aa(lp119
I6340
aS'6'
aS'155'
p120
aasS'2PVW'
p121
(lp122
(lp123
I1653
aS'171'
p124
aS'257'
p125
aa(lp126
I4881
aS'627'
p127
aS'747'
p128
aa(lp129
I6193
aS'357'
p130
aS'481'
p131
aasS'4MPP'
p132
(lp133
(lp134
I5925
aS'9'
aS'169'
p135
aa(lp136
I5928
aS'193'
p137
aS'325'
p138
aa(lp139
I5932
aS'382'
p140
aS'521'
p141
aasS'2W8K'
p142
(lp143
(lp144
I2188
aS'169'
p145
aS'199'
p146
aa(lp147
I6340
aS'6'
aS'155'
p148
aasS'4MPR'
p149
(lp150
(lp151
I5925
aS'9'
aS'169'
p152
aa(lp153
I5928
aS'193'
p154
aS'325'
p155
aa(lp156
I5932
aS'380'
p157
aS'521'
p158
aasS'3ZID'
p159
(lp160
(lp161
I4179
aS'4'
aS'182'
p162
aasS'2VBF'
p163
(lp164
(lp165
I5925
aS'3'
aS'176'
p166
aa(lp167
I5928
aS'197'
p168
aS'314'
p169
aa(lp170
I5932
aS'389'
p171
aS'515'
p172
aasS'1D7W'
p173
(lp174
(lp175
I6795
aS'7'
aS'102'
p176
aa(lp177
I6795
aS'115'
p178
aS'549'
p179
aasS'4O1Z'
p180
(lp181
(lp182
I3392
aS'37'
p183
aS'68'
p184
aa(lp185
I6795
aS'225'
p186
aS'521'
p187
aasS'4Q45'
p188
(lp189
(lp190
I2188
aS'166'
p191
aS'197'
p192
aa(lp193
I5444
aS'235'
p194
aS'340'
p195
aa(lp196
I6340
aS'7'
aS'154'
p197
aasS'4JKU'
p198
(lp199
(lp200
I4800
aS'54'
p201
aS'313'
p202
aasS'2VBI'
p203
(lp204
(lp205
I5925
aS'4'
aS'175'
p206
aa(lp207
I5928
aS'199'
p208
aS'315'
p209
aa(lp210
I5932
aS'405'
p211
aS'529'
p212
aasS'4JKS'
p213
(lp214
(lp215
I4800
aS'54'
p216
aS'313'
p217
aasS'5COX'
p218
(lp219
(lp220
I3392
aS'37'
p221
aS'68'
p222
aa(lp223
I6795
aS'226'
p224
aS'524'
p225
aasS'3QL6'
p226
(lp227
(lp228
I6795
aS'21'
p229
aS'567'
p230
aasS'4O1L'
p231
(lp232
(lp233
I4800
aS'28'
p234
aS'331'
p235
aasS'3IAF'
p236
(lp237
(lp238
I5925
aS'5'
aS'173'
p239
aa(lp240
I5928
aS'194'
p241
aS'329'
p242
aa(lp243
I5932
aS'397'
p244
aS'542'
p245
aasS'3IAE'
p246
(lp247
(lp248
I5925
aS'5'
aS'173'
p249
aa(lp250
I5928
aS'194'
p251
aS'329'
p252
aa(lp253
I5932
aS'397'
p254
aS'542'
p255
aasS'3B35'
p256
(lp257
(lp258
I6193
aS'78'
p259
aS'272'
p260
aasS'3E9Y'
p261
(lp262
(lp263
I5925
aS'98'
p264
aS'261'
p265
aa(lp266
I5928
aS'290'
p267
aS'420'
p268
aa(lp269
I5932
aS'484'
p270
aS'639'
p271
aasS'4O1G'
p272
(lp273
(lp274
I4800
aS'15'
p275
aS'295'
p276
aasS'4QQ8'
p277
(lp278
(lp279
I5925
aS'5'
aS'173'
p280
aa(lp281
I5928
aS'194'
p282
aS'329'
p283
aa(lp284
I5932
aS'392'
p285
aS'542'
p286
aasS'2R5L'
p287
(lp288
(lp289
I6795
aS'21'
p290
aS'567'
p291
aasS'3LN1'
p292
(lp293
(lp294
I3392
aS'22'
p295
aS'53'
p296
aa(lp297
I6795
aS'212'
p298
aS'510'
p299
aasS'3LN0'
p300
(lp301
(lp302
I3392
aS'22'
p303
aS'53'
p304
aa(lp305
I6795
aS'212'
p306
aS'510'
p307
aasS'3BI0'
p308
(lp309
(lp310
I1653
aS'171'
p311
aS'257'
p312
aa(lp313
I4881
aS'627'
p314
aS'747'
p315
aa(lp316
I6193
aS'357'
p317
aS'481'
p318
aasS'4P4I'
p319
(lp320
(lp321
I1653
aS'171'
p322
aS'257'
p323
aa(lp324
I4881
aS'627'
p325
aS'747'
p326
aa(lp327
I6193
aS'357'
p328
aS'481'
p329
aasS'2BQ3'
p330
(lp331
(lp332
I2188
aS'169'
p333
aS'199'
p334
aa(lp335
I6340
aS'6'
aS'155'
p336
aasS'1JXL'
p337
(lp338
(lp339
I2188
aS'169'
p340
aS'199'
p341
aa(lp342
I6340
aS'6'
aS'155'
p343
aasS'3BF5'
p344
(lp345
(lp346
I4800
aS'1'
aS'255'
p347
aasS'4P4J'
p348
(lp349
(lp350
I1653
aS'171'
p351
aS'257'
p352
aa(lp353
I4881
aS'627'
p354
aS'747'
p355
aa(lp356
I6193
aS'357'
p357
aS'481'
p358
aasS'2AWD'
p359
(lp360
(lp361
I4800
aS'18'
p362
aS'293'
p363
aasS'3RBD'
p364
(lp365
(lp366
I2188
aS'169'
p367
aS'199'
p368
aa(lp369
I6340
aS'6'
aS'155'
p370
aasS'3KRQ'
p371
(lp372
(lp373
I6795
aS'21'
p374
aS'567'
p375
aasS'2AJR'
p376
(lp377
(lp378
I4800
aS'31'
p379
aS'297'
p380
aasS'3S9M'
p381
(lp382
(lp383
I1653
aS'227'
p384
aS'345'
p385
aa(lp386
I4529
aS'6'
aS'328'
p387
aa(lp388
I4529
aS'342'
p389
aS'664'
p390
aa(lp391
I4881
aS'637'
p392
aS'749'
p393
aa(lp394
I6193
aS'388'
p395
aS'576'
p396
aasS'3S9L'
p397
(lp398
(lp399
I1653
aS'227'
p400
aS'345'
p401
aa(lp402
I4529
aS'6'
aS'328'
p403
aa(lp404
I4529
aS'342'
p405
aS'664'
p406
aa(lp407
I4881
aS'637'
p408
aS'749'
p409
aa(lp410
I6193
aS'388'
p411
aS'576'
p412
aasS'3S9N'
p413
(lp414
(lp415
I1653
aS'227'
p416
aS'345'
p417
aa(lp418
I4529
aS'6'
aS'328'
p419
aa(lp420
I4529
aS'342'
p421
aS'664'
p422
aa(lp423
I4881
aS'637'
p424
aS'749'
p425
aa(lp426
I6193
aS'388'
p427
aS'576'
p428
aasS'1UPB'
p429
(lp430
(lp431
I5925
aS'13'
p432
aS'174'
p433
aa(lp434
I5928
aS'207'
p435
aS'344'
p436
aa(lp437
I5932
aS'410'
p438
aS'557'
p439
aasS'1UPC'
p440
(lp441
(lp442
I5925
aS'13'
p443
aS'174'
p444
aa(lp445
I5928
aS'207'
p446
aS'344'
p447
aa(lp448
I5932
aS'410'
p449
aS'557'
p450
aasS'4JYW'
p451
(lp452
(lp453
I1653
aS'171'
p454
aS'257'
p455
aa(lp456
I4881
aS'627'
p457
aS'747'
p458
aa(lp459
I6193
aS'357'
p460
aS'481'
p461
aasS'1UPA'
p462
(lp463
(lp464
I5925
aS'13'
p465
aS'174'
p466
aa(lp467
I5928
aS'207'
p468
aS'344'
p469
aa(lp470
I5932
aS'410'
p471
aS'557'
p472
aasS'3KK6'
p473
(lp474
(lp475
I3392
aS'37'
p476
aS'68'
p477
aa(lp478
I6795
aS'225'
p479
aS'521'
p480
aasS'2C6G'
p481
(lp482
(lp483
I1653
aS'171'
p484
aS'257'
p485
aa(lp486
I4881
aS'627'
p487
aS'747'
p488
aa(lp489
I6193
aS'357'
p490
aS'481'
p491
aasS'3FAQ'
p492
(lp493
(lp494
I6795
aS'21'
p495
aS'567'
p496
aasS'4KBE'
p497
(lp498
(lp499
I4800
aS'54'
p500
aS'313'
p501
aasS'2V78'
p502
(lp503
(lp504
I4800
aS'4'
aS'300'
p505
aasS'3HKC'
p506
(lp507
(lp508
I4179
aS'3'
aS'213'
p509
aa(lp510
I4179
aS'3'
aS'213'
p511
aa(lp512
I5776
aS'7'
aS'139'
p513
aa(lp514
I7068
aS'263'
p515
aS'391'
p516
aa(lp517
I7068
aS'263'
p518
aS'391'
p519
aasS'2GJ1'
p520
(lp521
(lp522
I6795
aS'7'
aS'552'
p523
aasS'4EJX'
p524
(lp525
(lp526
I2580
aS'204'
p527
aS'338'
p528
aa(lp529
I3227
aS'73'
p530
aS'183'
p531
aa(lp532
I3227
aS'788'
p533
aS'880'
p534
aa(lp535
I3228
aS'937'
p536
aS'1038'
p537
aa(lp538
I6795
aS'7'
aS'102'
p539
aa(lp540
I6795
aS'115'
p541
aS'549'
p542
aasS'3GO7'
p543
(lp544
(lp545
I4800
aS'15'
p546
aS'288'
p547
aasS'2JEG'
p548
(lp549
(lp550
I2188
aS'169'
p551
aS'199'
p552
aa(lp553
I6340
aS'6'
aS'155'
p554
aasS'3OGW'
p555
(lp556
(lp557
I6795
aS'21'
p558
aS'567'
p559
aasS'1V1S'
p560
(lp561
(lp562
I4800
aS'25'
p563
aS'291'
p564
aasS'1MYP'
p565
(lp566
(lp567
I6795
aS'7'
aS'102'
p568
aa(lp569
I6795
aS'115'
p570
aS'549'
p571
aasS'5AFI'
p572
(lp573
(lp574
I143
aS'8'
aS'223'
p575
aa(lp576
I145
aS'2'
aS'94'
p577
aa(lp578
I147
aS'10'
p579
aS'73'
p580
aa(lp581
I148
aS'3'
aS'91'
p582
aa(lp583
I1731
aS'20'
p584
aS'116'
p585
aa(lp586
I1732
aS'4'
aS'131'
p587
aa(lp588
I1733
aS'71'
p589
aS'139'
p590
aa(lp591
I1734
aS'5'
aS'101'
p592
aa(lp593
I1735
aS'15'
p594
aS'138'
p595
aa(lp596
I1739
aS'2'
aS'112'
p597
aa(lp598
I1787
aS'83'
p599
aS'176'
p600
aa(lp601
I2019
aS'6'
aS'52'
p602
aa(lp603
I2020
aS'1'
aS'65'
p604
aa(lp605
I2021
aS'4'
aS'53'
p606
aa(lp607
I2023
aS'1'
aS'38'
p608
aa(lp609
I2024
aS'1'
aS'44'
p610
aa(lp611
I2417
aS'7'
aS'36'
p612
aa(lp613
I2446
aS'119'
p614
aS'201'
p615
aa(lp616
I2577
aS'64'
p617
aS'148'
p618
aa(lp619
I2585
aS'1'
aS'45'
p620
aa(lp621
I2767
aS'4'
aS'91'
p622
aa(lp623
I2772
aS'10'
p624
aS'81'
p625
aa(lp626
I2772
aS'89'
p627
aS'163'
p628
aa(lp629
I2835
aS'96'
p630
aS'142'
p631
aa(lp632
I3071
aS'1'
aS'122'
p633
aa(lp634
I3544
aS'2'
aS'107'
p635
aa(lp636
I3545
aS'7'
aS'100'
p637
aa(lp638
I3547
aS'8'
aS'68'
p639
aa(lp640
I3548
aS'9'
aS'75'
p641
aa(lp642
I3549
aS'47'
p643
aS'100'
p644
aa(lp645
I3550
aS'8'
aS'87'
p646
aa(lp647
I3553
aS'18'
p648
aS'67'
p649
aa(lp650
I3809
aS'86'
p651
aS'156'
p652
aa(lp653
I4161
aS'2'
aS'117'
p654
aa(lp655
I4162
aS'28'
p656
aS'143'
p657
aa(lp658
I4492
aS'1'
aS'59'
p659
aa(lp660
I4654
aS'224'
p661
aS'292'
p662
aa(lp663
I4655
aS'297'
p664
aS'391'
p665
aa(lp666
I5041
aS'4'
aS'128'
p667
aa(lp668
I5042
aS'9'
aS'129'
p669
aa(lp670
I5050
aS'1'
aS'148'
p671
aa(lp672
I5273
aS'124'
p673
aS'248'
p674
aa(lp675
I5434
aS'1'
aS'56'
p676
aa(lp677
I5516
aS'23'
p678
aS'79'
p679
aa(lp680
I5517
aS'13'
p681
aS'198'
p682
aa(lp683
I5520
aS'27'
p684
aS'182'
p685
aa(lp686
I5521
aS'41'
p687
aS'116'
p688
aa(lp689
I5532
aS'5'
aS'122'
p690
aa(lp691
I5533
aS'7'
aS'78'
p692
aa(lp693
I5683
aS'8'
aS'66'
p694
aa(lp695
I5991
aS'2'
aS'61'
p696
aa(lp697
I5992
aS'4'
aS'60'
p698
aa(lp699
I5995
aS'2'
aS'108'
p700
aa(lp701
I5996
aS'5'
aS'108'
p702
aa(lp703
I5997
aS'9'
aS'93'
p704
aa(lp705
I6226
aS'9'
aS'200'
p706
aa(lp707
I6228
aS'1'
aS'96'
p708
aa(lp709
I6345
aS'37'
p710
aS'110'
p711
aa(lp712
I6403
aS'18'
p713
aS'127'
p714
aa(lp715
I6412
aS'2'
aS'80'
p716
aa(lp717
I7148
aS'2'
aS'83'
p718
aa(lp719
I7507
aS'3'
aS'55'
p720
aasS'3GUX'
p721
(lp722
(lp723
I6193
aS'106'
p724
aS'329'
p725
aasS'1VM7'
p726
(lp727
(lp728
I4800
aS'5'
aS'288'
p729
aasS'2AA0'
p730
(lp731
(lp732
I4800
aS'61'
p733
aS'355'
p734
aasS'1V1B'
p735
(lp736
(lp737
I4800
aS'25'
p738
aS'291'
p739
aasS'1V1A'
p740
(lp741
(lp742
I4800
aS'25'
p743
aS'291'
p744
aasS'1V19'
p745
(lp746
(lp747
I4800
aS'25'
p748
aS'291'
p749
aasS'2W7P'
p750
(lp751
(lp752
I2188
aS'340'
p753
aS'370'
p754
aa(lp755
I5444
aS'410'
p756
aS'521'
p757
aa(lp758
I6340
aS'106'
p759
aS'325'
p760
aasS'4JV1'
p761
(lp762
(lp763
I2188
aS'169'
p764
aS'199'
p765
aa(lp766
I6340
aS'6'
aS'155'
p767
aasS'4JV2'
p768
(lp769
(lp770
I2188
aS'169'
p771
aS'199'
p772
aa(lp773
I6340
aS'6'
aS'155'
p774
aasS'3EA4'
p775
(lp776
(lp777
I5925
aS'98'
p778
aS'261'
p779
aa(lp780
I5928
aS'290'
p781
aS'420'
p782
aa(lp783
I5932
aS'484'
p784
aS'639'
p785
aasS'2V9W'
p786
(lp787
(lp788
I2188
aS'169'
p789
aS'199'
p790
aa(lp791
I6340
aS'6'
aS'155'
p792
aasS'3BXM'
p793
(lp794
(lp795
I1653
aS'171'
p796
aS'257'
p797
aa(lp798
I4881
aS'627'
p799
aS'747'
p800
aa(lp801
I6193
aS'357'
p802
aS'481'
p803
aasS'2RDI'
p804
(lp805
(lp806
I2188
aS'169'
p807
aS'199'
p808
aa(lp809
I6340
aS'6'
aS'155'
p810
aasS'2RDJ'
p811
(lp812
(lp813
I2188
aS'169'
p814
aS'199'
p815
aa(lp816
I6340
aS'6'
aS'155'
p817
aasS'2W7O'
p818
(lp819
(lp820
I2188
aS'340'
p821
aS'370'
p822
aa(lp823
I5444
aS'410'
p824
aS'520'
p825
aa(lp826
I6340
aS'106'
p827
aS'325'
p828
aasS'3NYH'
p829
(lp830
(lp831
I6795
aS'21'
p832
aS'567'
p833
aasS'3OE1'
p834
(lp835
(lp836
I5925
aS'4'
aS'178'
p837
aa(lp838
I5928
aS'199'
p839
aS'305'
p840
aa(lp841
I5932
aS'409'
p842
aS'537'
p843
aasS'2GJM'
p844
(lp845
(lp846
I6795
aS'7'
aS'552'
p847
aasS'1OFU'
p848
(lp849
(lp850
I2667
aS'58'
p851
aS'133'
p852
aa(lp853
I4179
aS'14'
p854
aS'173'
p855
aa(lp856
I6103
aS'222'
p857
aS'316'
p858
aasS'4F4W'
p859
(lp860
(lp861
I2188
aS'169'
p862
aS'200'
p863
aa(lp864
I6340
aS'6'
aS'156'
p865
aasS'1DNU'
p866
(lp867
(lp868
I6795
aS'7'
aS'102'
p869
aa(lp870
I6795
aS'115'
p871
aS'549'
p872
aasS'1DNW'
p873
(lp874
(lp875
I6795
aS'7'
aS'102'
p876
aa(lp877
I6795
aS'115'
p878
aS'549'
p879
aasS'3OLT'
p880
(lp881
(lp882
I3392
aS'37'
p883
aS'68'
p884
aa(lp885
I6795
aS'226'
p886
aS'524'
p887
aasS'3OLU'
p888
(lp889
(lp890
I3392
aS'37'
p891
aS'68'
p892
aa(lp893
I6795
aS'226'
p894
aS'524'
p895
aasS'2ASD'
p896
(lp897
(lp898
I2188
aS'169'
p899
aS'199'
p900
aa(lp901
I6340
aS'6'
aS'155'
p902
aasS'1T9A'
p903
(lp904
(lp905
I5925
aS'93'
p906
aS'256'
p907
aa(lp908
I5928
aS'289'
p909
aS'431'
p910
aa(lp911
I5932
aS'496'
p912
aS'643'
p913
aasS'3LJS'
p914
(lp915
(lp916
I4800
aS'13'
p917
aS'325'
p918
aasS'2ASL'
p919
(lp920
(lp921
I2188
aS'169'
p922
aS'199'
p923
aa(lp924
I6340
aS'6'
aS'155'
p925
aasS'2ASJ'
p926
(lp927
(lp928
I2188
aS'169'
p929
aS'199'
p930
aa(lp931
I6340
aS'6'
aS'155'
p932
aasS'1T9C'
p933
(lp934
(lp935
I5925
aS'93'
p936
aS'256'
p937
aa(lp938
I5928
aS'289'
p939
aS'431'
p940
aa(lp941
I5932
aS'496'
p942
aS'643'
p943
aasS'4MCP'
p944
(lp945
(lp946
I1653
aS'171'
p947
aS'257'
p948
aa(lp949
I4881
aS'627'
p950
aS'747'
p951
aa(lp952
I6193
aS'357'
p953
aS'481'
p954
aasS'4Q9D'
p955
(lp956
(lp957
I5925
aS'6'
aS'170'
p958
aa(lp959
I5928
aS'191'
p960
aS'325'
p961
aa(lp962
I5932
aS'390'
p963
aS'527'
p964
aasS'3D7D'
p965
(lp966
(lp967
I1653
aS'171'
p968
aS'257'
p969
aa(lp970
I4881
aS'627'
p971
aS'747'
p972
aa(lp973
I6193
aS'357'
p974
aS'481'
p975
aasS'4K9Q'
p976
(lp977
(lp978
I5925
aS'3'
aS'168'
p979
aa(lp980
I5928
aS'187'
p981
aS'319'
p982
aa(lp983
I5932
aS'380'
p984
aS'522'
p985
aasS'3D7F'
p986
(lp987
(lp988
I1653
aS'171'
p989
aS'257'
p990
aa(lp991
I4881
aS'627'
p992
aS'747'
p993
aa(lp994
I6193
aS'357'
p995
aS'481'
p996
aasS'3D7G'
p997
(lp998
(lp999
I1653
aS'171'
p1000
aS'257'
p1001
aa(lp1002
I4881
aS'627'
p1003
aS'747'
p1004
aa(lp1005
I6193
aS'357'
p1006
aS'481'
p1007
aasS'3IWW'
p1008
(lp1009
(lp1010
I1653
aS'171'
p1011
aS'257'
p1012
aa(lp1013
I4881
aS'627'
p1014
aS'747'
p1015
aa(lp1016
I6193
aS'357'
p1017
aS'481'
p1018
aasS'2O86'
p1019
(lp1020
(lp1021
I6795
aS'21'
p1022
aS'567'
p1023
aasS'3D7H'
p1024
(lp1025
(lp1026
I1653
aS'171'
p1027
aS'257'
p1028
aa(lp1029
I4881
aS'627'
p1030
aS'747'
p1031
aa(lp1032
I6193
aS'357'
p1033
aS'481'
p1034
aasS'3D7K'
p1035
(lp1036
(lp1037
I5925
aS'5'
aS'173'
p1038
aa(lp1039
I5928
aS'194'
p1040
aS'329'
p1041
aa(lp1042
I5932
aS'397'
p1043
aS'542'
p1044
aasS'4K9C'
p1045
(lp1046
(lp1047
I4800
aS'54'
p1048
aS'313'
p1049
aasS'3PB9'
p1050
(lp1051
(lp1052
I6193
aS'150'
p1053
aS'375'
p1054
aasS'3PB8'
p1055
(lp1056
(lp1057
I6193
aS'150'
p1058
aS'375'
p1059
aasS'4B46'
p1060
(lp1061
(lp1062
I4179
aS'3'
aS'174'
p1063
aasS'3PB6'
p1064
(lp1065
(lp1066
I6193
aS'150'
p1067
aS'375'
p1068
aasS'3PB4'
p1069
(lp1070
(lp1071
I6193
aS'150'
p1072
aS'375'
p1073
aasS'4K9L'
p1074
(lp1075
(lp1076
I5925
aS'9'
aS'169'
p1077
aa(lp1078
I5928
aS'193'
p1079
aS'325'
p1080
aa(lp1081
I5932
aS'380'
p1082
aS'521'
p1083
aasS'4K9M'
p1084
(lp1085
(lp1086
I5925
aS'9'
aS'169'
p1087
aa(lp1088
I5928
aS'193'
p1089
aS'325'
p1090
aa(lp1091
I5932
aS'380'
p1092
aS'521'
p1093
aasS'4K9N'
p1094
(lp1095
(lp1096
I5925
aS'9'
aS'169'
p1097
aa(lp1098
I5928
aS'193'
p1099
aS'325'
p1100
aa(lp1101
I5932
aS'380'
p1102
aS'521'
p1103
aasS'3B7I'
p1104
(lp1105
(lp1106
I6193
aS'78'
p1107
aS'272'
p1108
aasS'3NBW'
p1109
(lp1110
(lp1111
I4800
aS'5'
aS'289'
p1112
aasS'3NBV'
p1113
(lp1114
(lp1115
I4800
aS'5'
aS'289'
p1116
aasS'3PBE'
p1117
(lp1118
(lp1119
I6193
aS'122'
p1120
aS'354'
p1121
aasS'2JLA'
p1122
(lp1123
(lp1124
I5925
aS'9'
aS'141'
p1125
aa(lp1126
I5932
aS'414'
p1127
aS'535'
p1128
aa(lp1129
I6972
aS'184'
p1130
aS'388'
p1131
aasS'2JLC'
p1132
(lp1133
(lp1134
I5925
aS'9'
aS'141'
p1135
aa(lp1136
I5932
aS'414'
p1137
aS'535'
p1138
aa(lp1139
I6972
aS'184'
p1140
aS'388'
p1141
aasS'1YHZ'
p1142
(lp1143
(lp1144
I5925
aS'98'
p1145
aS'261'
p1146
aa(lp1147
I5928
aS'290'
p1148
aS'420'
p1149
aa(lp1150
I5932
aS'484'
p1151
aS'639'
p1152
aasS'1YHY'
p1153
(lp1154
(lp1155
I5925
aS'98'
p1156
aS'261'
p1157
aa(lp1158
I5928
aS'290'
p1159
aS'420'
p1160
aa(lp1161
I5932
aS'484'
p1162
aS'639'
p1163
aasS'4JD5'
p1164
(lp1165
(lp1166
I5925
aS'9'
aS'169'
p1167
aa(lp1168
I5928
aS'193'
p1169
aS'325'
p1170
aa(lp1171
I5932
aS'380'
p1172
aS'521'
p1173
aasS'3RR3'
p1174
(lp1175
(lp1176
I3392
aS'37'
p1177
aS'68'
p1178
aa(lp1179
I6795
aS'226'
p1180
aS'524'
p1181
aasS'4F4Z'
p1182
(lp1183
(lp1184
I2188
aS'169'
p1185
aS'199'
p1186
aa(lp1187
I6340
aS'6'
aS'155'
p1188
aasS'2JEF'
p1189
(lp1190
(lp1191
I2188
aS'169'
p1192
aS'199'
p1193
aa(lp1194
I6340
aS'6'
aS'155'
p1195
aasS'4F4X'
p1196
(lp1197
(lp1198
I2188
aS'169'
p1199
aS'200'
p1200
aa(lp1201
I6340
aS'6'
aS'156'
p1202
aasS'4F4Y'
p1203
(lp1204
(lp1205
I2188
aS'169'
p1206
aS'200'
p1207
aa(lp1208
I6340
aS'6'
aS'156'
p1209
aasS'2HQQ'
p1210
(lp1211
(lp1212
I4800
aS'4'
aS'289'
p1213
aasS'4E6E'
p1214
(lp1215
(lp1216
I4179
aS'11'
p1217
aS'167'
p1218
aa(lp1219
I6103
aS'219'
p1220
aS'312'
p1221
aasS'1IM4'
p1222
(lp1223
(lp1224
I2188
aS'169'
p1225
aS'200'
p1226
aa(lp1227
I2188
aS'169'
p1228
aS'200'
p1229
aa(lp1230
I6340
aS'6'
aS'156'
p1231
aa(lp1232
I6340
aS'6'
aS'156'
p1233
aasS'3UMO'
p1234
(lp1235
(lp1236
I4800
aS'12'
p1237
aS'296'
p1238
aasS'2JEJ'
p1239
(lp1240
(lp1241
I2188
aS'169'
p1242
aS'199'
p1243
aa(lp1244
I6340
aS'6'
aS'155'
p1245
aasS'2JEI'
p1246
(lp1247
(lp1248
I2188
aS'169'
p1249
aS'199'
p1250
aa(lp1251
I2188
aS'169'
p1252
aS'199'
p1253
aa(lp1254
I6340
aS'6'
aS'155'
p1255
aa(lp1256
I6340
aS'6'
aS'155'
p1257
aasS'1RQ2'
p1258
(lp1259
(lp1260
I4179
aS'11'
p1261
aS'169'
p1262
aa(lp1263
I6103
aS'219'
p1264
aS'312'
p1265
aasS'1RQ7'
p1266
(lp1267
(lp1268
I4179
aS'11'
p1269
aS'169'
p1270
aa(lp1271
I6103
aS'219'
p1272
aS'312'
p1273
aasS'2V4Q'
p1274
(lp1275
(lp1276
I2188
aS'169'
p1277
aS'199'
p1278
aa(lp1279
I6340
aS'6'
aS'155'
p1280
aasS'2V4R'
p1281
(lp1282
(lp1283
I2188
aS'170'
p1284
aS'200'
p1285
aa(lp1286
I6340
aS'7'
aS'156'
p1287
aasS'3NC9'
p1288
(lp1289
(lp1290
I4800
aS'5'
aS'289'
p1291
aasS'2OR4'
p1292
(lp1293
(lp1294
I1653
aS'171'
p1295
aS'257'
p1296
aa(lp1297
I4881
aS'627'
p1298
aS'747'
p1299
aa(lp1300
I6193
aS'357'
p1301
aS'481'
p1302
aasS'2VBG'
p1303
(lp1304
(lp1305
I5925
aS'3'
aS'176'
p1306
aa(lp1307
I5928
aS'197'
p1308
aS'314'
p1309
aa(lp1310
I5932
aS'389'
p1311
aS'515'
p1312
aasS'4XCK'
p1313
(lp1314
(lp1315
I4800
aS'1'
aS'294'
p1316
aasS'2PT3'
p1317
(lp1318
(lp1319
I6795
aS'21'
p1320
aS'567'
p1321
aasS'4FBE'
p1322
(lp1323
(lp1324
I6193
aS'119'
p1325
aS'342'
p1326
aasS'4RUT'
p1327
(lp1328
(lp1329
I3392
aS'37'
p1330
aS'68'
p1331
aa(lp1332
I6795
aS'226'
p1333
aS'524'
p1334
aasS'3GIM'
p1335
(lp1336
(lp1337
I2188
aS'169'
p1338
aS'199'
p1339
aa(lp1340
I6340
aS'6'
aS'155'
p1341
aasS'3GIL'
p1342
(lp1343
(lp1344
I2188
aS'169'
p1345
aS'199'
p1346
aa(lp1347
I6340
aS'6'
aS'155'
p1348
aasS'4FBT'
p1349
(lp1350
(lp1351
I2188
aS'169'
p1352
aS'199'
p1353
aa(lp1354
I6340
aS'6'
aS'155'
p1355
aasS'4FBU'
p1356
(lp1357
(lp1358
I2188
aS'169'
p1359
aS'199'
p1360
aa(lp1361
I6340
aS'6'
aS'155'
p1362
aasS'3GIK'
p1363
(lp1364
(lp1365
I2188
aS'169'
p1366
aS'199'
p1367
aa(lp1368
I6340
aS'6'
aS'155'
p1369
aasS'3GIJ'
p1370
(lp1371
(lp1372
I2188
aS'169'
p1373
aS'199'
p1374
aa(lp1375
I6340
aS'6'
aS'155'
p1376
aasS'4PH9'
p1377
(lp1378
(lp1379
I3392
aS'37'
p1380
aS'68'
p1381
aa(lp1382
I6795
aS'227'
p1383
aS'525'
p1384
aasS'4RUC'
p1385
(lp1386
(lp1387
I2188
aS'169'
p1388
aS'199'
p1389
aa(lp1390
I6340
aS'6'
aS'155'
p1391
aasS'3LQ1'
p1392
(lp1393
(lp1394
I5925
aS'13'
p1395
aS'185'
p1396
aa(lp1397
I5932
aS'438'
p1398
aS'554'
p1399
aa(lp1400
I6972
aS'205'
p1401
aS'405'
p1402
aasS'3SJX'
p1403
(lp1404
(lp1405
I1653
aS'171'
p1406
aS'257'
p1407
aa(lp1408
I4881
aS'627'
p1409
aS'747'
p1410
aa(lp1411
I6193
aS'357'
p1412
aS'481'
p1413
aasS'4N7A'
p1414
(lp1415
(lp1416
I6795
aS'21'
p1417
aS'567'
p1418
aasS'3WGK'
p1419
(lp1420
(lp1421
I4179
aS'14'
p1422
aS'173'
p1423
aa(lp1424
I6103
aS'220'
p1425
aS'314'
p1426
aasS'3WGJ'
p1427
(lp1428
(lp1429
I4179
aS'14'
p1430
aS'173'
p1431
aa(lp1432
I6103
aS'222'
p1433
aS'315'
p1434
aasS'4HHR'
p1435
(lp1436
(lp1437
I6795
aS'90'
p1438
aS'609'
p1439
aasS'4HHS'
p1440
(lp1441
(lp1442
I6795
aS'90'
p1443
aS'609'
p1444
aasS'3WGN'
p1445
(lp1446
(lp1447
I4179
aS'14'
p1448
aS'173'
p1449
aa(lp1450
I6103
aS'222'
p1451
aS'315'
p1452
aasS'3WGM'
p1453
(lp1454
(lp1455
I4179
aS'14'
p1456
aS'173'
p1457
aa(lp1458
I6103
aS'220'
p1459
aS'312'
p1460
aasS'3WGL'
p1461
(lp1462
(lp1463
I4179
aS'14'
p1464
aS'173'
p1465
aa(lp1466
I6103
aS'220'
p1467
aS'313'
p1468
aasS'1Q4G'
p1469
(lp1470
(lp1471
I3392
aS'37'
p1472
aS'68'
p1473
aa(lp1474
I3392
aS'37'
p1475
aS'68'
p1476
aa(lp1477
I6795
aS'225'
p1478
aS'521'
p1479
aa(lp1480
I6795
aS'225'
p1481
aS'521'
p1482
aasS'6COX'
p1483
(lp1484
(lp1485
I3392
aS'37'
p1486
aS'68'
p1487
aa(lp1488
I6795
aS'226'
p1489
aS'524'
p1490
aasS'4OC3'
p1491
(lp1492
(lp1493
I1653
aS'171'
p1494
aS'257'
p1495
aa(lp1496
I4881
aS'627'
p1497
aS'747'
p1498
aa(lp1499
I6193
aS'357'
p1500
aS'481'
p1501
aasS'4OC0'
p1502
(lp1503
(lp1504
I1653
aS'171'
p1505
aS'257'
p1506
aa(lp1507
I4881
aS'627'
p1508
aS'747'
p1509
aa(lp1510
I6193
aS'357'
p1511
aS'481'
p1512
aasS'4OC1'
p1513
(lp1514
(lp1515
I1653
aS'171'
p1516
aS'257'
p1517
aa(lp1518
I4881
aS'627'
p1519
aS'747'
p1520
aa(lp1521
I6193
aS'357'
p1522
aS'481'
p1523
aasS'3ZS0'
p1524
(lp1525
(lp1526
I6795
aS'7'
aS'102'
p1527
aa(lp1528
I6795
aS'115'
p1529
aS'549'
p1530
aasS'4OC4'
p1531
(lp1532
(lp1533
I1653
aS'171'
p1534
aS'257'
p1535
aa(lp1536
I4881
aS'627'
p1537
aS'747'
p1538
aa(lp1539
I6193
aS'357'
p1540
aS'481'
p1541
aasS'4OC5'
p1542
(lp1543
(lp1544
I1653
aS'171'
p1545
aS'257'
p1546
aa(lp1547
I4881
aS'627'
p1548
aS'747'
p1549
aa(lp1550
I6193
aS'357'
p1551
aS'481'
p1552
aasS'4MSF'
p1553
(lp1554
(lp1555
I6795
aS'21'
p1556
aS'567'
p1557
aasS'2IMW'
p1558
(lp1559
(lp1560
I2188
aS'169'
p1561
aS'199'
p1562
aa(lp1563
I6340
aS'6'
aS'155'
p1564
aasS'1S10'
p1565
(lp1566
(lp1567
I2188
aS'169'
p1568
aS'199'
p1569
aa(lp1570
I6340
aS'6'
aS'155'
p1571
aasS'3HIC'
p1572
(lp1573
(lp1574
I4800
aS'21'
p1575
aS'285'
p1576
aasS'4G3I'
p1577
(lp1578
(lp1579
I2188
aS'169'
p1580
aS'199'
p1581
aa(lp1582
I6340
aS'6'
aS'155'
p1583
aasS'4W9Y'
p1584
(lp1585
(lp1586
I1653
aS'171'
p1587
aS'257'
p1588
aa(lp1589
I4881
aS'627'
p1590
aS'747'
p1591
aa(lp1592
I6193
aS'357'
p1593
aS'481'
p1594
aasS'4NLG'
p1595
(lp1596
(lp1597
I2188
aS'169'
p1598
aS'200'
p1599
aa(lp1600
I6340
aS'6'
aS'156'
p1601
aasS'2IHV'
p1602
(lp1603
(lp1604
I5925
aS'13'
p1605
aS'174'
p1606
aa(lp1607
I5928
aS'207'
p1608
aS'344'
p1609
aa(lp1610
I5932
aS'410'
p1611
aS'557'
p1612
aasS'2QRB'
p1613
(lp1614
(lp1615
I6795
aS'21'
p1616
aS'567'
p1617
aasS'2XCA'
p1618
(lp1619
(lp1620
I2188
aS'169'
p1621
aS'199'
p1622
aa(lp1623
I6340
aS'6'
aS'155'
p1624
aasS'4KWE'
p1625
(lp1626
(lp1627
I4179
aS'11'
p1628
aS'169'
p1629
aa(lp1630
I6103
aS'219'
p1631
aS'312'
p1632
aasS'4B45'
p1633
(lp1634
(lp1635
I4179
aS'3'
aS'168'
p1636
aasS'4GP9'
p1637
(lp1638
(lp1639
I5925
aS'9'
aS'169'
p1640
aa(lp1641
I5928
aS'193'
p1642
aS'325'
p1643
aa(lp1644
I5932
aS'380'
p1645
aS'521'
p1646
aasS'2PRQ'
p1647
(lp1648
(lp1649
I6193
aS'78'
p1650
aS'272'
p1651
aasS'3NAK'
p1652
(lp1653
(lp1654
I6795
aS'21'
p1655
aS'567'
p1656
aasS'1CX8'
p1657
(lp1658
(lp1659
I1653
aS'227'
p1660
aS'345'
p1661
aa(lp1662
I4881
aS'637'
p1663
aS'749'
p1664
aa(lp1665
I6193
aS'388'
p1666
aS'576'
p1667
aasS'3KZH'
p1668
(lp1669
(lp1670
I4800
aS'8'
aS'296'
p1671
aasS'1CX2'
p1672
(lp1673
(lp1674
I3392
aS'37'
p1675
aS'68'
p1676
aa(lp1677
I6795
aS'226'
p1678
aS'524'
p1679
aasS'4EUM'
p1680
(lp1681
(lp1682
I4800
aS'2'
aS'288'
p1683
aasS'4DC3'
p1684
(lp1685
(lp1686
I4800
aS'38'
p1687
aS'338'
p1688
aasS'1IA0'
p1689
(lp1690
(lp1691
I4179
aS'3'
aS'213'
p1692
aa(lp1693
I4179
aS'3'
aS'213'
p1694
aa(lp1695
I4645
aS'11'
p1696
aS'354'
p1697
aa(lp1698
I7068
aS'263'
p1699
aS'391'
p1700
aa(lp1701
I7068
aS'263'
p1702
aS'391'
p1703
aasS'3PGH'
p1704
(lp1705
(lp1706
I3392
aS'37'
p1707
aS'68'
p1708
aa(lp1709
I6795
aS'226'
p1710
aS'524'
p1711
aasS'1CQE'
p1712
(lp1713
(lp1714
I3392
aS'37'
p1715
aS'68'
p1716
aa(lp1717
I6795
aS'225'
p1718
aS'521'
p1719
aasS'1PTH'
p1720
(lp1721
(lp1722
I3392
aS'37'
p1723
aS'68'
p1724
aa(lp1725
I6795
aS'225'
p1726
aS'521'
p1727
aasS'3N8W'
p1728
(lp1729
(lp1730
I3392
aS'37'
p1731
aS'68'
p1732
aa(lp1733
I3392
aS'37'
p1734
aS'68'
p1735
aa(lp1736
I6795
aS'225'
p1737
aS'521'
p1738
aa(lp1739
I6795
aS'225'
p1740
aS'521'
p1741
aasS'3N8V'
p1742
(lp1743
(lp1744
I3392
aS'37'
p1745
aS'68'
p1746
aa(lp1747
I6795
aS'225'
p1748
aS'521'
p1749
aasS'1KEK'
p1750
(lp1751
(lp1752
I2664
aS'16'
p1753
aS'247'
p1754
aa(lp1755
I2837
aS'630'
p1756
aS'678'
p1757
aa(lp1758
I3964
aS'426'
p1759
aS'610'
p1760
aa(lp1761
I5049
aS'688'
p1762
aS'756'
p1763
aa(lp1764
I5932
aS'951'
p1765
aS'1066'
p1766
aasS'3N8Z'
p1767
(lp1768
(lp1769
I3392
aS'37'
p1770
aS'68'
p1771
aa(lp1772
I6795
aS'225'
p1773
aS'521'
p1774
aasS'3N8Y'
p1775
(lp1776
(lp1777
I3392
aS'37'
p1778
aS'68'
p1779
aa(lp1780
I3392
aS'37'
p1781
aS'68'
p1782
aa(lp1783
I6795
aS'225'
p1784
aS'521'
p1785
aa(lp1786
I6795
aS'225'
p1787
aS'521'
p1788
aasS'3N8X'
p1789
(lp1790
(lp1791
I3392
aS'37'
p1792
aS'68'
p1793
aa(lp1794
I6795
aS'225'
p1795
aS'521'
p1796
aasS'4E1G'
p1797
(lp1798
(lp1799
I3392
aS'37'
p1800
aS'68'
p1801
aa(lp1802
I6795
aS'226'
p1803
aS'524'
p1804
aasS'4QYQ'
p1805
(lp1806
(lp1807
I6795
aS'21'
p1808
aS'567'
p1809
aasS'4IR1'
p1810
(lp1811
(lp1812
I2188
aS'166'
p1813
aS'197'
p1814
aa(lp1815
I5444
aS'235'
p1816
aS'341'
p1817
aa(lp1818
I6340
aS'7'
aS'154'
p1819
aasS'4F9U'
p1820
(lp1821
(lp1822
I6193
aS'96'
p1823
aS'322'
p1824
aasS'1EQH'
p1825
(lp1826
(lp1827
I3392
aS'37'
p1828
aS'68'
p1829
aa(lp1830
I6795
aS'225'
p1831
aS'521'
p1832
aasS'4D5E'
p1833
(lp1834
(lp1835
I5925
aS'5'
aS'173'
p1836
aa(lp1837
I5928
aS'195'
p1838
aS'329'
p1839
aa(lp1840
I5932
aS'397'
p1841
aS'543'
p1842
aasS'4F9V'
p1843
(lp1844
(lp1845
I6193
aS'96'
p1846
aS'322'
p1847
aasS'2R6R'
p1848
(lp1849
(lp1850
I4179
aS'9'
aS'169'
p1851
aa(lp1852
I6103
aS'218'
p1853
aS'312'
p1854
aasS'3GII'
p1855
(lp1856
(lp1857
I2188
aS'169'
p1858
aS'199'
p1859
aa(lp1860
I6340
aS'6'
aS'155'
p1861
aasS'1EQG'
p1862
(lp1863
(lp1864
I3392
aS'37'
p1865
aS'68'
p1866
aa(lp1867
I6795
aS'225'
p1868
aS'521'
p1869
aasS'4JZ0'
p1870
(lp1871
(lp1872
I1653
aS'171'
p1873
aS'257'
p1874
aa(lp1875
I4881
aS'627'
p1876
aS'747'
p1877
aa(lp1878
I6193
aS'357'
p1879
aS'481'
p1880
aasS'4IRC'
p1881
(lp1882
(lp1883
I2188
aS'166'
p1884
aS'197'
p1885
aa(lp1886
I5444
aS'235'
p1887
aS'340'
p1888
aa(lp1889
I6340
aS'7'
aS'154'
p1890
aasS'2VJY'
p1891
(lp1892
(lp1893
I5925
aS'5'
aS'177'
p1894
aa(lp1895
I5928
aS'201'
p1896
aS'326'
p1897
aa(lp1898
I5932
aS'397'
p1899
aS'508'
p1900
aasS'4KAL'
p1901
(lp1902
(lp1903
I4800
aS'54'
p1904
aS'313'
p1905
aasS'3MQE'
p1906
(lp1907
(lp1908
I3392
aS'22'
p1909
aS'53'
p1910
aa(lp1911
I6795
aS'212'
p1912
aS'510'
p1913
aasS'4IRD'
p1914
(lp1915
(lp1916
I2188
aS'166'
p1917
aS'197'
p1918
aa(lp1919
I5444
aS'235'
p1920
aS'340'
p1921
aa(lp1922
I6340
aS'7'
aS'154'
p1923
aasS'4IRK'
p1924
(lp1925
(lp1926
I2188
aS'166'
p1927
aS'197'
p1928
aa(lp1929
I5444
aS'235'
p1930
aS'340'
p1931
aa(lp1932
I6340
aS'7'
aS'154'
p1933
aasS'4TQS'
p1934
(lp1935
(lp1936
I2188
aS'169'
p1937
aS'199'
p1938
aa(lp1939
I6340
aS'6'
aS'155'
p1940
aasS'4LBX'
p1941
(lp1942
(lp1943
I4800
aS'54'
p1944
aS'313'
p1945
aasS'4KAD'
p1946
(lp1947
(lp1948
I4800
aS'54'
p1949
aS'313'
p1950
aasS'3KRK'
p1951
(lp1952
(lp1953
I3392
aS'37'
p1954
aS'68'
p1955
aa(lp1956
I6795
aS'226'
p1957
aS'525'
p1958
aasS'4LBG'
p1959
(lp1960
(lp1961
I4800
aS'54'
p1962
aS'313'
p1963
aasS'4P4E'
p1964
(lp1965
(lp1966
I1653
aS'171'
p1967
aS'257'
p1968
aa(lp1969
I4881
aS'627'
p1970
aS'747'
p1971
aa(lp1972
I6193
aS'357'
p1973
aS'481'
p1974
aasS'2HLZ'
p1975
(lp1976
(lp1977
I4800
aS'5'
aS'289'
p1978
aasS'3CQD'
p1979
(lp1980
(lp1981
I4800
aS'12'
p1982
aS'296'
p1983
aasS'1DDX'
p1984
(lp1985
(lp1986
I3392
aS'37'
p1987
aS'68'
p1988
aa(lp1989
I6795
aS'226'
p1990
aS'524'
p1991
aasS'2ATL'
p1992
(lp1993
(lp1994
I2188
aS'169'
p1995
aS'199'
p1996
aa(lp1997
I6340
aS'6'
aS'155'
p1998
aasS'2OJV'
p1999
(lp2000
(lp2001
I6795
aS'21'
p2002
aS'567'
p2003
aasS'1CXP'
p2004
(lp2005
(lp2006
I6795
aS'7'
aS'102'
p2007
aa(lp2008
I6795
aS'115'
p2009
aS'549'
p2010
aasS'3IIB'
p2011
(lp2012
(lp2013
I1653
aS'144'
p2014
aS'232'
p2015
aa(lp2016
I6193
aS'260'
p2017
aS'449'
p2018
aasS'3J4S'
p2019
(lp2020
(lp2021
I4179
aS'127'
p2022
aS'186'
p2023
aasS'3FNL'
p2024
(lp2025
(lp2026
I6795
aS'21'
p2027
aS'567'
p2028
aasS'4RRX'
p2029
(lp2030
(lp2031
I3392
aS'37'
p2032
aS'68'
p2033
aa(lp2034
I6795
aS'226'
p2035
aS'524'
p2036
aasS'4RRY'
p2037
(lp2038
(lp2039
I3392
aS'37'
p2040
aS'68'
p2041
aa(lp2042
I6795
aS'226'
p2043
aS'524'
p2044
aasS'4RRZ'
p2045
(lp2046
(lp2047
I3392
aS'37'
p2048
aS'68'
p2049
aa(lp2050
I6795
aS'226'
p2051
aS'524'
p2052
aasS'3J4T'
p2053
(lp2054
(lp2055
I4179
aS'127'
p2056
aS'186'
p2057
aasS'4DL1'
p2058
(lp2059
(lp2060
I6795
aS'7'
aS'102'
p2061
aa(lp2062
I6795
aS'115'
p2063
aS'549'
p2064
aasS'4RRW'
p2065
(lp2066
(lp2067
I3392
aS'37'
p2068
aS'68'
p2069
aa(lp2070
I6795
aS'226'
p2071
aS'524'
p2072
aasS'4QJQ'
p2073
(lp2074
(lp2075
I6795
aS'21'
p2076
aS'567'
p2077
aasS'4EBU'
p2078
(lp2079
(lp2080
I4800
aS'2'
aS'294'
p2081
aasS'4QWD'
p2082
(lp2083
(lp2084
I2188
aS'169'
p2085
aS'199'
p2086
aa(lp2087
I6340
aS'6'
aS'155'
p2088
aasS'4QWE'
p2089
(lp2090
(lp2091
I2188
aS'169'
p2092
aS'199'
p2093
aa(lp2094
I6340
aS'6'
aS'155'
p2095
aasS'4QWA'
p2096
(lp2097
(lp2098
I2188
aS'169'
p2099
aS'199'
p2100
aa(lp2101
I6340
aS'6'
aS'155'
p2102
aasS'4QWB'
p2103
(lp2104
(lp2105
I2188
aS'169'
p2106
aS'199'
p2107
aa(lp2108
I6340
aS'6'
aS'155'
p2109
aasS'3PZP'
p2110
(lp2111
(lp2112
I2188
aS'340'
p2113
aS'370'
p2114
aa(lp2115
I5444
aS'410'
p2116
aS'520'
p2117
aa(lp2118
I6340
aS'106'
p2119
aS'325'
p2120
aasS'4KSZ'
p2121
(lp2122
(lp2123
I6795
aS'21'
p2124
aS'567'
p2125
aasS'3OTX'
p2126
(lp2127
(lp2128
I4800
aS'38'
p2129
aS'338'
p2130
aasS'4Y55'
p2131
(lp2132
(lp2133
I6795
aS'21'
p2134
aS'567'
p2135
aasS'3MDL'
p2136
(lp2137
(lp2138
I3392
aS'37'
p2139
aS'68'
p2140
aa(lp2141
I6795
aS'226'
p2142
aS'524'
p2143
aasS'4E84'
p2144
(lp2145
(lp2146
I4800
aS'19'
p2147
aS'308'
p2148
aasS'3KHR'
p2149
(lp2150
(lp2151
I2188
aS'169'
p2152
aS'199'
p2153
aa(lp2154
I6340
aS'6'
aS'155'
p2155
aasS'3UMP'
p2156
(lp2157
(lp2158
I4800
aS'12'
p2159
aS'296'
p2160
aasS'4P4D'
p2161
(lp2162
(lp2163
I1653
aS'171'
p2164
aS'257'
p2165
aa(lp2166
I4881
aS'627'
p2167
aS'747'
p2168
aa(lp2169
I6193
aS'357'
p2170
aS'481'
p2171
aasS'1LII'
p2172
(lp2173
(lp2174
I4800
aS'62'
p2175
aS'355'
p2176
aasS'4P4F'
p2177
(lp2178
(lp2179
I1653
aS'171'
p2180
aS'257'
p2181
aa(lp2182
I4881
aS'627'
p2183
aS'747'
p2184
aa(lp2185
I6193
aS'357'
p2186
aS'481'
p2187
aasS'1LIK'
p2188
(lp2189
(lp2190
I4800
aS'62'
p2191
aS'355'
p2192
aasS'4P4B'
p2193
(lp2194
(lp2195
I1653
aS'171'
p2196
aS'257'
p2197
aa(lp2198
I4881
aS'627'
p2199
aS'747'
p2200
aa(lp2201
I6193
aS'357'
p2202
aS'481'
p2203
aasS'1LIO'
p2204
(lp2205
(lp2206
I4800
aS'61'
p2207
aS'355'
p2208
aasS'1DIY'
p2209
(lp2210
(lp2211
I3392
aS'37'
p2212
aS'68'
p2213
aa(lp2214
I6795
aS'225'
p2215
aS'521'
p2216
aasS'1RLU'
p2217
(lp2218
(lp2219
I4179
aS'11'
p2220
aS'169'
p2221
aa(lp2222
I6103
aS'219'
p2223
aS'312'
p2224
aasS'3BI1'
p2225
(lp2226
(lp2227
I1653
aS'171'
p2228
aS'257'
p2229
aa(lp2230
I4881
aS'627'
p2231
aS'747'
p2232
aa(lp2233
I6193
aS'357'
p2234
aS'481'
p2235
aasS'2BR0'
p2236
(lp2237
(lp2238
I2188
aS'169'
p2239
aS'199'
p2240
aa(lp2241
I6340
aS'6'
aS'155'
p2242
aasS'4P44'
p2243
(lp2244
(lp2245
I1653
aS'171'
p2246
aS'257'
p2247
aa(lp2248
I4881
aS'627'
p2249
aS'747'
p2250
aa(lp2251
I6193
aS'357'
p2252
aS'481'
p2253
aasS'4P45'
p2254
(lp2255
(lp2256
I1653
aS'171'
p2257
aS'257'
p2258
aa(lp2259
I4881
aS'627'
p2260
aS'747'
p2261
aa(lp2262
I6193
aS'357'
p2263
aS'481'
p2264
aasS'4E8Y'
p2265
(lp2266
(lp2267
I4800
aS'19'
p2268
aS'308'
p2269
aasS'2F02'
p2270
(lp2271
(lp2272
I4800
aS'18'
p2273
aS'293'
p2274
aasS'4E8Z'
p2275
(lp2276
(lp2277
I4800
aS'19'
p2278
aS'308'
p2279
aasS'4E8W'
p2280
(lp2281
(lp2282
I4800
aS'19'
p2283
aS'308'
p2284
aasS'3UBA'
p2285
(lp2286
(lp2287
I6795
aS'21'
p2288
aS'567'
p2289
aasS'2C42'
p2290
(lp2291
(lp2292
I2664
aS'16'
p2293
aS'247'
p2294
aa(lp2295
I2837
aS'630'
p2296
aS'678'
p2297
aa(lp2298
I3964
aS'426'
p2299
aS'610'
p2300
aa(lp2301
I5049
aS'688'
p2302
aS'756'
p2303
aa(lp2304
I5932
aS'951'
p2305
aS'1066'
p2306
aasS'4IG5'
p2307
(lp2308
(lp2309
I6795
aS'21'
p2310
aS'567'
p2311
aasS'2C49'
p2312
(lp2313
(lp2314
I4800
aS'5'
aS'289'
p2315
aasS'3UT5'
p2316
(lp2317
(lp2318
I4179
aS'3'
aS'213'
p2319
aa(lp2320
I4179
aS'3'
aS'213'
p2321
aa(lp2322
I5776
aS'7'
aS'139'
p2323
aa(lp2324
I7068
aS'263'
p2325
aS'391'
p2326
aa(lp2327
I7068
aS'263'
p2328
aS'391'
p2329
aasS'1AMP'
p2330
(lp2331
(lp2332
I6193
aS'78'
p2333
aS'272'
p2334
aasS'4DU5'
p2335
(lp2336
(lp2337
I4800
aS'28'
p2338
aS'327'
p2339
aasS'4EB6'
p2340
(lp2341
(lp2342
I4179
aS'3'
aS'213'
p2343
aa(lp2344
I4179
aS'3'
aS'213'
p2345
aa(lp2346
I5776
aS'7'
aS'139'
p2347
aa(lp2348
I7068
aS'263'
p2349
aS'391'
p2350
aa(lp2351
I7068
aS'263'
p2352
aS'391'
p2353
aasS'4X1Y'
p2354
(lp2355
(lp2356
I4179
aS'3'
aS'213'
p2357
aa(lp2358
I4179
aS'3'
aS'213'
p2359
aa(lp2360
I5776
aS'9'
aS'139'
p2361
aa(lp2362
I7068
aS'263'
p2363
aS'391'
p2364
aa(lp2365
I7068
aS'263'
p2366
aS'391'
p2367
aasS'4QW8'
p2368
(lp2369
(lp2370
I2188
aS'169'
p2371
aS'199'
p2372
aa(lp2373
I6340
aS'6'
aS'155'
p2374
aasS'4QW9'
p2375
(lp2376
(lp2377
I2188
aS'169'
p2378
aS'199'
p2379
aa(lp2380
I6340
aS'6'
aS'155'
p2381
aasS'1PYD'
p2382
(lp2383
(lp2384
I5925
aS'5'
aS'177'
p2385
aa(lp2386
I5928
aS'201'
p2387
aS'324'
p2388
aa(lp2389
I5932
aS'401'
p2390
aS'505'
p2391
aasS'3QMO'
p2392
(lp2393
(lp2394
I3392
aS'37'
p2395
aS'68'
p2396
aa(lp2397
I6795
aS'226'
p2398
aS'524'
p2399
aasS'4X1K'
p2400
(lp2401
(lp2402
I4179
aS'3'
aS'213'
p2403
aa(lp2404
I4179
aS'3'
aS'213'
p2405
aa(lp2406
I5776
aS'9'
aS'139'
p2407
aa(lp2408
I7068
aS'263'
p2409
aS'391'
p2410
aa(lp2411
I7068
aS'263'
p2412
aS'391'
p2413
aasS'4X1I'
p2414
(lp2415
(lp2416
I4179
aS'3'
aS'213'
p2417
aa(lp2418
I4179
aS'3'
aS'213'
p2419
aa(lp2420
I5776
aS'9'
aS'139'
p2421
aa(lp2422
I7068
aS'263'
p2423
aS'391'
p2424
aa(lp2425
I7068
aS'263'
p2426
aS'391'
p2427
aasS'3ZS1'
p2428
(lp2429
(lp2430
I6795
aS'7'
aS'102'
p2431
aa(lp2432
I6795
aS'115'
p2433
aS'549'
p2434
aasS'2I6A'
p2435
(lp2436
(lp2437
I4800
aS'28'
p2438
aS'339'
p2439
aasS'1N56'
p2440
(lp2441
(lp2442
I2188
aS'169'
p2443
aS'199'
p2444
aa(lp2445
I6340
aS'6'
aS'155'
p2446
aasS'2R75'
p2447
(lp2448
(lp2449
I4179
aS'9'
aS'169'
p2450
aa(lp2451
I6103
aS'218'
p2452
aS'312'
p2453
aasS'4C1M'
p2454
(lp2455
(lp2456
I6795
aS'7'
aS'102'
p2457
aa(lp2458
I6795
aS'115'
p2459
aS'549'
p2460
aasS'4OC2'
p2461
(lp2462
(lp2463
I1653
aS'171'
p2464
aS'257'
p2465
aa(lp2466
I4881
aS'627'
p2467
aS'747'
p2468
aa(lp2469
I6193
aS'357'
p2470
aS'481'
p2471
aasS'1FE2'
p2472
(lp2473
(lp2474
I3392
aS'37'
p2475
aS'68'
p2476
aa(lp2477
I6795
aS'225'
p2478
aS'521'
p2479
aasS'2HXF'
p2480
(lp2481
(lp2482
I4179
aS'3'
aS'213'
p2483
aa(lp2484
I4179
aS'3'
aS'213'
p2485
aa(lp2486
I4645
aS'11'
p2487
aS'354'
p2488
aa(lp2489
I7068
aS'263'
p2490
aS'391'
p2491
aa(lp2492
I7068
aS'263'
p2493
aS'391'
p2494
aasS'5FIW'
p2495
(lp2496
(lp2497
I6795
aS'7'
aS'102'
p2498
aa(lp2499
I6795
aS'116'
p2500
aS'550'
p2501
aasS'1RK2'
p2502
(lp2503
(lp2504
I4800
aS'6'
aS'297'
p2505
aasS'4YU9'
p2506
(lp2507
(lp2508
I6193
aS'122'
p2509
aS'354'
p2510
aasS'2PGO'
p2511
(lp2512
(lp2513
I5925
aS'5'
aS'173'
p2514
aa(lp2515
I5928
aS'195'
p2516
aS'329'
p2517
aa(lp2518
I5932
aS'397'
p2519
aS'543'
p2520
aasS'4EI7'
p2521
(lp2522
(lp2523
I4179
aS'20'
p2524
aS'190'
p2525
aasS'1D2V'
p2526
(lp2527
(lp2528
I6795
aS'7'
aS'102'
p2529
aa(lp2530
I6795
aS'115'
p2531
aS'549'
p2532
aasS'4EI8'
p2533
(lp2534
(lp2535
I4179
aS'20'
p2536
aS'190'
p2537
aasS'4EI9'
p2538
(lp2539
(lp2540
I4179
aS'20'
p2541
aS'190'
p2542
aasS'2PGN'
p2543
(lp2544
(lp2545
I5925
aS'5'
aS'173'
p2546
aa(lp2547
I5928
aS'195'
p2548
aS'329'
p2549
aa(lp2550
I5932
aS'397'
p2551
aS'543'
p2552
aasS'1QPB'
p2553
(lp2554
(lp2555
I5925
aS'5'
aS'177'
p2556
aa(lp2557
I5928
aS'201'
p2558
aS'326'
p2559
aa(lp2560
I5932
aS'401'
p2561
aS'505'
p2562
aasS'4F50'
p2563
(lp2564
(lp2565
I2188
aS'169'
p2566
aS'200'
p2567
aa(lp2568
I6340
aS'6'
aS'156'
p2569
aasS'1RKS'
p2570
(lp2571
(lp2572
I4800
aS'6'
aS'297'
p2573
aasS'1RKD'
p2574
(lp2575
(lp2576
I4800
aS'6'
aS'297'
p2577
aasS'1TZ3'
p2578
(lp2579
(lp2580
I4800
aS'5'
aS'298'
p2581
aasS'1RKA'
p2582
(lp2583
(lp2584
I4800
aS'6'
aS'297'
p2585
aasS'1TZ6'
p2586
(lp2587
(lp2588
I4800
aS'5'
aS'298'
p2589
aasS'4GM0'
p2590
(lp2591
(lp2592
I5925
aS'9'
aS'169'
p2593
aa(lp2594
I5928
aS'193'
p2595
aS'325'
p2596
aa(lp2597
I5932
aS'380'
p2598
aS'521'
p2599
aasS'4GM1'
p2600
(lp2601
(lp2602
I5925
aS'9'
aS'169'
p2603
aa(lp2604
I5928
aS'193'
p2605
aS'325'
p2606
aa(lp2607
I5932
aS'380'
p2608
aS'521'
p2609
aasS'1YNO'
p2610
(lp2611
(lp2612
I5925
aS'9'
aS'169'
p2613
aa(lp2614
I5928
aS'193'
p2615
aS'325'
p2616
aa(lp2617
I5932
aS'380'
p2618
aS'521'
p2619
aasS'4GM4'
p2620
(lp2621
(lp2622
I5925
aS'9'
aS'169'
p2623
aa(lp2624
I5928
aS'193'
p2625
aS'325'
p2626
aa(lp2627
I5932
aS'380'
p2628
aS'521'
p2629
aasS'4GM6'
p2630
(lp2631
(lp2632
I4800
aS'2'
aS'310'
p2633
aasS'4GM7'
p2634
(lp2635
(lp2636
I6795
aS'21'
p2637
aS'567'
p2638
aasS'1SUV'
p2639
(lp2640
(lp2641
I1653
aS'227'
p2642
aS'345'
p2643
aa(lp2644
I4529
aS'6'
aS'328'
p2645
aa(lp2646
I4529
aS'342'
p2647
aS'661'
p2648
aa(lp2649
I4881
aS'637'
p2650
aS'749'
p2651
aa(lp2652
I6193
aS'388'
p2653
aS'576'
p2654
aasS'4Z0L'
p2655
(lp2656
(lp2657
I3392
aS'37'
p2658
aS'68'
p2659
aa(lp2660
I6795
aS'226'
p2661
aS'524'
p2662
aasS'1YI1'
p2663
(lp2664
(lp2665
I5925
aS'98'
p2666
aS'261'
p2667
aa(lp2668
I5928
aS'290'
p2669
aS'420'
p2670
aa(lp2671
I5932
aS'484'
p2672
aS'639'
p2673
aasS'1YI0'
p2674
(lp2675
(lp2676
I5925
aS'98'
p2677
aS'261'
p2678
aa(lp2679
I5928
aS'290'
p2680
aS'420'
p2681
aa(lp2682
I5932
aS'484'
p2683
aS'639'
p2684
aasS'3KAS'
p2685
(lp2686
(lp2687
I1653
aS'227'
p2688
aS'345'
p2689
aa(lp2690
I4881
aS'637'
p2691
aS'749'
p2692
aa(lp2693
I6193
aS'388'
p2694
aS'576'
p2695
aasS'2WVH'
p2696
(lp2697
(lp2698
I5925
aS'4'
aS'178'
p2699
aa(lp2700
I5928
aS'199'
p2701
aS'305'
p2702
aa(lp2703
I5932
aS'409'
p2704
aS'537'
p2705
aasS'2WVA'
p2706
(lp2707
(lp2708
I5925
aS'4'
aS'178'
p2709
aa(lp2710
I5928
aS'199'
p2711
aS'305'
p2712
aa(lp2713
I5932
aS'409'
p2714
aS'537'
p2715
aasS'2WVG'
p2716
(lp2717
(lp2718
I5925
aS'4'
aS'178'
p2719
aa(lp2720
I5928
aS'199'
p2721
aS'305'
p2722
aa(lp2723
I5932
aS'409'
p2724
aS'537'
p2725
aasS'2DCN'
p2726
(lp2727
(lp2728
I4800
aS'2'
aS'298'
p2729
aasS'4FUU'
p2730
(lp2731
(lp2732
I6193
aS'106'
p2733
aS'326'
p2734
aasS'2AU0'
p2735
(lp2736
(lp2737
I2188
aS'169'
p2738
aS'199'
p2739
aa(lp2740
I6340
aS'6'
aS'155'
p2741
aasS'2Q27'
p2742
(lp2743
(lp2744
I5925
aS'10'
p2745
aS'178'
p2746
aa(lp2747
I5928
aS'202'
p2748
aS'327'
p2749
aa(lp2750
I5932
aS'402'
p2751
aS'540'
p2752
aasS'2Q29'
p2753
(lp2754
(lp2755
I5925
aS'10'
p2756
aS'178'
p2757
aa(lp2758
I5928
aS'202'
p2759
aS'327'
p2760
aa(lp2761
I5932
aS'402'
p2762
aS'540'
p2763
aasS'2Q28'
p2764
(lp2765
(lp2766
I5925
aS'10'
p2767
aS'178'
p2768
aa(lp2769
I5928
aS'202'
p2770
aS'327'
p2771
aa(lp2772
I5932
aS'402'
p2773
aS'540'
p2774
aasS'4UBE'
p2775
(lp2776
(lp2777
I4800
aS'15'
p2778
aS'295'
p2779
aasS'2FN3'
p2780
(lp2781
(lp2782
I5925
aS'9'
aS'169'
p2783
aa(lp2784
I5928
aS'193'
p2785
aS'325'
p2786
aa(lp2787
I5932
aS'380'
p2788
aS'521'
p2789
aasS'3PW0'
p2790
(lp2791
(lp2792
I2188
aS'169'
p2793
aS'199'
p2794
aa(lp2795
I6340
aS'6'
aS'155'
p2796
aasS'3PW2'
p2797
(lp2798
(lp2799
I2188
aS'170'
p2800
aS'200'
p2801
aa(lp2802
I6340
aS'7'
aS'156'
p2803
aasS'3PW4'
p2804
(lp2805
(lp2806
I2188
aS'170'
p2807
aS'200'
p2808
aa(lp2809
I6340
aS'7'
aS'156'
p2810
aasS'3PW5'
p2811
(lp2812
(lp2813
I2188
aS'170'
p2814
aS'200'
p2815
aa(lp2816
I6340
aS'7'
aS'156'
p2817
aasS'3PW7'
p2818
(lp2819
(lp2820
I2188
aS'172'
p2821
aS'202'
p2822
aa(lp2823
I6340
aS'9'
aS'158'
p2824
aasS'1RYR'
p2825
(lp2826
(lp2827
I2188
aS'169'
p2828
aS'199'
p2829
aa(lp2830
I6340
aS'6'
aS'155'
p2831
aasS'1RYS'
p2832
(lp2833
(lp2834
I2188
aS'169'
p2835
aS'199'
p2836
aa(lp2837
I6340
aS'6'
aS'155'
p2838
aasS'2PUM'
p2839
(lp2840
(lp2841
I6795
aS'21'
p2842
aS'567'
p2843
aasS'2NXW'
p2844
(lp2845
(lp2846
I5925
aS'1'
aS'173'
p2847
aa(lp2848
I5928
aS'193'
p2849
aS'328'
p2850
aa(lp2851
I5932
aS'394'
p2852
aS'517'
p2853
aasS'3NTG'
p2854
(lp2855
(lp2856
I3392
aS'22'
p2857
aS'53'
p2858
aa(lp2859
I6795
aS'212'
p2860
aS'510'
p2861
aasS'2Q5L'
p2862
(lp2863
(lp2864
I5925
aS'1'
aS'173'
p2865
aa(lp2866
I5928
aS'193'
p2867
aS'328'
p2868
aa(lp2869
I5932
aS'394'
p2870
aS'517'
p2871
aasS'1S9F'
p2872
(lp2873
(lp2874
I2188
aS'169'
p2875
aS'199'
p2876
aa(lp2877
I6340
aS'6'
aS'155'
p2878
aasS'3B1N'
p2879
(lp2880
(lp2881
I4800
aS'34'
p2882
aS'295'
p2883
aasS'2Q5O'
p2884
(lp2885
(lp2886
I5925
aS'1'
aS'173'
p2887
aa(lp2888
I5928
aS'193'
p2889
aS'328'
p2890
aa(lp2891
I5932
aS'394'
p2892
aS'517'
p2893
aasS'4RJI'
p2894
(lp2895
(lp2896
I5925
aS'16'
p2897
aS'181'
p2898
aa(lp2899
I5928
aS'201'
p2900
aS'334'
p2901
aa(lp2902
I5932
aS'397'
p2903
aS'543'
p2904
aasS'2Q5J'
p2905
(lp2906
(lp2907
I5925
aS'1'
aS'173'
p2908
aa(lp2909
I5928
aS'193'
p2910
aS'328'
p2911
aa(lp2912
I5932
aS'394'
p2913
aS'517'
p2914
aasS'3J9Y'
p2915
(lp2916
(lp2917
I143
aS'8'
aS'223'
p2918
aa(lp2919
I143
aS'8'
aS'223'
p2920
aa(lp2921
I145
aS'2'
aS'94'
p2922
aa(lp2923
I145
aS'2'
aS'94'
p2924
aa(lp2925
I147
aS'10'
p2926
aS'73'
p2927
aa(lp2928
I147
aS'10'
p2929
aS'73'
p2930
aa(lp2931
I148
aS'3'
aS'91'
p2932
aa(lp2933
I148
aS'3'
aS'91'
p2934
aa(lp2935
I1731
aS'20'
p2936
aS'116'
p2937
aa(lp2938
I1731
aS'20'
p2939
aS'116'
p2940
aa(lp2941
I1732
aS'4'
aS'131'
p2942
aa(lp2943
I1732
aS'4'
aS'131'
p2944
aa(lp2945
I1733
aS'71'
p2946
aS'139'
p2947
aa(lp2948
I1733
aS'71'
p2949
aS'139'
p2950
aa(lp2951
I1734
aS'5'
aS'101'
p2952
aa(lp2953
I1734
aS'5'
aS'101'
p2954
aa(lp2955
I1735
aS'15'
p2956
aS'138'
p2957
aa(lp2958
I1735
aS'15'
p2959
aS'138'
p2960
aa(lp2961
I1736
aS'54'
p2962
aS'120'
p2963
aa(lp2964
I1736
aS'54'
p2965
aS'120'
p2966
aa(lp2967
I1739
aS'2'
aS'112'
p2968
aa(lp2969
I1739
aS'2'
aS'112'
p2970
aa(lp2971
I1787
aS'83'
p2972
aS'176'
p2973
aa(lp2974
I1787
aS'83'
p2975
aS'176'
p2976
aa(lp2977
I2019
aS'6'
aS'52'
p2978
aa(lp2979
I2019
aS'6'
aS'52'
p2980
aa(lp2981
I2020
aS'1'
aS'65'
p2982
aa(lp2983
I2020
aS'1'
aS'65'
p2984
aa(lp2985
I2021
aS'4'
aS'53'
p2986
aa(lp2987
I2021
aS'4'
aS'53'
p2988
aa(lp2989
I2023
aS'1'
aS'38'
p2990
aa(lp2991
I2023
aS'1'
aS'38'
p2992
aa(lp2993
I2024
aS'1'
aS'44'
p2994
aa(lp2995
I2024
aS'1'
aS'44'
p2996
aa(lp2997
I2417
aS'7'
aS'36'
p2998
aa(lp2999
I2417
aS'7'
aS'36'
p3000
aa(lp3001
I2446
aS'119'
p3002
aS'201'
p3003
aa(lp3004
I2446
aS'119'
p3005
aS'201'
p3006
aa(lp3007
I2577
aS'64'
p3008
aS'148'
p3009
aa(lp3010
I2577
aS'64'
p3011
aS'148'
p3012
aa(lp3013
I2585
aS'1'
aS'45'
p3014
aa(lp3015
I2585
aS'1'
aS'45'
p3016
aa(lp3017
I2767
aS'4'
aS'91'
p3018
aa(lp3019
I2767
aS'4'
aS'91'
p3020
aa(lp3021
I2772
aS'10'
p3022
aS'81'
p3023
aa(lp3024
I2772
aS'89'
p3025
aS'163'
p3026
aa(lp3027
I2772
aS'10'
p3028
aS'81'
p3029
aa(lp3030
I2772
aS'89'
p3031
aS'163'
p3032
aa(lp3033
I2835
aS'96'
p3034
aS'142'
p3035
aa(lp3036
I2835
aS'96'
p3037
aS'142'
p3038
aa(lp3039
I3071
aS'1'
aS'122'
p3040
aa(lp3041
I3071
aS'1'
aS'122'
p3042
aa(lp3043
I3544
aS'2'
aS'107'
p3044
aa(lp3045
I3544
aS'2'
aS'107'
p3046
aa(lp3047
I3545
aS'7'
aS'100'
p3048
aa(lp3049
I3545
aS'7'
aS'100'
p3050
aa(lp3051
I3547
aS'8'
aS'68'
p3052
aa(lp3053
I3547
aS'8'
aS'68'
p3054
aa(lp3055
I3548
aS'9'
aS'75'
p3056
aa(lp3057
I3548
aS'9'
aS'75'
p3058
aa(lp3059
I3549
aS'47'
p3060
aS'100'
p3061
aa(lp3062
I3549
aS'47'
p3063
aS'100'
p3064
aa(lp3065
I3550
aS'8'
aS'87'
p3066
aa(lp3067
I3550
aS'8'
aS'87'
p3068
aa(lp3069
I3553
aS'18'
p3070
aS'67'
p3071
aa(lp3072
I3553
aS'18'
p3073
aS'67'
p3074
aa(lp3075
I3809
aS'86'
p3076
aS'156'
p3077
aa(lp3078
I3809
aS'86'
p3079
aS'156'
p3080
aa(lp3081
I4161
aS'2'
aS'117'
p3082
aa(lp3083
I4161
aS'2'
aS'117'
p3084
aa(lp3085
I4162
aS'28'
p3086
aS'143'
p3087
aa(lp3088
I4162
aS'28'
p3089
aS'143'
p3090
aa(lp3091
I4492
aS'1'
aS'59'
p3092
aa(lp3093
I4492
aS'1'
aS'59'
p3094
aa(lp3095
I5041
aS'4'
aS'128'
p3096
aa(lp3097
I5041
aS'4'
aS'128'
p3098
aa(lp3099
I5042
aS'9'
aS'129'
p3100
aa(lp3101
I5042
aS'9'
aS'129'
p3102
aa(lp3103
I5050
aS'1'
aS'148'
p3104
aa(lp3105
I5050
aS'1'
aS'148'
p3106
aa(lp3107
I5265
aS'416'
p3108
aS'531'
p3109
aa(lp3110
I5265
aS'416'
p3111
aS'531'
p3112
aa(lp3113
I5271
aS'342'
p3114
aS'414'
p3115
aa(lp3116
I5271
aS'342'
p3117
aS'414'
p3118
aa(lp3119
I5273
aS'124'
p3120
aS'248'
p3121
aa(lp3122
I5273
aS'124'
p3123
aS'248'
p3124
aa(lp3125
I5434
aS'1'
aS'56'
p3126
aa(lp3127
I5434
aS'1'
aS'56'
p3128
aa(lp3129
I5516
aS'23'
p3130
aS'79'
p3131
aa(lp3132
I5516
aS'23'
p3133
aS'79'
p3134
aa(lp3135
I5517
aS'13'
p3136
aS'198'
p3137
aa(lp3138
I5517
aS'13'
p3139
aS'198'
p3140
aa(lp3141
I5520
aS'27'
p3142
aS'182'
p3143
aa(lp3144
I5520
aS'27'
p3145
aS'182'
p3146
aa(lp3147
I5521
aS'41'
p3148
aS'116'
p3149
aa(lp3150
I5521
aS'41'
p3151
aS'116'
p3152
aa(lp3153
I5532
aS'5'
aS'122'
p3154
aa(lp3155
I5532
aS'5'
aS'122'
p3156
aa(lp3157
I5533
aS'7'
aS'78'
p3158
aa(lp3159
I5533
aS'7'
aS'78'
p3160
aa(lp3161
I5589
aS'534'
p3162
aS'617'
p3163
aa(lp3164
I5589
aS'534'
p3165
aS'617'
p3166
aa(lp3167
I5683
aS'8'
aS'66'
p3168
aa(lp3169
I5683
aS'8'
aS'66'
p3170
aa(lp3171
I5991
aS'2'
aS'61'
p3172
aa(lp3173
I5991
aS'2'
aS'61'
p3174
aa(lp3175
I5992
aS'4'
aS'60'
p3176
aa(lp3177
I5992
aS'4'
aS'60'
p3178
aa(lp3179
I5995
aS'2'
aS'108'
p3180
aa(lp3181
I5995
aS'2'
aS'108'
p3182
aa(lp3183
I5996
aS'5'
aS'108'
p3184
aa(lp3185
I5996
aS'5'
aS'108'
p3186
aa(lp3187
I5997
aS'9'
aS'93'
p3188
aa(lp3189
I5997
aS'9'
aS'93'
p3190
aa(lp3191
I6226
aS'2'
aS'237'
p3192
aa(lp3193
I6226
aS'2'
aS'237'
p3194
aa(lp3195
I6228
aS'1'
aS'96'
p3196
aa(lp3197
I6228
aS'1'
aS'96'
p3198
aa(lp3199
I6345
aS'37'
p3200
aS'110'
p3201
aa(lp3202
I6345
aS'37'
p3203
aS'110'
p3204
aa(lp3205
I6403
aS'18'
p3206
aS'127'
p3207
aa(lp3208
I6403
aS'18'
p3209
aS'127'
p3210
aa(lp3211
I6412
aS'2'
aS'80'
p3212
aa(lp3213
I6412
aS'2'
aS'80'
p3214
aa(lp3215
I7148
aS'2'
aS'83'
p3216
aa(lp3217
I7148
aS'2'
aS'83'
p3218
aa(lp3219
I7507
aS'3'
aS'55'
p3220
aa(lp3221
I7507
aS'3'
aS'55'
p3222
aasS'4KVL'
p3223
(lp3224
(lp3225
I6795
aS'84'
p3226
aS'601'
p3227
aasS'3B1P'
p3228
(lp3229
(lp3230
I4800
aS'34'
p3231
aS'295'
p3232
aasS'2Q5Q'
p3233
(lp3234
(lp3235
I5925
aS'1'
aS'173'
p3236
aa(lp3237
I5928
aS'193'
p3238
aS'328'
p3239
aa(lp3240
I5932
aS'394'
p3241
aS'517'
p3242
aasS'4KVK'
p3243
(lp3244
(lp3245
I6795
aS'84'
p3246
aS'601'
p3247
aasS'3R5O'
p3248
(lp3249
(lp3250
I6795
aS'21'
p3251
aS'567'
p3252
aasS'1T94'
p3253
(lp3254
(lp3255
I2188
aS'340'
p3256
aS'370'
p3257
aa(lp3258
I5444
aS'411'
p3259
aS'515'
p3260
aa(lp3261
I6340
aS'106'
p3262
aS'325'
p3263
aasS'2R8G'
p3264
(lp3265
(lp3266
I2188
aS'169'
p3267
aS'199'
p3268
aa(lp3269
I6340
aS'6'
aS'155'
p3270
aasS'3TGY'
p3271
(lp3272
(lp3273
I6795
aS'21'
p3274
aS'567'
p3275
aasS'2OYE'
p3276
(lp3277
(lp3278
I3392
aS'37'
p3279
aS'68'
p3280
aa(lp3281
I6795
aS'225'
p3282
aS'521'
p3283
aasS'3R55'
p3284
(lp3285
(lp3286
I6795
aS'21'
p3287
aS'567'
p3288
aasS'1JSC'
p3289
(lp3290
(lp3291
I5925
aS'93'
p3292
aS'256'
p3293
aa(lp3294
I5928
aS'289'
p3295
aS'431'
p3296
aa(lp3297
I5932
aS'496'
p3298
aS'643'
p3299
aasS'2IBK'
p3300
(lp3301
(lp3302
I2188
aS'169'
p3303
aS'199'
p3304
aa(lp3305
I6340
aS'6'
aS'155'
p3306
aasS'3IQ0'
p3307
(lp3308
(lp3309
I4800
aS'36'
p3310
aS'296'
p3311
aasS'1S97'
p3312
(lp3313
(lp3314
I2188
aS'169'
p3315
aS'199'
p3316
aa(lp3317
I6340
aS'6'
aS'155'
p3318
aasS'1FSZ'
p3319
(lp3320
(lp3321
I4179
aS'39'
p3322
aS'199'
p3323
aa(lp3324
I6103
aS'247'
p3325
aS'341'
p3326
aasS'3J6H'
p3327
(lp3328
(lp3329
I4179
aS'3'
aS'213'
p3330
aa(lp3331
I4179
aS'3'
aS'213'
p3332
aa(lp3333
I4645
aS'36'
p3334
aS'327'
p3335
aa(lp3336
I7068
aS'263'
p3337
aS'391'
p3338
aa(lp3339
I7068
aS'263'
p3340
aS'391'
p3341
aasS'1PRH'
p3342
(lp3343
(lp3344
I3392
aS'37'
p3345
aS'68'
p3346
aa(lp3347
I6795
aS'225'
p3348
aS'521'
p3349
aasS'4LQG'
p3350
(lp3351
(lp3352
I1653
aS'171'
p3353
aS'257'
p3354
aa(lp3355
I4881
aS'627'
p3356
aS'747'
p3357
aa(lp3358
I6193
aS'357'
p3359
aS'481'
p3360
aasS'4K8P'
p3361
(lp3362
(lp3363
I4800
aS'54'
p3364
aS'313'
p3365
aasS'3LKI'
p3366
(lp3367
(lp3368
I4800
aS'13'
p3369
aS'325'
p3370
aasS'4V6V'
p3371
(lp3372
(lp3373
I143
aS'8'
aS'223'
p3374
aa(lp3375
I145
aS'2'
aS'94'
p3376
aa(lp3377
I147
aS'10'
p3378
aS'73'
p3379
aa(lp3380
I148
aS'3'
aS'91'
p3381
aa(lp3382
I1731
aS'20'
p3383
aS'116'
p3384
aa(lp3385
I1732
aS'4'
aS'131'
p3386
aa(lp3387
I1733
aS'71'
p3388
aS'139'
p3389
aa(lp3390
I1734
aS'4'
aS'100'
p3391
aa(lp3392
I1735
aS'15'
p3393
aS'138'
p3394
aa(lp3395
I1739
aS'2'
aS'112'
p3396
aa(lp3397
I1787
aS'83'
p3398
aS'176'
p3399
aa(lp3400
I2019
aS'6'
aS'52'
p3401
aa(lp3402
I2020
aS'1'
aS'65'
p3403
aa(lp3404
I2021
aS'4'
aS'53'
p3405
aa(lp3406
I2023
aS'1'
aS'38'
p3407
aa(lp3408
I2024
aS'1'
aS'44'
p3409
aa(lp3410
I2417
aS'7'
aS'36'
p3411
aa(lp3412
I2446
aS'119'
p3413
aS'201'
p3414
aa(lp3415
I2577
aS'64'
p3416
aS'148'
p3417
aa(lp3418
I2585
aS'1'
aS'45'
p3419
aa(lp3420
I2767
aS'4'
aS'91'
p3421
aa(lp3422
I2772
aS'10'
p3423
aS'81'
p3424
aa(lp3425
I2772
aS'89'
p3426
aS'163'
p3427
aa(lp3428
I2835
aS'96'
p3429
aS'142'
p3430
aa(lp3431
I3071
aS'1'
aS'123'
p3432
aa(lp3433
I3544
aS'2'
aS'107'
p3434
aa(lp3435
I3545
aS'7'
aS'100'
p3436
aa(lp3437
I3547
aS'8'
aS'68'
p3438
aa(lp3439
I3548
aS'9'
aS'75'
p3440
aa(lp3441
I3549
aS'46'
p3442
aS'99'
p3443
aa(lp3444
I3550
aS'8'
aS'87'
p3445
aa(lp3446
I3553
aS'18'
p3447
aS'67'
p3448
aa(lp3449
I3809
aS'86'
p3450
aS'156'
p3451
aa(lp3452
I4161
aS'2'
aS'117'
p3453
aa(lp3454
I4162
aS'28'
p3455
aS'143'
p3456
aa(lp3457
I4492
aS'1'
aS'59'
p3458
aa(lp3459
I5041
aS'4'
aS'128'
p3460
aa(lp3461
I5042
aS'9'
aS'129'
p3462
aa(lp3463
I5050
aS'1'
aS'148'
p3464
aa(lp3465
I5265
aS'416'
p3466
aS'531'
p3467
aa(lp3468
I5271
aS'342'
p3469
aS'414'
p3470
aa(lp3471
I5273
aS'124'
p3472
aS'248'
p3473
aa(lp3474
I5434
aS'1'
aS'56'
p3475
aa(lp3476
I5516
aS'23'
p3477
aS'79'
p3478
aa(lp3479
I5517
aS'13'
p3480
aS'198'
p3481
aa(lp3482
I5519
aS'28'
p3483
aS'220'
p3484
aa(lp3485
I5520
aS'27'
p3486
aS'182'
p3487
aa(lp3488
I5521
aS'41'
p3489
aS'116'
p3490
aa(lp3491
I5532
aS'5'
aS'122'
p3492
aa(lp3493
I5533
aS'1'
aS'81'
p3494
aa(lp3495
I5589
aS'534'
p3496
aS'615'
p3497
aa(lp3498
I5683
aS'8'
aS'66'
p3499
aa(lp3500
I5991
aS'2'
aS'61'
p3501
aa(lp3502
I5992
aS'4'
aS'60'
p3503
aa(lp3504
I5995
aS'2'
aS'108'
p3505
aa(lp3506
I5996
aS'5'
aS'108'
p3507
aa(lp3508
I5997
aS'9'
aS'95'
p3509
aa(lp3510
I6226
aS'2'
aS'237'
p3511
aa(lp3512
I6228
aS'1'
aS'96'
p3513
aa(lp3514
I6345
aS'37'
p3515
aS'110'
p3516
aa(lp3517
I6403
aS'18'
p3518
aS'127'
p3519
aa(lp3520
I6412
aS'2'
aS'82'
p3521
aa(lp3522
I7148
aS'1'
aS'83'
p3523
aa(lp3524
I7507
aS'3'
aS'55'
p3525
aasS'3KTN'
p3526
(lp3527
(lp3528
I4800
aS'2'
aS'208'
p3529
aa(lp3530
I4800
aS'271'
p3531
aS'311'
p3532
aasS'2Z5Z'
p3533
(lp3534
(lp3535
I6795
aS'21'
p3536
aS'567'
p3537
aasS'4V6L'
p3538
(lp3539
(lp3540
I143
aS'8'
aS'223'
p3541
aa(lp3542
I145
aS'2'
aS'94'
p3543
aa(lp3544
I147
aS'10'
p3545
aS'73'
p3546
aa(lp3547
I148
aS'3'
aS'91'
p3548
aa(lp3549
I1731
aS'20'
p3550
aS'116'
p3551
aa(lp3552
I1732
aS'4'
aS'131'
p3553
aa(lp3554
I1733
aS'71'
p3555
aS'139'
p3556
aa(lp3557
I1735
aS'15'
p3558
aS'138'
p3559
aa(lp3560
I1739
aS'2'
aS'112'
p3561
aa(lp3562
I1787
aS'83'
p3563
aS'176'
p3564
aa(lp3565
I2019
aS'6'
aS'52'
p3566
aa(lp3567
I2020
aS'1'
aS'65'
p3568
aa(lp3569
I2021
aS'4'
aS'53'
p3570
aa(lp3571
I2023
aS'1'
aS'38'
p3572
aa(lp3573
I2024
aS'1'
aS'44'
p3574
aa(lp3575
I2417
aS'7'
aS'36'
p3576
aa(lp3577
I2446
aS'119'
p3578
aS'201'
p3579
aa(lp3580
I2577
aS'64'
p3581
aS'148'
p3582
aa(lp3583
I2585
aS'1'
aS'45'
p3584
aa(lp3585
I2767
aS'4'
aS'91'
p3586
aa(lp3587
I2772
aS'10'
p3588
aS'81'
p3589
aa(lp3590
I2772
aS'89'
p3591
aS'163'
p3592
aa(lp3593
I2835
aS'96'
p3594
aS'142'
p3595
aa(lp3596
I3071
aS'1'
aS'123'
p3597
aa(lp3598
I3544
aS'2'
aS'107'
p3599
aa(lp3600
I3545
aS'7'
aS'100'
p3601
aa(lp3602
I3547
aS'8'
aS'68'
p3603
aa(lp3604
I3548
aS'9'
aS'75'
p3605
aa(lp3606
I3549
aS'46'
p3607
aS'99'
p3608
aa(lp3609
I3550
aS'8'
aS'87'
p3610
aa(lp3611
I3553
aS'18'
p3612
aS'67'
p3613
aa(lp3614
I3809
aS'86'
p3615
aS'156'
p3616
aa(lp3617
I4161
aS'2'
aS'117'
p3618
aa(lp3619
I4162
aS'28'
p3620
aS'143'
p3621
aa(lp3622
I4492
aS'1'
aS'59'
p3623
aa(lp3624
I4654
aS'224'
p3625
aS'292'
p3626
aa(lp3627
I4655
aS'297'
p3628
aS'391'
p3629
aa(lp3630
I5041
aS'4'
aS'128'
p3631
aa(lp3632
I5042
aS'9'
aS'129'
p3633
aa(lp3634
I5050
aS'1'
aS'148'
p3635
aa(lp3636
I5273
aS'124'
p3637
aS'248'
p3638
aa(lp3639
I5434
aS'1'
aS'56'
p3640
aa(lp3641
I5516
aS'23'
p3642
aS'79'
p3643
aa(lp3644
I5517
aS'13'
p3645
aS'198'
p3646
aa(lp3647
I5519
aS'28'
p3648
aS'220'
p3649
aa(lp3650
I5520
aS'27'
p3651
aS'182'
p3652
aa(lp3653
I5521
aS'41'
p3654
aS'116'
p3655
aa(lp3656
I5532
aS'5'
aS'122'
p3657
aa(lp3658
I5533
aS'1'
aS'81'
p3659
aa(lp3660
I5683
aS'8'
aS'66'
p3661
aa(lp3662
I5991
aS'2'
aS'61'
p3663
aa(lp3664
I5992
aS'4'
aS'60'
p3665
aa(lp3666
I5995
aS'2'
aS'108'
p3667
aa(lp3668
I5996
aS'5'
aS'108'
p3669
aa(lp3670
I5997
aS'9'
aS'95'
p3671
aa(lp3672
I6226
aS'9'
aS'200'
p3673
aa(lp3674
I6228
aS'1'
aS'96'
p3675
aa(lp3676
I6345
aS'37'
p3677
aS'110'
p3678
aa(lp3679
I6403
aS'18'
p3680
aS'127'
p3681
aa(lp3682
I6412
aS'2'
aS'82'
p3683
aa(lp3684
I7148
aS'1'
aS'83'
p3685
aa(lp3686
I7507
aS'3'
aS'55'
p3687
aasS'4V6K'
p3688
(lp3689
(lp3690
I143
aS'8'
aS'223'
p3691
aa(lp3692
I145
aS'2'
aS'94'
p3693
aa(lp3694
I147
aS'10'
p3695
aS'73'
p3696
aa(lp3697
I148
aS'3'
aS'91'
p3698
aa(lp3699
I1731
aS'20'
p3700
aS'116'
p3701
aa(lp3702
I1732
aS'4'
aS'131'
p3703
aa(lp3704
I1733
aS'71'
p3705
aS'139'
p3706
aa(lp3707
I1735
aS'15'
p3708
aS'138'
p3709
aa(lp3710
I1739
aS'2'
aS'112'
p3711
aa(lp3712
I1787
aS'83'
p3713
aS'176'
p3714
aa(lp3715
I2019
aS'6'
aS'52'
p3716
aa(lp3717
I2020
aS'1'
aS'65'
p3718
aa(lp3719
I2021
aS'4'
aS'53'
p3720
aa(lp3721
I2023
aS'1'
aS'38'
p3722
aa(lp3723
I2024
aS'1'
aS'44'
p3724
aa(lp3725
I2417
aS'7'
aS'36'
p3726
aa(lp3727
I2446
aS'119'
p3728
aS'201'
p3729
aa(lp3730
I2577
aS'64'
p3731
aS'148'
p3732
aa(lp3733
I2585
aS'1'
aS'45'
p3734
aa(lp3735
I2767
aS'4'
aS'91'
p3736
aa(lp3737
I2772
aS'10'
p3738
aS'81'
p3739
aa(lp3740
I2772
aS'89'
p3741
aS'163'
p3742
aa(lp3743
I2835
aS'96'
p3744
aS'142'
p3745
aa(lp3746
I3071
aS'1'
aS'123'
p3747
aa(lp3748
I3544
aS'2'
aS'107'
p3749
aa(lp3750
I3545
aS'7'
aS'100'
p3751
aa(lp3752
I3547
aS'8'
aS'68'
p3753
aa(lp3754
I3548
aS'9'
aS'75'
p3755
aa(lp3756
I3549
aS'46'
p3757
aS'99'
p3758
aa(lp3759
I3550
aS'8'
aS'87'
p3760
aa(lp3761
I3553
aS'18'
p3762
aS'67'
p3763
aa(lp3764
I3809
aS'86'
p3765
aS'156'
p3766
aa(lp3767
I4161
aS'2'
aS'117'
p3768
aa(lp3769
I4162
aS'28'
p3770
aS'143'
p3771
aa(lp3772
I4492
aS'1'
aS'59'
p3773
aa(lp3774
I4654
aS'224'
p3775
aS'292'
p3776
aa(lp3777
I4655
aS'297'
p3778
aS'391'
p3779
aa(lp3780
I5041
aS'4'
aS'128'
p3781
aa(lp3782
I5042
aS'9'
aS'129'
p3783
aa(lp3784
I5050
aS'1'
aS'148'
p3785
aa(lp3786
I5273
aS'124'
p3787
aS'248'
p3788
aa(lp3789
I5434
aS'1'
aS'56'
p3790
aa(lp3791
I5516
aS'23'
p3792
aS'79'
p3793
aa(lp3794
I5517
aS'13'
p3795
aS'198'
p3796
aa(lp3797
I5519
aS'28'
p3798
aS'220'
p3799
aa(lp3800
I5520
aS'27'
p3801
aS'182'
p3802
aa(lp3803
I5521
aS'41'
p3804
aS'116'
p3805
aa(lp3806
I5532
aS'5'
aS'122'
p3807
aa(lp3808
I5533
aS'1'
aS'81'
p3809
aa(lp3810
I5683
aS'8'
aS'66'
p3811
aa(lp3812
I5991
aS'2'
aS'61'
p3813
aa(lp3814
I5992
aS'4'
aS'60'
p3815
aa(lp3816
I5995
aS'2'
aS'108'
p3817
aa(lp3818
I5996
aS'5'
aS'108'
p3819
aa(lp3820
I5997
aS'9'
aS'95'
p3821
aa(lp3822
I6226
aS'9'
aS'200'
p3823
aa(lp3824
I6228
aS'1'
aS'96'
p3825
aa(lp3826
I6345
aS'37'
p3827
aS'110'
p3828
aa(lp3829
I6403
aS'18'
p3830
aS'127'
p3831
aa(lp3832
I6412
aS'2'
aS'82'
p3833
aa(lp3834
I7148
aS'1'
aS'83'
p3835
aa(lp3836
I7507
aS'3'
aS'55'
p3837
aasS'1XBU'
p3838
(lp3839
(lp3840
I6193
aS'66'
p3841
aS'270'
p3842
aasS'2EFB'
p3843
(lp3844
(lp3845
I6795
aS'21'
p3846
aS'567'
p3847
aasS'3QA2'
p3848
(lp3849
(lp3850
I4800
aS'5'
aS'289'
p3851
aasS'2OH2'
p3852
(lp3853
(lp3854
I2188
aS'340'
p3855
aS'370'
p3856
aa(lp3857
I5444
aS'410'
p3858
aS'517'
p3859
aa(lp3860
I6340
aS'106'
p3861
aS'325'
p3862
aasS'2XEI'
p3863
(lp3864
(lp3865
I1653
aS'171'
p3866
aS'257'
p3867
aa(lp3868
I4881
aS'627'
p3869
aS'747'
p3870
aa(lp3871
I6193
aS'357'
p3872
aS'481'
p3873
aasS'3SXV'
p3874
(lp3875
(lp3876
I6795
aS'21'
p3877
aS'567'
p3878
aasS'2XEJ'
p3879
(lp3880
(lp3881
I1653
aS'171'
p3882
aS'257'
p3883
aa(lp3884
I4881
aS'627'
p3885
aS'747'
p3886
aa(lp3887
I6193
aS'357'
p3888
aS'481'
p3889
aasS'2CIJ'
p3890
(lp3891
(lp3892
I1653
aS'171'
p3893
aS'257'
p3894
aa(lp3895
I4881
aS'627'
p3896
aS'747'
p3897
aa(lp3898
I6193
aS'357'
p3899
aS'481'
p3900
aasS'2UZ1'
p3901
(lp3902
(lp3903
I5925
aS'5'
aS'173'
p3904
aa(lp3905
I5925
aS'5'
aS'173'
p3906
aa(lp3907
I5928
aS'194'
p3908
aS'329'
p3909
aa(lp3910
I5928
aS'194'
p3911
aS'329'
p3912
aa(lp3913
I5932
aS'397'
p3914
aS'542'
p3915
aa(lp3916
I5932
aS'397'
p3917
aS'542'
p3918
aasS'2AFO'
p3919
(lp3920
(lp3921
I6193
aS'122'
p3922
aS'354'
p3923
aasS'2XEG'
p3924
(lp3925
(lp3926
I1653
aS'171'
p3927
aS'257'
p3928
aa(lp3929
I4881
aS'627'
p3930
aS'747'
p3931
aa(lp3932
I6193
aS'357'
p3933
aS'481'
p3934
aasS'1DGM'
p3935
(lp3936
(lp3937
I4800
aS'61'
p3938
aS'355'
p3939
aasS'2JIB'
p3940
(lp3941
(lp3942
I5925
aS'12'
p3943
aS'179'
p3944
aa(lp3945
I5928
aS'203'
p3946
aS'331'
p3947
aa(lp3948
I5932
aS'411'
p3949
aS'542'
p3950
aasS'2X7J'
p3951
(lp3952
(lp3953
I5925
aS'14'
p3954
aS'177'
p3955
aa(lp3956
I5932
aS'418'
p3957
aS'552'
p3958
aa(lp3959
I6972
aS'218'
p3960
aS'402'
p3961
aasS'2IHT'
p3962
(lp3963
(lp3964
I5925
aS'13'
p3965
aS'174'
p3966
aa(lp3967
I5928
aS'207'
p3968
aS'344'
p3969
aa(lp3970
I5932
aS'410'
p3971
aS'557'
p3972
aasS'4LCA'
p3973
(lp3974
(lp3975
I4800
aS'54'
p3976
aS'313'
p3977
aasS'4OME'
p3978
(lp3979
(lp3980
I1653
aS'171'
p3981
aS'257'
p3982
aa(lp3983
I4881
aS'627'
p3984
aS'747'
p3985
aa(lp3986
I6193
aS'357'
p3987
aS'481'
p3988
aasS'1PO7'
p3989
(lp3990
(lp3991
I5925
aS'9'
aS'169'
p3992
aa(lp3993
I5928
aS'193'
p3994
aS'325'
p3995
aa(lp3996
I5932
aS'380'
p3997
aS'521'
p3998
aasS'3M89'
p3999
(lp4000
(lp4001
I4179
aS'127'
p4002
aS'186'
p4003
aasS'2AG0'
p4004
(lp4005
(lp4006
I5925
aS'5'
aS'173'
p4007
aa(lp4008
I5928
aS'194'
p4009
aS'329'
p4010
aa(lp4011
I5932
aS'397'
p4012
aS'542'
p4013
aasS'3NIU'
p4014
(lp4015
(lp4016
I6795
aS'21'
p4017
aS'567'
p4018
aasS'2EZU'
p4019
(lp4020
(lp4021
I5925
aS'14'
p4022
aS'180'
p4023
aa(lp4024
I5928
aS'203'
p4025
aS'332'
p4026
aa(lp4027
I5932
aS'393'
p4028
aS'542'
p4029
aasS'2EZT'
p4030
(lp4031
(lp4032
I5925
aS'14'
p4033
aS'180'
p4034
aa(lp4035
I5928
aS'203'
p4036
aS'332'
p4037
aa(lp4038
I5932
aS'393'
p4039
aS'542'
p4040
aasS'3ERI'
p4041
(lp4042
(lp4043
I6795
aS'21'
p4044
aS'567'
p4045
aasS'1POW'
p4046
(lp4047
(lp4048
I5925
aS'14'
p4049
aS'180'
p4050
aa(lp4051
I5928
aS'203'
p4052
aS'332'
p4053
aa(lp4054
I5932
aS'393'
p4055
aS'542'
p4056
aasS'1TF9'
p4057
(lp4058
(lp4059
I6193
aS'66'
p4060
aS'270'
p4061
aasS'1TF8'
p4062
(lp4063
(lp4064
I6193
aS'66'
p4065
aS'270'
p4066
aasS'2AGO'
p4067
(lp4068
(lp4069
I2188
aS'169'
p4070
aS'199'
p4071
aa(lp4072
I6340
aS'6'
aS'155'
p4073
aasS'1POX'
p4074
(lp4075
(lp4076
I5925
aS'14'
p4077
aS'179'
p4078
aa(lp4079
I5928
aS'203'
p4080
aS'332'
p4081
aa(lp4082
I5932
aS'393'
p4083
aS'542'
p4084
aasS'2VK4'
p4085
(lp4086
(lp4087
I5925
aS'5'
aS'177'
p4088
aa(lp4089
I5928
aS'201'
p4090
aS'326'
p4091
aa(lp4092
I5932
aS'397'
p4093
aS'508'
p4094
aasS'2AGP'
p4095
(lp4096
(lp4097
I2188
aS'169'
p4098
aS'199'
p4099
aa(lp4100
I6340
aS'6'
aS'155'
p4101
aasS'2AGQ'
p4102
(lp4103
(lp4104
I2188
aS'169'
p4105
aS'199'
p4106
aa(lp4107
I6340
aS'6'
aS'155'
p4108
aasS'2EZ9'
p4109
(lp4110
(lp4111
I5925
aS'14'
p4112
aS'180'
p4113
aa(lp4114
I5928
aS'203'
p4115
aS'332'
p4116
aa(lp4117
I5932
aS'393'
p4118
aS'542'
p4119
aasS'2EZ8'
p4120
(lp4121
(lp4122
I5925
aS'14'
p4123
aS'180'
p4124
aa(lp4125
I5928
aS'203'
p4126
aS'332'
p4127
aa(lp4128
I5932
aS'393'
p4129
aS'542'
p4130
aasS'2EHA'
p4131
(lp4132
(lp4133
I6795
aS'21'
p4134
aS'567'
p4135
aasS'2EZ4'
p4136
(lp4137
(lp4138
I5925
aS'14'
p4139
aS'180'
p4140
aa(lp4141
I5928
aS'203'
p4142
aS'332'
p4143
aa(lp4144
I5932
aS'393'
p4145
aS'542'
p4146
aasS'2C6P'
p4147
(lp4148
(lp4149
I1653
aS'171'
p4150
aS'257'
p4151
aa(lp4152
I4881
aS'627'
p4153
aS'747'
p4154
aa(lp4155
I6193
aS'357'
p4156
aS'481'
p4157
aasS'2VK8'
p4158
(lp4159
(lp4160
I5925
aS'5'
aS'177'
p4161
aa(lp4162
I5928
aS'204'
p4163
aS'324'
p4164
aa(lp4165
I5932
aS'401'
p4166
aS'505'
p4167
aasS'4RS0'
p4168
(lp4169
(lp4170
I3392
aS'37'
p4171
aS'68'
p4172
aa(lp4173
I6795
aS'226'
p4174
aS'524'
p4175
aasS'4LJJ'
p4176
(lp4177
(lp4178
I6795
aS'21'
p4179
aS'567'
p4180
aasS'2JI7'
p4181
(lp4182
(lp4183
I5925
aS'12'
p4184
aS'179'
p4185
aa(lp4186
I5928
aS'203'
p4187
aS'331'
p4188
aa(lp4189
I5932
aS'411'
p4190
aS'542'
p4191
aasS'2JI6'
p4192
(lp4193
(lp4194
I5925
aS'12'
p4195
aS'179'
p4196
aa(lp4197
I5928
aS'203'
p4198
aS'331'
p4199
aa(lp4200
I5932
aS'411'
p4201
aS'542'
p4202
aasS'3FF3'
p4203
(lp4204
(lp4205
I1653
aS'161'
p4206
aS'245'
p4207
aa(lp4208
I4881
aS'617'
p4209
aS'737'
p4210
aa(lp4211
I6193
aS'347'
p4212
aS'550'
p4213
aasS'4LC4'
p4214
(lp4215
(lp4216
I4800
aS'54'
p4217
aS'313'
p4218
aasS'2JI9'
p4219
(lp4220
(lp4221
I5925
aS'12'
p4222
aS'179'
p4223
aa(lp4224
I5928
aS'203'
p4225
aS'331'
p4226
aa(lp4227
I5932
aS'411'
p4228
aS'542'
p4229
aasS'2JI8'
p4230
(lp4231
(lp4232
I5925
aS'12'
p4233
aS'179'
p4234
aa(lp4235
I5928
aS'203'
p4236
aS'331'
p4237
aa(lp4238
I5932
aS'411'
p4239
aS'542'
p4240
aasS'5C4I'
p4241
(lp4242
(lp4243
I2664
aS'16'
p4244
aS'237'
p4245
aa(lp4246
I3204
aS'283'
p4247
aS'306'
p4248
aa(lp4249
I3964
aS'35'
p4250
aS'194'
p4251
aa(lp4252
I5932
aS'51'
p4253
aS'221'
p4254
aasS'3BQ0'
p4255
(lp4256
(lp4257
I2188
aS'169'
p4258
aS'200'
p4259
aa(lp4260
I6340
aS'6'
aS'156'
p4261
aasS'3BQ1'
p4262
(lp4263
(lp4264
I2188
aS'169'
p4265
aS'200'
p4266
aa(lp4267
I6340
aS'6'
aS'156'
p4268
aasS'3BQ2'
p4269
(lp4270
(lp4271
I2188
aS'169'
p4272
aS'200'
p4273
aa(lp4274
I6340
aS'6'
aS'156'
p4275
aasS'1LIJ'
p4276
(lp4277
(lp4278
I4800
aS'62'
p4279
aS'355'
p4280
aasS'3UBO'
p4281
(lp4282
(lp4283
I4800
aS'54'
p4284
aS'315'
p4285
aasS'2UZA'
p4286
(lp4287
(lp4288
I2664
aS'16'
p4289
aS'247'
p4290
aa(lp4291
I2837
aS'630'
p4292
aS'678'
p4293
aa(lp4294
I3964
aS'426'
p4295
aS'610'
p4296
aa(lp4297
I5049
aS'688'
p4298
aS'756'
p4299
aa(lp4300
I5932
aS'951'
p4301
aS'1066'
p4302
aasS'2AFX'
p4303
(lp4304
(lp4305
I6193
aS'122'
p4306
aS'354'
p4307
aasS'2NSU'
p4308
(lp4309
(lp4310
I1653
aS'227'
p4311
aS'345'
p4312
aa(lp4313
I4881
aS'637'
p4314
aS'749'
p4315
aa(lp4316
I6193
aS'388'
p4317
aS'576'
p4318
aasS'4X3R'
p4319
(lp4320
(lp4321
I1653
aS'214'
p4322
aS'300'
p4323
aa(lp4324
I4881
aS'670'
p4325
aS'790'
p4326
aa(lp4327
I6193
aS'400'
p4328
aS'524'
p4329
aasS'4GC6'
p4330
(lp4331
(lp4332
I2188
aS'169'
p4333
aS'199'
p4334
aa(lp4335
I6340
aS'6'
aS'155'
p4336
aasS'4GC7'
p4337
(lp4338
(lp4339
I2188
aS'169'
p4340
aS'199'
p4341
aa(lp4342
I6340
aS'6'
aS'155'
p4343
aasS'2E9E'
p4344
(lp4345
(lp4346
I6795
aS'21'
p4347
aS'567'
p4348
aasS'2HXH'
p4349
(lp4350
(lp4351
I4179
aS'3'
aS'213'
p4352
aa(lp4353
I4179
aS'3'
aS'213'
p4354
aa(lp4355
I4645
aS'11'
p4356
aS'352'
p4357
aa(lp4358
I7068
aS'263'
p4359
aS'391'
p4360
aa(lp4361
I7068
aS'263'
p4362
aS'391'
p4363
aasS'2AFZ'
p4364
(lp4365
(lp4366
I6193
aS'122'
p4367
aS'354'
p4368
aasS'3Q7D'
p4369
(lp4370
(lp4371
I3392
aS'37'
p4372
aS'68'
p4373
aa(lp4374
I6795
aS'226'
p4375
aS'524'
p4376
aasS'2R8H'
p4377
(lp4378
(lp4379
I2188
aS'169'
p4380
aS'199'
p4381
aa(lp4382
I6340
aS'6'
aS'155'
p4383
aasS'2R8I'
p4384
(lp4385
(lp4386
I2188
aS'169'
p4387
aS'199'
p4388
aa(lp4389
I6340
aS'6'
aS'155'
p4390
aasS'3VH9'
p4391
(lp4392
(lp4393
I6193
aS'78'
p4394
aS'272'
p4395
aasS'4QEL'
p4396
(lp4397
(lp4398
I5925
aS'9'
aS'169'
p4399
aa(lp4400
I5928
aS'193'
p4401
aS'325'
p4402
aa(lp4403
I5932
aS'380'
p4404
aS'521'
p4405
aasS'3BHX'
p4406
(lp4407
(lp4408
I1653
aS'171'
p4409
aS'257'
p4410
aa(lp4411
I4881
aS'627'
p4412
aS'747'
p4413
aa(lp4414
I6193
aS'357'
p4415
aS'481'
p4416
aasS'3RY7'
p4417
(lp4418
(lp4419
I4800
aS'3'
aS'296'
p4420
aasS'4F61'
p4421
(lp4422
(lp4423
I4179
aS'3'
aS'213'
p4424
aa(lp4425
I4179
aS'3'
aS'213'
p4426
aa(lp4427
I5776
aS'7'
aS'136'
p4428
aa(lp4429
I5776
aS'131'
p4430
aS'169'
p4431
aa(lp4432
I5776
aS'161'
p4433
aS'241'
p4434
aa(lp4435
I7068
aS'263'
p4436
aS'391'
p4437
aa(lp4438
I7068
aS'263'
p4439
aS'391'
p4440
aasS'1BFD'
p4441
(lp4442
(lp4443
I5925
aS'9'
aS'169'
p4444
aa(lp4445
I5928
aS'193'
p4446
aS'325'
p4447
aa(lp4448
I5932
aS'380'
p4449
aS'521'
p4450
aasS'4PNX'
p4451
(lp4452
(lp4453
I6795
aS'21'
p4454
aS'567'
p4455
aasS'3N2G'
p4456
(lp4457
(lp4458
I4179
aS'3'
aS'213'
p4459
aa(lp4460
I4179
aS'3'
aS'213'
p4461
aa(lp4462
I5776
aS'7'
aS'139'
p4463
aa(lp4464
I7068
aS'263'
p4465
aS'391'
p4466
aa(lp4467
I7068
aS'263'
p4468
aS'391'
p4469
aasS'4R8U'
p4470
(lp4471
(lp4472
I2188
aS'167'
p4473
aS'198'
p4474
aa(lp4475
I2188
aS'167'
p4476
aS'198'
p4477
aa(lp4478
I5444
aS'236'
p4479
aS'341'
p4480
aa(lp4481
I5444
aS'236'
p4482
aS'338'
p4483
aa(lp4484
I6340
aS'8'
aS'155'
p4485
aa(lp4486
I6340
aS'8'
aS'155'
p4487
aasS'3N2K'
p4488
(lp4489
(lp4490
I4179
aS'3'
aS'213'
p4491
aa(lp4492
I4179
aS'3'
aS'213'
p4493
aa(lp4494
I5776
aS'7'
aS'139'
p4495
aa(lp4496
I7068
aS'263'
p4497
aS'391'
p4498
aa(lp4499
I7068
aS'263'
p4500
aS'391'
p4501
aasS'4TWE'
p4502
(lp4503
(lp4504
I1653
aS'160'
p4505
aS'246'
p4506
aa(lp4507
I4881
aS'616'
p4508
aS'735'
p4509
aa(lp4510
I6193
aS'348'
p4511
aS'556'
p4512
aasS'2BTQ'
p4513
(lp4514
(lp4515
I4179
aS'6'
aS'215'
p4516
aa(lp4517
I4179
aS'3'
aS'212'
p4518
aa(lp4519
I7068
aS'267'
p4520
aS'386'
p4521
aa(lp4522
I7068
aS'261'
p4523
aS'381'
p4524
aasS'2IHU'
p4525
(lp4526
(lp4527
I5925
aS'13'
p4528
aS'174'
p4529
aa(lp4530
I5928
aS'207'
p4531
aS'344'
p4532
aa(lp4533
I5932
aS'410'
p4534
aS'557'
p4535
aasS'1PXX'
p4536
(lp4537
(lp4538
I3392
aS'37'
p4539
aS'68'
p4540
aa(lp4541
I6795
aS'226'
p4542
aS'524'
p4543
aasS'2Q1X'
p4544
(lp4545
(lp4546
I4179
aS'11'
p4547
aS'169'
p4548
aa(lp4549
I6103
aS'219'
p4550
aS'312'
p4551
aasS'2Q1Y'
p4552
(lp4553
(lp4554
I4179
aS'11'
p4555
aS'169'
p4556
aa(lp4557
I6103
aS'219'
p4558
aS'312'
p4559
aasS'3PL2'
p4560
(lp4561
(lp4562
I4800
aS'8'
aS'306'
p4563
aasS'4OTJ'
p4564
(lp4565
(lp4566
I3392
aS'37'
p4567
aS'68'
p4568
aa(lp4569
I6795
aS'226'
p4570
aS'524'
p4571
aasS'3T5J'
p4572
(lp4573
(lp4574
I2188
aS'169'
p4575
aS'199'
p4576
aa(lp4577
I6340
aS'6'
aS'155'
p4578
aasS'3T5K'
p4579
(lp4580
(lp4581
I2188
aS'169'
p4582
aS'199'
p4583
aa(lp4584
I6340
aS'6'
aS'155'
p4585
aasS'3T5H'
p4586
(lp4587
(lp4588
I2188
aS'169'
p4589
aS'199'
p4590
aa(lp4591
I6340
aS'6'
aS'155'
p4592
aasS'3T5L'
p4593
(lp4594
(lp4595
I2188
aS'169'
p4596
aS'199'
p4597
aa(lp4598
I6340
aS'6'
aS'155'
p4599
aasS'3RKE'
p4600
(lp4601
(lp4602
I6795
aS'21'
p4603
aS'567'
p4604
aasS'2PKN'
p4605
(lp4606
(lp4607
I4800
aS'15'
p4608
aS'295'
p4609
aasS'2PKM'
p4610
(lp4611
(lp4612
I4800
aS'15'
p4613
aS'295'
p4614
aasS'3M8K'
p4615
(lp4616
(lp4617
I4179
aS'127'
p4618
aS'186'
p4619
aasS'2PKK'
p4620
(lp4621
(lp4622
I4800
aS'15'
p4623
aS'295'
p4624
aasS'3TUW'
p4625
(lp4626
(lp4627
I6795
aS'21'
p4628
aS'567'
p4629
aasS'2J6U'
p4630
(lp4631
(lp4632
I2188
aS'172'
p4633
aS'202'
p4634
aa(lp4635
I6340
aS'9'
aS'158'
p4636
aasS'2PKF'
p4637
(lp4638
(lp4639
I4800
aS'15'
p4640
aS'295'
p4641
aasS'2JBJ'
p4642
(lp4643
(lp4644
I1653
aS'171'
p4645
aS'257'
p4646
aa(lp4647
I4881
aS'627'
p4648
aS'747'
p4649
aa(lp4650
I6193
aS'357'
p4651
aS'481'
p4652
aasS'2JBK'
p4653
(lp4654
(lp4655
I1653
aS'171'
p4656
aS'257'
p4657
aa(lp4658
I4881
aS'627'
p4659
aS'747'
p4660
aa(lp4661
I6193
aS'357'
p4662
aS'481'
p4663
aasS'4X20'
p4664
(lp4665
(lp4666
I4179
aS'3'
aS'213'
p4667
aa(lp4668
I4179
aS'3'
aS'213'
p4669
aa(lp4670
I5776
aS'9'
aS'139'
p4671
aa(lp4672
I7068
aS'263'
p4673
aS'391'
p4674
aa(lp4675
I7068
aS'263'
p4676
aS'391'
p4677
aasS'1OVM'
p4678
(lp4679
(lp4680
I5925
aS'7'
aS'178'
p4681
aa(lp4682
I5928
aS'203'
p4683
aS'320'
p4684
aa(lp4685
I5932
aS'396'
p4686
aS'528'
p4687
aasS'3TC8'
p4688
(lp4689
(lp4690
I6193
aS'104'
p4691
aS'325'
p4692
aasS'3VAQ'
p4693
(lp4694
(lp4695
I4800
aS'38'
p4696
aS'338'
p4697
aasS'3VAS'
p4698
(lp4699
(lp4700
I4800
aS'38'
p4701
aS'338'
p4702
aasS'4OTY'
p4703
(lp4704
(lp4705
I3392
aS'37'
p4706
aS'68'
p4707
aa(lp4708
I6795
aS'226'
p4709
aS'524'
p4710
aasS'1B0P'
p4711
(lp4712
(lp4713
I2664
aS'16'
p4714
aS'247'
p4715
aa(lp4716
I2837
aS'630'
p4717
aS'678'
p4718
aa(lp4719
I3964
aS'426'
p4720
aS'610'
p4721
aa(lp4722
I5049
aS'688'
p4723
aS'756'
p4724
aa(lp4725
I5932
aS'951'
p4726
aS'1066'
p4727
aasS'1U67'
p4728
(lp4729
(lp4730
I3392
aS'37'
p4731
aS'68'
p4732
aa(lp4733
I6795
aS'225'
p4734
aS'521'
p4735
aasS'3RYH'
p4736
(lp4737
(lp4738
I4179
aS'3'
aS'213'
p4739
aa(lp4740
I4179
aS'3'
aS'213'
p4741
aa(lp4742
I5776
aS'7'
aS'139'
p4743
aa(lp4744
I7068
aS'263'
p4745
aS'391'
p4746
aa(lp4747
I7068
aS'263'
p4748
aS'391'
p4749
aasS'3RYI'
p4750
(lp4751
(lp4752
I4179
aS'3'
aS'213'
p4753
aa(lp4754
I4179
aS'3'
aS'213'
p4755
aa(lp4756
I5776
aS'7'
aS'139'
p4757
aa(lp4758
I7068
aS'263'
p4759
aS'391'
p4760
aa(lp4761
I7068
aS'263'
p4762
aS'391'
p4763
aasS'2XKA'
p4764
(lp4765
(lp4766
I4179
aS'127'
p4767
aS'186'
p4768
aasS'3PR5'
p4769
(lp4770
(lp4771
I2188
aS'169'
p4772
aS'199'
p4773
aa(lp4774
I6340
aS'6'
aS'155'
p4775
aasS'3PR4'
p4776
(lp4777
(lp4778
I2188
aS'169'
p4779
aS'199'
p4780
aa(lp4781
I6340
aS'6'
aS'155'
p4782
aasS'4N08'
p4783
(lp4784
(lp4785
I4800
aS'38'
p4786
aS'332'
p4787
aasS'3RYC'
p4788
(lp4789
(lp4790
I4179
aS'3'
aS'213'
p4791
aa(lp4792
I4179
aS'3'
aS'213'
p4793
aa(lp4794
I5776
aS'7'
aS'139'
p4795
aa(lp4796
I7068
aS'263'
p4797
aS'391'
p4798
aa(lp4799
I7068
aS'263'
p4800
aS'391'
p4801
aasS'3SI1'
p4802
(lp4803
(lp4804
I6193
aS'123'
p4805
aS'355'
p4806
aasS'3SI0'
p4807
(lp4808
(lp4809
I6193
aS'122'
p4810
aS'354'
p4811
aasS'3SI2'
p4812
(lp4813
(lp4814
I6193
aS'123'
p4815
aS'355'
p4816
aasS'2DJI'
p4817
(lp4818
(lp4819
I5925
aS'9'
aS'175'
p4820
aa(lp4821
I5928
aS'197'
p4822
aS'327'
p4823
aa(lp4824
I5932
aS'388'
p4825
aS'537'
p4826
aasS'4RZR'
p4827
(lp4828
(lp4829
I2188
aS'169'
p4830
aS'199'
p4831
aa(lp4832
I6340
aS'6'
aS'155'
p4833
aasS'2J6S'
p4834
(lp4835
(lp4836
I2188
aS'169'
p4837
aS'199'
p4838
aa(lp4839
I6340
aS'6'
aS'155'
p4840
aasS'4NGT'
p4841
(lp4842
(lp4843
I1653
aS'171'
p4844
aS'257'
p4845
aa(lp4846
I4881
aS'627'
p4847
aS'747'
p4848
aa(lp4849
I6193
aS'357'
p4850
aS'481'
p4851
aasS'4NGS'
p4852
(lp4853
(lp4854
I1653
aS'171'
p4855
aS'257'
p4856
aa(lp4857
I4881
aS'627'
p4858
aS'747'
p4859
aa(lp4860
I6193
aS'357'
p4861
aS'481'
p4862
aasS'3BXI'
p4863
(lp4864
(lp4865
I6795
aS'21'
p4866
aS'567'
p4867
aasS'4NGQ'
p4868
(lp4869
(lp4870
I1653
aS'171'
p4871
aS'257'
p4872
aa(lp4873
I4881
aS'627'
p4874
aS'747'
p4875
aa(lp4876
I6193
aS'357'
p4877
aS'481'
p4878
aasS'4NGP'
p4879
(lp4880
(lp4881
I1653
aS'171'
p4882
aS'257'
p4883
aa(lp4884
I4881
aS'627'
p4885
aS'747'
p4886
aa(lp4887
I6193
aS'357'
p4888
aS'481'
p4889
aasS'1GQT'
p4890
(lp4891
(lp4892
I4800
aS'6'
aS'297'
p4893
aasS'2C31'
p4894
(lp4895
(lp4896
I5925
aS'12'
p4897
aS'179'
p4898
aa(lp4899
I5928
aS'203'
p4900
aS'331'
p4901
aa(lp4902
I5932
aS'411'
p4903
aS'542'
p4904
aasS'1TKJ'
p4905
(lp4906
(lp4907
I6193
aS'66'
p4908
aS'270'
p4909
aasS'3Q92'
p4910
(lp4911
(lp4912
I4800
aS'5'
aS'289'
p4913
aasS'1TKH'
p4914
(lp4915
(lp4916
I6193
aS'66'
p4917
aS'270'
p4918
aasS'1TKF'
p4919
(lp4920
(lp4921
I6193
aS'66'
p4922
aS'270'
p4923
aasS'5DEI'
p4924
(lp4925
(lp4926
I5925
aS'10'
p4927
aS'170'
p4928
aa(lp4929
I5928
aS'194'
p4930
aS'326'
p4931
aa(lp4932
I5932
aS'381'
p4933
aS'522'
p4934
aasS'4NGM'
p4935
(lp4936
(lp4937
I1653
aS'171'
p4938
aS'257'
p4939
aa(lp4940
I4881
aS'627'
p4941
aS'747'
p4942
aa(lp4943
I6193
aS'357'
p4944
aS'481'
p4945
aasS'4GN6'
p4946
(lp4947
(lp4948
I6795
aS'21'
p4949
aS'567'
p4950
aasS'2QQT'
p4951
(lp4952
(lp4953
I6795
aS'21'
p4954
aS'567'
p4955
aasS'3RB0'
p4956
(lp4957
(lp4958
I2188
aS'169'
p4959
aS'199'
p4960
aa(lp4961
I6340
aS'6'
aS'155'
p4962
aasS'3RB3'
p4963
(lp4964
(lp4965
I2188
aS'169'
p4966
aS'199'
p4967
aa(lp4968
I6340
aS'6'
aS'155'
p4969
aasS'3QAI'
p4970
(lp4971
(lp4972
I4800
aS'5'
aS'289'
p4973
aasS'3F6B'
p4974
(lp4975
(lp4976
I5925
aS'9'
aS'169'
p4977
aa(lp4978
I5928
aS'193'
p4979
aS'325'
p4980
aa(lp4981
I5932
aS'380'
p4982
aS'521'
p4983
aasS'1PVD'
p4984
(lp4985
(lp4986
I5925
aS'5'
aS'177'
p4987
aa(lp4988
I5928
aS'201'
p4989
aS'324'
p4990
aa(lp4991
I5932
aS'401'
p4992
aS'505'
p4993
aasS'4DXD'
p4994
(lp4995
(lp4996
I4179
aS'14'
p4997
aS'173'
p4998
aa(lp4999
I6103
aS'222'
p5000
aS'316'
p5001
aasS'4M10'
p5002
(lp5003
(lp5004
I3392
aS'37'
p5005
aS'68'
p5006
aa(lp5007
I6795
aS'226'
p5008
aS'524'
p5009
aasS'4M11'
p5010
(lp5011
(lp5012
I3392
aS'37'
p5013
aS'68'
p5014
aa(lp5015
I6795
aS'226'
p5016
aS'524'
p5017
aasS'3PY4'
p5018
(lp5019
(lp5020
I6795
aS'21'
p5021
aS'567'
p5022
aasS'4D5G'
p5023
(lp5024
(lp5025
I5925
aS'5'
aS'173'
p5026
aa(lp5027
I5928
aS'195'
p5028
aS'329'
p5029
aa(lp5030
I5932
aS'397'
p5031
aS'543'
p5032
aasS'3TZI'
p5033
(lp5034
(lp5035
I3392
aS'37'
p5036
aS'68'
p5037
aa(lp5038
I6795
aS'226'
p5039
aS'536'
p5040
aasS'1VK4'
p5041
(lp5042
(lp5043
I4800
aS'96'
p5044
aS'271'
p5045
aasS'3N8F'
p5046
(lp5047
(lp5048
I6795
aS'21'
p5049
aS'567'
p5050
aasS'4FAI'
p5051
(lp5052
(lp5053
I6193
aS'119'
p5054
aS'342'
p5055
aasS'3IN5'
p5056
(lp5057
(lp5058
I2188
aS'340'
p5059
aS'370'
p5060
aa(lp5061
I5444
aS'410'
p5062
aS'518'
p5063
aa(lp5064
I6340
aS'106'
p5065
aS'325'
p5066
aasS'1Q6Z'
p5067
(lp5068
(lp5069
I5925
aS'9'
aS'169'
p5070
aa(lp5071
I5928
aS'193'
p5072
aS'325'
p5073
aa(lp5074
I5932
aS'380'
p5075
aS'521'
p5076
aasS'3IN1'
p5077
(lp5078
(lp5079
I4800
aS'5'
aS'300'
p5080
aasS'1RTQ'
p5081
(lp5082
(lp5083
I6193
aS'78'
p5084
aS'272'
p5085
aasS'2XCP'
p5086
(lp5087
(lp5088
I2188
aS'169'
p5089
aS'199'
p5090
aa(lp5091
I6340
aS'6'
aS'155'
p5092
aasS'4HNA'
p5093
(lp5094
(lp5095
I4179
aS'3'
aS'213'
p5096
aa(lp5097
I4179
aS'3'
aS'213'
p5098
aa(lp5099
I4645
aS'14'
p5100
aS'325'
p5101
aa(lp5102
I7068
aS'263'
p5103
aS'391'
p5104
aa(lp5105
I7068
aS'263'
p5106
aS'391'
p5107
aa(lp5108
I7453
aS'117'
p5109
aS'165'
p5110
aa(lp5111
I7455
aS'18'
p5112
aS'110'
p5113
aasS'4IR9'
p5114
(lp5115
(lp5116
I2188
aS'166'
p5117
aS'197'
p5118
aa(lp5119
I5444
aS'235'
p5120
aS'341'
p5121
aa(lp5122
I6340
aS'7'
aS'154'
p5123
aasS'2PVV'
p5124
(lp5125
(lp5126
I1653
aS'171'
p5127
aS'257'
p5128
aa(lp5129
I4881
aS'627'
p5130
aS'747'
p5131
aa(lp5132
I6193
aS'357'
p5133
aS'481'
p5134
aasS'2XKB'
p5135
(lp5136
(lp5137
I4179
aS'127'
p5138
aS'186'
p5139
aasS'2IA6'
p5140
(lp5141
(lp5142
I2188
aS'169'
p5143
aS'199'
p5144
aa(lp5145
I2188
aS'169'
p5146
aS'199'
p5147
aa(lp5148
I6340
aS'6'
aS'155'
p5149
aa(lp5150
I6340
aS'6'
aS'155'
p5151
aasS'3HKD'
p5152
(lp5153
(lp5154
I4179
aS'3'
aS'213'
p5155
aa(lp5156
I4179
aS'3'
aS'213'
p5157
aa(lp5158
I5776
aS'7'
aS'139'
p5159
aa(lp5160
I7068
aS'263'
p5161
aS'391'
p5162
aa(lp5163
I7068
aS'263'
p5164
aS'391'
p5165
aasS'3HKE'
p5166
(lp5167
(lp5168
I4179
aS'3'
aS'213'
p5169
aa(lp5170
I4179
aS'3'
aS'213'
p5171
aa(lp5172
I5776
aS'7'
aS'139'
p5173
aa(lp5174
I7068
aS'263'
p5175
aS'391'
p5176
aa(lp5177
I7068
aS'263'
p5178
aS'391'
p5179
aasS'4LNU'
p5180
(lp5181
(lp5182
I4179
aS'3'
aS'213'
p5183
aa(lp5184
I4179
aS'3'
aS'213'
p5185
aa(lp5186
I4645
aS'14'
p5187
aS'323'
p5188
aa(lp5189
I7068
aS'263'
p5190
aS'391'
p5191
aa(lp5192
I7068
aS'263'
p5193
aS'391'
p5194
aa(lp5195
I7453
aS'117'
p5196
aS'165'
p5197
aa(lp5198
I7455
aS'18'
p5199
aS'110'
p5200
aasS'3Q9K'
p5201
(lp5202
(lp5203
I6795
aS'21'
p5204
aS'567'
p5205
aasS'2C3M'
p5206
(lp5207
(lp5208
I2664
aS'16'
p5209
aS'247'
p5210
aa(lp5211
I2837
aS'630'
p5212
aS'678'
p5213
aa(lp5214
I3964
aS'426'
p5215
aS'610'
p5216
aa(lp5217
I5049
aS'688'
p5218
aS'756'
p5219
aa(lp5220
I5932
aS'951'
p5221
aS'1066'
p5222
aasS'3HKB'
p5223
(lp5224
(lp5225
I4179
aS'3'
aS'213'
p5226
aa(lp5227
I4179
aS'3'
aS'213'
p5228
aa(lp5229
I5776
aS'7'
aS'139'
p5230
aa(lp5231
I7068
aS'263'
p5232
aS'391'
p5233
aa(lp5234
I7068
aS'263'
p5235
aS'391'
p5236
aasS'2C3O'
p5237
(lp5238
(lp5239
I2664
aS'16'
p5240
aS'247'
p5241
aa(lp5242
I2837
aS'630'
p5243
aS'678'
p5244
aa(lp5245
I3964
aS'426'
p5246
aS'610'
p5247
aa(lp5248
I5049
aS'688'
p5249
aS'756'
p5250
aa(lp5251
I5932
aS'951'
p5252
aS'1066'
p5253
aasS'2C3P'
p5254
(lp5255
(lp5256
I2664
aS'16'
p5257
aS'247'
p5258
aa(lp5259
I2837
aS'630'
p5260
aS'678'
p5261
aa(lp5262
I3964
aS'426'
p5263
aS'610'
p5264
aa(lp5265
I5049
aS'688'
p5266
aS'756'
p5267
aa(lp5268
I5932
aS'951'
p5269
aS'1066'
p5270
aasS'2C3U'
p5271
(lp5272
(lp5273
I2664
aS'16'
p5274
aS'247'
p5275
aa(lp5276
I2837
aS'630'
p5277
aS'678'
p5278
aa(lp5279
I3964
aS'426'
p5280
aS'610'
p5281
aa(lp5282
I5049
aS'688'
p5283
aS'756'
p5284
aa(lp5285
I5932
aS'951'
p5286
aS'1066'
p5287
aasS'3RBU'
p5288
(lp5289
(lp5290
I1653
aS'171'
p5291
aS'257'
p5292
aa(lp5293
I4881
aS'627'
p5294
aS'747'
p5295
aa(lp5296
I6193
aS'357'
p5297
aS'481'
p5298
aasS'2C3Y'
p5299
(lp5300
(lp5301
I2664
aS'16'
p5302
aS'247'
p5303
aa(lp5304
I2837
aS'630'
p5305
aS'678'
p5306
aa(lp5307
I3964
aS'426'
p5308
aS'610'
p5309
aa(lp5310
I5049
aS'688'
p5311
aS'756'
p5312
aa(lp5313
I5932
aS'951'
p5314
aS'1066'
p5315
aasS'4JV0'
p5316
(lp5317
(lp5318
I2188
aS'169'
p5319
aS'199'
p5320
aa(lp5321
I6340
aS'6'
aS'155'
p5322
aasS'3RYF'
p5323
(lp5324
(lp5325
I4179
aS'3'
aS'213'
p5326
aa(lp5327
I4179
aS'3'
aS'213'
p5328
aa(lp5329
I5776
aS'7'
aS'139'
p5330
aa(lp5331
I7068
aS'263'
p5332
aS'391'
p5333
aa(lp5334
I7068
aS'263'
p5335
aS'391'
p5336
aasS'2C22'
p5337
(lp5338
(lp5339
I2188
aS'169'
p5340
aS'199'
p5341
aa(lp5342
I6340
aS'6'
aS'155'
p5343
aasS'4KAH'
p5344
(lp5345
(lp5346
I4800
aS'54'
p5347
aS'313'
p5348
aasS'1T9B'
p5349
(lp5350
(lp5351
I5925
aS'93'
p5352
aS'256'
p5353
aa(lp5354
I5928
aS'289'
p5355
aS'431'
p5356
aa(lp5357
I5932
aS'496'
p5358
aS'643'
p5359
aasS'2QHP'
p5360
(lp5361
(lp5362
I4800
aS'20'
p5363
aS'287'
p5364
aasS'1T9D'
p5365
(lp5366
(lp5367
I5925
aS'93'
p5368
aS'256'
p5369
aa(lp5370
I5928
aS'289'
p5371
aS'431'
p5372
aa(lp5373
I5932
aS'496'
p5374
aS'643'
p5375
aasS'4MCQ'
p5376
(lp5377
(lp5378
I1653
aS'171'
p5379
aS'257'
p5380
aa(lp5381
I4881
aS'627'
p5382
aS'747'
p5383
aa(lp5384
I6193
aS'357'
p5385
aS'481'
p5386
aasS'4MCR'
p5387
(lp5388
(lp5389
I1653
aS'171'
p5390
aS'257'
p5391
aa(lp5392
I4881
aS'627'
p5393
aS'747'
p5394
aa(lp5395
I6193
aS'357'
p5396
aS'481'
p5397
aasS'2PDA'
p5398
(lp5399
(lp5400
I2664
aS'16'
p5401
aS'247'
p5402
aa(lp5403
I2837
aS'630'
p5404
aS'678'
p5405
aa(lp5406
I3964
aS'426'
p5407
aS'610'
p5408
aa(lp5409
I5049
aS'688'
p5410
aS'756'
p5411
aa(lp5412
I5932
aS'951'
p5413
aS'1066'
p5414
aasS'2JG5'
p5415
(lp5416
(lp5417
I4800
aS'11'
p5418
aS'280'
p5419
aasS'1XJO'
p5420
(lp5421
(lp5422
I6193
aS'66'
p5423
aS'270'
p5424
aasS'2JG1'
p5425
(lp5426
(lp5427
I4800
aS'8'
aS'292'
p5428
aasS'2VAW'
p5429
(lp5430
(lp5431
I4179
aS'14'
p5432
aS'173'
p5433
aa(lp5434
I6103
aS'222'
p5435
aS'316'
p5436
aasS'2NWH'
p5437
(lp5438
(lp5439
I4800
aS'1'
aS'291'
p5440
aasS'2HW1'
p5441
(lp5442
(lp5443
I4800
aS'4'
aS'289'
p5444
aasS'2VAR'
p5445
(lp5446
(lp5447
I4800
aS'4'
aS'300'
p5448
aasS'2VAP'
p5449
(lp5450
(lp5451
I4179
aS'39'
p5452
aS'199'
p5453
aa(lp5454
I6103
aS'247'
p5455
aS'341'
p5456
aasS'4N09'
p5457
(lp5458
(lp5459
I4800
aS'38'
p5460
aS'338'
p5461
aasS'3RB4'
p5462
(lp5463
(lp5464
I2188
aS'169'
p5465
aS'199'
p5466
aa(lp5467
I6340
aS'6'
aS'155'
p5468
aasS'3PVX'
p5469
(lp5470
(lp5471
I2188
aS'169'
p5472
aS'199'
p5473
aa(lp5474
I6340
aS'6'
aS'155'
p5475
aasS'3VOB'
p5476
(lp5477
(lp5478
I4179
aS'14'
p5479
aS'173'
p5480
aa(lp5481
I6103
aS'222'
p5482
aS'315'
p5483
aasS'3VOA'
p5484
(lp5485
(lp5486
I4179
aS'14'
p5487
aS'173'
p5488
aa(lp5489
I6103
aS'222'
p5490
aS'315'
p5491
aasS'4KAN'
p5492
(lp5493
(lp5494
I4800
aS'54'
p5495
aS'313'
p5496
aasS'4MZX'
p5497
(lp5498
(lp5499
I5925
aS'9'
aS'169'
p5500
aa(lp5501
I5928
aS'193'
p5502
aS'325'
p5503
aa(lp5504
I5932
aS'382'
p5505
aS'521'
p5506
aasS'4E3A'
p5507
(lp5508
(lp5509
I4800
aS'54'
p5510
aS'313'
p5511
aasS'4WJM'
p5512
(lp5513
(lp5514
I4800
aS'1'
aS'301'
p5515
aasS'4FM5'
p5516
(lp5517
(lp5518
I3392
aS'36'
p5519
aS'67'
p5520
aa(lp5521
I6795
aS'226'
p5522
aS'524'
p5523
aasS'3LHX'
p5524
(lp5525
(lp5526
I4800
aS'76'
p5527
aS'378'
p5528
aasS'2IPS'
p5529
(lp5530
(lp5531
I6795
aS'21'
p5532
aS'567'
p5533
aasS'3SJE'
p5534
(lp5535
(lp5536
I1653
aS'171'
p5537
aS'257'
p5538
aa(lp5539
I4881
aS'627'
p5540
aS'747'
p5541
aa(lp5542
I6193
aS'357'
p5543
aS'481'
p5544
aasS'3SJF'
p5545
(lp5546
(lp5547
I1653
aS'171'
p5548
aS'257'
p5549
aa(lp5550
I4881
aS'627'
p5551
aS'747'
p5552
aa(lp5553
I6193
aS'357'
p5554
aS'481'
p5555
aasS'3SJG'
p5556
(lp5557
(lp5558
I1653
aS'171'
p5559
aS'257'
p5560
aa(lp5561
I4881
aS'627'
p5562
aS'747'
p5563
aa(lp5564
I6193
aS'357'
p5565
aS'481'
p5566
aasS'4KGD'
p5567
(lp5568
(lp5569
I5925
aS'14'
p5570
aS'180'
p5571
aa(lp5572
I5928
aS'203'
p5573
aS'332'
p5574
aa(lp5575
I5932
aS'393'
p5576
aS'542'
p5577
aasS'1ZPD'
p5578
(lp5579
(lp5580
I5925
aS'4'
aS'178'
p5581
aa(lp5582
I5928
aS'199'
p5583
aS'305'
p5584
aa(lp5585
I5932
aS'409'
p5586
aS'537'
p5587
aasS'3FED'
p5588
(lp5589
(lp5590
I1653
aS'161'
p5591
aS'245'
p5592
aa(lp5593
I4881
aS'617'
p5594
aS'737'
p5595
aa(lp5596
I6193
aS'347'
p5597
aS'550'
p5598
aasS'3FEE'
p5599
(lp5600
(lp5601
I1653
aS'161'
p5602
aS'245'
p5603
aa(lp5604
I4881
aS'617'
p5605
aS'737'
p5606
aa(lp5607
I6193
aS'347'
p5608
aS'550'
p5609
aasS'3V3T'
p5610
(lp5611
(lp5612
I4179
aS'5'
aS'151'
p5613
aasS'3FEC'
p5614
(lp5615
(lp5616
I1653
aS'161'
p5617
aS'245'
p5618
aa(lp5619
I4881
aS'617'
p5620
aS'737'
p5621
aa(lp5622
I6193
aS'347'
p5623
aS'550'
p5624
aasS'3GBU'
p5625
(lp5626
(lp5627
I4800
aS'3'
aS'286'
p5628
aasS'1TYY'
p5629
(lp5630
(lp5631
I4800
aS'5'
aS'298'
p5632
aasS'3VO8'
p5633
(lp5634
(lp5635
I4179
aS'14'
p5636
aS'173'
p5637
aa(lp5638
I6103
aS'222'
p5639
aS'316'
p5640
aasS'3VO9'
p5641
(lp5642
(lp5643
I4179
aS'14'
p5644
aS'173'
p5645
aa(lp5646
I6103
aS'222'
p5647
aS'315'
p5648
aasS'2VAM'
p5649
(lp5650
(lp5651
I4179
aS'14'
p5652
aS'173'
p5653
aa(lp5654
I6103
aS'222'
p5655
aS'315'
p5656
aasS'1CVU'
p5657
(lp5658
(lp5659
I3392
aS'37'
p5660
aS'68'
p5661
aa(lp5662
I6795
aS'226'
p5663
aS'524'
p5664
aasS'2OYU'
p5665
(lp5666
(lp5667
I3392
aS'37'
p5668
aS'68'
p5669
aa(lp5670
I6795
aS'225'
p5671
aS'521'
p5672
aasS'2JGV'
p5673
(lp5674
(lp5675
I4800
aS'8'
aS'292'
p5676
aasS'1FT7'
p5677
(lp5678
(lp5679
I6193
aS'78'
p5680
aS'272'
p5681
aasS'3KHH'
p5682
(lp5683
(lp5684
I2188
aS'169'
p5685
aS'199'
p5686
aa(lp5687
I6340
aS'6'
aS'155'
p5688
aasS'2VA3'
p5689
(lp5690
(lp5691
I2188
aS'169'
p5692
aS'199'
p5693
aa(lp5694
I6340
aS'6'
aS'155'
p5695
aasS'2VA2'
p5696
(lp5697
(lp5698
I2188
aS'169'
p5699
aS'199'
p5700
aa(lp5701
I6340
aS'6'
aS'155'
p5702
aasS'4GG1'
p5703
(lp5704
(lp5705
I5925
aS'9'
aS'169'
p5706
aa(lp5707
I5928
aS'193'
p5708
aS'325'
p5709
aa(lp5710
I5932
aS'380'
p5711
aS'521'
p5712
aasS'3FLM'
p5713
(lp5714
(lp5715
I5925
aS'9'
aS'141'
p5716
aa(lp5717
I5932
aS'414'
p5718
aS'535'
p5719
aa(lp5720
I6972
aS'184'
p5721
aS'388'
p5722
aasS'2AFM'
p5723
(lp5724
(lp5725
I6193
aS'122'
p5726
aS'354'
p5727
aasS'4GPE'
p5728
(lp5729
(lp5730
I5925
aS'9'
aS'169'
p5731
aa(lp5732
I5928
aS'193'
p5733
aS'325'
p5734
aa(lp5735
I5932
aS'380'
p5736
aS'521'
p5737
aasS'3B1O'
p5738
(lp5739
(lp5740
I4800
aS'34'
p5741
aS'295'
p5742
aasS'1V5F'
p5743
(lp5744
(lp5745
I5925
aS'9'
aS'175'
p5746
aa(lp5747
I5928
aS'197'
p5748
aS'327'
p5749
aa(lp5750
I5932
aS'388'
p5751
aS'537'
p5752
aasS'2AFB'
p5753
(lp5754
(lp5755
I4800
aS'2'
aS'310'
p5756
aasS'3I6N'
p5757
(lp5758
(lp5759
I6795
aS'21'
p5760
aS'567'
p5761
aasS'4RJJ'
p5762
(lp5763
(lp5764
I5925
aS'16'
p5765
aS'181'
p5766
aa(lp5767
I5928
aS'201'
p5768
aS'334'
p5769
aa(lp5770
I5932
aS'397'
p5771
aS'543'
p5772
aasS'4MQ5'
p5773
(lp5774
(lp5775
I5925
aS'9'
aS'169'
p5776
aa(lp5777
I5928
aS'193'
p5778
aS'325'
p5779
aa(lp5780
I5932
aS'380'
p5781
aS'521'
p5782
aasS'2AFU'
p5783
(lp5784
(lp5785
I6193
aS'122'
p5786
aS'354'
p5787
aasS'2W93'
p5788
(lp5789
(lp5790
I5925
aS'5'
aS'177'
p5791
aa(lp5792
I5928
aS'201'
p5793
aS'324'
p5794
aa(lp5795
I5932
aS'401'
p5796
aS'505'
p5797
aasS'4RJK'
p5798
(lp5799
(lp5800
I5925
aS'16'
p5801
aS'181'
p5802
aa(lp5803
I5928
aS'201'
p5804
aS'334'
p5805
aa(lp5806
I5932
aS'397'
p5807
aS'543'
p5808
aasS'2C6C'
p5809
(lp5810
(lp5811
I1653
aS'171'
p5812
aS'257'
p5813
aa(lp5814
I4881
aS'627'
p5815
aS'747'
p5816
aa(lp5817
I6193
aS'357'
p5818
aS'481'
p5819
aasS'2AFS'
p5820
(lp5821
(lp5822
I6193
aS'122'
p5823
aS'354'
p5824
aasS'4NGR'
p5825
(lp5826
(lp5827
I1653
aS'171'
p5828
aS'257'
p5829
aa(lp5830
I4881
aS'627'
p5831
aS'747'
p5832
aa(lp5833
I6193
aS'357'
p5834
aS'481'
p5835
aasS'3UQ9'
p5836
(lp5837
(lp5838
I4800
aS'38'
p5839
aS'338'
p5840
aasS'3LOO'
p5841
(lp5842
(lp5843
I4800
aS'36'
p5844
aS'338'
p5845
aasS'3QH0'
p5846
(lp5847
(lp5848
I3392
aS'37'
p5849
aS'68'
p5850
aa(lp5851
I6795
aS'226'
p5852
aS'524'
p5853
aasS'3UQ6'
p5854
(lp5855
(lp5856
I4800
aS'38'
p5857
aS'338'
p5858
aasS'4XDA'
p5859
(lp5860
(lp5861
I4800
aS'1'
aS'294'
p5862
aasS'1HT8'
p5863
(lp5864
(lp5865
I3392
aS'37'
p5866
aS'68'
p5867
aa(lp5868
I6795
aS'225'
p5869
aS'521'
p5870
aasS'3RAQ'
p5871
(lp5872
(lp5873
I2188
aS'169'
p5874
aS'199'
p5875
aa(lp5876
I6340
aS'6'
aS'155'
p5877
aasS'3VPA'
p5878
(lp5879
(lp5880
I4179
aS'14'
p5881
aS'173'
p5882
aa(lp5883
I6103
aS'222'
p5884
aS'315'
p5885
aasS'1LOK'
p5886
(lp5887
(lp5888
I6193
aS'78'
p5889
aS'272'
p5890
aasS'3RO4'
p5891
(lp5892
(lp5893
I4800
aS'5'
aS'289'
p5894
aasS'4OEK'
p5895
(lp5896
(lp5897
I6795
aS'21'
p5898
aS'567'
p5899
aasS'3RAX'
p5900
(lp5901
(lp5902
I2188
aS'169'
p5903
aS'199'
p5904
aa(lp5905
I6340
aS'6'
aS'155'
p5906
aasS'1HT5'
p5907
(lp5908
(lp5909
I3392
aS'37'
p5910
aS'68'
p5911
aa(lp5912
I6795
aS'225'
p5913
aS'521'
p5914
aasS'3B1Q'
p5915
(lp5916
(lp5917
I4800
aS'34'
p5918
aS'295'
p5919
aasS'2VK1'
p5920
(lp5921
(lp5922
I5925
aS'5'
aS'177'
p5923
aa(lp5924
I5928
aS'204'
p5925
aS'326'
p5926
aa(lp5927
I5932
aS'401'
p5928
aS'505'
p5929
aasS'4U39'
p5930
(lp5931
(lp5932
I1138
aS'2'
aS'37'
p5933
aa(lp5934
I1138
aS'2'
aS'37'
p5935
aa(lp5936
I4179
aS'14'
p5937
aS'173'
p5938
aa(lp5939
I4179
aS'14'
p5940
aS'173'
p5941
aa(lp5942
I6103
aS'222'
p5943
aS'314'
p5944
aa(lp5945
I6103
aS'222'
p5946
aS'314'
p5947
aasS'1PGE'
p5948
(lp5949
(lp5950
I3392
aS'37'
p5951
aS'68'
p5952
aa(lp5953
I6795
aS'225'
p5954
aS'521'
p5955
aasS'2Q5R'
p5956
(lp5957
(lp5958
I4800
aS'8'
aS'292'
p5959
aasS'3KHG'
p5960
(lp5961
(lp5962
I2188
aS'169'
p5963
aS'199'
p5964
aa(lp5965
I6340
aS'6'
aS'155'
p5966
aasS'4KVJ'
p5967
(lp5968
(lp5969
I6795
aS'84'
p5970
aS'601'
p5971
aasS'2ANP'
p5972
(lp5973
(lp5974
I6193
aS'78'
p5975
aS'272'
p5976
aasS'3GO6'
p5977
(lp5978
(lp5979
I4800
aS'15'
p5980
aS'288'
p5981
aasS'2QCV'
p5982
(lp5983
(lp5984
I4800
aS'13'
p5985
aS'313'
p5986
aasS'1MCZ'
p5987
(lp5988
(lp5989
I5925
aS'9'
aS'169'
p5990
aa(lp5991
I5928
aS'193'
p5992
aS'325'
p5993
aa(lp5994
I5932
aS'380'
p5995
aS'521'
p5996
aasS'4U7X'
p5997
(lp5998
(lp5999
I4800
aS'1'
aS'301'
p6000
aasS'2FV7'
p6001
(lp6002
(lp6003
I4800
aS'18'
p6004
aS'312'
p6005
aasS'3N1C'
p6006
(lp6007
(lp6008
I4800
aS'12'
p6009
aS'296'
p6010
aasS'2OOT'
p6011
(lp6012
(lp6013
I1653
aS'171'
p6014
aS'257'
p6015
aa(lp6016
I4881
aS'627'
p6017
aS'747'
p6018
aa(lp6019
I6193
aS'357'
p6020
aS'481'
p6021
aasS'3UQE'
p6022
(lp6023
(lp6024
I4800
aS'12'
p6025
aS'296'
p6026
aasS'3UQD'
p6027
(lp6028
(lp6029
I4800
aS'12'
p6030
aS'296'
p6031
aasS'3R4X'
p6032
(lp6033
(lp6034
I6795
aS'21'
p6035
aS'567'
p6036
aasS'2NYQ'
p6037
(lp6038
(lp6039
I6193
aS'78'
p6040
aS'272'
p6041
aasS'1PGF'
p6042
(lp6043
(lp6044
I3392
aS'37'
p6045
aS'68'
p6046
aa(lp6047
I6795
aS'225'
p6048
aS'521'
p6049
aasS'1PGG'
p6050
(lp6051
(lp6052
I3392
aS'37'
p6053
aS'68'
p6054
aa(lp6055
I6795
aS'225'
p6056
aS'521'
p6057
aasS'2EK8'
p6058
(lp6059
(lp6060
I1653
aS'93'
p6061
aS'179'
p6062
aa(lp6063
I6193
aS'205'
p6064
aS'395'
p6065
aasS'2W9A'
p6066
(lp6067
(lp6068
I2188
aS'169'
p6069
aS'199'
p6070
aa(lp6071
I6340
aS'6'
aS'155'
p6072
aasS'1F2O'
p6073
(lp6074
(lp6075
I6193
aS'66'
p6076
aS'270'
p6077
aasS'2RBC'
p6078
(lp6079
(lp6080
I4800
aS'9'
aS'296'
p6081
aasS'2W9B'
p6082
(lp6083
(lp6084
I2188
aS'169'
p6085
aS'199'
p6086
aa(lp6087
I2188
aS'169'
p6088
aS'199'
p6089
aa(lp6090
I6340
aS'6'
aS'155'
p6091
aa(lp6092
I6340
aS'6'
aS'155'
p6093
aasS'4NJB'
p6094
(lp6095
(lp6096
I6795
aS'21'
p6097
aS'567'
p6098
aasS'1F2P'
p6099
(lp6100
(lp6101
I6193
aS'66'
p6102
aS'270'
p6103
aasS'2W9C'
p6104
(lp6105
(lp6106
I2188
aS'169'
p6107
aS'199'
p6108
aa(lp6109
I2188
aS'169'
p6110
aS'199'
p6111
aa(lp6112
I6340
aS'6'
aS'155'
p6113
aa(lp6114
I6340
aS'6'
aS'155'
p6115
aasS'2XTB'
p6116
(lp6117
(lp6118
I4800
aS'38'
p6119
aS'332'
p6120
aasS'1MHL'
p6121
(lp6122
(lp6123
I6795
aS'7'
aS'102'
p6124
aa(lp6125
I6795
aS'115'
p6126
aS'549'
p6127
aasS'2QPK'
p6128
(lp6129
(lp6130
I6795
aS'21'
p6131
aS'567'
p6132
aasS'2EK9'
p6133
(lp6134
(lp6135
I1653
aS'93'
p6136
aS'179'
p6137
aa(lp6138
I6193
aS'205'
p6139
aS'395'
p6140
aasS'3M9O'
p6141
(lp6142
(lp6143
I2188
aS'169'
p6144
aS'199'
p6145
aa(lp6146
I6340
aS'6'
aS'155'
p6147
aasS'3M9N'
p6148
(lp6149
(lp6150
I2188
aS'169'
p6151
aS'199'
p6152
aa(lp6153
I6340
aS'6'
aS'155'
p6154
aasS'3M9M'
p6155
(lp6156
(lp6157
I2188
aS'169'
p6158
aS'199'
p6159
aa(lp6160
I6340
aS'6'
aS'155'
p6161
aasS'1IGX'
p6162
(lp6163
(lp6164
I3392
aS'37'
p6165
aS'68'
p6166
aa(lp6167
I6795
aS'225'
p6168
aS'521'
p6169
aasS'2RHJ'
p6170
(lp6171
(lp6172
I4179
aS'14'
p6173
aS'173'
p6174
aa(lp6175
I6103
aS'222'
p6176
aS'315'
p6177
aasS'3FH4'
p6178
(lp6179
(lp6180
I6193
aS'78'
p6181
aS'272'
p6182
aasS'1N48'
p6183
(lp6184
(lp6185
I2188
aS'169'
p6186
aS'199'
p6187
aa(lp6188
I6340
aS'6'
aS'155'
p6189
aasS'3NCA'
p6190
(lp6191
(lp6192
I4800
aS'5'
aS'289'
p6193
aasS'2RHL'
p6194
(lp6195
(lp6196
I4179
aS'14'
p6197
aS'173'
p6198
aa(lp6199
I6103
aS'222'
p6200
aS'315'
p6201
aasS'1QQ9'
p6202
(lp6203
(lp6204
I6193
aS'66'
p6205
aS'270'
p6206
aasS'2AYL'
p6207
(lp6208
(lp6209
I3392
aS'37'
p6210
aS'68'
p6211
aa(lp6212
I6795
aS'225'
p6213
aS'521'
p6214
aasS'3V6H'
p6215
(lp6216
(lp6217
I2188
aS'169'
p6218
aS'199'
p6219
aa(lp6220
I6340
aS'6'
aS'155'
p6221
aasS'3V6K'
p6222
(lp6223
(lp6224
I2188
aS'169'
p6225
aS'199'
p6226
aa(lp6227
I6340
aS'6'
aS'155'
p6228
aasS'3V6J'
p6229
(lp6230
(lp6231
I2188
aS'169'
p6232
aS'199'
p6233
aa(lp6234
I6340
aS'6'
aS'155'
p6235
aasS'1Z8L'
p6236
(lp6237
(lp6238
I1653
aS'171'
p6239
aS'257'
p6240
aa(lp6241
I4881
aS'627'
p6242
aS'747'
p6243
aa(lp6244
I6193
aS'357'
p6245
aS'481'
p6246
aasS'3EYA'
p6247
(lp6248
(lp6249
I5925
aS'4'
aS'170'
p6250
aa(lp6251
I5928
aS'192'
p6252
aS'319'
p6253
aa(lp6254
I5932
aS'379'
p6255
aS'525'
p6256
aasS'3RB6'
p6257
(lp6258
(lp6259
I2188
aS'169'
p6260
aS'199'
p6261
aa(lp6262
I6340
aS'6'
aS'155'
p6263
aasS'3FSJ'
p6264
(lp6265
(lp6266
I5925
aS'9'
aS'169'
p6267
aa(lp6268
I5928
aS'193'
p6269
aS'325'
p6270
aa(lp6271
I5932
aS'380'
p6272
aS'521'
p6273
aasS'1BX4'
p6274
(lp6275
(lp6276
I4800
aS'28'
p6277
aS'339'
p6278
aasS'2XEF'
p6279
(lp6280
(lp6281
I1653
aS'171'
p6282
aS'257'
p6283
aa(lp6284
I4881
aS'627'
p6285
aS'747'
p6286
aa(lp6287
I6193
aS'357'
p6288
aS'481'
p6289
aasS'1W5F'
p6290
(lp6291
(lp6292
I4179
aS'23'
p6293
aS'181'
p6294
aa(lp6295
I6103
aS'234'
p6296
aS'327'
p6297
aasS'1W5E'
p6298
(lp6299
(lp6300
I4179
aS'39'
p6301
aS'199'
p6302
aa(lp6303
I6103
aS'247'
p6304
aS'341'
p6305
aasS'2RHO'
p6306
(lp6307
(lp6308
I4179
aS'14'
p6309
aS'173'
p6310
aa(lp6311
I6103
aS'222'
p6312
aS'315'
p6313
aasS'1W5B'
p6314
(lp6315
(lp6316
I4179
aS'39'
p6317
aS'199'
p6318
aa(lp6319
I6103
aS'247'
p6320
aS'341'
p6321
aasS'1W5A'
p6322
(lp6323
(lp6324
I4179
aS'39'
p6325
aS'199'
p6326
aa(lp6327
I6103
aS'247'
p6328
aS'341'
p6329
aasS'1TXR'
p6330
(lp6331
(lp6332
I6193
aS'78'
p6333
aS'272'
p6334
aasS'2PAN'
p6335
(lp6336
(lp6337
I5925
aS'4'
aS'172'
p6338
aa(lp6339
I5928
aS'193'
p6340
aS'328'
p6341
aa(lp6342
I5932
aS'393'
p6343
aS'553'
p6344
aasS'2J6T'
p6345
(lp6346
(lp6347
I2188
aS'169'
p6348
aS'199'
p6349
aa(lp6350
I6340
aS'6'
aS'155'
p6351
aasS'1PI3'
p6352
(lp6353
(lp6354
I5925
aS'9'
aS'169'
p6355
aa(lp6356
I5928
aS'193'
p6357
aS'325'
p6358
aa(lp6359
I5932
aS'380'
p6360
aS'521'
p6361
aasS'3S4F'
p6362
(lp6363
(lp6364
I6795
aS'21'
p6365
aS'567'
p6366
aasS'1WYE'
p6367
(lp6368
(lp6369
I4800
aS'2'
aS'298'
p6370
aasS'4K9P'
p6371
(lp6372
(lp6373
I5925
aS'9'
aS'169'
p6374
aa(lp6375
I5928
aS'193'
p6376
aS'325'
p6377
aa(lp6378
I5932
aS'380'
p6379
aS'521'
p6380
aasS'3JUL'
p6381
(lp6382
(lp6383
I4800
aS'21'
p6384
aS'285'
p6385
aasS'3HS5'
p6386
(lp6387
(lp6388
I3392
aS'37'
p6389
aS'68'
p6390
aa(lp6391
I6795
aS'226'
p6392
aS'524'
p6393
aasS'3HS6'
p6394
(lp6395
(lp6396
I3392
aS'37'
p6397
aS'68'
p6398
aa(lp6399
I6795
aS'226'
p6400
aS'524'
p6401
aasS'3HS7'
p6402
(lp6403
(lp6404
I3392
aS'37'
p6405
aS'68'
p6406
aa(lp6407
I6795
aS'226'
p6408
aS'524'
p6409
aasS'4YWY'
p6410
(lp6411
(lp6412
I6193
aS'122'
p6413
aS'354'
p6414
aasS'1W59'
p6415
(lp6416
(lp6417
I4179
aS'39'
p6418
aS'199'
p6419
aa(lp6420
I6103
aS'247'
p6421
aS'341'
p6422
aasS'1W58'
p6423
(lp6424
(lp6425
I4179
aS'39'
p6426
aS'199'
p6427
aa(lp6428
I6103
aS'247'
p6429
aS'341'
p6430
aasS'1YBH'
p6431
(lp6432
(lp6433
I5925
aS'98'
p6434
aS'261'
p6435
aa(lp6436
I5928
aS'290'
p6437
aS'420'
p6438
aa(lp6439
I5932
aS'484'
p6440
aS'639'
p6441
aasS'3EY9'
p6442
(lp6443
(lp6444
I5925
aS'4'
aS'170'
p6445
aa(lp6446
I5928
aS'192'
p6447
aS'319'
p6448
aa(lp6449
I5932
aS'379'
p6450
aS'525'
p6451
aasS'2ZEN'
p6452
(lp6453
(lp6454
I6193
aS'122'
p6455
aS'354'
p6456
aasS'3RBE'
p6457
(lp6458
(lp6459
I2188
aS'169'
p6460
aS'199'
p6461
aa(lp6462
I6340
aS'6'
aS'155'
p6463
aasS'3NC2'
p6464
(lp6465
(lp6466
I4800
aS'5'
aS'289'
p6467
aasS'4MHP'
p6468
(lp6469
(lp6470
I6193
aS'110'
p6471
aS'347'
p6472
aasS'4MHY'
p6473
(lp6474
(lp6475
I6193
aS'110'
p6476
aS'347'
p6477
aasS'1EBV'
p6478
(lp6479
(lp6480
I3392
aS'37'
p6481
aS'68'
p6482
aa(lp6483
I6795
aS'225'
p6484
aS'521'
p6485
aasS'4MHZ'
p6486
(lp6487
(lp6488
I6193
aS'110'
p6489
aS'347'
p6490
aasS'1Y9D'
p6491
(lp6492
(lp6493
I5925
aS'14'
p6494
aS'180'
p6495
aa(lp6496
I5928
aS'203'
p6497
aS'332'
p6498
aa(lp6499
I5932
aS'393'
p6500
aS'542'
p6501
aasS'4MHN'
p6502
(lp6503
(lp6504
I6193
aS'110'
p6505
aS'347'
p6506
aasS'1K1S'
p6507
(lp6508
(lp6509
I2188
aS'169'
p6510
aS'200'
p6511
aa(lp6512
I6340
aS'6'
aS'156'
p6513
aasS'3IKH'
p6514
(lp6515
(lp6516
I4800
aS'23'
p6517
aS'272'
p6518
aasS'1K1Q'
p6519
(lp6520
(lp6521
I2188
aS'169'
p6522
aS'200'
p6523
aa(lp6524
I6340
aS'6'
aS'156'
p6525
aasS'2ABQ'
p6526
(lp6527
(lp6528
I4800
aS'11'
p6529
aS'284'
p6530
aasS'2ABS'
p6531
(lp6532
(lp6533
I4800
aS'61'
p6534
aS'355'
p6535
aasS'2IKC'
p6536
(lp6537
(lp6538
I6795
aS'21'
p6539
aS'567'
p6540
aasS'4QPZ'
p6541
(lp6542
(lp6543
I5925
aS'5'
aS'173'
p6544
aa(lp6545
I5928
aS'194'
p6546
aS'329'
p6547
aa(lp6548
I5932
aS'392'
p6549
aS'542'
p6550
aasS'4M8I'
p6551
(lp6552
(lp6553
I4179
aS'14'
p6554
aS'173'
p6555
aa(lp6556
I6103
aS'222'
p6557
aS'316'
p6558
aasS'2UVR'
p6559
(lp6560
(lp6561
I2188
aS'169'
p6562
aS'199'
p6563
aa(lp6564
I6340
aS'6'
aS'155'
p6565
aasS'2UVU'
p6566
(lp6567
(lp6568
I2188
aS'169'
p6569
aS'199'
p6570
aa(lp6571
I6340
aS'6'
aS'155'
p6572
aasS'4TQR'
p6573
(lp6574
(lp6575
I2188
aS'169'
p6576
aS'199'
p6577
aa(lp6578
I6340
aS'6'
aS'155'
p6579
aasS'2UVW'
p6580
(lp6581
(lp6582
I2188
aS'169'
p6583
aS'199'
p6584
aa(lp6585
I6340
aS'6'
aS'155'
p6586
aasS'2UVV'
p6587
(lp6588
(lp6589
I2188
aS'169'
p6590
aS'199'
p6591
aa(lp6592
I6340
aS'6'
aS'155'
p6593
aasS'1D5L'
p6594
(lp6595
(lp6596
I6795
aS'7'
aS'102'
p6597
aa(lp6598
I6795
aS'115'
p6599
aS'549'
p6600
aasS'3CB2'
p6601
(lp6602
(lp6603
I4179
aS'4'
aS'214'
p6604
aa(lp6605
I7068
aS'264'
p6606
aS'391'
p6607
aasS'3I3Y'
p6608
(lp6609
(lp6610
I4800
aS'23'
p6611
aS'272'
p6612
aasS'3V6Q'
p6613
(lp6614
(lp6615
I6795
aS'21'
p6616
aS'567'
p6617
aasS'4FWU'
p6618
(lp6619
(lp6620
I6193
aS'96'
p6621
aS'322'
p6622
aasS'1IGZ'
p6623
(lp6624
(lp6625
I3392
aS'37'
p6626
aS'68'
p6627
aa(lp6628
I6795
aS'225'
p6629
aS'521'
p6630
aasS'2XC9'
p6631
(lp6632
(lp6633
I2188
aS'169'
p6634
aS'199'
p6635
aa(lp6636
I6340
aS'6'
aS'155'
p6637
aasS'2C2E'
p6638
(lp6639
(lp6640
I2188
aS'169'
p6641
aS'199'
p6642
aa(lp6643
I6340
aS'6'
aS'155'
p6644
aasS'2C2D'
p6645
(lp6646
(lp6647
I2188
aS'169'
p6648
aS'199'
p6649
aa(lp6650
I6340
aS'6'
aS'155'
p6651
aasS'3H49'
p6652
(lp6653
(lp6654
I4800
aS'5'
aS'300'
p6655
aasS'3QF1'
p6656
(lp6657
(lp6658
I6795
aS'21'
p6659
aS'567'
p6660
aasS'2C2R'
p6661
(lp6662
(lp6663
I2188
aS'169'
p6664
aS'199'
p6665
aa(lp6666
I6340
aS'6'
aS'155'
p6667
aasS'4HYK'
p6668
(lp6669
(lp6670
I2188
aS'169'
p6671
aS'200'
p6672
aa(lp6673
I6340
aS'6'
aS'156'
p6674
aasS'4PVV'
p6675
(lp6676
(lp6677
I4800
aS'15'
p6678
aS'295'
p6679
aasS'3PB7'
p6680
(lp6681
(lp6682
I6193
aS'150'
p6683
aS'375'
p6684
aasS'4K9I'
p6685
(lp6686
(lp6687
I4800
aS'54'
p6688
aS'313'
p6689
aasS'3HJ6'
p6690
(lp6691
(lp6692
I4800
aS'23'
p6693
aS'306'
p6694
aasS'2C28'
p6695
(lp6696
(lp6697
I2188
aS'169'
p6698
aS'199'
p6699
aa(lp6700
I6340
aS'6'
aS'155'
p6701
aasS'3ERH'
p6702
(lp6703
(lp6704
I6795
aS'21'
p6705
aS'567'
p6706
aasS'3FZN'
p6707
(lp6708
(lp6709
I5925
aS'9'
aS'169'
p6710
aa(lp6711
I5928
aS'193'
p6712
aS'325'
p6713
aa(lp6714
I5932
aS'380'
p6715
aS'521'
p6716
aasS'2ZEG'
p6717
(lp6718
(lp6719
I6193
aS'122'
p6720
aS'354'
p6721
aasS'2ZEF'
p6722
(lp6723
(lp6724
I6193
aS'122'
p6725
aS'354'
p6726
aasS'2ZEE'
p6727
(lp6728
(lp6729
I6193
aS'122'
p6730
aS'354'
p6731
aasS'4K9K'
p6732
(lp6733
(lp6734
I5925
aS'9'
aS'169'
p6735
aa(lp6736
I5928
aS'193'
p6737
aS'325'
p6738
aa(lp6739
I5932
aS'380'
p6740
aS'521'
p6741
aasS'3Q1Y'
p6742
(lp6743
(lp6744
I4800
aS'21'
p6745
aS'288'
p6746
aasS'2ZEO'
p6747
(lp6748
(lp6749
I6193
aS'122'
p6750
aS'354'
p6751
aasS'2AB8'
p6752
(lp6753
(lp6754
I4800
aS'61'
p6755
aS'355'
p6756
aasS'2ZEM'
p6757
(lp6758
(lp6759
I6193
aS'122'
p6760
aS'354'
p6761
aasS'2ZEL'
p6762
(lp6763
(lp6764
I6193
aS'122'
p6765
aS'354'
p6766
aasS'2ZEH'
p6767
(lp6768
(lp6769
I6193
aS'122'
p6770
aS'354'
p6771
aasS'1IGB'
p6772
(lp6773
(lp6774
I6193
aS'78'
p6775
aS'272'
p6776
aasS'2ZEP'
p6777
(lp6778
(lp6779
I6193
aS'122'
p6780
aS'354'
p6781
aasS'4V8O'
p6782
(lp6783
(lp6784
I143
aS'10'
p6785
aS'223'
p6786
aa(lp6787
I145
aS'3'
aS'98'
p6788
aa(lp6789
I147
aS'6'
aS'70'
p6790
aa(lp6791
I148
aS'3'
aS'92'
p6792
aa(lp6793
I1731
aS'20'
p6794
aS'117'
p6795
aa(lp6796
I1732
aS'4'
aS'132'
p6797
aa(lp6798
I1735
aS'12'
p6799
aS'136'
p6800
aa(lp6801
I1739
aS'6'
aS'113'
p6802
aa(lp6803
I1787
aS'87'
p6804
aS'180'
p6805
aa(lp6806
I2019
aS'8'
aS'53'
p6807
aa(lp6808
I2020
aS'4'
aS'48'
p6809
aa(lp6810
I2021
aS'4'
aS'54'
p6811
aa(lp6812
I2023
aS'1'
aS'37'
p6813
aa(lp6814
I2024
aS'1'
aS'43'
p6815
aa(lp6816
I2417
aS'9'
aS'40'
p6817
aa(lp6818
I2446
aS'120'
p6819
aS'202'
p6820
aa(lp6821
I2767
aS'5'
aS'88'
p6822
aa(lp6823
I2772
aS'12'
p6824
aS'82'
p6825
aa(lp6826
I2772
aS'91'
p6827
aS'164'
p6828
aa(lp6829
I2835
aS'100'
p6830
aS'146'
p6831
aa(lp6832
I2994
aS'2'
aS'26'
p6833
aa(lp6834
I3071
aS'1'
aS'122'
p6835
aa(lp6836
I3544
aS'3'
aS'109'
p6837
aa(lp6838
I3545
aS'5'
aS'99'
p6839
aa(lp6840
I3547
aS'8'
aS'67'
p6841
aa(lp6842
I3548
aS'8'
aS'74'
p6843
aa(lp6844
I3549
aS'9'
aS'60'
p6845
aa(lp6846
I3550
aS'8'
aS'88'
p6847
aa(lp6848
I3553
aS'33'
p6849
aS'79'
p6850
aa(lp6851
I3809
aS'82'
p6852
aS'152'
p6853
aa(lp6854
I4161
aS'11'
p6855
aS'109'
p6856
aa(lp6857
I4162
aS'27'
p6858
aS'145'
p6859
aa(lp6860
I4492
aS'2'
aS'62'
p6861
aa(lp6862
I4654
aS'314'
p6863
aS'380'
p6864
aa(lp6865
I4903
aS'95'
p6866
aS'177'
p6867
aa(lp6868
I5041
aS'4'
aS'138'
p6869
aa(lp6870
I5042
aS'8'
aS'128'
p6871
aa(lp6872
I5050
aS'2'
aS'149'
p6873
aa(lp6874
I5273
aS'126'
p6875
aS'251'
p6876
aa(lp6877
I5434
aS'5'
aS'59'
p6878
aa(lp6879
I5516
aS'27'
p6880
aS'83'
p6881
aa(lp6882
I5517
aS'26'
p6883
aS'204'
p6884
aa(lp6885
I5519
aS'29'
p6886
aS'221'
p6887
aa(lp6888
I5520
aS'93'
p6889
aS'175'
p6890
aa(lp6891
I5521
aS'42'
p6892
aS'118'
p6893
aa(lp6894
I5532
aS'6'
aS'126'
p6895
aa(lp6896
I5533
aS'2'
aS'81'
p6897
aa(lp6898
I5991
aS'3'
aS'65'
p6899
aa(lp6900
I5992
aS'12'
p6901
aS'67'
p6902
aa(lp6903
I5995
aS'3'
aS'109'
p6904
aa(lp6905
I5996
aS'5'
aS'107'
p6906
aa(lp6907
I5997
aS'6'
aS'90'
p6908
aa(lp6909
I6226
aS'13'
p6910
aS'277'
p6911
aa(lp6912
I6228
aS'1'
aS'94'
p6913
aa(lp6914
I6345
aS'39'
p6915
aS'110'
p6916
aa(lp6917
I6403
aS'17'
p6918
aS'126'
p6919
aa(lp6920
I6412
aS'4'
aS'82'
p6921
aa(lp6922
I6965
aS'387'
p6923
aS'514'
p6924
aa(lp6925
I7148
aS'11'
p6926
aS'88'
p6927
aasS'4K9O'
p6928
(lp6929
(lp6930
I5925
aS'9'
aS'169'
p6931
aa(lp6932
I5928
aS'193'
p6933
aS'325'
p6934
aa(lp6935
I5932
aS'380'
p6936
aS'521'
p6937
aasS'4K8T'
p6938
(lp6939
(lp6940
I4800
aS'54'
p6941
aS'313'
p6942
aasS'4JUA'
p6943
(lp6944
(lp6945
I5925
aS'9'
aS'169'
p6946
aa(lp6947
I5928
aS'193'
p6948
aS'325'
p6949
aa(lp6950
I5932
aS'380'
p6951
aS'521'
p6952
aasS'4JUC'
p6953
(lp6954
(lp6955
I5925
aS'9'
aS'169'
p6956
aa(lp6957
I5928
aS'193'
p6958
aS'325'
p6959
aa(lp6960
I5932
aS'380'
p6961
aS'521'
p6962
aasS'4JUB'
p6963
(lp6964
(lp6965
I5925
aS'9'
aS'169'
p6966
aa(lp6967
I5928
aS'193'
p6968
aS'325'
p6969
aa(lp6970
I5932
aS'380'
p6971
aS'521'
p6972
aasS'1XRY'
p6973
(lp6974
(lp6975
I6193
aS'78'
p6976
aS'272'
p6977
aasS'4JUD'
p6978
(lp6979
(lp6980
I5925
aS'9'
aS'169'
p6981
aa(lp6982
I5928
aS'193'
p6983
aS'325'
p6984
aa(lp6985
I5932
aS'380'
p6986
aS'521'
p6987
aasS'3NT1'
p6988
(lp6989
(lp6990
I3392
aS'37'
p6991
aS'68'
p6992
aa(lp6993
I6795
aS'226'
p6994
aS'524'
p6995
aasS'4JUF'
p6996
(lp6997
(lp6998
I5925
aS'9'
aS'169'
p6999
aa(lp7000
I5928
aS'193'
p7001
aS'325'
p7002
aa(lp7003
I5932
aS'380'
p7004
aS'521'
p7005
aasS'4QWC'
p7006
(lp7007
(lp7008
I2188
aS'169'
p7009
aS'199'
p7010
aa(lp7011
I6340
aS'6'
aS'155'
p7012
aasS'3QZ7'
p7013
(lp7014
(lp7015
I2188
aS'169'
p7016
aS'199'
p7017
aa(lp7018
I6340
aS'6'
aS'155'
p7019
aasS'1Z5V'
p7020
(lp7021
(lp7022
I4179
aS'4'
aS'214'
p7023
aa(lp7024
I7068
aS'264'
p7025
aS'391'
p7026
aasS'1Z5W'
p7027
(lp7028
(lp7029
I4179
aS'4'
aS'214'
p7030
aa(lp7031
I7068
aS'264'
p7032
aS'391'
p7033
aasS'4JUZ'
p7034
(lp7035
(lp7036
I2188
aS'169'
p7037
aS'199'
p7038
aa(lp7039
I6340
aS'6'
aS'155'
p7040
aasS'4K8C'
p7041
(lp7042
(lp7043
I4800
aS'54'
p7044
aS'313'
p7045
aasS'2A9Y'
p7046
(lp7047
(lp7048
I4800
aS'61'
p7049
aS'355'
p7050
aasS'2A9Z'
p7051
(lp7052
(lp7053
I4800
aS'61'
p7054
aS'355'
p7055
aasS'3K9E'
p7056
(lp7057
(lp7058
I4800
aS'36'
p7059
aS'296'
p7060
aasS'1V5G'
p7061
(lp7062
(lp7063
I5925
aS'9'
aS'175'
p7064
aa(lp7065
I5928
aS'197'
p7066
aS'327'
p7067
aa(lp7068
I5932
aS'388'
p7069
aS'537'
p7070
aasS'1V5E'
p7071
(lp7072
(lp7073
I5925
aS'9'
aS'175'
p7074
aa(lp7075
I5928
aS'197'
p7076
aS'327'
p7077
aa(lp7078
I5932
aS'388'
p7079
aS'537'
p7080
aasS'3HWX'
p7081
(lp7082
(lp7083
I5925
aS'9'
aS'141'
p7084
aa(lp7085
I5932
aS'414'
p7086
aS'535'
p7087
aa(lp7088
I6972
aS'184'
p7089
aS'388'
p7090
aasS'3IE7'
p7091
(lp7092
(lp7093
I4800
aS'21'
p7094
aS'287'
p7095
aasS'3F9P'
p7096
(lp7097
(lp7098
I6795
aS'7'
aS'102'
p7099
aa(lp7100
I6795
aS'115'
p7101
aS'549'
p7102
aasS'4NGN'
p7103
(lp7104
(lp7105
I1653
aS'171'
p7106
aS'257'
p7107
aa(lp7108
I4881
aS'627'
p7109
aS'747'
p7110
aa(lp7111
I6193
aS'357'
p7112
aS'481'
p7113
aasS'3GC1'
p7114
(lp7115
(lp7116
I6795
aS'21'
p7117
aS'567'
p7118
aasS'3HWW'
p7119
(lp7120
(lp7121
I5925
aS'9'
aS'141'
p7122
aa(lp7123
I5932
aS'414'
p7124
aS'535'
p7125
aa(lp7126
I6972
aS'184'
p7127
aS'388'
p7128
aasS'2RHH'
p7129
(lp7130
(lp7131
I4179
aS'14'
p7132
aS'173'
p7133
aa(lp7134
I6103
aS'222'
p7135
aS'315'
p7136
aasS'2C4E'
p7137
(lp7138
(lp7139
I4800
aS'5'
aS'289'
p7140
aasS'5DGD'
p7141
(lp7142
(lp7143
I5925
aS'9'
aS'169'
p7144
aa(lp7145
I5928
aS'193'
p7146
aS'325'
p7147
aa(lp7148
I5932
aS'380'
p7149
aS'521'
p7150
aasS'3GCL'
p7151
(lp7152
(lp7153
I6795
aS'21'
p7154
aS'567'
p7155
aasS'4MCS'
p7156
(lp7157
(lp7158
I1653
aS'171'
p7159
aS'257'
p7160
aa(lp7161
I4881
aS'627'
p7162
aS'747'
p7163
aa(lp7164
I6193
aS'357'
p7165
aS'481'
p7166
aasS'3GCJ'
p7167
(lp7168
(lp7169
I6795
aS'21'
p7170
aS'567'
p7171
aasS'2I6B'
p7172
(lp7173
(lp7174
I4800
aS'28'
p7175
aS'330'
p7176
aasS'2V3W'
p7177
(lp7178
(lp7179
I5925
aS'9'
aS'169'
p7180
aa(lp7181
I5928
aS'193'
p7182
aS'325'
p7183
aa(lp7184
I5932
aS'380'
p7185
aS'521'
p7186
aasS'3GCK'
p7187
(lp7188
(lp7189
I6795
aS'21'
p7190
aS'567'
p7191
aasS'3PBB'
p7192
(lp7193
(lp7194
I6193
aS'122'
p7195
aS'354'
p7196
aasS'4K8K'
p7197
(lp7198
(lp7199
I4800
aS'54'
p7200
aS'313'
p7201
aasS'5DGT'
p7202
(lp7203
(lp7204
I5925
aS'9'
aS'169'
p7205
aa(lp7206
I5928
aS'193'
p7207
aS'325'
p7208
aa(lp7209
I5932
aS'380'
p7210
aS'521'
p7211
aasS'1Z8N'
p7212
(lp7213
(lp7214
I5925
aS'98'
p7215
aS'261'
p7216
aa(lp7217
I5928
aS'290'
p7218
aS'420'
p7219
aa(lp7220
I5932
aS'484'
p7221
aS'639'
p7222
aasS'4COK'
p7223
(lp7224
(lp7225
I5925
aS'4'
aS'175'
p7226
aa(lp7227
I5928
aS'199'
p7228
aS'315'
p7229
aa(lp7230
I5932
aS'405'
p7231
aS'529'
p7232
aasS'1S0M'
p7233
(lp7234
(lp7235
I2188
aS'169'
p7236
aS'199'
p7237
aa(lp7238
I6340
aS'6'
aS'155'
p7239
aasS'1S0N'
p7240
(lp7241
(lp7242
I2188
aS'169'
p7243
aS'199'
p7244
aa(lp7245
I6340
aS'6'
aS'155'
p7246
aasS'1S0O'
p7247
(lp7248
(lp7249
I2188
aS'169'
p7250
aS'199'
p7251
aa(lp7252
I6340
aS'6'
aS'155'
p7253
aasS'3IH0'
p7254
(lp7255
(lp7256
I4800
aS'2'
aS'286'
p7257
aasS'4FEE'
p7258
(lp7259
(lp7260
I5925
aS'14'
p7261
aS'180'
p7262
aa(lp7263
I5928
aS'203'
p7264
aS'332'
p7265
aa(lp7266
I5932
aS'393'
p7267
aS'542'
p7268
aasS'4FEG'
p7269
(lp7270
(lp7271
I5925
aS'14'
p7272
aS'180'
p7273
aa(lp7274
I5928
aS'203'
p7275
aS'332'
p7276
aa(lp7277
I5932
aS'393'
p7278
aS'542'
p7279
aasS'3KD6'
p7280
(lp7281
(lp7282
I4800
aS'32'
p7283
aS'279'
p7284
aasS'1OZH'
p7285
(lp7286
(lp7287
I5925
aS'13'
p7288
aS'176'
p7289
aa(lp7290
I5928
aS'197'
p7291
aS'331'
p7292
aa(lp7293
I5932
aS'393'
p7294
aS'538'
p7295
aasS'1OZF'
p7296
(lp7297
(lp7298
I5925
aS'13'
p7299
aS'176'
p7300
aa(lp7301
I5928
aS'197'
p7302
aS'331'
p7303
aa(lp7304
I5932
aS'393'
p7305
aS'538'
p7306
aasS'1OZG'
p7307
(lp7308
(lp7309
I5925
aS'13'
p7310
aS'176'
p7311
aa(lp7312
I5928
aS'197'
p7313
aS'331'
p7314
aa(lp7315
I5932
aS'393'
p7316
aS'538'
p7317
aasS'4COX'
p7318
(lp7319
(lp7320
I3392
aS'37'
p7321
aS'68'
p7322
aa(lp7323
I6795
aS'226'
p7324
aS'524'
p7325
aasS'3F6E'
p7326
(lp7327
(lp7328
I5925
aS'9'
aS'169'
p7329
aa(lp7330
I5928
aS'193'
p7331
aS'325'
p7332
aa(lp7333
I5932
aS'380'
p7334
aS'521'
p7335
aasS'1DE4'
p7336
(lp7337
(lp7338
I1653
aS'227'
p7339
aS'345'
p7340
aa(lp7341
I1690
aS'196'
p7342
aS'271'
p7343
aa(lp7344
I1690
aS'12'
p7345
aS'91'
p7346
aa(lp7347
I3760
aS'5'
aS'178'
p7348
aa(lp7349
I4881
aS'637'
p7350
aS'749'
p7351
aa(lp7352
I6193
aS'388'
p7353
aS'576'
p7354
aasS'3R5Q'
p7355
(lp7356
(lp7357
I6795
aS'21'
p7358
aS'567'
p7359
aasS'3NTB'
p7360
(lp7361
(lp7362
I3392
aS'37'
p7363
aS'68'
p7364
aa(lp7365
I6795
aS'226'
p7366
aS'524'
p7367
aasS'4JU9'
p7368
(lp7369
(lp7370
I5925
aS'9'
aS'169'
p7371
aa(lp7372
I5928
aS'193'
p7373
aS'325'
p7374
aa(lp7375
I5932
aS'380'
p7376
aS'521'
p7377
aasS'4JU8'
p7378
(lp7379
(lp7380
I5925
aS'9'
aS'169'
p7381
aa(lp7382
I5928
aS'193'
p7383
aS'325'
p7384
aa(lp7385
I5932
aS'380'
p7386
aS'521'
p7387
aasS'3QZ8'
p7388
(lp7389
(lp7390
I2188
aS'169'
p7391
aS'199'
p7392
aa(lp7393
I6340
aS'6'
aS'155'
p7394
aasS'2FWN'
p7395
(lp7396
(lp7397
I5925
aS'9'
aS'169'
p7398
aa(lp7399
I5928
aS'193'
p7400
aS'325'
p7401
aa(lp7402
I5932
aS'380'
p7403
aS'521'
p7404
aas.