(dp1
S'1NWD'
p2
(lp3
(lp4
I2637
aS'13'
p5
aS'72'
p6
aa(lp7
I2637
aS'85'
p8
aS'145'
p9
aasS'3KM4'
p10
(lp11
(lp12
I1279
aS'19'
p13
aS'338'
p14
aasS'1SBJ'
p15
(lp16
(lp17
I2637
aS'99'
p18
aS'157'
p19
aasS'3Q5I'
p20
(lp21
(lp22
I252
aS'59'
p23
aS'324'
p24
aa(lp25
I2637
aS'377'
p26
aS'442'
p27
aa(lp28
I2637
aS'456'
p29
aS'514'
p30
aasS'3Q5H'
p31
(lp32
(lp33
I1279
aS'13'
p34
aS'324'
p35
aa(lp36
I1279
aS'13'
p37
aS'324'
p38
aasS'4DVF'
p39
(lp40
(lp41
I1279
aS'14'
p42
aS'355'
p43
aasS'2IGX'
p44
(lp45
(lp46
I1279
aS'16'
p47
aS'324'
p48
aasS'2IGY'
p49
(lp50
(lp51
I1279
aS'16'
p52
aS'324'
p53
aasS'3FV3'
p54
(lp55
(lp56
I1279
aS'13'
p57
aS'328'
p58
aasS'3EWT'
p59
(lp60
(lp61
I2637
aS'13'
p62
aS'72'
p63
aa(lp64
I2637
aS'85'
p65
aS'145'
p66
aasS'3EWV'
p67
(lp68
(lp69
I2637
aS'13'
p70
aS'72'
p71
aa(lp72
I2637
aS'85'
p73
aS'145'
p74
aasS'3LNK'
p75
(lp76
(lp77
I1279
aS'75'
p78
aS'416'
p79
aasS'1W50'
p80
(lp81
(lp82
I1279
aS'14'
p83
aS'355'
p84
aasS'4FSL'
p85
(lp86
(lp87
I1279
aS'62'
p88
aS'403'
p89
aasS'1EAG'
p90
(lp91
(lp92
I1279
aS'13'
p93
aS'330'
p94
aasS'3T7P'
p95
(lp96
(lp97
I1279
aS'17'
p98
aS'329'
p99
aasS'4RZ1'
p100
(lp101
(lp102
I1279
aS'13'
p103
aS'324'
p104
aasS'1IH0'
p105
(lp106
(lp107
I2637
aS'99'
p108
aS'157'
p109
aasS'2ANL'
p110
(lp111
(lp112
I1279
aS'16'
p113
aS'324'
p114
aa(lp115
I1279
aS'16'
p116
aS'324'
p117
aasS'3URL'
p118
(lp119
(lp120
I1279
aS'17'
p121
aS'329'
p122
aasS'2QK5'
p123
(lp124
(lp125
I1279
aS'75'
p126
aS'416'
p127
aasS'1MIQ'
p128
(lp129
(lp130
I1279
aS'16'
p131
aS'323'
p132
aasS'2BKS'
p133
(lp134
(lp135
I1279
aS'14'
p136
aS'331'
p137
aasS'3URI'
p138
(lp139
(lp140
I1279
aS'17'
p141
aS'329'
p142
aasS'1PFZ'
p143
(lp144
(lp145
I1279
aS'16'
p146
aS'324'
p147
aasS'2VB6'
p148
(lp149
(lp150
I1461
aS'59'
p151
aS'759'
p152
aa(lp153
I2637
aS'13'
p154
aS'72'
p155
aa(lp156
I2637
aS'85'
p157
aS'145'
p158
aasS'1FQ8'
p159
(lp160
(lp161
I1279
aS'13'
p162
aS'325'
p163
aasS'1FQ6'
p164
(lp165
(lp166
I1279
aS'13'
p167
aS'325'
p168
aasS'1FQ7'
p169
(lp170
(lp171
I1279
aS'13'
p172
aS'325'
p173
aasS'1FQ4'
p174
(lp175
(lp176
I1279
aS'13'
p177
aS'325'
p178
aasS'1FQ5'
p179
(lp180
(lp181
I1279
aS'13'
p182
aS'325'
p183
aasS'4OR9'
p184
(lp185
(lp186
I1697
aS'93'
p187
aS'293'
p188
aa(lp189
I2637
aS'23'
p190
aS'77'
p191
aa(lp192
I2637
aS'91'
p193
aS'154'
p194
aasS'3V51'
p195
(lp196
(lp197
I252
aS'52'
p198
aS'308'
p199
aa(lp200
I2637
aS'364'
p201
aS'429'
p202
aa(lp203
I2637
aS'443'
p204
aS'500'
p205
aasS'2BKT'
p206
(lp207
(lp208
I1279
aS'14'
p209
aS'331'
p210
aasS'2NZ0'
p211
(lp212
(lp213
I910
aS'42'
p214
aS'131'
p215
aa(lp216
I964
aS'66'
p217
aS'114'
p218
aa(lp219
I2637
aS'127'
p220
aS'197'
p221
aa(lp222
I5955
aS'6'
aS'31'
p223
aasS'4ORA'
p224
(lp225
(lp226
I1697
aS'93'
p227
aS'293'
p228
aa(lp229
I2637
aS'23'
p230
aS'77'
p231
aa(lp232
I2637
aS'91'
p233
aS'154'
p234
aasS'4ORC'
p235
(lp236
(lp237
I1697
aS'93'
p238
aS'293'
p239
aa(lp240
I2637
aS'23'
p241
aS'77'
p242
aa(lp243
I2637
aS'91'
p244
aS'154'
p245
aasS'4ORB'
p246
(lp247
(lp248
I1697
aS'84'
p249
aS'284'
p250
aa(lp251
I2637
aS'23'
p252
aS'77'
p253
aa(lp254
I2637
aS'91'
p255
aS'154'
p256
aasS'1WKR'
p257
(lp258
(lp259
I1279
aS'14'
p260
aS'331'
p261
aasS'4M84'
p262
(lp263
(lp264
I252
aS'52'
p265
aS'308'
p266
aa(lp267
I2637
aS'364'
p268
aS'429'
p269
aa(lp270
I2637
aS'443'
p271
aS'500'
p272
aasS'2WF3'
p273
(lp274
(lp275
I1279
aS'75'
p276
aS'416'
p277
aasS'2WJO'
p278
(lp279
(lp280
I1279
aS'14'
p281
aS'355'
p282
aasS'2ZHR'
p283
(lp284
(lp285
I1279
aS'14'
p286
aS'355'
p287
aasS'2ZHS'
p288
(lp289
(lp290
I1279
aS'14'
p291
aS'355'
p292
aasS'2ZHT'
p293
(lp294
(lp295
I1279
aS'14'
p296
aS'355'
p297
aasS'2ZHU'
p298
(lp299
(lp300
I1279
aS'14'
p301
aS'355'
p302
aasS'2ZHV'
p303
(lp304
(lp305
I1279
aS'14'
p306
aS'355'
p307
aasS'3V5T'
p308
(lp309
(lp310
I252
aS'52'
p311
aS'308'
p312
aa(lp313
I2637
aS'364'
p314
aS'429'
p315
aa(lp316
I2637
aS'443'
p317
aS'500'
p318
aasS'3V5P'
p319
(lp320
(lp321
I252
aS'52'
p322
aS'308'
p323
aa(lp324
I2637
aS'364'
p325
aS'429'
p326
aa(lp327
I2637
aS'443'
p328
aS'500'
p329
aasS'1EPR'
p330
(lp331
(lp332
I1279
aS'14'
p333
aS'325'
p334
aasS'4MXA'
p335
(lp336
(lp337
I252
aS'51'
p338
aS'307'
p339
aa(lp340
I959
aS'362'
p341
aS'380'
p342
aa(lp343
I964
aS'403'
p344
aS'429'
p345
aa(lp346
I2637
aS'442'
p347
aS'499'
p348
aasS'1GGW'
p349
(lp350
(lp351
I2637
aS'83'
p352
aS'138'
p353
aasS'3WZ7'
p354
(lp355
(lp356
I1279
aS'17'
p357
aS'329'
p358
aasS'1IWQ'
p359
(lp360
(lp361
I680
aS'191'
p362
aS'208'
p363
aa(lp364
I2637
aS'13'
p365
aS'72'
p366
aa(lp367
I2637
aS'85'
p368
aS'145'
p369
aasS'1BIL'
p370
(lp371
(lp372
I1279
aS'13'
p373
aS'324'
p374
aasS'1BIM'
p375
(lp376
(lp377
I1279
aS'13'
p378
aS'324'
p379
aasS'3I79'
p380
(lp381
(lp382
I252
aS'52'
p383
aS'308'
p384
aa(lp385
I2637
aS'364'
p386
aS'429'
p387
aa(lp388
I2637
aS'443'
p389
aS'500'
p390
aasS'4MX9'
p391
(lp392
(lp393
I252
aS'51'
p394
aS'307'
p395
aa(lp396
I959
aS'362'
p397
aS'380'
p398
aa(lp399
I964
aS'403'
p400
aS'429'
p401
aa(lp402
I2637
aS'442'
p403
aS'499'
p404
aasS'2ER9'
p405
(lp406
(lp407
I1279
aS'14'
p408
aS'325'
p409
aasS'3I7C'
p410
(lp411
(lp412
I252
aS'52'
p413
aS'308'
p414
aa(lp415
I2637
aS'364'
p416
aS'429'
p417
aa(lp418
I2637
aS'443'
p419
aS'500'
p420
aasS'1GGZ'
p421
(lp422
(lp423
I2637
aS'13'
p424
aS'72'
p425
aa(lp426
I2637
aS'85'
p427
aS'143'
p428
aasS'2M3S'
p429
(lp430
(lp431
I2637
aS'16'
p432
aS'75'
p433
aa(lp434
I2637
aS'88'
p435
aS'148'
p436
aasS'1BU3'
p437
(lp438
(lp439
I2637
aS'43'
p440
aS'101'
p441
aasS'3I7B'
p442
(lp443
(lp444
I252
aS'52'
p445
aS'308'
p446
aa(lp447
I2637
aS'364'
p448
aS'429'
p449
aa(lp450
I2637
aS'443'
p451
aS'500'
p452
aasS'1CZI'
p453
(lp454
(lp455
I1279
aS'13'
p456
aS'325'
p457
aasS'4RCF'
p458
(lp459
(lp460
I1279
aS'14'
p461
aS'355'
p462
aasS'4RCE'
p463
(lp464
(lp465
I1279
aS'14'
p466
aS'355'
p467
aasS'4RCD'
p468
(lp469
(lp470
I1279
aS'14'
p471
aS'355'
p472
aasS'1EPN'
p473
(lp474
(lp475
I1279
aS'14'
p476
aS'325'
p477
aasS'3SKF'
p478
(lp479
(lp480
I1279
aS'14'
p481
aS'355'
p482
aasS'1EPL'
p483
(lp484
(lp485
I1279
aS'14'
p486
aS'325'
p487
aasS'4FSE'
p488
(lp489
(lp490
I1279
aS'62'
p491
aS'403'
p492
aasS'2NLN'
p493
(lp494
(lp495
I2637
aS'44'
p496
aS'105'
p497
aasS'1DFL'
p498
(lp499
(lp500
I1461
aS'86'
p501
aS'763'
p502
aa(lp503
I2637
aS'87'
p504
aS'146'
p505
aa(lp506
I2638
aS'19'
p507
aS'43'
p508
aa(lp509
I5670
aS'31'
p510
aS'71'
p511
aa(lp512
I6491
aS'780'
p513
aS'799'
p514
aasS'1Y1A'
p515
(lp516
(lp517
I2637
aS'109'
p518
aS'176'
p519
aasS'4JOO'
p520
(lp521
(lp522
I1279
aS'62'
p523
aS'403'
p524
aasS'4OD9'
p525
(lp526
(lp527
I1279
aS'14'
p528
aS'94'
p529
aa(lp530
I1279
aS'107'
p531
aS'345'
p532
aasS'1QS7'
p533
(lp534
(lp535
I2637
aS'13'
p536
aS'72'
p537
aa(lp538
I2637
aS'85'
p539
aS'145'
p540
aasS'3MSK'
p541
(lp542
(lp543
I1279
aS'14'
p544
aS'355'
p545
aasS'2V0Z'
p546
(lp547
(lp548
I1279
aS'13'
p549
aS'324'
p550
aasS'1Y1X'
p551
(lp552
(lp553
I2637
aS'30'
p554
aS'87'
p555
aa(lp556
I2637
aS'99'
p557
aS'154'
p558
aasS'4CKU'
p559
(lp560
(lp561
I1279
aS'16'
p562
aS'324'
p563
aasS'2RMP'
p564
(lp565
(lp566
I1279
aS'19'
p567
aS'353'
p568
aasS'3L5B'
p569
(lp570
(lp571
I1279
aS'75'
p572
aS'416'
p573
aasS'3L5C'
p574
(lp575
(lp576
I1279
aS'75'
p577
aS'416'
p578
aasS'3L5F'
p579
(lp580
(lp581
I1279
aS'75'
p582
aS'416'
p583
aasS'3L5D'
p584
(lp585
(lp586
I1279
aS'75'
p587
aS'416'
p588
aasS'1WDC'
p589
(lp590
(lp591
I2637
aS'87'
p592
aS'146'
p593
aa(lp594
I2638
aS'19'
p595
aS'43'
p596
aa(lp597
I6491
aS'780'
p598
aS'799'
p599
aasS'1PPL'
p600
(lp601
(lp602
I1279
aS'16'
p603
aS'321'
p604
aasS'1SMR'
p605
(lp606
(lp607
I1279
aS'13'
p608
aS'324'
p609
aasS'2W73'
p610
(lp611
(lp612
I2637
aS'13'
p613
aS'72'
p614
aa(lp615
I2637
aS'85'
p616
aS'145'
p617
aasS'4IVS'
p618
(lp619
(lp620
I1279
aS'14'
p621
aS'355'
p622
aasS'2HQW'
p623
(lp624
(lp625
I2637
aS'13'
p626
aS'72'
p627
aa(lp628
I2637
aS'85'
p629
aS'145'
p630
aasS'3L9I'
p631
(lp632
(lp633
I1461
aS'59'
p634
aS'759'
p635
aa(lp636
I2637
aS'13'
p637
aS'72'
p638
aa(lp639
I2637
aS'85'
p640
aS'145'
p641
aasS'2K0E'
p642
(lp643
(lp644
I2637
aS'13'
p645
aS'72'
p646
aa(lp647
I2637
aS'85'
p648
aS'145'
p649
aasS'4AMT'
p650
(lp651
(lp652
I1279
aS'62'
p653
aS'381'
p654
aa(lp655
I3187
aS'10'
p656
aS'29'
p657
aasS'2K0F'
p658
(lp659
(lp660
I2637
aS'9'
aS'68'
p661
aa(lp662
I2637
aS'81'
p663
aS'141'
p664
aasS'4BY5'
p665
(lp666
(lp667
I2631
aS'68'
p668
aS'90'
p669
aa(lp670
I2637
aS'101'
p671
aS'170'
p672
aasS'1V1G'
p673
(lp674
(lp675
I959
aS'79'
p676
aS'98'
p677
aa(lp678
I2637
aS'114'
p679
aS'176'
p680
aasS'4I2Y'
p681
(lp682
(lp683
I1607
aS'165'
p684
aS'304'
p685
aa(lp686
I2637
aS'318'
p687
aS'377'
p688
aa(lp689
I2637
aS'390'
p690
aS'448'
p691
aasS'2K0J'
p692
(lp693
(lp694
I2637
aS'13'
p695
aS'72'
p696
aa(lp697
I2637
aS'85'
p698
aS'145'
p699
aasS'2KN2'
p700
(lp701
(lp702
I2637
aS'11'
p703
aS'71'
p704
aasS'3VYF'
p705
(lp706
(lp707
I1279
aS'19'
p708
aS'338'
p709
aasS'3NYV'
p710
(lp711
(lp712
I252
aS'52'
p713
aS'308'
p714
aa(lp715
I2637
aS'364'
p716
aS'429'
p717
aa(lp718
I2637
aS'443'
p719
aS'500'
p720
aasS'2AAO'
p721
(lp722
(lp723
I2637
aS'29'
p724
aS'88'
p725
aa(lp726
I2637
aS'102'
p727
aS'159'
p728
aasS'2KNE'
p729
(lp730
(lp731
I2637
aS'13'
p732
aS'72'
p733
aa(lp734
I2637
aS'85'
p735
aS'145'
p736
aa(lp737
I3052
aS'1089'
p738
aS'1113'
p739
aasS'4BYF'
p740
(lp741
(lp742
I1461
aS'14'
p743
aS'683'
p744
aa(lp745
I2637
aS'14'
p746
aS'73'
p747
aa(lp748
I2637
aS'86'
p749
aS'146'
p750
aa(lp751
I6491
aS'702'
p752
aS'719'
p753
aasS'4BYA'
p754
(lp755
(lp756
I2637
aS'12'
p757
aS'72'
p758
aasS'4WTU'
p759
(lp760
(lp761
I1279
aS'14'
p762
aS'355'
p763
aasS'1PAL'
p764
(lp765
(lp766
I2637
aS'44'
p767
aS'105'
p768
aasS'2M7N'
p769
(lp770
(lp771
I2637
aS'80'
p772
aS'132'
p773
aasS'3BXL'
p774
(lp775
(lp776
I2637
aS'13'
p777
aS'72'
p778
aa(lp779
I2637
aS'85'
p780
aS'145'
p781
aasS'3BXK'
p782
(lp783
(lp784
I2637
aS'13'
p785
aS'72'
p786
aa(lp787
I2637
aS'85'
p788
aS'145'
p789
aasS'3FKT'
p790
(lp791
(lp792
I1279
aS'34'
p793
aS'375'
p794
aasS'3SG6'
p795
(lp796
(lp797
I1607
aS'63'
p798
aS'141'
p799
aa(lp800
I1607
aS'165'
p801
aS'303'
p802
aa(lp803
I2637
aS'319'
p804
aS'378'
p805
aa(lp806
I2637
aS'391'
p807
aS'450'
p808
aasS'2L98'
p809
(lp810
(lp811
I2637
aS'99'
p812
aS'157'
p813
aasS'2I2R'
p814
(lp815
(lp816
I910
aS'42'
p817
aS'131'
p818
aa(lp819
I964
aS'66'
p820
aS'114'
p821
aa(lp822
I2637
aS'127'
p823
aS'197'
p824
aa(lp825
I5955
aS'3'
aS'27'
p826
aasS'3SG5'
p827
(lp828
(lp829
I1607
aS'67'
p830
aS'139'
p831
aa(lp832
I1607
aS'163'
p833
aS'306'
p834
aa(lp835
I2637
aS'317'
p836
aS'375'
p837
aa(lp838
I2637
aS'389'
p839
aS'448'
p840
aasS'3T7Q'
p841
(lp842
(lp843
I1279
aS'17'
p844
aS'329'
p845
aasS'3L58'
p846
(lp847
(lp848
I1279
aS'75'
p849
aS'416'
p850
aasS'3L59'
p851
(lp852
(lp853
I1279
aS'75'
p854
aS'416'
p855
aasS'4QOX'
p856
(lp857
(lp858
I252
aS'70'
p859
aS'328'
p860
aa(lp861
I2637
aS'382'
p862
aS'450'
p863
aa(lp864
I2637
aS'464'
p865
aS'521'
p866
aasS'2V01'
p867
(lp868
(lp869
I2637
aS'13'
p870
aS'72'
p871
aa(lp872
I2637
aS'85'
p873
aS'145'
p874
aasS'2V02'
p875
(lp876
(lp877
I2637
aS'13'
p878
aS'72'
p879
aa(lp880
I2637
aS'85'
p881
aS'145'
p882
aasS'2IQG'
p883
(lp884
(lp885
I1279
aS'14'
p886
aS'355'
p887
aasS'2X51'
p888
(lp889
(lp890
I1461
aS'59'
p891
aS'759'
p892
aa(lp893
I2637
aS'14'
p894
aS'73'
p895
aa(lp896
I2637
aS'86'
p897
aS'146'
p898
aasS'3URJ'
p899
(lp900
(lp901
I1279
aS'17'
p902
aS'329'
p903
aasS'4IHP'
p904
(lp905
(lp906
I252
aS'52'
p907
aS'308'
p908
aa(lp909
I2637
aS'364'
p910
aS'429'
p911
aa(lp912
I2637
aS'443'
p913
aS'500'
p914
aasS'2B1U'
p915
(lp916
(lp917
I2637
aS'86'
p918
aS'142'
p919
aasS'4PEP'
p920
(lp921
(lp922
I1279
aS'13'
p923
aS'324'
p924
aasS'3ULG'
p925
(lp926
(lp927
I2637
aS'5'
aS'62'
p928
aasS'2IX7'
p929
(lp930
(lp931
I2637
aS'13'
p932
aS'72'
p933
aa(lp934
I2637
aS'85'
p935
aS'145'
p936
aa(lp937
I6491
aS'767'
p938
aS'786'
p939
aa(lp940
I6491
aS'791'
p941
aS'809'
p942
aasS'5CLM'
p943
(lp944
(lp945
I1279
aS'28'
p946
aS'369'
p947
aasS'3PI0'
p948
(lp949
(lp950
I1279
aS'17'
p951
aS'329'
p952
aasS'4APR'
p953
(lp954
(lp955
I1279
aS'16'
p956
aS'322'
p957
aasS'1PSN'
p958
(lp959
(lp960
I1279
aS'13'
p961
aS'324'
p962
aasS'1PSO'
p963
(lp964
(lp965
I1279
aS'13'
p966
aS'324'
p967
aasS'3PI5'
p968
(lp969
(lp970
I1279
aS'14'
p971
aS'355'
p972
aasS'4RGJ'
p973
(lp974
(lp975
I252
aS'70'
p976
aS'328'
p977
aa(lp978
I2637
aS'382'
p979
aS'450'
p980
aa(lp981
I2637
aS'464'
p982
aS'521'
p983
aasS'1PSA'
p984
(lp985
(lp986
I1279
aS'13'
p987
aS'324'
p988
aasS'2WEZ'
p989
(lp990
(lp991
I1279
aS'75'
p992
aS'416'
p993
aasS'4V0C'
p994
(lp995
(lp996
I2637
aS'13'
p997
aS'72'
p998
aa(lp999
I2637
aS'85'
p1000
aS'145'
p1001
aasS'2ASI'
p1002
(lp1003
(lp1004
I1279
aS'19'
p1005
aS'353'
p1006
aasS'1Y0V'
p1007
(lp1008
(lp1009
I2637
aS'13'
p1010
aS'72'
p1011
aa(lp1012
I2637
aS'85'
p1013
aS'145'
p1014
aa(lp1015
I3646
aS'64'
p1016
aS'277'
p1017
aa(lp1018
I5013
aS'299'
p1019
aS'468'
p1020
aasS'2WED'
p1021
(lp1022
(lp1023
I1279
aS'16'
p1024
aS'321'
p1025
aasS'3HR4'
p1026
(lp1027
(lp1028
I390
aS'541'
p1029
aS'672'
p1030
aa(lp1031
I2637
aS'13'
p1032
aS'72'
p1033
aa(lp1034
I2637
aS'85'
p1035
aS'145'
p1036
aasS'4APE'
p1037
(lp1038
(lp1039
I1279
aS'14'
p1040
aS'325'
p1041
aasS'2WEC'
p1042
(lp1043
(lp1044
I1279
aS'16'
p1045
aS'321'
p1046
aasS'2WEA'
p1047
(lp1048
(lp1049
I1279
aS'16'
p1050
aS'321'
p1051
aasS'2WEL'
p1052
(lp1053
(lp1054
I252
aS'14'
p1055
aS'272'
p1056
aa(lp1057
I252
aS'14'
p1058
aS'272'
p1059
aa(lp1060
I2637
aS'14'
p1061
aS'73'
p1062
aa(lp1063
I2637
aS'86'
p1064
aS'146'
p1065
aa(lp1066
I2637
aS'14'
p1067
aS'73'
p1068
aa(lp1069
I2637
aS'86'
p1070
aS'146'
p1071
aasS'4J9Z'
p1072
(lp1073
(lp1074
I2637
aS'13'
p1075
aS'72'
p1076
aa(lp1077
I2637
aS'85'
p1078
aS'145'
p1079
aa(lp1080
I5029
aS'413'
p1081
aS'487'
p1082
aasS'2HQ8'
p1083
(lp1084
(lp1085
I959
aS'20'
p1086
aS'36'
p1087
aa(lp1088
I2637
aS'110'
p1089
aS'161'
p1090
aasS'4GJ5'
p1091
(lp1092
(lp1093
I1279
aS'13'
p1094
aS'324'
p1095
aasS'4GJ7'
p1096
(lp1097
(lp1098
I1279
aS'13'
p1099
aS'324'
p1100
aasS'4GJ6'
p1101
(lp1102
(lp1103
I1279
aS'13'
p1104
aS'324'
p1105
aasS'4YRU'
p1106
(lp1107
(lp1108
I2631
aS'68'
p1109
aS'90'
p1110
aa(lp1111
I2637
aS'101'
p1112
aS'171'
p1113
aasS'1XA5'
p1114
(lp1115
(lp1116
I2637
aS'13'
p1117
aS'72'
p1118
aa(lp1119
I2637
aS'85'
p1120
aS'145'
p1121
aasS'1CM4'
p1122
(lp1123
(lp1124
I2637
aS'13'
p1125
aS'72'
p1126
aa(lp1127
I2637
aS'85'
p1128
aS'145'
p1129
aasS'4GJ9'
p1130
(lp1131
(lp1132
I1279
aS'13'
p1133
aS'324'
p1134
aasS'3TS5'
p1135
(lp1136
(lp1137
I2637
aS'87'
p1138
aS'146'
p1139
aa(lp1140
I2638
aS'24'
p1141
aS'53'
p1142
aa(lp1143
I6491
aS'780'
p1144
aS'799'
p1145
aasS'3T3V'
p1146
(lp1147
(lp1148
I252
aS'52'
p1149
aS'308'
p1150
aa(lp1151
I2637
aS'364'
p1152
aS'429'
p1153
aa(lp1154
I2637
aS'443'
p1155
aS'500'
p1156
aasS'4RLD'
p1157
(lp1158
(lp1159
I1279
aS'13'
p1160
aS'323'
p1161
aasS'4KE0'
p1162
(lp1163
(lp1164
I1279
aS'14'
p1165
aS'355'
p1166
aasS'4KE1'
p1167
(lp1168
(lp1169
I1279
aS'14'
p1170
aS'355'
p1171
aasS'4K9H'
p1172
(lp1173
(lp1174
I1279
aS'14'
p1175
aS'355'
p1176
aasS'4EXG'
p1177
(lp1178
(lp1179
I1279
aS'62'
p1180
aS'403'
p1181
aasS'4OV2'
p1182
(lp1183
(lp1184
I2631
aS'68'
p1185
aS'90'
p1186
aa(lp1187
I2637
aS'101'
p1188
aS'171'
p1189
aasS'1PPK'
p1190
(lp1191
(lp1192
I1279
aS'16'
p1193
aS'321'
p1194
aasS'3RTH'
p1195
(lp1196
(lp1197
I1279
aS'14'
p1198
aS'355'
p1199
aasS'3D91'
p1200
(lp1201
(lp1202
I1279
aS'19'
p1203
aS'338'
p1204
aasS'3B32'
p1205
(lp1206
(lp1207
I2637
aS'13'
p1208
aS'72'
p1209
aasS'3VCM'
p1210
(lp1211
(lp1212
I1279
aS'13'
p1213
aS'324'
p1214
aa(lp1215
I3187
aS'10'
p1216
aS'30'
p1217
aasS'1FMU'
p1218
(lp1219
(lp1220
I1279
aS'13'
p1221
aS'327'
p1222
aasS'1FMX'
p1223
(lp1224
(lp1225
I1279
aS'14'
p1226
aS'328'
p1227
aasS'3PBD'
p1228
(lp1229
(lp1230
I1279
aS'17'
p1231
aS'329'
p1232
aasS'3ZMG'
p1233
(lp1234
(lp1235
I1279
aS'75'
p1236
aS'416'
p1237
aasS'4GJD'
p1238
(lp1239
(lp1240
I1279
aS'13'
p1241
aS'324'
p1242
aasS'4BFB'
p1243
(lp1244
(lp1245
I1279
aS'30'
p1246
aS'368'
p1247
aa(lp1248
I2388
aS'170'
p1249
aS'269'
p1250
aasS'4H3J'
p1251
(lp1252
(lp1253
I1279
aS'75'
p1254
aS'416'
p1255
aasS'4GJA'
p1256
(lp1257
(lp1258
I1279
aS'13'
p1259
aS'324'
p1260
aasS'3PBZ'
p1261
(lp1262
(lp1263
I1279
aS'17'
p1264
aS'329'
p1265
aasS'4GJC'
p1266
(lp1267
(lp1268
I1279
aS'13'
p1269
aS'324'
p1270
aasS'4GJB'
p1271
(lp1272
(lp1273
I1279
aS'13'
p1274
aS'324'
p1275
aasS'3KYR'
p1276
(lp1277
(lp1278
I1279
aS'14'
p1279
aS'355'
p1280
aasS'4LP9'
p1281
(lp1282
(lp1283
I1279
aS'14'
p1284
aS'325'
p1285
aasS'2K7D'
p1286
(lp1287
(lp1288
I2637
aS'104'
p1289
aS'165'
p1290
aasS'1W6H'
p1291
(lp1292
(lp1293
I1279
aS'16'
p1294
aS'324'
p1295
aasS'1W6I'
p1296
(lp1297
(lp1298
I1279
aS'16'
p1299
aS'324'
p1300
aasS'1LVC'
p1301
(lp1302
(lp1303
I2637
aS'13'
p1304
aS'72'
p1305
aa(lp1306
I2637
aS'85'
p1307
aS'145'
p1308
aa(lp1309
I5013
aS'299'
p1310
aS'468'
p1311
aasS'1SME'
p1312
(lp1313
(lp1314
I1279
aS'16'
p1315
aS'324'
p1316
aasS'2K7C'
p1317
(lp1318
(lp1319
I2637
aS'104'
p1320
aS'165'
p1321
aasS'4ZL4'
p1322
(lp1323
(lp1324
I1279
aS'275'
p1325
aS'462'
p1326
aa(lp1327
I4679
aS'62'
p1328
aS'221'
p1329
aasS'1YV0'
p1330
(lp1331
(lp1332
I964
aS'33'
p1333
aS'85'
p1334
aa(lp1335
I1916
aS'165'
p1336
aS'203'
p1337
aa(lp1338
I1916
aS'14'
p1339
aS'118'
p1340
aa(lp1341
I2637
aS'99'
p1342
aS'157'
p1343
aasS'2G27'
p1344
(lp1345
(lp1346
I1279
aS'14'
p1347
aS'331'
p1348
aasS'2G26'
p1349
(lp1350
(lp1351
I1279
aS'14'
p1352
aS'331'
p1353
aasS'4DH6'
p1354
(lp1355
(lp1356
I1279
aS'14'
p1357
aS'355'
p1358
aasS'2G24'
p1359
(lp1360
(lp1361
I1279
aS'14'
p1362
aS'331'
p1363
aasS'2G20'
p1364
(lp1365
(lp1366
I1279
aS'14'
p1367
aS'333'
p1368
aasS'3SG7'
p1369
(lp1370
(lp1371
I1607
aS'67'
p1372
aS'139'
p1373
aa(lp1374
I1607
aS'163'
p1375
aS'303'
p1376
aa(lp1377
I2637
aS'317'
p1378
aS'376'
p1379
aa(lp1380
I2637
aS'389'
p1381
aS'448'
p1382
aasS'3C9X'
p1383
(lp1384
(lp1385
I1279
aS'13'
p1386
aS'325'
p1387
aasS'1CTR'
p1388
(lp1389
(lp1390
I2637
aS'13'
p1391
aS'72'
p1392
aa(lp1393
I2637
aS'85'
p1394
aS'145'
p1395
aasS'3SG4'
p1396
(lp1397
(lp1398
I1607
aS'51'
p1399
aS'139'
p1400
aa(lp1401
I1607
aS'163'
p1402
aS'306'
p1403
aa(lp1404
I2637
aS'317'
p1405
aS'376'
p1406
aa(lp1407
I2637
aS'389'
p1408
aS'448'
p1409
aasS'3SG3'
p1410
(lp1411
(lp1412
I1607
aS'51'
p1413
aS'139'
p1414
aa(lp1415
I1607
aS'163'
p1416
aS'303'
p1417
aa(lp1418
I2637
aS'317'
p1419
aS'376'
p1420
aa(lp1421
I2637
aS'389'
p1422
aS'448'
p1423
aasS'2YGG'
p1424
(lp1425
(lp1426
I2637
aS'14'
p1427
aS'73'
p1428
aa(lp1429
I2637
aS'86'
p1430
aS'146'
p1431
aa(lp1432
I3598
aS'623'
p1433
aS'685'
p1434
aasS'3RTN'
p1435
(lp1436
(lp1437
I1279
aS'14'
p1438
aS'355'
p1439
aasS'1CM1'
p1440
(lp1441
(lp1442
I2637
aS'13'
p1443
aS'72'
p1444
aa(lp1445
I2637
aS'85'
p1446
aS'145'
p1447
aasS'3QI1'
p1448
(lp1449
(lp1450
I1279
aS'20'
p1451
aS'361'
p1452
aa(lp1453
I1279
aS'20'
p1454
aS'361'
p1455
aasS'3JTD'
p1456
(lp1457
(lp1458
I2637
aS'87'
p1459
aS'146'
p1460
aa(lp1461
I2638
aS'19'
p1462
aS'43'
p1463
aa(lp1464
I6491
aS'780'
p1465
aS'799'
p1466
aasS'5TNC'
p1467
(lp1468
(lp1469
I964
aS'34'
p1470
aS'85'
p1471
aa(lp1472
I2637
aS'98'
p1473
aS'158'
p1474
aasS'3QRV'
p1475
(lp1476
(lp1477
I1279
aS'14'
p1478
aS'324'
p1479
aasS'4J0P'
p1480
(lp1481
(lp1482
I1279
aS'75'
p1483
aS'416'
p1484
aasS'1S1E'
p1485
(lp1486
(lp1487
I964
aS'66'
p1488
aS'114'
p1489
aa(lp1490
I2637
aS'127'
p1491
aS'197'
p1492
aasS'1DMO'
p1493
(lp1494
(lp1495
I2637
aS'13'
p1496
aS'72'
p1497
aa(lp1498
I2637
aS'85'
p1499
aS'145'
p1500
aasS'3UDJ'
p1501
(lp1502
(lp1503
I1279
aS'14'
p1504
aS'355'
p1505
aasS'1SR6'
p1506
(lp1507
(lp1508
I1461
aS'86'
p1509
aS'763'
p1510
aa(lp1511
I2637
aS'87'
p1512
aS'146'
p1513
aa(lp1514
I2638
aS'19'
p1515
aS'43'
p1516
aa(lp1517
I5670
aS'31'
p1518
aS'71'
p1519
aa(lp1520
I6491
aS'780'
p1521
aS'799'
p1522
aasS'1ZAP'
p1523
(lp1524
(lp1525
I1279
aS'13'
p1526
aS'330'
p1527
aasS'3UDK'
p1528
(lp1529
(lp1530
I1279
aS'14'
p1531
aS'355'
p1532
aasS'4HZT'
p1533
(lp1534
(lp1535
I1279
aS'75'
p1536
aS'416'
p1537
aasS'3O78'
p1538
(lp1539
(lp1540
I1607
aS'20'
p1541
aS'105'
p1542
aa(lp1543
I1607
aS'130'
p1544
aS'270'
p1545
aa(lp1546
I2637
aS'284'
p1547
aS'343'
p1548
aa(lp1549
I2637
aS'356'
p1550
aS'416'
p1551
aasS'1CFC'
p1552
(lp1553
(lp1554
I2637
aS'13'
p1555
aS'72'
p1556
aa(lp1557
I2637
aS'85'
p1558
aS'145'
p1559
aasS'4L79'
p1560
(lp1561
(lp1562
I1461
aS'18'
p1563
aS'688'
p1564
aa(lp1565
I2637
aS'14'
p1566
aS'73'
p1567
aa(lp1568
I2637
aS'86'
p1569
aS'146'
p1570
aasS'1QTX'
p1571
(lp1572
(lp1573
I2637
aS'13'
p1574
aS'72'
p1575
aa(lp1576
I2637
aS'85'
p1577
aS'145'
p1578
aasS'1OZS'
p1579
(lp1580
(lp1581
I2637
aS'99'
p1582
aS'157'
p1583
aasS'3O77'
p1584
(lp1585
(lp1586
I1607
aS'20'
p1587
aS'105'
p1588
aa(lp1589
I1607
aS'130'
p1590
aS'269'
p1591
aa(lp1592
I2637
aS'284'
p1593
aS'343'
p1594
aa(lp1595
I2637
aS'356'
p1596
aS'416'
p1597
aasS'1A75'
p1598
(lp1599
(lp1600
I2637
aS'43'
p1601
aS'101'
p1602
aa(lp1603
I2637
aS'43'
p1604
aS'101'
p1605
aasS'4BFD'
p1606
(lp1607
(lp1608
I1279
aS'75'
p1609
aS'416'
p1610
aasS'1EJ3'
p1611
(lp1612
(lp1613
I959
aS'18'
p1614
aS'36'
p1615
aa(lp1616
I2637
aS'112'
p1617
aS'165'
p1618
aasS'2BBM'
p1619
(lp1620
(lp1621
I2637
aS'13'
p1622
aS'72'
p1623
aa(lp1624
I2637
aS'85'
p1625
aS'145'
p1626
aasS'1IKU'
p1627
(lp1628
(lp1629
I964
aS'40'
p1630
aS'87'
p1631
aa(lp1632
I2637
aS'102'
p1633
aS'174'
p1634
aasS'1LEE'
p1635
(lp1636
(lp1637
I1279
aS'16'
p1638
aS'324'
p1639
aasS'2O5G'
p1640
(lp1641
(lp1642
I2637
aS'13'
p1643
aS'72'
p1644
aa(lp1645
I2637
aS'85'
p1646
aS'145'
p1647
aasS'4EWO'
p1648
(lp1649
(lp1650
I1279
aS'62'
p1651
aS'403'
p1652
aasS'1LYA'
p1653
(lp1654
(lp1655
I1279
aS'14'
p1656
aS'94'
p1657
aa(lp1658
I1279
aS'106'
p1659
aS'345'
p1660
aasS'1MPP'
p1661
(lp1662
(lp1663
I1279
aS'13'
p1664
aS'324'
p1665
aasS'2KXW'
p1666
(lp1667
(lp1668
I2637
aS'87'
p1669
aS'145'
p1670
aa(lp1671
I6491
aS'1908'
p1672
aS'1926'
p1673
aasS'3UDQ'
p1674
(lp1675
(lp1676
I1279
aS'14'
p1677
aS'355'
p1678
aasS'4TRZ'
p1679
(lp1680
(lp1681
I1279
aS'75'
p1682
aS'416'
p1683
aasS'3ZKG'
p1684
(lp1685
(lp1686
I1279
aS'30'
p1687
aS'368'
p1688
aasS'1HRN'
p1689
(lp1690
(lp1691
I1279
aS'13'
p1692
aS'324'
p1693
aasS'3UDR'
p1694
(lp1695
(lp1696
I1279
aS'14'
p1697
aS'355'
p1698
aasS'2L53'
p1699
(lp1700
(lp1701
I2637
aS'13'
p1702
aS'72'
p1703
aa(lp1704
I2637
aS'85'
p1705
aS'145'
p1706
aa(lp1707
I6491
aS'1904'
p1708
aS'1922'
p1709
aasS'2DFS'
p1710
(lp1711
(lp1712
I1461
aS'72'
p1713
aS'752'
p1714
aa(lp1715
I2637
aS'13'
p1716
aS'72'
p1717
aa(lp1718
I2637
aS'85'
p1719
aS'145'
p1720
aa(lp1721
I6491
aS'768'
p1722
aS'787'
p1723
aa(lp1724
I6491
aS'791'
p1725
aS'809'
p1726
aa(lp1727
I6491
aS'816'
p1728
aS'836'
p1729
aa(lp1730
I6491
aS'839'
p1731
aS'859'
p1732
aa(lp1733
I6491
aS'867'
p1734
aS'884'
p1735
aa(lp1736
I6491
aS'888'
p1737
aS'907'
p1738
aasS'2ZJM'
p1739
(lp1740
(lp1741
I1279
aS'14'
p1742
aS'355'
p1743
aasS'4TRW'
p1744
(lp1745
(lp1746
I1279
aS'75'
p1747
aS'416'
p1748
aasS'1CFD'
p1749
(lp1750
(lp1751
I2637
aS'13'
p1752
aS'72'
p1753
aa(lp1754
I2637
aS'85'
p1755
aS'145'
p1756
aasS'2AMI'
p1757
(lp1758
(lp1759
I2637
aS'12'
p1760
aS'72'
p1761
aasS'4L7G'
p1762
(lp1763
(lp1764
I1279
aS'14'
p1765
aS'355'
p1766
aasS'3L19'
p1767
(lp1768
(lp1769
I964
aS'412'
p1770
aS'438'
p1771
aa(lp1772
I2631
aS'370'
p1773
aS'397'
p1774
aa(lp1775
I2637
aS'452'
p1776
aS'509'
p1777
aasS'4L7H'
p1778
(lp1779
(lp1780
I1279
aS'14'
p1781
aS'355'
p1782
aasS'2JWW'
p1783
(lp1784
(lp1785
I2637
aS'44'
p1786
aS'105'
p1787
aasS'4L7J'
p1788
(lp1789
(lp1790
I1279
aS'14'
p1791
aS'355'
p1792
aasS'4OC6'
p1793
(lp1794
(lp1795
I1279
aS'14'
p1796
aS'94'
p1797
aa(lp1798
I1279
aS'106'
p1799
aS'345'
p1800
aasS'1JBA'
p1801
(lp1802
(lp1803
I2631
aS'61'
p1804
aS'86'
p1805
aa(lp1806
I2637
aS'97'
p1807
aS'172'
p1808
aasS'1CMS'
p1809
(lp1810
(lp1811
I1279
aS'15'
p1812
aS'322'
p1813
aasS'4IK9'
p1814
(lp1815
(lp1816
I1607
aS'51'
p1817
aS'139'
p1818
aa(lp1819
I1607
aS'163'
p1820
aS'303'
p1821
aa(lp1822
I2637
aS'317'
p1823
aS'376'
p1824
aa(lp1825
I2637
aS'389'
p1826
aS'448'
p1827
aasS'1GVX'
p1828
(lp1829
(lp1830
I1279
aS'17'
p1831
aS'330'
p1832
aasS'1XN2'
p1833
(lp1834
(lp1835
I1279
aS'14'
p1836
aS'355'
p1837
aasS'4PAL'
p1838
(lp1839
(lp1840
I2637
aS'44'
p1841
aS'105'
p1842
aasS'4IK1'
p1843
(lp1844
(lp1845
I1607
aS'51'
p1846
aS'139'
p1847
aa(lp1848
I1607
aS'163'
p1849
aS'303'
p1850
aa(lp1851
I2637
aS'317'
p1852
aS'376'
p1853
aa(lp1854
I2637
aS'389'
p1855
aS'448'
p1856
aasS'4IK3'
p1857
(lp1858
(lp1859
I1607
aS'51'
p1860
aS'139'
p1861
aa(lp1862
I1607
aS'163'
p1863
aS'303'
p1864
aa(lp1865
I2637
aS'317'
p1866
aS'376'
p1867
aa(lp1868
I2637
aS'389'
p1869
aS'448'
p1870
aasS'3SUI'
p1871
(lp1872
(lp1873
I2637
aS'13'
p1874
aS'72'
p1875
aa(lp1876
I2637
aS'85'
p1877
aS'145'
p1878
aasS'4IK5'
p1879
(lp1880
(lp1881
I1607
aS'51'
p1882
aS'139'
p1883
aa(lp1884
I1607
aS'163'
p1885
aS'303'
p1886
aa(lp1887
I2637
aS'317'
p1888
aS'376'
p1889
aa(lp1890
I2637
aS'389'
p1891
aS'448'
p1892
aasS'1GVT'
p1893
(lp1894
(lp1895
I1279
aS'17'
p1896
aS'330'
p1897
aa(lp1898
I1279
aS'17'
p1899
aS'330'
p1900
aasS'1GVU'
p1901
(lp1902
(lp1903
I1279
aS'17'
p1904
aS'330'
p1905
aasS'1G33'
p1906
(lp1907
(lp1908
I2637
aS'44'
p1909
aS'105'
p1910
aasS'3GP2'
p1911
(lp1912
(lp1913
I2637
aS'13'
p1914
aS'72'
p1915
aa(lp1916
I2637
aS'85'
p1917
aS'145'
p1918
aasS'3WLD'
p1919
(lp1920
(lp1921
I1607
aS'51'
p1922
aS'139'
p1923
aa(lp1924
I1607
aS'163'
p1925
aS'306'
p1926
aa(lp1927
I2637
aS'317'
p1928
aS'376'
p1929
aa(lp1930
I2637
aS'389'
p1931
aS'448'
p1932
aasS'1M63'
p1933
(lp1934
(lp1935
I1697
aS'84'
p1936
aS'284'
p1937
aa(lp1938
I2637
aS'23'
p1939
aS'77'
p1940
aa(lp1941
I2637
aS'91'
p1942
aS'154'
p1943
aa(lp1944
I7027
aS'8'
aS'162'
p1945
aasS'1CMG'
p1946
(lp1947
(lp1948
I2637
aS'85'
p1949
aS'145'
p1950
aasS'1CMF'
p1951
(lp1952
(lp1953
I2637
aS'85'
p1954
aS'145'
p1955
aasS'1BJF'
p1956
(lp1957
(lp1958
I2631
aS'67'
p1959
aS'90'
p1960
aa(lp1961
I2637
aS'101'
p1962
aS'170'
p1963
aasS'2I18'
p1964
(lp1965
(lp1966
I2637
aS'11'
p1967
aS'62'
p1968
aasS'3R2F'
p1969
(lp1970
(lp1971
I1279
aS'14'
p1972
aS'355'
p1973
aasS'2EHB'
p1974
(lp1975
(lp1976
I814
aS'307'
p1977
aS'364'
p1978
aa(lp1979
I959
aS'78'
p1980
aS'97'
p1981
aa(lp1982
I2637
aS'113'
p1983
aS'175'
p1984
aasS'4B1E'
p1985
(lp1986
(lp1987
I1279
aS'14'
p1988
aS'355'
p1989
aasS'4B1D'
p1990
(lp1991
(lp1992
I1279
aS'14'
p1993
aS'355'
p1994
aasS'3GW5'
p1995
(lp1996
(lp1997
I1279
aS'19'
p1998
aS'338'
p1999
aasS'4B1C'
p2000
(lp2001
(lp2002
I1279
aS'14'
p2003
aS'355'
p2004
aasS'4GID'
p2005
(lp2006
(lp2007
I1279
aS'62'
p2008
aS'403'
p2009
aasS'1YM4'
p2010
(lp2011
(lp2012
I1279
aS'14'
p2013
aS'355'
p2014
aasS'2RRT'
p2015
(lp2016
(lp2017
I2637
aS'9'
aS'69'
p2018
aasS'2F8P'
p2019
(lp2020
(lp2021
I959
aS'24'
p2022
aS'41'
p2023
aa(lp2024
I2637
aS'118'
p2025
aS'171'
p2026
aasS'1YM2'
p2027
(lp2028
(lp2029
I1279
aS'14'
p2030
aS'355'
p2031
aasS'3J41'
p2032
(lp2033
(lp2034
I2637
aS'13'
p2035
aS'72'
p2036
aa(lp2037
I2637
aS'85'
p2038
aS'145'
p2039
aa(lp2040
I2895
aS'9'
aS'219'
p2041
aasS'3PMU'
p2042
(lp2043
(lp2044
I1279
aS'17'
p2045
aS'329'
p2046
aasS'4R93'
p2047
(lp2048
(lp2049
I1279
aS'75'
p2050
aS'416'
p2051
aasS'4S1G'
p2052
(lp2053
(lp2054
I1279
aS'85'
p2055
aS'404'
p2056
aasS'1EXR'
p2057
(lp2058
(lp2059
I2637
aS'13'
p2060
aS'72'
p2061
aa(lp2062
I2637
aS'87'
p2063
aS'145'
p2064
aasS'1FPW'
p2065
(lp2066
(lp2067
I964
aS'40'
p2068
aS'89'
p2069
aa(lp2070
I2637
aS'102'
p2071
aS'171'
p2072
aasS'3PMY'
p2073
(lp2074
(lp2075
I1279
aS'17'
p2076
aS'329'
p2077
aasS'3E3R'
p2078
(lp2079
(lp2080
I959
aS'99'
p2081
aS'121'
p2082
aa(lp2083
I2637
aS'27'
p2084
aS'85'
p2085
aasS'2JZI'
p2086
(lp2087
(lp2088
I2637
aS'13'
p2089
aS'72'
p2090
aa(lp2091
I2637
aS'85'
p2092
aS'145'
p2093
aasS'3RVI'
p2094
(lp2095
(lp2096
I1279
aS'14'
p2097
aS'355'
p2098
aasS'2VJ6'
p2099
(lp2100
(lp2101
I1279
aS'75'
p2102
aS'416'
p2103
aasS'2VJ7'
p2104
(lp2105
(lp2106
I1279
aS'75'
p2107
aS'416'
p2108
aasS'2W4V'
p2109
(lp2110
(lp2111
I1461
aS'86'
p2112
aS'763'
p2113
aa(lp2114
I2637
aS'87'
p2115
aS'146'
p2116
aa(lp2117
I2638
aS'19'
p2118
aS'43'
p2119
aa(lp2120
I5670
aS'31'
p2121
aS'71'
p2122
aa(lp2123
I6491
aS'780'
p2124
aS'799'
p2125
aasS'4R95'
p2126
(lp2127
(lp2128
I1279
aS'75'
p2129
aS'416'
p2130
aasS'3G70'
p2131
(lp2132
(lp2133
I1279
aS'19'
p2134
aS'338'
p2135
aasS'1YRT'
p2136
(lp2137
(lp2138
I2637
aS'85'
p2139
aS'145'
p2140
aa(lp2141
I5013
aS'10'
p2142
aS'180'
p2143
aasS'1YRU'
p2144
(lp2145
(lp2146
I2637
aS'85'
p2147
aS'145'
p2148
aa(lp2149
I5013
aS'10'
p2150
aS'180'
p2151
aasS'1TCO'
p2152
(lp2153
(lp2154
I250
aS'13'
p2155
aS'104'
p2156
aa(lp2157
I1697
aS'84'
p2158
aS'284'
p2159
aa(lp2160
I2637
aS'23'
p2161
aS'77'
p2162
aa(lp2163
I2637
aS'91'
p2164
aS'154'
p2165
aasS'3QS1'
p2166
(lp2167
(lp2168
I1279
aS'14'
p2169
aS'324'
p2170
aasS'2PMY'
p2171
(lp2172
(lp2173
I2637
aS'13'
p2174
aS'69'
p2175
aasS'4ZPF'
p2176
(lp2177
(lp2178
I1279
aS'14'
p2179
aS'355'
p2180
aasS'4ANJ'
p2181
(lp2182
(lp2183
I1461
aS'59'
p2184
aS'759'
p2185
aa(lp2186
I1607
aS'1006'
p2187
aS'1228'
p2188
aa(lp2189
I2637
aS'13'
p2190
aS'72'
p2191
aa(lp2192
I2637
aS'85'
p2193
aS'145'
p2194
aasS'4LBT'
p2195
(lp2196
(lp2197
I1279
aS'17'
p2198
aS'329'
p2199
aasS'4ZPE'
p2200
(lp2201
(lp2202
I1279
aS'14'
p2203
aS'355'
p2204
aasS'1FW4'
p2205
(lp2206
(lp2207
I2637
aS'85'
p2208
aS'145'
p2209
aasS'3EXO'
p2210
(lp2211
(lp2212
I1279
aS'14'
p2213
aS'355'
p2214
aasS'3WZ6'
p2215
(lp2216
(lp2217
I1279
aS'17'
p2218
aS'329'
p2219
aasS'4I5J'
p2220
(lp2221
(lp2222
I2637
aS'283'
p2223
aS'380'
p2224
aasS'4I5K'
p2225
(lp2226
(lp2227
I2637
aS'283'
p2228
aS'380'
p2229
aasS'1UH7'
p2230
(lp2231
(lp2232
I1279
aS'16'
p2233
aS'322'
p2234
aasS'1XDH'
p2235
(lp2236
(lp2237
I1279
aS'16'
p2238
aS'324'
p2239
aasS'4I5N'
p2240
(lp2241
(lp2242
I88
aS'283'
p2243
aS'313'
p2244
aa(lp2245
I1697
aS'51'
p2246
aS'242'
p2247
aa(lp2248
I2637
aS'320'
p2249
aS'417'
p2250
aa(lp2251
I4185
aS'175'
p2252
aS'263'
p2253
aa(lp2254
I4185
aS'366'
p2255
aS'467'
p2256
aasS'1YR5'
p2257
(lp2258
(lp2259
I2637
aS'13'
p2260
aS'72'
p2261
aa(lp2262
I2637
aS'85'
p2263
aS'145'
p2264
aasS'4I5L'
p2265
(lp2266
(lp2267
I88
aS'283'
p2268
aS'313'
p2269
aa(lp2270
I1697
aS'51'
p2271
aS'242'
p2272
aa(lp2273
I2637
aS'320'
p2274
aS'417'
p2275
aa(lp2276
I4185
aS'175'
p2277
aS'263'
p2278
aa(lp2279
I4185
aS'366'
p2280
aS'467'
p2281
aasS'2Y4V'
p2282
(lp2283
(lp2284
I2637
aS'14'
p2285
aS'73'
p2286
aa(lp2287
I2637
aS'86'
p2288
aS'146'
p2289
aasS'2OPO'
p2290
(lp2291
(lp2292
I2637
aS'14'
p2293
aS'71'
p2294
aasS'4RRN'
p2295
(lp2296
(lp2297
I1279
aS'75'
p2298
aS'416'
p2299
aasS'4RRO'
p2300
(lp2301
(lp2302
I1279
aS'75'
p2303
aS'416'
p2304
aasS'4F0Z'
p2305
(lp2306
(lp2307
I1697
aS'84'
p2308
aS'284'
p2309
aa(lp2310
I2637
aS'23'
p2311
aS'77'
p2312
aa(lp2313
I2637
aS'91'
p2314
aS'154'
p2315
aasS'4H1E'
p2316
(lp2317
(lp2318
I1279
aS'75'
p2319
aS'416'
p2320
aasS'3FNU'
p2321
(lp2322
(lp2323
I1279
aS'15'
p2324
aS'324'
p2325
aasS'4PZW'
p2326
(lp2327
(lp2328
I1279
aS'75'
p2329
aS'416'
p2330
aasS'3FS7'
p2331
(lp2332
(lp2333
I2637
aS'43'
p2334
aS'105'
p2335
aasS'4FS4'
p2336
(lp2337
(lp2338
I1279
aS'75'
p2339
aS'416'
p2340
aasS'3HVG'
p2341
(lp2342
(lp2343
I1279
aS'14'
p2344
aS'355'
p2345
aasS'3FNS'
p2346
(lp2347
(lp2348
I1279
aS'15'
p2349
aS'324'
p2350
aasS'3PM4'
p2351
(lp2352
(lp2353
I1279
aS'17'
p2354
aS'329'
p2355
aasS'3VF3'
p2356
(lp2357
(lp2358
I1279
aS'14'
p2359
aS'342'
p2360
aasS'4L6B'
p2361
(lp2362
(lp2363
I1279
aS'17'
p2364
aS'329'
p2365
aasS'2K3S'
p2366
(lp2367
(lp2368
I2637
aS'85'
p2369
aS'145'
p2370
aa(lp2371
I4059
aS'5'
aS'104'
p2372
aasS'3PM8'
p2373
(lp2374
(lp2375
I2637
aS'375'
p2376
aS'434'
p2377
aa(lp2378
I2637
aS'450'
p2379
aS'507'
p2380
aasS'4RRS'
p2381
(lp2382
(lp2383
I1279
aS'75'
p2384
aS'416'
p2385
aasS'1AM5'
p2386
(lp2387
(lp2388
I1279
aS'13'
p2389
aS'325'
p2390
aasS'2ZE1'
p2391
(lp2392
(lp2393
I1279
aS'76'
p2394
aS'417'
p2395
aasS'4M2O'
p2396
(lp2397
(lp2398
I964
aS'40'
p2399
aS'87'
p2400
aa(lp2401
I2637
aS'102'
p2402
aS'174'
p2403
aasS'4FCO'
p2404
(lp2405
(lp2406
I1279
aS'62'
p2407
aS'403'
p2408
aasS'3SFC'
p2409
(lp2410
(lp2411
I1279
aS'13'
p2412
aS'324'
p2413
aasS'2REN'
p2414
(lp2415
(lp2416
I1279
aS'19'
p2417
aS'338'
p2418
aasS'1HQV'
p2419
(lp2420
(lp2421
I959
aS'31'
p2422
aS'50'
p2423
aa(lp2424
I2637
aS'97'
p2425
aS'154'
p2426
aasS'4TRY'
p2427
(lp2428
(lp2429
I1279
aS'75'
p2430
aS'416'
p2431
aasS'3AAK'
p2432
(lp2433
(lp2434
I964
aS'40'
p2435
aS'90'
p2436
aa(lp2437
I2637
aS'97'
p2438
aS'154'
p2439
aasS'3AAJ'
p2440
(lp2441
(lp2442
I964
aS'40'
p2443
aS'90'
p2444
aa(lp2445
I2637
aS'97'
p2446
aS'152'
p2447
aasS'4M2Q'
p2448
(lp2449
(lp2450
I964
aS'40'
p2451
aS'87'
p2452
aa(lp2453
I2637
aS'102'
p2454
aS'174'
p2455
aasS'4M2P'
p2456
(lp2457
(lp2458
I964
aS'40'
p2459
aS'87'
p2460
aa(lp2461
I2637
aS'102'
p2462
aS'174'
p2463
aasS'3UTL'
p2464
(lp2465
(lp2466
I1279
aS'13'
p2467
aS'324'
p2468
aasS'4OBZ'
p2469
(lp2470
(lp2471
I1279
aS'14'
p2472
aS'94'
p2473
aa(lp2474
I1279
aS'107'
p2475
aS'345'
p2476
aasS'1S5G'
p2477
(lp2478
(lp2479
I1461
aS'86'
p2480
aS'763'
p2481
aa(lp2482
I2637
aS'87'
p2483
aS'146'
p2484
aa(lp2485
I2638
aS'19'
p2486
aS'43'
p2487
aa(lp2488
I5670
aS'31'
p2489
aS'71'
p2490
aa(lp2491
I6491
aS'780'
p2492
aS'799'
p2493
aasS'3G6Z'
p2494
(lp2495
(lp2496
I1279
aS'19'
p2497
aS'338'
p2498
aasS'2JTZ'
p2499
(lp2500
(lp2501
I964
aS'32'
p2502
aS'83'
p2503
aa(lp2504
I2637
aS'99'
p2505
aS'157'
p2506
aasS'2LHI'
p2507
(lp2508
(lp2509
I2637
aS'13'
p2510
aS'72'
p2511
aa(lp2512
I2637
aS'86'
p2513
aS'142'
p2514
aasS'2HM1'
p2515
(lp2516
(lp2517
I1279
aS'14'
p2518
aS'355'
p2519
aasS'4BW8'
p2520
(lp2521
(lp2522
I2637
aS'13'
p2523
aS'72'
p2524
aa(lp2525
I2637
aS'85'
p2526
aS'145'
p2527
aasS'2P4J'
p2528
(lp2529
(lp2530
I1279
aS'14'
p2531
aS'355'
p2532
aasS'3QVI'
p2533
(lp2534
(lp2535
I1279
aS'15'
p2536
aS'324'
p2537
aasS'3QVC'
p2538
(lp2539
(lp2540
I1279
aS'15'
p2541
aS'324'
p2542
aasS'2I4Q'
p2543
(lp2544
(lp2545
I1279
aS'14'
p2546
aS'333'
p2547
aasS'4JP9'
p2548
(lp2549
(lp2550
I1279
aS'62'
p2551
aS'403'
p2552
aasS'3R1G'
p2553
(lp2554
(lp2555
I1279
aS'75'
p2556
aS'416'
p2557
aa(lp2558
I1690
aS'128'
p2559
aS'208'
p2560
aa(lp2561
I1690
aS'120'
p2562
aS'205'
p2563
aa(lp2564
I2388
aS'12'
p2565
aS'113'
p2566
aa(lp2567
I2388
aS'6'
aS'106'
p2568
aasS'2KDH'
p2569
(lp2570
(lp2571
I2637
aS'99'
p2572
aS'157'
p2573
aasS'1LIN'
p2574
(lp2575
(lp2576
I2637
aS'13'
p2577
aS'72'
p2578
aa(lp2579
I2637
aS'85'
p2580
aS'145'
p2581
aasS'4QNH'
p2582
(lp2583
(lp2584
I2637
aS'13'
p2585
aS'72'
p2586
aa(lp2587
I2637
aS'85'
p2588
aS'145'
p2589
aa(lp2590
I5029
aS'413'
p2591
aS'487'
p2592
aasS'3KHE'
p2593
(lp2594
(lp2595
I2637
aS'43'
p2596
aS'111'
p2597
aa(lp2598
I2637
aS'128'
p2599
aS'183'
p2600
aasS'2NR6'
p2601
(lp2602
(lp2603
I1279
aS'13'
p2604
aS'323'
p2605
aa(lp2606
I1690
aS'120'
p2607
aS'205'
p2608
aa(lp2609
I1690
aS'131'
p2610
aS'208'
p2611
aa(lp2612
I2388
aS'11'
p2613
aS'106'
p2614
aa(lp2615
I2388
aS'5'
aS'114'
p2616
aasS'2L2E'
p2617
(lp2618
(lp2619
I2631
aS'66'
p2620
aS'90'
p2621
aa(lp2622
I2637
aS'103'
p2623
aS'171'
p2624
aasS'1SCM'
p2625
(lp2626
(lp2627
I2637
aS'87'
p2628
aS'146'
p2629
aa(lp2630
I2638
aS'19'
p2631
aS'43'
p2632
aa(lp2633
I6491
aS'780'
p2634
aS'799'
p2635
aasS'1WRZ'
p2636
(lp2637
(lp2638
I2637
aS'13'
p2639
aS'72'
p2640
aa(lp2641
I2637
aS'85'
p2642
aS'145'
p2643
aasS'3PSY'
p2644
(lp2645
(lp2646
I1279
aS'17'
p2647
aS'329'
p2648
aasS'2QMD'
p2649
(lp2650
(lp2651
I1279
aS'75'
p2652
aS'416'
p2653
aasS'2QMF'
p2654
(lp2655
(lp2656
I1279
aS'75'
p2657
aS'416'
p2658
aasS'2QMG'
p2659
(lp2660
(lp2661
I1279
aS'75'
p2662
aS'416'
p2663
aasS'2IKO'
p2664
(lp2665
(lp2666
I1279
aS'14'
p2667
aS'333'
p2668
aasS'4B0Q'
p2669
(lp2670
(lp2671
I1279
aS'14'
p2672
aS'355'
p2673
aasS'1TQF'
p2674
(lp2675
(lp2676
I1279
aS'14'
p2677
aS'355'
p2678
aasS'3OAD'
p2679
(lp2680
(lp2681
I1279
aS'19'
p2682
aS'165'
p2683
aa(lp2684
I1279
aS'173'
p2685
aS'338'
p2686
aasS'3T3U'
p2687
(lp2688
(lp2689
I252
aS'52'
p2690
aS'308'
p2691
aa(lp2692
I2637
aS'364'
p2693
aS'429'
p2694
aa(lp2695
I2637
aS'443'
p2696
aS'500'
p2697
aasS'3Q6Y'
p2698
(lp2699
(lp2700
I1279
aS'17'
p2701
aS'329'
p2702
aasS'3PSG'
p2703
(lp2704
(lp2705
I1279
aS'13'
p2706
aS'324'
p2707
aa(lp2708
I3187
aS'1P'
p2709
aS'29P'
p2710
aasS'3TNE'
p2711
(lp2712
(lp2713
I1279
aS'13'
p2714
aS'328'
p2715
aasS'2V12'
p2716
(lp2717
(lp2718
I1279
aS'19'
p2719
aS'338'
p2720
aasS'1LF4'
p2721
(lp2722
(lp2723
I1279
aS'16'
p2724
aS'324'
p2725
aasS'1LF3'
p2726
(lp2727
(lp2728
I1279
aS'16'
p2729
aS'324'
p2730
aasS'1LF2'
p2731
(lp2732
(lp2733
I1279
aS'16'
p2734
aS'324'
p2735
aasS'1JFK'
p2736
(lp2737
(lp2738
I2637
aS'5'
aS'62'
p2739
aa(lp2740
I2637
aS'81'
p2741
aS'132'
p2742
aasS'3SKG'
p2743
(lp2744
(lp2745
I1279
aS'14'
p2746
aS'355'
p2747
aa(lp2748
I1279
aS'14'
p2749
aS'355'
p2750
aasS'1F70'
p2751
(lp2752
(lp2753
I2637
aS'13'
p2754
aS'72'
p2755
aasS'1F71'
p2756
(lp2757
(lp2758
I2637
aS'85'
p2759
aS'145'
p2760
aasS'3OAG'
p2761
(lp2762
(lp2763
I1279
aS'19'
p2764
aS'165'
p2765
aa(lp2766
I1279
aS'173'
p2767
aS'338'
p2768
aasS'1EPO'
p2769
(lp2770
(lp2771
I1279
aS'14'
p2772
aS'325'
p2773
aasS'3U0K'
p2774
(lp2775
(lp2776
I1607
aS'62'
p2777
aS'135'
p2778
aa(lp2779
I1607
aS'154'
p2780
aS'297'
p2781
aa(lp2782
I2637
aS'309'
p2783
aS'368'
p2784
aa(lp2785
I2637
aS'381'
p2786
aS'440'
p2787
aasS'1ENT'
p2788
(lp2789
(lp2790
I1279
aS'14'
p2791
aS'325'
p2792
aasS'2W4T'
p2793
(lp2794
(lp2795
I1461
aS'86'
p2796
aS'763'
p2797
aa(lp2798
I2637
aS'87'
p2799
aS'146'
p2800
aa(lp2801
I2638
aS'19'
p2802
aS'43'
p2803
aa(lp2804
I5670
aS'31'
p2805
aS'71'
p2806
aa(lp2807
I6491
aS'780'
p2808
aS'799'
p2809
aasS'2JT3'
p2810
(lp2811
(lp2812
I964
aS'32'
p2813
aS'83'
p2814
aa(lp2815
I2637
aS'99'
p2816
aS'157'
p2817
aasS'4Y5Q'
p2818
(lp2819
(lp2820
I252
aS'78'
p2821
aS'332'
p2822
aa(lp2823
I2637
aS'386'
p2824
aS'456'
p2825
aa(lp2826
I2637
aS'472'
p2827
aS'530'
p2828
aasS'2JT8'
p2829
(lp2830
(lp2831
I964
aS'32'
p2832
aS'83'
p2833
aa(lp2834
I2637
aS'99'
p2835
aS'157'
p2836
aasS'3T6I'
p2837
(lp2838
(lp2839
I1279
aS'17'
p2840
aS'329'
p2841
aasS'1TCF'
p2842
(lp2843
(lp2844
I964
aS'31'
p2845
aS'82'
p2846
aa(lp2847
I2637
aS'96'
p2848
aS'155'
p2849
aasS'4MN0'
p2850
(lp2851
(lp2852
I2637
aS'135'
p2853
aS'187'
p2854
aasS'3PAL'
p2855
(lp2856
(lp2857
I2637
aS'44'
p2858
aS'105'
p2859
aasS'2LQP'
p2860
(lp2861
(lp2862
I2637
aS'85'
p2863
aS'145'
p2864
aasS'3F45'
p2865
(lp2866
(lp2867
I2637
aS'44'
p2868
aS'105'
p2869
aasS'1B5F'
p2870
(lp2871
(lp2872
I1279
aS'13'
p2873
aS'237'
p2874
aa(lp2875
I1279
aS'244'
p2876
aS'325'
p2877
aasS'2G9B'
p2878
(lp2879
(lp2880
I2637
aS'106'
p2881
aS'170'
p2882
aa(lp2883
I2638
aS'190'
p2884
aS'217'
p2885
aasS'4GJ8'
p2886
(lp2887
(lp2888
I1279
aS'13'
p2889
aS'324'
p2890
aasS'1FLH'
p2891
(lp2892
(lp2893
I1279
aS'13'
p2894
aS'324'
p2895
aasS'2LGF'
p2896
(lp2897
(lp2898
I2637
aS'13'
p2899
aS'72'
p2900
aa(lp2901
I2637
aS'85'
p2902
aS'145'
p2903
aasS'4GMI'
p2904
(lp2905
(lp2906
I1279
aS'14'
p2907
aS'355'
p2908
aasS'3ZLQ'
p2909
(lp2910
(lp2911
I1279
aS'30'
p2912
aS'368'
p2913
aa(lp2914
I2388
aS'170'
p2915
aS'269'
p2916
aasS'3UDP'
p2917
(lp2918
(lp2919
I1279
aS'14'
p2920
aS'355'
p2921
aasS'4I12'
p2922
(lp2923
(lp2924
I1279
aS'75'
p2925
aS'416'
p2926
aasS'3PAT'
p2927
(lp2928
(lp2929
I2637
aS'44'
p2930
aS'105'
p2931
aasS'4I11'
p2932
(lp2933
(lp2934
I1279
aS'75'
p2935
aS'416'
p2936
aasS'2V16'
p2937
(lp2938
(lp2939
I1279
aS'13'
p2940
aS'324'
p2941
aasS'1SNL'
p2942
(lp2943
(lp2944
I2637
aS'19'
p2945
aS'92'
p2946
aasS'2V13'
p2947
(lp2948
(lp2949
I1279
aS'19'
p2950
aS'338'
p2951
aasS'1RK9'
p2952
(lp2953
(lp2954
I2637
aS'45'
p2955
aS'106'
p2956
aasS'2V11'
p2957
(lp2958
(lp2959
I1279
aS'19'
p2960
aS'338'
p2961
aasS'2V10'
p2962
(lp2963
(lp2964
I1279
aS'19'
p2965
aS'338'
p2966
aasS'2TN4'
p2967
(lp2968
(lp2969
I964
aS'31'
p2970
aS'82'
p2971
aa(lp2972
I2637
aS'96'
p2973
aS'155'
p2974
aasS'3VEU'
p2975
(lp2976
(lp2977
I1279
aS'14'
p2978
aS'346'
p2979
aasS'3IFK'
p2980
(lp2981
(lp2982
I2637
aS'13'
p2983
aS'72'
p2984
aasS'4LXM'
p2985
(lp2986
(lp2987
I1279
aS'14'
p2988
aS'355'
p2989
aasS'1PK0'
p2990
(lp2991
(lp2992
I2637
aS'13'
p2993
aS'72'
p2994
aa(lp2995
I2637
aS'85'
p2996
aS'145'
p2997
aa(lp2998
I5013
aS'299'
p2999
aS'468'
p3000
aasS'2IRZ'
p3001
(lp3002
(lp3003
I1279
aS'14'
p3004
aS'355'
p3005
aasS'4LXK'
p3006
(lp3007
(lp3008
I1279
aS'14'
p3009
aS'355'
p3010
aasS'1TZS'
p3011
(lp3012
(lp3013
I1279
aS'24'
p3014
aS'341'
p3015
aa(lp3016
I3187
aS'3'
aS'9'
aasS'1W7I'
p3017
(lp3018
(lp3019
I1461
aS'72'
p3020
aS'752'
p3021
aa(lp3022
I2637
aS'93'
p3023
aS'146'
p3024
aa(lp3025
I2638
aS'11'
p3026
aS'40'
p3027
aa(lp3028
I6491
aS'768'
p3029
aS'787'
p3030
aasS'4LXA'
p3031
(lp3032
(lp3033
I1279
aS'14'
p3034
aS'355'
p3035
aasS'2ZND'
p3036
(lp3037
(lp3038
I964
aS'40'
p3039
aS'90'
p3040
aa(lp3041
I2637
aS'97'
p3042
aS'154'
p3043
aasS'1W7J'
p3044
(lp3045
(lp3046
I1461
aS'72'
p3047
aS'752'
p3048
aa(lp3049
I2637
aS'93'
p3050
aS'146'
p3051
aa(lp3052
I2638
aS'11'
p3053
aS'40'
p3054
aa(lp3055
I6491
aS'768'
p3056
aS'787'
p3057
aasS'4IK8'
p3058
(lp3059
(lp3060
I1607
aS'51'
p3061
aS'139'
p3062
aa(lp3063
I1607
aS'163'
p3064
aS'303'
p3065
aa(lp3066
I2637
aS'317'
p3067
aS'376'
p3068
aa(lp3069
I2637
aS'389'
p3070
aS'448'
p3071
aasS'2ZN8'
p3072
(lp3073
(lp3074
I964
aS'40'
p3075
aS'90'
p3076
aa(lp3077
I2637
aS'97'
p3078
aS'154'
p3079
aasS'2ZN9'
p3080
(lp3081
(lp3082
I964
aS'40'
p3083
aS'90'
p3084
aa(lp3085
I2637
aS'97'
p3086
aS'154'
p3087
aasS'4MRX'
p3088
(lp3089
(lp3090
I959
aS'24'
p3091
aS'41'
p3092
aa(lp3093
I959
aS'24'
p3094
aS'41'
p3095
aa(lp3096
I2637
aS'118'
p3097
aS'171'
p3098
aa(lp3099
I2637
aS'118'
p3100
aS'171'
p3101
aasS'2R28'
p3102
(lp3103
(lp3104
I2637
aS'14'
p3105
aS'73'
p3106
aa(lp3107
I2637
aS'86'
p3108
aS'146'
p3109
aasS'4FGX'
p3110
(lp3111
(lp3112
I1279
aS'62'
p3113
aS'403'
p3114
aasS'2R2I'
p3115
(lp3116
(lp3117
I964
aS'30'
p3118
aS'79'
p3119
aa(lp3120
I2637
aS'91'
p3121
aS'157'
p3122
aasS'3BRA'
p3123
(lp3124
(lp3125
I1279
aS'14'
p3126
aS'355'
p3127
aasS'4E53'
p3128
(lp3129
(lp3130
I2637
aS'14'
p3131
aS'73'
p3132
aa(lp3133
I2637
aS'86'
p3134
aS'146'
p3135
aa(lp3136
I6491
aS'155'
p3137
aS'173'
p3138
aasS'3NSH'
p3139
(lp3140
(lp3141
I1279
aS'20'
p3142
aS'361'
p3143
aasS'2JJI'
p3144
(lp3145
(lp3146
I1279
aS'17'
p3147
aS'330'
p3148
aasS'3IF7'
p3149
(lp3150
(lp3151
I2637
aS'13'
p3152
aS'72'
p3153
aa(lp3154
I2637
aS'85'
p3155
aS'145'
p3156
aasS'2H6S'
p3157
(lp3158
(lp3159
I1279
aS'13'
p3160
aS'330'
p3161
aasS'2H6T'
p3162
(lp3163
(lp3164
I1279
aS'13'
p3165
aS'330'
p3166
aasS'2K61'
p3167
(lp3168
(lp3169
I2637
aS'13'
p3170
aS'72'
p3171
aa(lp3172
I2637
aS'85'
p3173
aS'145'
p3174
aasS'3K21'
p3175
(lp3176
(lp3177
I2637
aS'55'
p3178
aS'112'
p3179
aa(lp3180
I2637
aS'125'
p3181
aS'189'
p3182
aasS'1E82'
p3183
(lp3184
(lp3185
I1279
aS'14'
p3186
aS'325'
p3187
aasS'2BE6'
p3188
(lp3189
(lp3190
I2637
aS'13'
p3191
aS'72'
p3192
aa(lp3193
I2637
aS'85'
p3194
aS'145'
p3195
aa(lp3196
I6773
aS'1612'
p3197
aS'1633'
p3198
aasS'1E80'
p3199
(lp3200
(lp3201
I1279
aS'14'
p3202
aS'325'
p3203
aasS'1E81'
p3204
(lp3205
(lp3206
I1279
aS'14'
p3207
aS'325'
p3208
aasS'2OTG'
p3209
(lp3210
(lp3211
I1461
aS'86'
p3212
aS'763'
p3213
aa(lp3214
I2637
aS'87'
p3215
aS'146'
p3216
aa(lp3217
I2638
aS'19'
p3218
aS'48'
p3219
aa(lp3220
I5670
aS'31'
p3221
aS'71'
p3222
aa(lp3223
I6491
aS'780'
p3224
aS'799'
p3225
aasS'4ONA'
p3226
(lp3227
(lp3228
I252
aS'52'
p3229
aS'308'
p3230
aa(lp3231
I2637
aS'364'
p3232
aS'429'
p3233
aa(lp3234
I2637
aS'443'
p3235
aS'500'
p3236
aasS'1APW'
p3237
(lp3238
(lp3239
I1279
aS'16'
p3240
aS'321'
p3241
aa(lp3242
I1279
aS'16'
p3243
aS'321'
p3244
aasS'1APT'
p3245
(lp3246
(lp3247
I1279
aS'16'
p3248
aS'321'
p3249
aasS'1APU'
p3250
(lp3251
(lp3252
I1279
aS'16'
p3253
aS'321'
p3254
aasS'4LZX'
p3255
(lp3256
(lp3257
I2637
aS'14'
p3258
aS'73'
p3259
aa(lp3260
I2637
aS'86'
p3261
aS'146'
p3262
aa(lp3263
I6491
aS'395'
p3264
aS'412'
p3265
aasS'4CMS'
p3266
(lp3267
(lp3268
I1279
aS'13'
p3269
aS'325'
p3270
aasS'1J1D'
p3271
(lp3272
(lp3273
I964
aS'32'
p3274
aS'83'
p3275
aa(lp3276
I1916
aS'202'
p3277
aS'230'
p3278
aa(lp3279
I1916
aS'224'
p3280
aS'271'
p3281
aa(lp3282
I1916
aS'46'
p3283
aS'160'
p3284
aa(lp3285
I2637
aS'99'
p3286
aS'157'
p3287
aasS'4JWQ'
p3288
(lp3289
(lp3290
I2637
aS'131'
p3291
aS'195'
p3292
aasS'3HZT'
p3293
(lp3294
(lp3295
I252
aS'76'
p3296
aS'333'
p3297
aa(lp3298
I2637
aS'387'
p3299
aS'455'
p3300
aa(lp3301
I2637
aS'472'
p3302
aS'527'
p3303
aasS'3KF9'
p3304
(lp3305
(lp3306
I964
aS'113'
p3307
aS'164'
p3308
aa(lp3309
I2637
aS'29'
p3310
aS'89'
p3311
aasS'3UFL'
p3312
(lp3313
(lp3314
I1279
aS'14'
p3315
aS'355'
p3316
aasS'1CLM'
p3317
(lp3318
(lp3319
I2637
aS'13'
p3320
aS'72'
p3321
aa(lp3322
I2637
aS'87'
p3323
aS'145'
p3324
aasS'2P83'
p3325
(lp3326
(lp3327
I1279
aS'14'
p3328
aS'355'
p3329
aasS'3WXA'
p3330
(lp3331
(lp3332
I964
aS'40'
p3333
aS'90'
p3334
aa(lp3335
I2637
aS'97'
p3336
aS'154'
p3337
aasS'2OS8'
p3338
(lp3339
(lp3340
I1461
aS'86'
p3341
aS'763'
p3342
aa(lp3343
I2637
aS'87'
p3344
aS'146'
p3345
aa(lp3346
I2638
aS'19'
p3347
aS'48'
p3348
aa(lp3349
I5670
aS'31'
p3350
aS'71'
p3351
aa(lp3352
I6491
aS'780'
p3353
aS'799'
p3354
aasS'2F33'
p3355
(lp3356
(lp3357
I2637
aS'106'
p3358
aS'170'
p3359
aa(lp3360
I2638
aS'190'
p3361
aS'217'
p3362
aasS'3ZL7'
p3363
(lp3364
(lp3365
I729
aS'10'
p3366
aS'61'
p3367
aa(lp3368
I1279
aS'30'
p3369
aS'368'
p3370
aasS'2QU2'
p3371
(lp3372
(lp3373
I1279
aS'76'
p3374
aS'417'
p3375
aasS'4AA8'
p3376
(lp3377
(lp3378
I1279
aS'15'
p3379
aS'322'
p3380
aasS'4AA9'
p3381
(lp3382
(lp3383
I1279
aS'15'
p3384
aS'322'
p3385
aasS'3UPX'
p3386
(lp3387
(lp3388
I252
aS'52'
p3389
aS'308'
p3390
aa(lp3391
I2637
aS'364'
p3392
aS'429'
p3393
aa(lp3394
I2637
aS'443'
p3395
aS'500'
p3396
aasS'2OHL'
p3397
(lp3398
(lp3399
I1279
aS'14'
p3400
aS'355'
p3401
aasS'3UPZ'
p3402
(lp3403
(lp3404
I252
aS'52'
p3405
aS'308'
p3406
aa(lp3407
I2637
aS'364'
p3408
aS'429'
p3409
aa(lp3410
I2637
aS'443'
p3411
aS'500'
p3412
aasS'2OHN'
p3413
(lp3414
(lp3415
I1279
aS'14'
p3416
aS'355'
p3417
aasS'1BBS'
p3418
(lp3419
(lp3420
I1279
aS'13'
p3421
aS'324'
p3422
aasS'1X02'
p3423
(lp3424
(lp3425
I2637
aS'13'
p3426
aS'72'
p3427
aa(lp3428
I2637
aS'85'
p3429
aS'145'
p3430
aasS'2OHK'
p3431
(lp3432
(lp3433
I1279
aS'14'
p3434
aS'355'
p3435
aasS'1G8I'
p3436
(lp3437
(lp3438
I2631
aS'68'
p3439
aS'90'
p3440
aa(lp3441
I2637
aS'101'
p3442
aS'171'
p3443
aasS'4IK4'
p3444
(lp3445
(lp3446
I1607
aS'51'
p3447
aS'139'
p3448
aa(lp3449
I1607
aS'163'
p3450
aS'303'
p3451
aa(lp3452
I2637
aS'317'
p3453
aS'376'
p3454
aa(lp3455
I2637
aS'389'
p3456
aS'448'
p3457
aasS'1ER8'
p3458
(lp3459
(lp3460
I1279
aS'14'
p3461
aS'325'
p3462
aasS'2NTR'
p3463
(lp3464
(lp3465
I1279
aS'14'
p3466
aS'355'
p3467
aasS'1GVW'
p3468
(lp3469
(lp3470
I1279
aS'17'
p3471
aS'330'
p3472
aasS'3LI6'
p3473
(lp3474
(lp3475
I2637
aS'5'
aS'62'
p3476
aasS'3Q3T'
p3477
(lp3478
(lp3479
I1279
aS'13'
p3480
aS'324'
p3481
aasS'4JBV'
p3482
(lp3483
(lp3484
I252
aS'52'
p3485
aS'308'
p3486
aa(lp3487
I2637
aS'364'
p3488
aS'429'
p3489
aa(lp3490
I2637
aS'443'
p3491
aS'500'
p3492
aasS'3CIB'
p3493
(lp3494
(lp3495
I1279
aS'75'
p3496
aS'416'
p3497
aasS'3CID'
p3498
(lp3499
(lp3500
I1279
aS'75'
p3501
aS'416'
p3502
aasS'4IH8'
p3503
(lp3504
(lp3505
I252
aS'52'
p3506
aS'308'
p3507
aa(lp3508
I2637
aS'364'
p3509
aS'429'
p3510
aa(lp3511
I2637
aS'443'
p3512
aS'500'
p3513
aasS'2OHU'
p3514
(lp3515
(lp3516
I1279
aS'14'
p3517
aS'355'
p3518
aasS'2OHT'
p3519
(lp3520
(lp3521
I1279
aS'14'
p3522
aS'355'
p3523
aasS'3OXQ'
p3524
(lp3525
(lp3526
I2637
aS'13'
p3527
aS'72'
p3528
aa(lp3529
I2637
aS'85'
p3530
aS'145'
p3531
aa(lp3532
I6773
aS'1561'
p3533
aS'1633'
p3534
aasS'2OHQ'
p3535
(lp3536
(lp3537
I1279
aS'14'
p3538
aS'355'
p3539
aasS'2OHP'
p3540
(lp3541
(lp3542
I1279
aS'14'
p3543
aS'355'
p3544
aasS'2OHS'
p3545
(lp3546
(lp3547
I1279
aS'14'
p3548
aS'355'
p3549
aasS'1TTX'
p3550
(lp3551
(lp3552
I2637
aS'45'
p3553
aS'106'
p3554
aasS'1L7Z'
p3555
(lp3556
(lp3557
I2637
aS'13'
p3558
aS'72'
p3559
aa(lp3560
I2637
aS'85'
p3561
aS'145'
p3562
aasS'4ZCV'
p3563
(lp3564
(lp3565
I2637
aS'25'
p3566
aS'83'
p3567
aa(lp3568
I2637
aS'94'
p3569
aS'146'
p3570
aasS'4ZCU'
p3571
(lp3572
(lp3573
I2637
aS'25'
p3574
aS'83'
p3575
aa(lp3576
I2637
aS'94'
p3577
aS'146'
p3578
aasS'2NXQ'
p3579
(lp3580
(lp3581
I2637
aS'5'
aS'62'
p3582
aasS'1IBQ'
p3583
(lp3584
(lp3585
I1279
aS'15'
p3586
aS'323'
p3587
aasS'1ZMZ'
p3588
(lp3589
(lp3590
I2637
aS'33'
p3591
aS'93'
p3592
aasS'1ME6'
p3593
(lp3594
(lp3595
I1279
aS'16'
p3596
aS'324'
p3597
aasS'5APR'
p3598
(lp3599
(lp3600
I1279
aS'16'
p3601
aS'322'
p3602
aasS'4DI2'
p3603
(lp3604
(lp3605
I1279
aS'14'
p3606
aS'355'
p3607
aasS'3OQK'
p3608
(lp3609
(lp3610
I1279
aS'13'
p3611
aS'324'
p3612
aasS'4MSP'
p3613
(lp3614
(lp3615
I250
aS'21'
p3616
aS'113'
p3617
aa(lp3618
I2637
aS'122'
p3619
aS'186'
p3620
aasS'2LV6'
p3621
(lp3622
(lp3623
I2637
aS'13'
p3624
aS'72'
p3625
aa(lp3626
I2637
aS'85'
p3627
aS'145'
p3628
aasS'3L5E'
p3629
(lp3630
(lp3631
I1279
aS'75'
p3632
aS'416'
p3633
aasS'4MRY'
p3634
(lp3635
(lp3636
I959
aS'24'
p3637
aS'41'
p3638
aa(lp3639
I2637
aS'118'
p3640
aS'171'
p3641
aasS'2LL7'
p3642
(lp3643
(lp3644
I2637
aS'13'
p3645
aS'72'
p3646
aa(lp3647
I2637
aS'85'
p3648
aS'145'
p3649
aasS'1PRW'
p3650
(lp3651
(lp3652
I2637
aS'13'
p3653
aS'72'
p3654
aa(lp3655
I2637
aS'85'
p3656
aS'145'
p3657
aasS'2IL2'
p3658
(lp3659
(lp3660
I1279
aS'14'
p3661
aS'333'
p3662
aasS'2LVJ'
p3663
(lp3664
(lp3665
I2637
aS'5'
aS'62'
p3666
aasS'2LVK'
p3667
(lp3668
(lp3669
I2637
aS'5'
aS'62'
p3670
aasS'1SGZ'
p3671
(lp3672
(lp3673
I1279
aS'14'
p3674
aS'355'
p3675
aasS'2G1N'
p3676
(lp3677
(lp3678
I1279
aS'14'
p3679
aS'333'
p3680
aasS'2G1O'
p3681
(lp3682
(lp3683
I1279
aS'14'
p3684
aS'333'
p3685
aasS'3S2O'
p3686
(lp3687
(lp3688
I1279
aS'14'
p3689
aS'355'
p3690
aasS'2G1R'
p3691
(lp3692
(lp3693
I1279
aS'14'
p3694
aS'333'
p3695
aasS'2G1S'
p3696
(lp3697
(lp3698
I1279
aS'14'
p3699
aS'333'
p3700
aasS'2OAH'
p3701
(lp3702
(lp3703
I1279
aS'14'
p3704
aS'355'
p3705
aasS'1F34'
p3706
(lp3707
(lp3708
I1279
aS'13'
p3709
aS'324'
p3710
aa(lp3711
I5897
aS'63'
p3712
aS'120'
p3713
aasS'4G28'
p3714
(lp3715
(lp3716
I2637
aS'13'
p3717
aS'72'
p3718
aa(lp3719
I2637
aS'85'
p3720
aS'145'
p3721
aa(lp3722
I5029
aS'413'
p3723
aS'487'
p3724
aasS'2LVV'
p3725
(lp3726
(lp3727
I959
aS'56'
p3728
aS'72'
p3729
aa(lp3730
I2637
aS'138'
p3731
aS'193'
p3732
aasS'2G1Y'
p3733
(lp3734
(lp3735
I1279
aS'14'
p3736
aS'333'
p3737
aasS'4K8S'
p3738
(lp3739
(lp3740
I1279
aS'14'
p3741
aS'355'
p3742
aasS'3LIJ'
p3743
(lp3744
(lp3745
I252
aS'62'
p3746
aS'318'
p3747
aa(lp3748
I964
aS'412'
p3749
aS'438'
p3750
aa(lp3751
I2631
aS'370'
p3752
aS'397'
p3753
aa(lp3754
I2637
aS'452'
p3755
aS'509'
p3756
aasS'2P8H'
p3757
(lp3758
(lp3759
I1279
aS'14'
p3760
aS'355'
p3761
aasS'1KK8'
p3762
(lp3763
(lp3764
I1461
aS'86'
p3765
aS'763'
p3766
aa(lp3767
I2637
aS'87'
p3768
aS'146'
p3769
aa(lp3770
I2638
aS'19'
p3771
aS'43'
p3772
aa(lp3773
I5670
aS'31'
p3774
aS'71'
p3775
aa(lp3776
I6491
aS'780'
p3777
aS'799'
p3778
aasS'3IXJ'
p3779
(lp3780
(lp3781
I1279
aS'62'
p3782
aS'403'
p3783
aasS'3PWW'
p3784
(lp3785
(lp3786
I1279
aS'17'
p3787
aS'329'
p3788
aasS'1KK7'
p3789
(lp3790
(lp3791
I1461
aS'86'
p3792
aS'763'
p3793
aa(lp3794
I2637
aS'87'
p3795
aS'146'
p3796
aa(lp3797
I2638
aS'19'
p3798
aS'43'
p3799
aa(lp3800
I5670
aS'31'
p3801
aS'71'
p3802
aa(lp3803
I6491
aS'780'
p3804
aS'799'
p3805
aasS'3LIZ'
p3806
(lp3807
(lp3808
I1279
aS'13'
p3809
aS'323'
p3810
aa(lp3811
I1690
aS'120'
p3812
aS'205'
p3813
aa(lp3814
I1690
aS'139'
p3815
aS'211'
p3816
aa(lp3817
I2388
aS'6'
aS'106'
p3818
aa(lp3819
I2388
aS'12'
p3820
aS'117'
p3821
aasS'3OX5'
p3822
(lp3823
(lp3824
I2631
aS'26'
p3825
aS'54'
p3826
aa(lp3827
I2637
aS'104'
p3828
aS'165'
p3829
aasS'1J71'
p3830
(lp3831
(lp3832
I1279
aS'13'
p3833
aS'323'
p3834
aasS'1Y6W'
p3835
(lp3836
(lp3837
I2637
aS'13'
p3838
aS'72'
p3839
aa(lp3840
I2637
aS'85'
p3841
aS'145'
p3842
aasS'2B8L'
p3843
(lp3844
(lp3845
I1279
aS'14'
p3846
aS'355'
p3847
aasS'1KWO'
p3848
(lp3849
(lp3850
I1461
aS'86'
p3851
aS'763'
p3852
aa(lp3853
I2637
aS'87'
p3854
aS'146'
p3855
aa(lp3856
I2638
aS'19'
p3857
aS'43'
p3858
aa(lp3859
I5670
aS'31'
p3860
aS'71'
p3861
aa(lp3862
I6491
aS'780'
p3863
aS'799'
p3864
aasS'1IQ5'
p3865
(lp3866
(lp3867
I2637
aS'13'
p3868
aS'72'
p3869
aa(lp3870
I2637
aS'85'
p3871
aS'145'
p3872
aasS'2KSZ'
p3873
(lp3874
(lp3875
I2637
aS'13'
p3876
aS'72'
p3877
aasS'2F3Z'
p3878
(lp3879
(lp3880
I2637
aS'13'
p3881
aS'72'
p3882
aa(lp3883
I2637
aS'85'
p3884
aS'145'
p3885
aasS'3GN4'
p3886
(lp3887
(lp3888
I2637
aS'13'
p3889
aS'72'
p3890
aa(lp3891
I2637
aS'85'
p3892
aS'145'
p3893
aasS'1ZOT'
p3894
(lp3895
(lp3896
I2637
aS'85'
p3897
aS'145'
p3898
aa(lp3899
I5013
aS'10'
p3900
aS'180'
p3901
aasS'3PEP'
p3902
(lp3903
(lp3904
I1279
aS'13'
p3905
aS'324'
p3906
aasS'1LA3'
p3907
(lp3908
(lp3909
I964
aS'40'
p3910
aS'84'
p3911
aa(lp3912
I2637
aS'102'
p3913
aS'174'
p3914
aasS'2MGU'
p3915
(lp3916
(lp3917
I2637
aS'13'
p3918
aS'72'
p3919
aa(lp3920
I2637
aS'85'
p3921
aS'145'
p3922
aa(lp3923
I6087
aS'8'
aS'43'
p3924
aasS'1DGV'
p3925
(lp3926
(lp3927
I2637
aS'101'
p3928
aS'168'
p3929
aasS'1DGU'
p3930
(lp3931
(lp3932
I2637
aS'101'
p3933
aS'168'
p3934
aasS'2PH8'
p3935
(lp3936
(lp3937
I1279
aS'14'
p3938
aS'355'
p3939
aasS'1TOP'
p3940
(lp3941
(lp3942
I964
aS'34'
p3943
aS'85'
p3944
aa(lp3945
I2637
aS'100'
p3946
aS'158'
p3947
aasS'1B9A'
p3948
(lp3949
(lp3950
I2637
aS'44'
p3951
aS'101'
p3952
aasS'2B8V'
p3953
(lp3954
(lp3955
I1279
aS'14'
p3956
aS'355'
p3957
aasS'2BE4'
p3958
(lp3959
(lp3960
I959
aS'250'
p3961
aS'263'
p3962
aa(lp3963
I2637
aS'108'
p3964
aS'173'
p3965
aasS'1S26'
p3966
(lp3967
(lp3968
I2637
aS'13'
p3969
aS'72'
p3970
aa(lp3971
I2637
aS'85'
p3972
aS'145'
p3973
aa(lp3974
I5013
aS'299'
p3975
aS'468'
p3976
aasS'2VKM'
p3977
(lp3978
(lp3979
I1279
aS'14'
p3980
aS'355'
p3981
aasS'2K2A'
p3982
(lp3983
(lp3984
I2637
aS'93'
p3985
aS'152'
p3986
aasS'1JFJ'
p3987
(lp3988
(lp3989
I2637
aS'5'
aS'62'
p3990
aa(lp3991
I2637
aS'81'
p3992
aS'132'
p3993
aasS'4JPC'
p3994
(lp3995
(lp3996
I1279
aS'62'
p3997
aS'403'
p3998
aasS'3DV5'
p3999
(lp4000
(lp4001
I1279
aS'14'
p4002
aS'355'
p4003
aasS'4CPV'
p4004
(lp4005
(lp4006
I2637
aS'44'
p4007
aS'105'
p4008
aasS'3DV1'
p4009
(lp4010
(lp4011
I1279
aS'14'
p4012
aS'355'
p4013
aasS'4JPE'
p4014
(lp4015
(lp4016
I1279
aS'62'
p4017
aS'403'
p4018
aa(lp4019
I1279
aS'62'
p4020
aS'403'
p4021
aasS'2LM5'
p4022
(lp4023
(lp4024
I2637
aS'109'
p4025
aS'176'
p4026
aasS'2I08'
p4027
(lp4028
(lp4029
I2637
aS'13'
p4030
aS'72'
p4031
aasS'2CT9'
p4032
(lp4033
(lp4034
I2637
aS'115'
p4035
aS'178'
p4036
aasS'6APR'
p4037
(lp4038
(lp4039
I1279
aS'16'
p4040
aS'322'
p4041
aasS'1RRO'
p4042
(lp4043
(lp4044
I2637
aS'44'
p4045
aS'105'
p4046
aasS'1APV'
p4047
(lp4048
(lp4049
I1279
aS'16'
p4050
aS'321'
p4051
aasS'3DVE'
p4052
(lp4053
(lp4054
I2637
aS'13'
p4055
aS'72'
p4056
aa(lp4057
I2637
aS'85'
p4058
aS'145'
p4059
aa(lp4060
I6773
aS'1854'
p4061
aS'1871'
p4062
aasS'4J0V'
p4063
(lp4064
(lp4065
I1279
aS'75'
p4066
aS'416'
p4067
aasS'1G4Y'
p4068
(lp4069
(lp4070
I2637
aS'13'
p4071
aS'72'
p4072
aa(lp4073
I2637
aS'85'
p4074
aS'145'
p4075
aa(lp4076
I5029
aS'413'
p4077
aS'487'
p4078
aasS'4J0T'
p4079
(lp4080
(lp4081
I1279
aS'75'
p4082
aS'416'
p4083
aasS'4J0Z'
p4084
(lp4085
(lp4086
I1279
aS'75'
p4087
aS'416'
p4088
aasS'1NIW'
p4089
(lp4090
(lp4091
I2637
aS'13'
p4092
aS'72'
p4093
aa(lp4094
I2637
aS'85'
p4095
aS'145'
p4096
aasS'3DVM'
p4097
(lp4098
(lp4099
I2637
aS'13'
p4100
aS'72'
p4101
aa(lp4102
I2637
aS'85'
p4103
aS'145'
p4104
aa(lp4105
I6773
aS'1962'
p4106
aS'1979'
p4107
aasS'4J0Y'
p4108
(lp4109
(lp4110
I1279
aS'75'
p4111
aS'416'
p4112
aasS'3DVK'
p4113
(lp4114
(lp4115
I2637
aS'13'
p4116
aS'72'
p4117
aa(lp4118
I2637
aS'85'
p4119
aS'145'
p4120
aa(lp4121
I6773
aS'1817'
p4122
aS'1834'
p4123
aasS'3DVJ'
p4124
(lp4125
(lp4126
I2637
aS'13'
p4127
aS'72'
p4128
aa(lp4129
I2637
aS'85'
p4130
aS'145'
p4131
aa(lp4132
I6773
aS'1853'
p4133
aS'1871'
p4134
aasS'2HET'
p4135
(lp4136
(lp4137
I964
aS'40'
p4138
aS'87'
p4139
aa(lp4140
I2637
aS'102'
p4141
aS'174'
p4142
aasS'1V1F'
p4143
(lp4144
(lp4145
I959
aS'79'
p4146
aS'98'
p4147
aa(lp4148
I2637
aS'114'
p4149
aS'176'
p4150
aasS'2VNM'
p4151
(lp4152
(lp4153
I1279
aS'75'
p4154
aS'416'
p4155
aasS'2MLF'
p4156
(lp4157
(lp4158
I2637
aS'99'
p4159
aS'157'
p4160
aa(lp4161
I2637
aS'99'
p4162
aS'157'
p4163
aasS'2MLE'
p4164
(lp4165
(lp4166
I2637
aS'99'
p4167
aS'157'
p4168
aasS'4BY4'
p4169
(lp4170
(lp4171
I2631
aS'68'
p4172
aS'90'
p4173
aa(lp4174
I2637
aS'101'
p4175
aS'170'
p4176
aasS'2LMU'
p4177
(lp4178
(lp4179
I2637
aS'13'
p4180
aS'72'
p4181
aa(lp4182
I2637
aS'86'
p4183
aS'142'
p4184
aasS'2LMT'
p4185
(lp4186
(lp4187
I2637
aS'13'
p4188
aS'72'
p4189
aa(lp4190
I2637
aS'86'
p4191
aS'142'
p4192
aasS'2LMV'
p4193
(lp4194
(lp4195
I2637
aS'13'
p4196
aS'72'
p4197
aa(lp4198
I2637
aS'86'
p4199
aS'142'
p4200
aasS'5CPV'
p4201
(lp4202
(lp4203
I2637
aS'44'
p4204
aS'105'
p4205
aa(lp4206
I2637
aS'44'
p4207
aS'105'
p4208
aasS'1J7P'
p4209
(lp4210
(lp4211
I2637
aS'85'
p4212
aS'145'
p4213
aasS'4I0H'
p4214
(lp4215
(lp4216
I1279
aS'20'
p4217
aS'361'
p4218
aasS'4ER4'
p4219
(lp4220
(lp4221
I1279
aS'14'
p4222
aS'325'
p4223
aasS'4LC7'
p4224
(lp4225
(lp4226
I1279
aS'75'
p4227
aS'416'
p4228
aasS'2HIZ'
p4229
(lp4230
(lp4231
I1279
aS'14'
p4232
aS'355'
p4233
aasS'3KMY'
p4234
(lp4235
(lp4236
I1279
aS'75'
p4237
aS'416'
p4238
aasS'3KMX'
p4239
(lp4240
(lp4241
I1279
aS'75'
p4242
aS'416'
p4243
aasS'3T7X'
p4244
(lp4245
(lp4246
I1279
aS'17'
p4247
aS'329'
p4248
aasS'4UPU'
p4249
(lp4250
(lp4251
I2637
aS'14'
p4252
aS'73'
p4253
aa(lp4254
I2637
aS'86'
p4255
aS'146'
p4256
aasS'2MG5'
p4257
(lp4258
(lp4259
I2637
aS'13'
p4260
aS'72'
p4261
aa(lp4262
I2637
aS'85'
p4263
aS'145'
p4264
aasS'2VRG'
p4265
(lp4266
(lp4267
I2637
aS'77'
p4268
aS'143'
p4269
aasS'1SY9'
p4270
(lp4271
(lp4272
I2637
aS'13'
p4273
aS'72'
p4274
aa(lp4275
I2637
aS'85'
p4276
aS'145'
p4277
aasS'2QU3'
p4278
(lp4279
(lp4280
I1279
aS'76'
p4281
aS'417'
p4282
aasS'4J1I'
p4283
(lp4284
(lp4285
I1279
aS'75'
p4286
aS'416'
p4287
aa(lp4288
I1279
aS'75'
p4289
aS'416'
p4290
aasS'1GVV'
p4291
(lp4292
(lp4293
I1279
aS'17'
p4294
aS'330'
p4295
aasS'1J7O'
p4296
(lp4297
(lp4298
I2637
aS'13'
p4299
aS'72'
p4300
aasS'5B8I'
p4301
(lp4302
(lp4303
I250
aS'25'
p4304
aS'121'
p4305
aa(lp4306
I959
aS'27'
p4307
aS'45'
p4308
aa(lp4309
I1697
aS'102'
p4310
aS'302'
p4311
aa(lp4312
I2637
aS'92'
p4313
aS'155'
p4314
aasS'4TNC'
p4315
(lp4316
(lp4317
I964
aS'34'
p4318
aS'85'
p4319
aa(lp4320
I2637
aS'99'
p4321
aS'158'
p4322
aasS'3DD4'
p4323
(lp4324
(lp4325
I964
aS'79'
p4326
aS'127'
p4327
aa(lp4328
I2637
aS'142'
p4329
aS'210'
p4330
aasS'3K5G'
p4331
(lp4332
(lp4333
I1279
aS'14'
p4334
aS'355'
p4335
aasS'3K5F'
p4336
(lp4337
(lp4338
I1279
aS'14'
p4339
aS'355'
p4340
aasS'3PRS'
p4341
(lp4342
(lp4343
I1279
aS'17'
p4344
aS'329'
p4345
aasS'2F2O'
p4346
(lp4347
(lp4348
I2637
aS'13'
p4349
aS'72'
p4350
aa(lp4351
I2637
aS'85'
p4352
aS'145'
p4353
aasS'3K5C'
p4354
(lp4355
(lp4356
I1279
aS'14'
p4357
aS'355'
p4358
aasS'4I1C'
p4359
(lp4360
(lp4361
I1279
aS'75'
p4362
aS'416'
p4363
aasS'2F2P'
p4364
(lp4365
(lp4366
I2637
aS'13'
p4367
aS'72'
p4368
aa(lp4369
I2637
aS'85'
p4370
aS'145'
p4371
aasS'1SK6'
p4372
(lp4373
(lp4374
I2637
aS'13'
p4375
aS'72'
p4376
aa(lp4377
I2637
aS'85'
p4378
aS'145'
p4379
aa(lp4380
I5013
aS'299'
p4381
aS'468'
p4382
aasS'1JC2'
p4383
(lp4384
(lp4385
I2637
aS'100'
p4386
aS'158'
p4387
aasS'2ZJJ'
p4388
(lp4389
(lp4390
I1279
aS'14'
p4391
aS'355'
p4392
aasS'1N2D'
p4393
(lp4394
(lp4395
I2637
aS'89'
p4396
aS'143'
p4397
aa(lp4398
I6491
aS'834'
p4399
aS'849'
p4400
aasS'3APP'
p4401
(lp4402
(lp4403
I1279
aS'16'
p4404
aS'321'
p4405
aasS'2M55'
p4406
(lp4407
(lp4408
I1665
aS'201'
p4409
aS'219'
p4410
aa(lp4411
I2637
aS'13'
p4412
aS'72'
p4413
aa(lp4414
I2637
aS'85'
p4415
aS'145'
p4416
aasS'3APR'
p4417
(lp4418
(lp4419
I1279
aS'16'
p4420
aS'322'
p4421
aasS'2ZJK'
p4422
(lp4423
(lp4424
I1279
aS'14'
p4425
aS'355'
p4426
aasS'4J1F'
p4427
(lp4428
(lp4429
I1279
aS'75'
p4430
aS'416'
p4431
aasS'1K93'
p4432
(lp4433
(lp4434
I2637
aS'13'
p4435
aS'72'
p4436
aa(lp4437
I2637
aS'85'
p4438
aS'145'
p4439
aa(lp4440
I5013
aS'299'
p4441
aS'468'
p4442
aasS'1K90'
p4443
(lp4444
(lp4445
I2637
aS'13'
p4446
aS'72'
p4447
aa(lp4448
I2637
aS'85'
p4449
aS'145'
p4450
aa(lp4451
I5013
aS'299'
p4452
aS'468'
p4453
aasS'3UDM'
p4454
(lp4455
(lp4456
I1279
aS'14'
p4457
aS'355'
p4458
aasS'2JT0'
p4459
(lp4460
(lp4461
I964
aS'32'
p4462
aS'83'
p4463
aa(lp4464
I2637
aS'99'
p4465
aS'157'
p4466
aasS'4R8Y'
p4467
(lp4468
(lp4469
I1279
aS'75'
p4470
aS'416'
p4471
aasS'5PEP'
p4472
(lp4473
(lp4474
I1279
aS'13'
p4475
aS'325'
p4476
aasS'4MVF'
p4477
(lp4478
(lp4479
I252
aS'73'
p4480
aS'326'
p4481
aa(lp4482
I2637
aS'375'
p4483
aS'434'
p4484
aa(lp4485
I2637
aS'451'
p4486
aS'507'
p4487
aasS'3BYA'
p4488
(lp4489
(lp4490
I2637
aS'13'
p4491
aS'72'
p4492
aa(lp4493
I2637
aS'85'
p4494
aS'145'
p4495
aasS'3G72'
p4496
(lp4497
(lp4498
I1279
aS'19'
p4499
aS'338'
p4500
aasS'4X2L'
p4501
(lp4502
(lp4503
I1279
aS'14'
p4504
aS'355'
p4505
aasS'4R8G'
p4506
(lp4507
(lp4508
I2637
aS'13'
p4509
aS'72'
p4510
aa(lp4511
I2637
aS'85'
p4512
aS'145'
p4513
aa(lp4514
I4731
aS'839'
p4515
aS'1007'
p4516
aa(lp4517
I6491
aS'702'
p4518
aS'719'
p4519
aa(lp4520
I6491
aS'724'
p4521
aS'741'
p4522
aasS'4HEX'
p4523
(lp4524
(lp4525
I2637
aS'14'
p4526
aS'73'
p4527
aa(lp4528
I2637
aS'86'
p4529
aS'144'
p4530
aasS'1XO5'
p4531
(lp4532
(lp4533
I2637
aS'109'
p4534
aS'176'
p4535
aasS'3DM6'
p4536
(lp4537
(lp4538
I1279
aS'14'
p4539
aS'355'
p4540
aasS'2ZDZ'
p4541
(lp4542
(lp4543
I1279
aS'76'
p4544
aS'417'
p4545
aasS'2ZJN'
p4546
(lp4547
(lp4548
I1279
aS'14'
p4549
aS'355'
p4550
aasS'1K9U'
p4551
(lp4552
(lp4553
I2637
aS'6'
aS'63'
p4554
aasS'1OMD'
p4555
(lp4556
(lp4557
I2637
aS'44'
p4558
aS'105'
p4559
aasS'1AJ4'
p4560
(lp4561
(lp4562
I964
aS'32'
p4563
aS'83'
p4564
aa(lp4565
I2637
aS'99'
p4566
aS'157'
p4567
aasS'2KUG'
p4568
(lp4569
(lp4570
I2637
aS'13'
p4571
aS'72'
p4572
aasS'2ZJH'
p4573
(lp4574
(lp4575
I1279
aS'14'
p4576
aS'355'
p4577
aasS'2ZJI'
p4578
(lp4579
(lp4580
I1279
aS'14'
p4581
aS'355'
p4582
aasS'4R5N'
p4583
(lp4584
(lp4585
I1279
aS'75'
p4586
aS'416'
p4587
aasS'3CLN'
p4588
(lp4589
(lp4590
I2637
aS'13'
p4591
aS'72'
p4592
aa(lp4593
I2637
aS'85'
p4594
aS'145'
p4595
aasS'2KUH'
p4596
(lp4597
(lp4598
I2637
aS'85'
p4599
aS'145'
p4600
aasS'3TUY'
p4601
(lp4602
(lp4603
I2637
aS'87'
p4604
aS'146'
p4605
aa(lp4606
I2638
aS'24'
p4607
aS'53'
p4608
aa(lp4609
I6491
aS'780'
p4610
aS'799'
p4611
aasS'3ZKN'
p4612
(lp4613
(lp4614
I1279
aS'30'
p4615
aS'368'
p4616
aa(lp4617
I1690
aS'133'
p4618
aS'208'
p4619
aa(lp4620
I1690
aS'124'
p4621
aS'209'
p4622
aa(lp4623
I2388
aS'7'
aS'114'
p4624
aa(lp4625
I2388
aS'6'
aS'110'
p4626
aasS'3PLL'
p4627
(lp4628
(lp4629
I1279
aS'17'
p4630
aS'329'
p4631
aasS'3ZKM'
p4632
(lp4633
(lp4634
I1279
aS'30'
p4635
aS'368'
p4636
aa(lp4637
I1690
aS'133'
p4638
aS'208'
p4639
aa(lp4640
I1690
aS'124'
p4641
aS'209'
p4642
aa(lp4643
I2388
aS'7'
aS'114'
p4644
aa(lp4645
I2388
aS'6'
aS'110'
p4646
aasS'3ZKS'
p4647
(lp4648
(lp4649
I1279
aS'30'
p4650
aS'368'
p4651
aa(lp4652
I2388
aS'170'
p4653
aS'269'
p4654
aasS'2VJ9'
p4655
(lp4656
(lp4657
I1279
aS'75'
p4658
aS'416'
p4659
aasS'3O9L'
p4660
(lp4661
(lp4662
I1279
aS'19'
p4663
aS'165'
p4664
aa(lp4665
I1279
aS'173'
p4666
aS'338'
p4667
aasS'1PVA'
p4668
(lp4669
(lp4670
I2637
aS'44'
p4671
aS'105'
p4672
aasS'3ZKX'
p4673
(lp4674
(lp4675
I1279
aS'30'
p4676
aS'368'
p4677
aa(lp4678
I2388
aS'170'
p4679
aS'269'
p4680
aa(lp4681
I2388
aS'170'
p4682
aS'269'
p4683
aasS'1PVB'
p4684
(lp4685
(lp4686
I2637
aS'44'
p4687
aS'105'
p4688
aasS'5ER1'
p4689
(lp4690
(lp4691
I1279
aS'14'
p4692
aS'325'
p4693
aasS'5ER2'
p4694
(lp4695
(lp4696
I1279
aS'14'
p4697
aS'325'
p4698
aasS'1XFU'
p4699
(lp4700
(lp4701
I2637
aS'13'
p4702
aS'72'
p4703
aa(lp4704
I2637
aS'85'
p4705
aS'145'
p4706
aa(lp4707
I3646
aS'64'
p4708
aS'277'
p4709
aa(lp4710
I5013
aS'299'
p4711
aS'468'
p4712
aasS'3LL8'
p4713
(lp4714
(lp4715
I1697
aS'84'
p4716
aS'284'
p4717
aa(lp4718
I2637
aS'23'
p4719
aS'77'
p4720
aa(lp4721
I2637
aS'91'
p4722
aS'154'
p4723
aasS'4N00'
p4724
(lp4725
(lp4726
I1279
aS'75'
p4727
aS'416'
p4728
aasS'1XFV'
p4729
(lp4730
(lp4731
I2637
aS'13'
p4732
aS'72'
p4733
aa(lp4734
I2637
aS'85'
p4735
aS'145'
p4736
aa(lp4737
I3646
aS'64'
p4738
aS'277'
p4739
aa(lp4740
I5013
aS'299'
p4741
aS'468'
p4742
aasS'1MF8'
p4743
(lp4744
(lp4745
I1697
aS'84'
p4746
aS'284'
p4747
aa(lp4748
I2637
aS'23'
p4749
aS'77'
p4750
aa(lp4751
I2637
aS'91'
p4752
aS'154'
p4753
aa(lp4754
I7027
aS'8'
aS'162'
p4755
aasS'1XFX'
p4756
(lp4757
(lp4758
I2637
aS'13'
p4759
aS'72'
p4760
aa(lp4761
I2637
aS'85'
p4762
aS'145'
p4763
aa(lp4764
I3646
aS'64'
p4765
aS'277'
p4766
aa(lp4767
I5013
aS'299'
p4768
aS'468'
p4769
aasS'1XFZ'
p4770
(lp4771
(lp4772
I2637
aS'13'
p4773
aS'72'
p4774
aa(lp4775
I2637
aS'85'
p4776
aS'145'
p4777
aa(lp4778
I3646
aS'64'
p4779
aS'277'
p4780
aa(lp4781
I5013
aS'299'
p4782
aS'468'
p4783
aasS'4BEL'
p4784
(lp4785
(lp4786
I1279
aS'30'
p4787
aS'368'
p4788
aa(lp4789
I2388
aS'170'
p4790
aS'269'
p4791
aasS'2M5E'
p4792
(lp4793
(lp4794
I2637
aS'87'
p4795
aS'145'
p4796
aa(lp4797
I6491
aS'1908'
p4798
aS'1926'
p4799
aasS'1YX8'
p4800
(lp4801
(lp4802
I2637
aS'10'
p4803
aS'73'
p4804
aasS'1YX9'
p4805
(lp4806
(lp4807
I1279
aS'13'
p4808
aS'325'
p4809
aasS'1QRP'
p4810
(lp4811
(lp4812
I1279
aS'13'
p4813
aS'324'
p4814
aasS'3S7M'
p4815
(lp4816
(lp4817
I1279
aS'76'
p4818
aS'417'
p4819
aasS'3ZKQ'
p4820
(lp4821
(lp4822
I1279
aS'30'
p4823
aS'368'
p4824
aa(lp4825
I2388
aS'170'
p4826
aS'269'
p4827
aasS'1BOD'
p4828
(lp4829
(lp4830
I2637
aS'7'
aS'67'
p4831
aasS'1QIW'
p4832
(lp4833
(lp4834
I2637
aS'13'
p4835
aS'72'
p4836
aa(lp4837
I2637
aS'85'
p4838
aS'145'
p4839
aasS'3Q70'
p4840
(lp4841
(lp4842
I1279
aS'13'
p4843
aS'330'
p4844
aasS'2N6A'
p4845
(lp4846
(lp4847
I2637
aS'22'
p4848
aS'81'
p4849
aa(lp4850
I2637
aS'94'
p4851
aS'154'
p4852
aasS'3BUH'
p4853
(lp4854
(lp4855
I1279
aS'14'
p4856
aS'355'
p4857
aasS'3LPI'
p4858
(lp4859
(lp4860
I1279
aS'75'
p4861
aS'416'
p4862
aasS'2GGZ'
p4863
(lp4864
(lp4865
I964
aS'35'
p4866
aS'80'
p4867
aa(lp4868
I2637
aS'92'
p4869
aS'158'
p4870
aasS'1CDP'
p4871
(lp4872
(lp4873
I2637
aS'44'
p4874
aS'105'
p4875
aasS'1RJV'
p4876
(lp4877
(lp4878
I2637
aS'45'
p4879
aS'106'
p4880
aasS'4XX3'
p4881
(lp4882
(lp4883
I1279
aS'85'
p4884
aS'404'
p4885
aasS'2ROA'
p4886
(lp4887
(lp4888
I2637
aS'13'
p4889
aS'72'
p4890
aasS'3LPK'
p4891
(lp4892
(lp4893
I1279
aS'75'
p4894
aS'416'
p4895
aasS'3BUF'
p4896
(lp4897
(lp4898
I1279
aS'14'
p4899
aS'355'
p4900
aasS'3AKB'
p4901
(lp4902
(lp4903
I964
aS'144'
p4904
aS'164'
p4905
aa(lp4906
I2637
aS'13'
p4907
aS'83'
p4908
aasS'2LL6'
p4909
(lp4910
(lp4911
I2637
aS'13'
p4912
aS'72'
p4913
aa(lp4914
I2637
aS'85'
p4915
aS'145'
p4916
aasS'3LPJ'
p4917
(lp4918
(lp4919
I1279
aS'75'
p4920
aS'416'
p4921
aa(lp4922
I1279
aS'75'
p4923
aS'416'
p4924
aasS'1CDL'
p4925
(lp4926
(lp4927
I2637
aS'13'
p4928
aS'72'
p4929
aa(lp4930
I2637
aS'85'
p4931
aS'145'
p4932
aasS'1CDM'
p4933
(lp4934
(lp4935
I2637
aS'13'
p4936
aS'72'
p4937
aa(lp4938
I2637
aS'85'
p4939
aS'145'
p4940
aasS'4B00'
p4941
(lp4942
(lp4943
I1279
aS'14'
p4944
aS'355'
p4945
aasS'1OMV'
p4946
(lp4947
(lp4948
I964
aS'40'
p4949
aS'84'
p4950
aa(lp4951
I2637
aS'102'
p4952
aS'174'
p4953
aasS'4EHQ'
p4954
(lp4955
(lp4956
I2637
aS'13'
p4957
aS'72'
p4958
aa(lp4959
I2637
aS'85'
p4960
aS'145'
p4961
aasS'2IS0'
p4962
(lp4963
(lp4964
I1279
aS'14'
p4965
aS'355'
p4966
aasS'2D8N'
p4967
(lp4968
(lp4969
I964
aS'40'
p4970
aS'87'
p4971
aa(lp4972
I2637
aS'102'
p4973
aS'174'
p4974
aasS'1NCY'
p4975
(lp4976
(lp4977
I964
aS'34'
p4978
aS'85'
p4979
aa(lp4980
I2637
aS'100'
p4981
aS'158'
p4982
aasS'1NCZ'
p4983
(lp4984
(lp4985
I964
aS'34'
p4986
aS'85'
p4987
aa(lp4988
I2637
aS'100'
p4989
aS'158'
p4990
aasS'2L7L'
p4991
(lp4992
(lp4993
I2637
aS'13'
p4994
aS'72'
p4995
aa(lp4996
I2637
aS'85'
p4997
aS'145'
p4998
aa(lp4999
I2637
aS'13'
p5000
aS'72'
p5001
aa(lp5002
I2637
aS'85'
p5003
aS'145'
p5004
aasS'3N51'
p5005
(lp5006
(lp5007
I252
aS'52'
p5008
aS'308'
p5009
aa(lp5010
I2637
aS'364'
p5011
aS'429'
p5012
aa(lp5013
I2637
aS'443'
p5014
aS'500'
p5015
aasS'4DV9'
p5016
(lp5017
(lp5018
I1279
aS'14'
p5019
aS'355'
p5020
aasS'1QX7'
p5021
(lp5022
(lp5023
I2637
aS'13'
p5024
aS'72'
p5025
aa(lp5026
I2637
aS'85'
p5027
aS'145'
p5028
aa(lp5029
I5029
aS'430'
p5030
aS'440'
p5031
aasS'1QX5'
p5032
(lp5033
(lp5034
I2637
aS'13'
p5035
aS'72'
p5036
aa(lp5037
I2637
aS'85'
p5038
aS'145'
p5039
aasS'4D88'
p5040
(lp5041
(lp5042
I1279
aS'14'
p5043
aS'342'
p5044
aasS'4D89'
p5045
(lp5046
(lp5047
I1279
aS'62'
p5048
aS'403'
p5049
aasS'4I0G'
p5050
(lp5051
(lp5052
I1279
aS'75'
p5053
aS'416'
p5054
aasS'1OMR'
p5055
(lp5056
(lp5057
I964
aS'40'
p5058
aS'87'
p5059
aa(lp5060
I2637
aS'102'
p5061
aS'174'
p5062
aasS'3BUG'
p5063
(lp5064
(lp5065
I1279
aS'14'
p5066
aS'355'
p5067
aasS'4I0Z'
p5068
(lp5069
(lp5070
I1279
aS'75'
p5071
aS'416'
p5072
aasS'3INH'
p5073
(lp5074
(lp5075
I1279
aS'76'
p5076
aS'417'
p5077
aasS'3I25'
p5078
(lp5079
(lp5080
I1279
aS'14'
p5081
aS'355'
p5082
aasS'3INF'
p5083
(lp5084
(lp5085
I1279
aS'76'
p5086
aS'417'
p5087
aasS'4CLN'
p5088
(lp5089
(lp5090
I2637
aS'13'
p5091
aS'72'
p5092
aa(lp5093
I2637
aS'85'
p5094
aS'145'
p5095
aasS'3IND'
p5096
(lp5097
(lp5098
I1279
aS'76'
p5099
aS'417'
p5100
aasS'3INE'
p5101
(lp5102
(lp5103
I1279
aS'76'
p5104
aS'417'
p5105
aasS'1QVI'
p5106
(lp5107
(lp5108
I1461
aS'86'
p5109
aS'763'
p5110
aa(lp5111
I2637
aS'87'
p5112
aS'146'
p5113
aa(lp5114
I2638
aS'19'
p5115
aS'43'
p5116
aa(lp5117
I5670
aS'31'
p5118
aS'71'
p5119
aa(lp5120
I6491
aS'780'
p5121
aS'799'
p5122
aasS'4J9Y'
p5123
(lp5124
(lp5125
I2637
aS'13'
p5126
aS'72'
p5127
aa(lp5128
I2637
aS'85'
p5129
aS'145'
p5130
aa(lp5131
I5029
aS'413'
p5132
aS'487'
p5133
aasS'3UDN'
p5134
(lp5135
(lp5136
I1279
aS'14'
p5137
aS'355'
p5138
aasS'3TZ1'
p5139
(lp5140
(lp5141
I2637
aS'87'
p5142
aS'147'
p5143
aasS'4GUK'
p5144
(lp5145
(lp5146
I2631
aS'68'
p5147
aS'90'
p5148
aa(lp5149
I2637
aS'101'
p5150
aS'171'
p5151
aasS'1QV0'
p5152
(lp5153
(lp5154
I959
aS'24'
p5155
aS'41'
p5156
aa(lp5157
I2637
aS'118'
p5158
aS'171'
p5159
aasS'1QV1'
p5160
(lp5161
(lp5162
I959
aS'24'
p5163
aS'41'
p5164
aa(lp5165
I2637
aS'118'
p5166
aS'171'
p5167
aasS'1YX7'
p5168
(lp5169
(lp5170
I2637
aS'10'
p5171
aS'73'
p5172
aasS'2FDP'
p5173
(lp5174
(lp5175
I1279
aS'14'
p5176
aS'355'
p5177
aasS'4UMO'
p5178
(lp5179
(lp5180
I2637
aS'13'
p5181
aS'72'
p5182
aa(lp5183
I2637
aS'85'
p5184
aS'145'
p5185
aasS'3IN4'
p5186
(lp5187
(lp5188
I1279
aS'76'
p5189
aS'417'
p5190
aasS'2JUL'
p5191
(lp5192
(lp5193
I964
aS'105'
p5194
aS'155'
p5195
aa(lp5196
I2637
aS'167'
p5197
aS'237'
p5198
aasS'3IN3'
p5199
(lp5200
(lp5201
I1279
aS'76'
p5202
aS'417'
p5203
aasS'4M1L'
p5204
(lp5205
(lp5206
I2637
aS'14'
p5207
aS'73'
p5208
aa(lp5209
I2637
aS'86'
p5210
aS'146'
p5211
aa(lp5212
I6491
aS'395'
p5213
aS'411'
p5214
aasS'1RTP'
p5215
(lp5216
(lp5217
I2637
aS'44'
p5218
aS'105'
p5219
aasS'4FRS'
p5220
(lp5221
(lp5222
I1279
aS'75'
p5223
aS'416'
p5224
aasS'3ZKI'
p5225
(lp5226
(lp5227
I1279
aS'30'
p5228
aS'368'
p5229
aasS'4D8C'
p5230
(lp5231
(lp5232
I1279
aS'14'
p5233
aS'344'
p5234
aasS'3L38'
p5235
(lp5236
(lp5237
I1279
aS'76'
p5238
aS'417'
p5239
aasS'2V00'
p5240
(lp5241
(lp5242
I1279
aS'17'
p5243
aS'329'
p5244
aasS'1LS5'
p5245
(lp5246
(lp5247
I1279
aS'16'
p5248
aS'324'
p5249
aasS'3KN0'
p5250
(lp5251
(lp5252
I1279
aS'75'
p5253
aS'416'
p5254
aasS'1OOJ'
p5255
(lp5256
(lp5257
I2637
aS'14'
p5258
aS'73'
p5259
aa(lp5260
I2637
aS'86'
p5261
aS'146'
p5262
aasS'1QIV'
p5263
(lp5264
(lp5265
I2637
aS'13'
p5266
aS'72'
p5267
aa(lp5268
I2637
aS'85'
p5269
aS'145'
p5270
aasS'1OSA'
p5271
(lp5272
(lp5273
I2637
aS'13'
p5274
aS'72'
p5275
aa(lp5276
I2637
aS'87'
p5277
aS'145'
p5278
aasS'4KUP'
p5279
(lp5280
(lp5281
I1279
aS'17'
p5282
aS'329'
p5283
aasS'1XFW'
p5284
(lp5285
(lp5286
I2637
aS'13'
p5287
aS'72'
p5288
aa(lp5289
I2637
aS'85'
p5290
aS'145'
p5291
aa(lp5292
I3646
aS'64'
p5293
aS'277'
p5294
aa(lp5295
I5013
aS'299'
p5296
aS'468'
p5297
aasS'3VSX'
p5298
(lp5299
(lp5300
I1279
aS'19'
p5301
aS'338'
p5302
aasS'4IFG'
p5303
(lp5304
(lp5305
I252
aS'52'
p5306
aS'308'
p5307
aa(lp5308
I2637
aS'364'
p5309
aS'429'
p5310
aa(lp5311
I2637
aS'443'
p5312
aS'500'
p5313
aasS'3VSW'
p5314
(lp5315
(lp5316
I1279
aS'19'
p5317
aS'338'
p5318
aasS'4XXS'
p5319
(lp5320
(lp5321
I1279
aS'14'
p5322
aS'355'
p5323
aasS'1S6J'
p5324
(lp5325
(lp5326
I2637
aS'25'
p5327
aS'84'
p5328
aasS'3CIC'
p5329
(lp5330
(lp5331
I1279
aS'75'
p5332
aS'416'
p5333
aasS'1S6I'
p5334
(lp5335
(lp5336
I2637
aS'12'
p5337
aS'71'
p5338
aa(lp5339
I2637
aS'87'
p5340
aS'142'
p5341
aasS'1XFY'
p5342
(lp5343
(lp5344
I2637
aS'13'
p5345
aS'72'
p5346
aa(lp5347
I2637
aS'85'
p5348
aS'145'
p5349
aa(lp5350
I3646
aS'64'
p5351
aS'277'
p5352
aa(lp5353
I5013
aS'299'
p5354
aS'468'
p5355
aasS'3LZY'
p5356
(lp5357
(lp5358
I1279
aS'17'
p5359
aS'329'
p5360
aasS'2RO9'
p5361
(lp5362
(lp5363
I2637
aS'85'
p5364
aS'145'
p5365
aasS'1M43'
p5366
(lp5367
(lp5368
I1279
aS'16'
p5369
aS'324'
p5370
aasS'1CKK'
p5371
(lp5372
(lp5373
I2637
aS'13'
p5374
aS'72'
p5375
aa(lp5376
I2637
aS'85'
p5377
aS'145'
p5378
aasS'2VIJ'
p5379
(lp5380
(lp5381
I1279
aS'75'
p5382
aS'416'
p5383
aasS'1YTZ'
p5384
(lp5385
(lp5386
I964
aS'33'
p5387
aS'84'
p5388
aa(lp5389
I1916
aS'165'
p5390
aS'203'
p5391
aa(lp5392
I1916
aS'14'
p5393
aS'143'
p5394
aa(lp5395
I2637
aS'99'
p5396
aS'157'
p5397
aasS'4DJC'
p5398
(lp5399
(lp5400
I2637
aS'14'
p5401
aS'73'
p5402
aa(lp5403
I2637
aS'86'
p5404
aS'146'
p5405
aasS'3PLD'
p5406
(lp5407
(lp5408
I1279
aS'17'
p5409
aS'329'
p5410
aasS'1EPP'
p5411
(lp5412
(lp5413
I1279
aS'14'
p5414
aS'325'
p5415
aasS'3K1W'
p5416
(lp5417
(lp5418
I1279
aS'19'
p5419
aS'338'
p5420
aasS'2M97'
p5421
(lp5422
(lp5423
I2637
aS'6'
aS'65'
p5424
aasS'3QBH'
p5425
(lp5426
(lp5427
I1279
aS'14'
p5428
aS'355'
p5429
aasS'1QDM'
p5430
(lp5431
(lp5432
I609
aS'67S'
p5433
aS'104S'
p5434
aa(lp5435
I611
aS'4S'
p5436
aS'37S'
p5437
aa(lp5438
I1279
aS'17'
p5439
aS'337'
p5440
aasS'3UQX'
p5441
(lp5442
(lp5443
I1279
aS'14'
p5444
aS'355'
p5445
aasS'1AUI'
p5446
(lp5447
(lp5448
I1697
aS'84'
p5449
aS'284'
p5450
aa(lp5451
I2637
aS'23'
p5452
aS'77'
p5453
aa(lp5454
I2637
aS'91'
p5455
aS'154'
p5456
aasS'4DJV'
p5457
(lp5458
(lp5459
I1279
aS'75'
p5460
aS'416'
p5461
aasS'4DJW'
p5462
(lp5463
(lp5464
I1279
aS'75'
p5465
aS'416'
p5466
aasS'3RTM'
p5467
(lp5468
(lp5469
I1279
aS'14'
p5470
aS'355'
p5471
aasS'4DJU'
p5472
(lp5473
(lp5474
I1279
aS'75'
p5475
aS'416'
p5476
aa(lp5477
I1279
aS'75'
p5478
aS'416'
p5479
aasS'4DJX'
p5480
(lp5481
(lp5482
I1279
aS'75'
p5483
aS'416'
p5484
aasS'4DJY'
p5485
(lp5486
(lp5487
I1279
aS'75'
p5488
aS'416'
p5489
aasS'2VAY'
p5490
(lp5491
(lp5492
I2637
aS'13'
p5493
aS'72'
p5494
aa(lp5495
I2637
aS'85'
p5496
aS'145'
p5497
aasS'4ZPG'
p5498
(lp5499
(lp5500
I1279
aS'14'
p5501
aS'355'
p5502
aasS'1EPQ'
p5503
(lp5504
(lp5505
I1279
aS'14'
p5506
aS'325'
p5507
aasS'1XS7'
p5508
(lp5509
(lp5510
I1279
aS'14'
p5511
aS'355'
p5512
aasS'3LHG'
p5513
(lp5514
(lp5515
I1279
aS'76'
p5516
aS'417'
p5517
aasS'3PVK'
p5518
(lp5519
(lp5520
I1279
aS'13'
p5521
aS'330'
p5522
aasS'3SJQ'
p5523
(lp5524
(lp5525
I2637
aS'13'
p5526
aS'72'
p5527
aa(lp5528
I2637
aS'85'
p5529
aS'145'
p5530
aa(lp5531
I5029
aS'414'
p5532
aS'490'
p5533
aasS'1MXE'
p5534
(lp5535
(lp5536
I2637
aS'13'
p5537
aS'72'
p5538
aa(lp5539
I2637
aS'85'
p5540
aS'145'
p5541
aasS'2M0K'
p5542
(lp5543
(lp5544
I2637
aS'13'
p5545
aS'72'
p5546
aa(lp5547
I2637
aS'85'
p5548
aS'145'
p5549
aa(lp5550
I2637
aS'13'
p5551
aS'72'
p5552
aa(lp5553
I2637
aS'85'
p5554
aS'145'
p5555
aasS'2M0J'
p5556
(lp5557
(lp5558
I2637
aS'13'
p5559
aS'72'
p5560
aa(lp5561
I2637
aS'85'
p5562
aS'145'
p5563
aasS'2G94'
p5564
(lp5565
(lp5566
I1279
aS'14'
p5567
aS'355'
p5568
aasS'4I0I'
p5569
(lp5570
(lp5571
I1279
aS'20'
p5572
aS'361'
p5573
aasS'1A29'
p5574
(lp5575
(lp5576
I2637
aS'13'
p5577
aS'72'
p5578
aa(lp5579
I2637
aS'85'
p5580
aS'145'
p5581
aasS'2JXR'
p5582
(lp5583
(lp5584
I1279
aS'13'
p5585
aS'325'
p5586
aasS'2BJU'
p5587
(lp5588
(lp5589
I1279
aS'16'
p5590
aS'324'
p5591
aasS'4FM8'
p5592
(lp5593
(lp5594
I1279
aS'14'
p5595
aS'355'
p5596
aasS'1TIZ'
p5597
(lp5598
(lp5599
I2637
aS'4'
aS'60'
p5600
aasS'3UQR'
p5601
(lp5602
(lp5603
I1279
aS'14'
p5604
aS'355'
p5605
aasS'3RSV'
p5606
(lp5607
(lp5608
I1279
aS'14'
p5609
aS'355'
p5610
aasS'2FOT'
p5611
(lp5612
(lp5613
I2637
aS'13'
p5614
aS'72'
p5615
aa(lp5616
I2637
aS'85'
p5617
aS'145'
p5618
aasS'4FM7'
p5619
(lp5620
(lp5621
I1279
aS'14'
p5622
aS'355'
p5623
aasS'2OHR'
p5624
(lp5625
(lp5626
I1279
aS'14'
p5627
aS'355'
p5628
aasS'3ZOV'
p5629
(lp5630
(lp5631
I1279
aS'75'
p5632
aS'416'
p5633
aasS'4RJD'
p5634
(lp5635
(lp5636
I2637
aS'85'
p5637
aS'145'
p5638
aasS'1KQM'
p5639
(lp5640
(lp5641
I1461
aS'86'
p5642
aS'763'
p5643
aa(lp5644
I2637
aS'87'
p5645
aS'146'
p5646
aa(lp5647
I2638
aS'19'
p5648
aS'43'
p5649
aa(lp5650
I5670
aS'31'
p5651
aS'71'
p5652
aa(lp5653
I6491
aS'780'
p5654
aS'799'
p5655
aasS'5DVR'
p5656
(lp5657
(lp5658
I252
aS'113'
p5659
aS'369'
p5660
aa(lp5661
I2637
aS'425'
p5662
aS'440'
p5663
aasS'1RFJ'
p5664
(lp5665
(lp5666
I2637
aS'13'
p5667
aS'72'
p5668
aa(lp5669
I2637
aS'85'
p5670
aS'145'
p5671
aasS'4HA5'
p5672
(lp5673
(lp5674
I1279
aS'75'
p5675
aS'416'
p5676
aasS'2X0B'
p5677
(lp5678
(lp5679
I1279
aS'14'
p5680
aS'331'
p5681
aa(lp5682
I6874
aS'78'
p5683
aS'448'
p5684
aasS'2XFI'
p5685
(lp5686
(lp5687
I1279
aS'75'
p5688
aS'416'
p5689
aasS'2XFJ'
p5690
(lp5691
(lp5692
I1279
aS'75'
p5693
aS'416'
p5694
aasS'2XFK'
p5695
(lp5696
(lp5697
I1279
aS'75'
p5698
aS'416'
p5699
aasS'2JNF'
p5700
(lp5701
(lp5702
I2637
aS'93'
p5703
aS'152'
p5704
aasS'2X0G'
p5705
(lp5706
(lp5707
I252
aS'13'
p5708
aS'275'
p5709
aa(lp5710
I2637
aS'13'
p5711
aS'72'
p5712
aa(lp5713
I2637
aS'85'
p5714
aS'145'
p5715
aasS'2KQY'
p5716
(lp5717
(lp5718
I2637
aS'43'
p5719
aS'105'
p5720
aasS'1A2X'
p5721
(lp5722
(lp5723
I964
aS'31'
p5724
aS'82'
p5725
aa(lp5726
I2637
aS'96'
p5727
aS'155'
p5728
aasS'2JNX'
p5729
(lp5730
(lp5731
I2637
aS'5'
aS'61'
p5732
aa(lp5733
I2637
aS'81'
p5734
aS'132'
p5735
aasS'1OE9'
p5736
(lp5737
(lp5738
I1461
aS'72'
p5739
aS'752'
p5740
aa(lp5741
I2637
aS'93'
p5742
aS'146'
p5743
aa(lp5744
I2638
aS'11'
p5745
aS'40'
p5746
aa(lp5747
I6491
aS'768'
p5748
aS'787'
p5749
aasS'1FKN'
p5750
(lp5751
(lp5752
I1279
aS'14'
p5753
aS'355'
p5754
aasS'1VRK'
p5755
(lp5756
(lp5757
I2637
aS'13'
p5758
aS'72'
p5759
aa(lp5760
I2637
aS'85'
p5761
aS'145'
p5762
aasS'3H0B'
p5763
(lp5764
(lp5765
I1279
aS'14'
p5766
aS'355'
p5767
aasS'1XE5'
p5768
(lp5769
(lp5770
I1279
aS'16'
p5771
aS'324'
p5772
aasS'1XE6'
p5773
(lp5774
(lp5775
I1279
aS'16'
p5776
aS'324'
p5777
aasS'3KU2'
p5778
(lp5779
(lp5780
I252
aS'52'
p5781
aS'308'
p5782
aa(lp5783
I2637
aS'364'
p5784
aS'429'
p5785
aa(lp5786
I2637
aS'443'
p5787
aS'500'
p5788
aasS'2PQ3'
p5789
(lp5790
(lp5791
I2637
aS'13'
p5792
aS'72'
p5793
aasS'1AVF'
p5794
(lp5795
(lp5796
I1279
aS'13'
p5797
aS'328'
p5798
aa(lp5799
I3187
aS'2'
aS'21'
p5800
aasS'3IGB'
p5801
(lp5802
(lp5803
I1279
aS'76'
p5804
aS'417'
p5805
aasS'1H4B'
p5806
(lp5807
(lp5808
I2637
aS'12'
p5809
aS'67'
p5810
aasS'4YBI'
p5811
(lp5812
(lp5813
I1279
aS'14'
p5814
aS'355'
p5815
aasS'3IGO'
p5816
(lp5817
(lp5818
I252
aS'78'
p5819
aS'332'
p5820
aa(lp5821
I2637
aS'386'
p5822
aS'456'
p5823
aa(lp5824
I2637
aS'472'
p5825
aS'530'
p5826
aasS'1LA0'
p5827
(lp5828
(lp5829
I964
aS'32'
p5830
aS'83'
p5831
aa(lp5832
I2637
aS'99'
p5833
aS'157'
p5834
aasS'2VA7'
p5835
(lp5836
(lp5837
I1279
aS'14'
p5838
aS'355'
p5839
aasS'2VA6'
p5840
(lp5841
(lp5842
I1279
aS'14'
p5843
aS'355'
p5844
aasS'2VA5'
p5845
(lp5846
(lp5847
I1279
aS'14'
p5848
aS'355'
p5849
aasS'2OF0'
p5850
(lp5851
(lp5852
I1279
aS'14'
p5853
aS'355'
p5854
aasS'3RU1'
p5855
(lp5856
(lp5857
I1279
aS'14'
p5858
aS'355'
p5859
aasS'3K5D'
p5860
(lp5861
(lp5862
I1279
aS'14'
p5863
aS'355'
p5864
aasS'3MWU'
p5865
(lp5866
(lp5867
I252
aS'78'
p5868
aS'332'
p5869
aa(lp5870
I2637
aS'386'
p5871
aS'456'
p5872
aa(lp5873
I2637
aS'472'
p5874
aS'530'
p5875
aasS'2M28'
p5876
(lp5877
(lp5878
I2637
aS'210'
p5879
aS'265'
p5880
aasS'2PSG'
p5881
(lp5882
(lp5883
I1279
aS'13'
p5884
aS'324'
p5885
aa(lp5886
I3187
aS'1P'
p5887
aS'29P'
p5888
aasS'3TPJ'
p5889
(lp5890
(lp5891
I1279
aS'14'
p5892
aS'355'
p5893
aasS'4Q57'
p5894
(lp5895
(lp5896
I2637
aS'13'
p5897
aS'72'
p5898
aa(lp5899
I4059
aS'44'
p5900
aS'140'
p5901
aa(lp5902
I4059
aS'159'
p5903
aS'258'
p5904
aasS'1M4H'
p5905
(lp5906
(lp5907
I1279
aS'14'
p5908
aS'355'
p5909
aasS'3WB4'
p5910
(lp5911
(lp5912
I1279
aS'14'
p5913
aS'355'
p5914
aasS'3WB5'
p5915
(lp5916
(lp5917
I1279
aS'14'
p5918
aS'355'
p5919
aasS'1BXO'
p5920
(lp5921
(lp5922
I1279
aS'16'
p5923
aS'321'
p5924
aasS'1S3P'
p5925
(lp5926
(lp5927
I2637
aS'44'
p5928
aS'105'
p5929
aasS'3TPL'
p5930
(lp5931
(lp5932
I1279
aS'14'
p5933
aS'355'
p5934
aasS'3SXF'
p5935
(lp5936
(lp5937
I252
aS'52'
p5938
aS'308'
p5939
aa(lp5940
I2637
aS'364'
p5941
aS'429'
p5942
aa(lp5943
I2637
aS'443'
p5944
aS'500'
p5945
aasS'3QJK'
p5946
(lp5947
(lp5948
I2637
aS'5'
aS'62'
p5949
aasS'1BXQ'
p5950
(lp5951
(lp5952
I1279
aS'16'
p5953
aS'321'
p5954
aasS'4J1H'
p5955
(lp5956
(lp5957
I1279
aS'75'
p5958
aS'416'
p5959
aasS'4J1K'
p5960
(lp5961
(lp5962
I1279
aS'75'
p5963
aS'416'
p5964
aasS'1HTR'
p5965
(lp5966
(lp5967
I1279
aS'13'
p5968
aS'328'
p5969
aa(lp5970
I3187
aS'2'
aS'30'
p5971
aasS'4J1E'
p5972
(lp5973
(lp5974
I1279
aS'75'
p5975
aS'416'
p5976
aasS'3DUY'
p5977
(lp5978
(lp5979
I1279
aS'14'
p5980
aS'355'
p5981
aasS'2O60'
p5982
(lp5983
(lp5984
I2637
aS'13'
p5985
aS'72'
p5986
aa(lp5987
I2637
aS'85'
p5988
aS'145'
p5989
aasS'4MEW'
p5990
(lp5991
(lp5992
I2637
aS'320'
p5993
aS'417'
p5994
aasS'4J1C'
p5995
(lp5996
(lp5997
I1279
aS'75'
p5998
aS'416'
p5999
aasS'1OEW'
p6000
(lp6001
(lp6002
I1279
aS'17'
p6003
aS'329'
p6004
aasS'3UCT'
p6005
(lp6006
(lp6007
I2637
aS'13'
p6008
aS'72'
p6009
aasS'3UCW'
p6010
(lp6011
(lp6012
I2637
aS'13'
p6013
aS'72'
p6014
aasS'3UCY'
p6015
(lp6016
(lp6017
I2637
aS'13'
p6018
aS'72'
p6019
aasS'1OEX'
p6020
(lp6021
(lp6022
I1279
aS'17'
p6023
aS'329'
p6024
aasS'2QP8'
p6025
(lp6026
(lp6027
I1279
aS'75'
p6028
aS'416'
p6029
aasS'1N0Y'
p6030
(lp6031
(lp6032
I2637
aS'13'
p6033
aS'72'
p6034
aa(lp6035
I2637
aS'87'
p6036
aS'87'
p6037
aasS'3OOT'
p6038
(lp6039
(lp6040
I1279
aS'13'
p6041
aS'324'
p6042
aasS'3OOZ'
p6043
(lp6044
(lp6045
I1279
aS'76'
p6046
aS'417'
p6047
aasS'3GOF'
p6048
(lp6049
(lp6050
I2637
aS'13'
p6051
aS'72'
p6052
aa(lp6053
I2637
aS'85'
p6054
aS'145'
p6055
aasS'2E6W'
p6056
(lp6057
(lp6058
I2637
aS'167'
p6059
aS'239'
p6060
aasS'4AUC'
p6061
(lp6062
(lp6063
I1279
aS'15'
p6064
aS'322'
p6065
aasS'3VV7'
p6066
(lp6067
(lp6068
I1279
aS'14'
p6069
aS'355'
p6070
aasS'3VV6'
p6071
(lp6072
(lp6073
I1279
aS'14'
p6074
aS'355'
p6075
aasS'4PJJ'
p6076
(lp6077
(lp6078
I1461
aS'59'
p6079
aS'759'
p6080
aa(lp6081
I2637
aS'13'
p6082
aS'72'
p6083
aa(lp6084
I2637
aS'85'
p6085
aS'145'
p6086
aasS'3AKA'
p6087
(lp6088
(lp6089
I964
aS'144'
p6090
aS'164'
p6091
aa(lp6092
I2637
aS'13'
p6093
aS'81'
p6094
aasS'3UQP'
p6095
(lp6096
(lp6097
I1279
aS'14'
p6098
aS'355'
p6099
aasS'5PAL'
p6100
(lp6101
(lp6102
I2637
aS'44'
p6103
aS'105'
p6104
aasS'3VV8'
p6105
(lp6106
(lp6107
I1279
aS'14'
p6108
aS'355'
p6109
aasS'3UQU'
p6110
(lp6111
(lp6112
I1279
aS'14'
p6113
aS'355'
p6114
aa(lp6115
I1279
aS'14'
p6116
aS'355'
p6117
aasS'2VS2'
p6118
(lp6119
(lp6120
I1279
aS'17'
p6121
aS'330'
p6122
aasS'3EVR'
p6123
(lp6124
(lp6125
I1607
aS'55'
p6126
aS'140'
p6127
aa(lp6128
I1607
aS'164'
p6129
aS'304'
p6130
aa(lp6131
I2637
aS'318'
p6132
aS'377'
p6133
aa(lp6134
I2637
aS'390'
p6135
aS'450'
p6136
aasS'3EVV'
p6137
(lp6138
(lp6139
I1607
aS'54'
p6140
aS'140'
p6141
aa(lp6142
I1607
aS'164'
p6143
aS'302'
p6144
aa(lp6145
I2637
aS'318'
p6146
aS'377'
p6147
aa(lp6148
I2637
aS'390'
p6149
aS'449'
p6150
aasS'4N5X'
p6151
(lp6152
(lp6153
I2637
aS'25'
p6154
aS'83'
p6155
aa(lp6156
I2637
aS'94'
p6157
aS'146'
p6158
aasS'3EVU'
p6159
(lp6160
(lp6161
I1607
aS'54'
p6162
aS'140'
p6163
aa(lp6164
I1607
aS'164'
p6165
aS'303'
p6166
aa(lp6167
I2637
aS'318'
p6168
aS'377'
p6169
aa(lp6170
I2637
aS'390'
p6171
aS'450'
p6172
aasS'2LCP'
p6173
(lp6174
(lp6175
I2631
aS'68'
p6176
aS'90'
p6177
aa(lp6178
I2637
aS'101'
p6179
aS'171'
p6180
aasS'4FRI'
p6181
(lp6182
(lp6183
I1279
aS'14'
p6184
aS'355'
p6185
aasS'4FRJ'
p6186
(lp6187
(lp6188
I1279
aS'14'
p6189
aS'355'
p6190
aasS'4FRK'
p6191
(lp6192
(lp6193
I1279
aS'14'
p6194
aS'355'
p6195
aasS'2QZL'
p6196
(lp6197
(lp6198
I1279
aS'14'
p6199
aS'355'
p6200
aasS'1RWY'
p6201
(lp6202
(lp6203
I2637
aS'44'
p6204
aS'105'
p6205
aasS'2QZK'
p6206
(lp6207
(lp6208
I1279
aS'14'
p6209
aS'355'
p6210
aasS'3OQF'
p6211
(lp6212
(lp6213
I1279
aS'13'
p6214
aS'324'
p6215
aasS'4PZX'
p6216
(lp6217
(lp6218
I1279
aS'75'
p6219
aS'416'
p6220
aasS'4Q5U'
p6221
(lp6222
(lp6223
I2637
aS'13'
p6224
aS'72'
p6225
aa(lp6226
I2637
aS'85'
p6227
aS'145'
p6228
aasS'2ZJL'
p6229
(lp6230
(lp6231
I1279
aS'14'
p6232
aS'355'
p6233
aasS'4J17'
p6234
(lp6235
(lp6236
I1279
aS'75'
p6237
aS'416'
p6238
aasS'1S36'
p6239
(lp6240
(lp6241
I959
aS'24'
p6242
aS'41'
p6243
aa(lp6244
I2637
aS'118'
p6245
aS'171'
p6246
aasS'3SX9'
p6247
(lp6248
(lp6249
I252
aS'52'
p6250
aS'308'
p6251
aa(lp6252
I2637
aS'364'
p6253
aS'429'
p6254
aa(lp6255
I2637
aS'443'
p6256
aS'500'
p6257
aasS'2ROB'
p6258
(lp6259
(lp6260
I2637
aS'85'
p6261
aS'145'
p6262
aasS'2QZX'
p6263
(lp6264
(lp6265
I1279
aS'14'
p6266
aS'329'
p6267
aasS'2Q4U'
p6268
(lp6269
(lp6270
I959
aS'250'
p6271
aS'263'
p6272
aa(lp6273
I2637
aS'108'
p6274
aS'173'
p6275
aasS'3U6A'
p6276
(lp6277
(lp6278
I1279
aS'14'
p6279
aS'355'
p6280
aasS'1M46'
p6281
(lp6282
(lp6283
I2637
aS'89'
p6284
aS'143'
p6285
aasS'2WEB'
p6286
(lp6287
(lp6288
I1279
aS'16'
p6289
aS'321'
p6290
aasS'1M45'
p6291
(lp6292
(lp6293
I2637
aS'89'
p6294
aS'143'
p6295
aasS'4X7I'
p6296
(lp6297
(lp6298
I1279
aS'14'
p6299
aS'355'
p6300
aasS'2P6B'
p6301
(lp6302
(lp6303
I1697
aS'84'
p6304
aS'284'
p6305
aa(lp6306
I2637
aS'23'
p6307
aS'77'
p6308
aa(lp6309
I2637
aS'91'
p6310
aS'154'
p6311
aasS'2QZW'
p6312
(lp6313
(lp6314
I1279
aS'13'
p6315
aS'330'
p6316
aasS'4WG4'
p6317
(lp6318
(lp6319
I252
aS'52'
p6320
aS'308'
p6321
aa(lp6322
I2637
aS'364'
p6323
aS'429'
p6324
aa(lp6325
I2637
aS'443'
p6326
aS'500'
p6327
aasS'4WG5'
p6328
(lp6329
(lp6330
I252
aS'52'
p6331
aS'308'
p6332
aa(lp6333
I2637
aS'364'
p6334
aS'429'
p6335
aa(lp6336
I2637
aS'443'
p6337
aS'500'
p6338
aasS'3CTN'
p6339
(lp6340
(lp6341
I2637
aS'99'
p6342
aS'157'
p6343
aasS'4WG3'
p6344
(lp6345
(lp6346
I252
aS'52'
p6347
aS'308'
p6348
aa(lp6349
I2637
aS'364'
p6350
aS'429'
p6351
aa(lp6352
I2637
aS'443'
p6353
aS'500'
p6354
aasS'1C7W'
p6355
(lp6356
(lp6357
I2637
aS'91'
p6358
aS'150'
p6359
aasS'1C7V'
p6360
(lp6361
(lp6362
I2637
aS'91'
p6363
aS'150'
p6364
aasS'3Q4B'
p6365
(lp6366
(lp6367
I1279
aS'13'
p6368
aS'324'
p6369
aasS'2HPS'
p6370
(lp6371
(lp6372
I959
aS'20'
p6373
aS'36'
p6374
aa(lp6375
I2637
aS'110'
p6376
aS'161'
p6377
aasS'1LYB'
p6378
(lp6379
(lp6380
I1279
aS'14'
p6381
aS'94'
p6382
aa(lp6383
I1279
aS'106'
p6384
aS'345'
p6385
aasS'2EWY'
p6386
(lp6387
(lp6388
I1279
aS'30'
p6389
aS'368'
p6390
aasS'3L3A'
p6391
(lp6392
(lp6393
I1279
aS'76'
p6394
aS'417'
p6395
aasS'3NCG'
p6396
(lp6397
(lp6398
I252
aS'78'
p6399
aS'332'
p6400
aa(lp6401
I2637
aS'386'
p6402
aS'456'
p6403
aa(lp6404
I2637
aS'472'
p6405
aS'530'
p6406
aasS'4DCK'
p6407
(lp6408
(lp6409
I2637
aS'14'
p6410
aS'73'
p6411
aa(lp6412
I2637
aS'86'
p6413
aS'146'
p6414
aa(lp6415
I3396
aS'18'
p6416
aS'142'
p6417
aasS'3PCZ'
p6418
(lp6419
(lp6420
I1279
aS'17'
p6421
aS'329'
p6422
aasS'4JPZ'
p6423
(lp6424
(lp6425
I2637
aS'14'
p6426
aS'73'
p6427
aa(lp6428
I2637
aS'86'
p6429
aS'146'
p6430
aa(lp6431
I3396
aS'18'
p6432
aS'142'
p6433
aa(lp6434
I6491
aS'1908'
p6435
aS'1926'
p6436
aasS'2FS4'
p6437
(lp6438
(lp6439
I1279
aS'14'
p6440
aS'331'
p6441
aasS'4RYG'
p6442
(lp6443
(lp6444
I1279
aS'13'
p6445
aS'324'
p6446
aasS'3PCW'
p6447
(lp6448
(lp6449
I1279
aS'17'
p6450
aS'329'
p6451
aasS'1B7T'
p6452
(lp6453
(lp6454
I1461
aS'86'
p6455
aS'763'
p6456
aa(lp6457
I2637
aS'87'
p6458
aS'146'
p6459
aa(lp6460
I2638
aS'19'
p6461
aS'43'
p6462
aa(lp6463
I5670
aS'31'
p6464
aS'71'
p6465
aa(lp6466
I6491
aS'780'
p6467
aS'799'
p6468
aasS'4RYC'
p6469
(lp6470
(lp6471
I1279
aS'13'
p6472
aS'324'
p6473
aasS'2LVI'
p6474
(lp6475
(lp6476
I2637
aS'5'
aS'62'
p6477
aasS'3UQW'
p6478
(lp6479
(lp6480
I1279
aS'14'
p6481
aS'355'
p6482
aasS'1TN4'
p6483
(lp6484
(lp6485
I964
aS'31'
p6486
aS'82'
p6487
aa(lp6488
I2637
aS'96'
p6489
aS'155'
p6490
aasS'2BKI'
p6491
(lp6492
(lp6493
I1461
aS'59'
p6494
aS'759'
p6495
aa(lp6496
I2637
aS'13'
p6497
aS'72'
p6498
aa(lp6499
I2637
aS'85'
p6500
aS'145'
p6501
aasS'2BKH'
p6502
(lp6503
(lp6504
I1461
aS'59'
p6505
aS'759'
p6506
aa(lp6507
I2637
aS'13'
p6508
aS'72'
p6509
aa(lp6510
I2637
aS'85'
p6511
aS'145'
p6512
aasS'1RNE'
p6513
(lp6514
(lp6515
I1279
aS'13'
p6516
aS'324'
p6517
aasS'1XVJ'
p6518
(lp6519
(lp6520
I2637
aS'44'
p6521
aS'105'
p6522
aasS'2PAS'
p6523
(lp6524
(lp6525
I2637
aS'44'
p6526
aS'105'
p6527
aasS'2PAL'
p6528
(lp6529
(lp6530
I2637
aS'44'
p6531
aS'105'
p6532
aasS'2ER7'
p6533
(lp6534
(lp6535
I1279
aS'14'
p6536
aS'325'
p6537
aasS'2ER6'
p6538
(lp6539
(lp6540
I1279
aS'14'
p6541
aS'325'
p6542
aasS'2ER0'
p6543
(lp6544
(lp6545
I1279
aS'14'
p6546
aS'325'
p6547
aasS'4AZY'
p6548
(lp6549
(lp6550
I1279
aS'14'
p6551
aS'355'
p6552
aasS'3S7L'
p6553
(lp6554
(lp6555
I1279
aS'76'
p6556
aS'417'
p6557
aasS'1OD1'
p6558
(lp6559
(lp6560
I1279
aS'17'
p6561
aS'329'
p6562
aasS'1SCV'
p6563
(lp6564
(lp6565
I2637
aS'99'
p6566
aS'157'
p6567
aasS'1NCX'
p6568
(lp6569
(lp6570
I964
aS'34'
p6571
aS'85'
p6572
aa(lp6573
I2637
aS'100'
p6574
aS'158'
p6575
aasS'1TNW'
p6576
(lp6577
(lp6578
I964
aS'34'
p6579
aS'85'
p6580
aa(lp6581
I2637
aS'100'
p6582
aS'158'
p6583
aasS'3MSJ'
p6584
(lp6585
(lp6586
I1279
aS'14'
p6587
aS'355'
p6588
aasS'3MSL'
p6589
(lp6590
(lp6591
I1279
aS'14'
p6592
aS'355'
p6593
aasS'1DFK'
p6594
(lp6595
(lp6596
I1461
aS'86'
p6597
aS'763'
p6598
aa(lp6599
I2637
aS'87'
p6600
aS'146'
p6601
aa(lp6602
I2638
aS'19'
p6603
aS'43'
p6604
aa(lp6605
I5670
aS'31'
p6606
aS'71'
p6607
aa(lp6608
I6491
aS'780'
p6609
aS'799'
p6610
aasS'4D85'
p6611
(lp6612
(lp6613
I1279
aS'16'
p6614
aS'342'
p6615
aasS'5AEQ'
p6616
(lp6617
(lp6618
I2631
aS'68'
p6619
aS'90'
p6620
aa(lp6621
I2637
aS'101'
p6622
aS'171'
p6623
aasS'1LKJ'
p6624
(lp6625
(lp6626
I2637
aS'13'
p6627
aS'72'
p6628
aa(lp6629
I2637
aS'86'
p6630
aS'142'
p6631
aasS'5AER'
p6632
(lp6633
(lp6634
I2631
aS'68'
p6635
aS'90'
p6636
aa(lp6637
I2637
aS'101'
p6638
aS'171'
p6639
aasS'1TNX'
p6640
(lp6641
(lp6642
I964
aS'34'
p6643
aS'85'
p6644
aa(lp6645
I2637
aS'100'
p6646
aS'158'
p6647
aasS'1JSA'
p6648
(lp6649
(lp6650
I964
aS'39'
p6651
aS'86'
p6652
aa(lp6653
I2637
aS'101'
p6654
aS'173'
p6655
aasS'4XKX'
p6656
(lp6657
(lp6658
I1279
aS'14'
p6659
aS'355'
p6660
aasS'3KPX'
p6661
(lp6662
(lp6663
I959
aS'28'
p6664
aS'44'
p6665
aa(lp6666
I2637
aS'121'
p6667
aS'174'
p6668
aasS'4I0J'
p6669
(lp6670
(lp6671
I1279
aS'75'
p6672
aS'416'
p6673
aasS'2JJJ'
p6674
(lp6675
(lp6676
I1279
aS'17'
p6677
aS'330'
p6678
aasS'1REC'
p6679
(lp6680
(lp6681
I964
aS'40'
p6682
aS'87'
p6683
aa(lp6684
I2637
aS'102'
p6685
aS'174'
p6686
aasS'1SL7'
p6687
(lp6688
(lp6689
I959
aS'24'
p6690
aS'41'
p6691
aa(lp6692
I2637
aS'118'
p6693
aS'171'
p6694
aasS'1SL8'
p6695
(lp6696
(lp6697
I959
aS'20'
p6698
aS'38'
p6699
aa(lp6700
I2637
aS'114'
p6701
aS'167'
p6702
aasS'1SL9'
p6703
(lp6704
(lp6705
I959
aS'24'
p6706
aS'41'
p6707
aa(lp6708
I2637
aS'118'
p6709
aS'171'
p6710
aasS'3VYD'
p6711
(lp6712
(lp6713
I1279
aS'19'
p6714
aS'338'
p6715
aasS'3VYE'
p6716
(lp6717
(lp6718
I1279
aS'19'
p6719
aS'338'
p6720
aasS'1W51'
p6721
(lp6722
(lp6723
I1279
aS'14'
p6724
aS'355'
p6725
aasS'2MBX'
p6726
(lp6727
(lp6728
I2637
aS'44'
p6729
aS'103'
p6730
aasS'4ACX'
p6731
(lp6732
(lp6733
I1279
aS'14'
p6734
aS'355'
p6735
aasS'1DTL'
p6736
(lp6737
(lp6738
I964
aS'32'
p6739
aS'83'
p6740
aa(lp6741
I2637
aS'99'
p6742
aS'157'
p6743
aasS'1B8C'
p6744
(lp6745
(lp6746
I2637
aS'44'
p6747
aS'101'
p6748
aasS'1B8L'
p6749
(lp6750
(lp6751
I2637
aS'44'
p6752
aS'101'
p6753
aasS'2LQC'
p6754
(lp6755
(lp6756
I2637
aS'13'
p6757
aS'72'
p6758
aasS'4D83'
p6759
(lp6760
(lp6761
I1279
aS'14'
p6762
aS'344'
p6763
aasS'3UDH'
p6764
(lp6765
(lp6766
I1279
aS'14'
p6767
aS'355'
p6768
aasS'4ACU'
p6769
(lp6770
(lp6771
I1279
aS'14'
p6772
aS'355'
p6773
aasS'4H3G'
p6774
(lp6775
(lp6776
I1279
aS'75'
p6777
aS'416'
p6778
aasS'4H3F'
p6779
(lp6780
(lp6781
I1279
aS'75'
p6782
aS'416'
p6783
aasS'2BBN'
p6784
(lp6785
(lp6786
I2637
aS'13'
p6787
aS'72'
p6788
aa(lp6789
I2637
aS'85'
p6790
aS'145'
p6791
aasS'4B72'
p6792
(lp6793
(lp6794
I1279
aS'14'
p6795
aS'355'
p6796
aasS'2ZRT'
p6797
(lp6798
(lp6799
I964
aS'40'
p6800
aS'90'
p6801
aa(lp6802
I2637
aS'97'
p6803
aS'154'
p6804
aasS'4B70'
p6805
(lp6806
(lp6807
I1279
aS'14'
p6808
aS'355'
p6809
aasS'4B77'
p6810
(lp6811
(lp6812
I1279
aS'14'
p6813
aS'355'
p6814
aasS'2ZRS'
p6815
(lp6816
(lp6817
I964
aS'40'
p6818
aS'90'
p6819
aa(lp6820
I2637
aS'97'
p6821
aS'154'
p6822
aasS'4NQG'
p6823
(lp6824
(lp6825
I2637
aS'120'
p6826
aS'173'
p6827
aasS'1B8R'
p6828
(lp6829
(lp6830
I2637
aS'44'
p6831
aS'101'
p6832
aasS'4B78'
p6833
(lp6834
(lp6835
I1279
aS'14'
p6836
aS'355'
p6837
aasS'2PH6'
p6838
(lp6839
(lp6840
I1279
aS'14'
p6841
aS'355'
p6842
aasS'3UDY'
p6843
(lp6844
(lp6845
I1279
aS'14'
p6846
aS'355'
p6847
aasS'1UP5'
p6848
(lp6849
(lp6850
I2637
aS'13'
p6851
aS'72'
p6852
aa(lp6853
I2637
aS'85'
p6854
aS'145'
p6855
aasS'4DUS'
p6856
(lp6857
(lp6858
I1279
aS'14'
p6859
aS'355'
p6860
aasS'1L2O'
p6861
(lp6862
(lp6863
I1461
aS'86'
p6864
aS'763'
p6865
aa(lp6866
I2637
aS'87'
p6867
aS'146'
p6868
aa(lp6869
I2638
aS'19'
p6870
aS'43'
p6871
aa(lp6872
I5670
aS'31'
p6873
aS'71'
p6874
aa(lp6875
I6491
aS'780'
p6876
aS'799'
p6877
aasS'4Q1N'
p6878
(lp6879
(lp6880
I1279
aS'13'
p6881
aS'324'
p6882
aasS'1AHR'
p6883
(lp6884
(lp6885
I2637
aS'13'
p6886
aS'72'
p6887
aa(lp6888
I2637
aS'85'
p6889
aS'145'
p6890
aasS'2VAS'
p6891
(lp6892
(lp6893
I1461
aS'59'
p6894
aS'759'
p6895
aa(lp6896
I2637
aS'13'
p6897
aS'72'
p6898
aa(lp6899
I2637
aS'85'
p6900
aS'145'
p6901
aasS'1AK8'
p6902
(lp6903
(lp6904
I2637
aS'13'
p6905
aS'72'
p6906
aasS'4R91'
p6907
(lp6908
(lp6909
I1279
aS'75'
p6910
aS'416'
p6911
aasS'3WFN'
p6912
(lp6913
(lp6914
I2637
aS'14'
p6915
aS'73'
p6916
aa(lp6917
I2637
aS'86'
p6918
aS'146'
p6919
aa(lp6920
I6491
aS'158'
p6921
aS'175'
p6922
aasS'4R92'
p6923
(lp6924
(lp6925
I1279
aS'75'
p6926
aS'416'
p6927
aasS'4OY4'
p6928
(lp6929
(lp6930
I1607
aS'245'
p6931
aS'386'
p6932
aa(lp6933
I2637
aS'12'
p6934
aS'71'
p6935
aa(lp6936
I2637
aS'84'
p6937
aS'144'
p6938
aasS'1E5O'
p6939
(lp6940
(lp6941
I1279
aS'14'
p6942
aS'325'
p6943
aasS'2IKU'
p6944
(lp6945
(lp6946
I1279
aS'14'
p6947
aS'333'
p6948
aasS'4BW7'
p6949
(lp6950
(lp6951
I2637
aS'13'
p6952
aS'72'
p6953
aa(lp6954
I2637
aS'85'
p6955
aS'145'
p6956
aasS'1EED'
p6957
(lp6958
(lp6959
I1279
aS'14'
p6960
aS'325'
p6961
aasS'4XX4'
p6962
(lp6963
(lp6964
I1279
aS'85'
p6965
aS'404'
p6966
aasS'4I0E'
p6967
(lp6968
(lp6969
I1279
aS'75'
p6970
aS'416'
p6971
aasS'2COL'
p6972
(lp6973
(lp6974
I2637
aS'85'
p6975
aS'145'
p6976
aa(lp6977
I5013
aS'10'
p6978
aS'180'
p6979
aasS'3CKR'
p6980
(lp6981
(lp6982
I1279
aS'14'
p6983
aS'355'
p6984
aasS'1EL4'
p6985
(lp6986
(lp6987
I959
aS'24'
p6988
aS'41'
p6989
aa(lp6990
I2637
aS'118'
p6991
aS'171'
p6992
aasS'3CKP'
p6993
(lp6994
(lp6995
I1279
aS'14'
p6996
aS'355'
p6997
aasS'4G27'
p6998
(lp6999
(lp7000
I2637
aS'13'
p7001
aS'72'
p7002
aa(lp7003
I2637
aS'85'
p7004
aS'145'
p7005
aa(lp7006
I5029
aS'413'
p7007
aS'487'
p7008
aasS'2BL0'
p7009
(lp7010
(lp7011
I2637
aS'7'
aS'101'
p7012
aa(lp7013
I2637
aS'21'
p7014
aS'80'
p7015
aa(lp7016
I6491
aS'784'
p7017
aS'801'
p7018
aasS'3ER3'
p7019
(lp7020
(lp7021
I1279
aS'14'
p7022
aS'325'
p7023
aasS'4IEB'
p7024
(lp7025
(lp7026
I252
aS'52'
p7027
aS'308'
p7028
aa(lp7029
I2637
aS'364'
p7030
aS'429'
p7031
aa(lp7032
I2637
aS'443'
p7033
aS'500'
p7034
aasS'4M97'
p7035
(lp7036
(lp7037
I252
aS'51'
p7038
aS'307'
p7039
aa(lp7040
I959
aS'362'
p7041
aS'380'
p7042
aa(lp7043
I964
aS'403'
p7044
aS'429'
p7045
aa(lp7046
I2637
aS'442'
p7047
aS'499'
p7048
aasS'1MUX'
p7049
(lp7050
(lp7051
I2637
aS'13'
p7052
aS'72'
p7053
aa(lp7054
I2637
aS'85'
p7055
aS'145'
p7056
aasS'1UH8'
p7057
(lp7058
(lp7059
I1279
aS'16'
p7060
aS'322'
p7061
aasS'1UH9'
p7062
(lp7063
(lp7064
I1279
aS'16'
p7065
aS'322'
p7066
aasS'2W4U'
p7067
(lp7068
(lp7069
I964
aS'33'
p7070
aS'84'
p7071
aa(lp7072
I1074
aS'41'
p7073
aS'276'
p7074
aa(lp7075
I1916
aS'169'
p7076
aS'203'
p7077
aa(lp7078
I1916
aS'14'
p7079
aS'143'
p7080
aa(lp7081
I2051
aS'3'
aS'372'
p7082
aa(lp7083
I2637
aS'99'
p7084
aS'157'
p7085
aasS'4I0D'
p7086
(lp7087
(lp7088
I1279
aS'75'
p7089
aS'416'
p7090
aasS'2W4W'
p7091
(lp7092
(lp7093
I1461
aS'86'
p7094
aS'763'
p7095
aa(lp7096
I2637
aS'87'
p7097
aS'146'
p7098
aa(lp7099
I2638
aS'19'
p7100
aS'43'
p7101
aa(lp7102
I5670
aS'31'
p7103
aS'71'
p7104
aa(lp7105
I6491
aS'780'
p7106
aS'799'
p7107
aasS'2M7K'
p7108
(lp7109
(lp7110
I2637
aS'5'
aS'62'
p7111
aasS'3WLC'
p7112
(lp7113
(lp7114
I1607
aS'51'
p7115
aS'139'
p7116
aa(lp7117
I1607
aS'163'
p7118
aS'306'
p7119
aa(lp7120
I2637
aS'317'
p7121
aS'376'
p7122
aa(lp7123
I2637
aS'389'
p7124
aS'448'
p7125
aasS'2WF2'
p7126
(lp7127
(lp7128
I1279
aS'75'
p7129
aS'416'
p7130
aasS'2WF1'
p7131
(lp7132
(lp7133
I1279
aS'75'
p7134
aS'416'
p7135
aasS'2WF0'
p7136
(lp7137
(lp7138
I1279
aS'75'
p7139
aS'416'
p7140
aasS'1CLL'
p7141
(lp7142
(lp7143
I2637
aS'13'
p7144
aS'72'
p7145
aa(lp7146
I2637
aS'85'
p7147
aS'145'
p7148
aasS'4ER2'
p7149
(lp7150
(lp7151
I1279
aS'14'
p7152
aS'325'
p7153
aasS'4ER1'
p7154
(lp7155
(lp7156
I1279
aS'14'
p7157
aS'325'
p7158
aasS'2WF4'
p7159
(lp7160
(lp7161
I1279
aS'75'
p7162
aS'416'
p7163
aasS'1UHJ'
p7164
(lp7165
(lp7166
I959
aS'18'
p7167
aS'36'
p7168
aa(lp7169
I2637
aS'112'
p7170
aS'165'
p7171
aasS'1UHK'
p7172
(lp7173
(lp7174
I959
aS'18'
p7175
aS'36'
p7176
aa(lp7177
I2637
aS'112'
p7178
aS'165'
p7179
aasS'1UHH'
p7180
(lp7181
(lp7182
I959
aS'18'
p7183
aS'36'
p7184
aa(lp7185
I2637
aS'112'
p7186
aS'165'
p7187
aasS'1UHI'
p7188
(lp7189
(lp7190
I959
aS'18'
p7191
aS'36'
p7192
aa(lp7193
I2637
aS'112'
p7194
aS'165'
p7195
aasS'4AQR'
p7196
(lp7197
(lp7198
I1428
aS'39'
p7199
aS'71'
p7200
aa(lp7201
I2637
aS'14'
p7202
aS'73'
p7203
aa(lp7204
I2637
aS'86'
p7205
aS'146'
p7206
aasS'3O4Y'
p7207
(lp7208
(lp7209
I964
aS'69'
p7210
aS'114'
p7211
aa(lp7212
I2637
aS'128'
p7213
aS'192'
p7214
aasS'2F3E'
p7215
(lp7216
(lp7217
I1279
aS'14'
p7218
aS'355'
p7219
aasS'3RSX'
p7220
(lp7221
(lp7222
I1279
aS'14'
p7223
aS'355'
p7224
aasS'2F3F'
p7225
(lp7226
(lp7227
I1279
aS'14'
p7228
aS'355'
p7229
aasS'4JQ0'
p7230
(lp7231
(lp7232
I2637
aS'14'
p7233
aS'73'
p7234
aa(lp7235
I2637
aS'86'
p7236
aS'146'
p7237
aa(lp7238
I3396
aS'18'
p7239
aS'141'
p7240
aasS'2F3Y'
p7241
(lp7242
(lp7243
I2637
aS'13'
p7244
aS'72'
p7245
aa(lp7246
I2637
aS'85'
p7247
aS'145'
p7248
aasS'4N1G'
p7249
(lp7250
(lp7251
I959
aS'24'
p7252
aS'41'
p7253
aa(lp7254
I2637
aS'118'
p7255
aS'171'
p7256
aasS'4N1F'
p7257
(lp7258
(lp7259
I959
aS'24'
p7260
aS'41'
p7261
aa(lp7262
I2637
aS'118'
p7263
aS'171'
p7264
aasS'2W49'
p7265
(lp7266
(lp7267
I964
aS'33'
p7268
aS'84'
p7269
aa(lp7270
I1074
aS'41'
p7271
aS'276'
p7272
aa(lp7273
I1916
aS'169'
p7274
aS'203'
p7275
aa(lp7276
I1916
aS'14'
p7277
aS'143'
p7278
aa(lp7279
I2051
aS'3'
aS'372'
p7280
aa(lp7281
I2637
aS'99'
p7282
aS'157'
p7283
aasS'2R9B'
p7284
(lp7285
(lp7286
I1279
aS'16'
p7287
aS'324'
p7288
aasS'4WY6'
p7289
(lp7290
(lp7291
I1279
aS'14'
p7292
aS'355'
p7293
aasS'3PB5'
p7294
(lp7295
(lp7296
I1279
aS'17'
p7297
aS'329'
p7298
aasS'2LV7'
p7299
(lp7300
(lp7301
I2637
aS'38'
p7302
aS'97'
p7303
aasS'4WY1'
p7304
(lp7305
(lp7306
I1279
aS'14'
p7307
aS'355'
p7308
aasS'4I10'
p7309
(lp7310
(lp7311
I1279
aS'75'
p7312
aS'416'
p7313
aasS'1JF2'
p7314
(lp7315
(lp7316
I959
aS'24'
p7317
aS'41'
p7318
aa(lp7319
I2637
aS'118'
p7320
aS'171'
p7321
aasS'4MLW'
p7322
(lp7323
(lp7324
I964
aS'40'
p7325
aS'87'
p7326
aa(lp7327
I2637
aS'102'
p7328
aS'174'
p7329
aasS'2OHM'
p7330
(lp7331
(lp7332
I1279
aS'14'
p7333
aS'355'
p7334
aasS'1F54'
p7335
(lp7336
(lp7337
I2637
aS'13'
p7338
aS'72'
p7339
aasS'1F55'
p7340
(lp7341
(lp7342
I2637
aS'13'
p7343
aS'72'
p7344
aasS'4I0F'
p7345
(lp7346
(lp7347
I1279
aS'75'
p7348
aS'416'
p7349
aasS'1JF0'
p7350
(lp7351
(lp7352
I959
aS'25'
p7353
aS'41'
p7354
aa(lp7355
I2637
aS'118'
p7356
aS'171'
p7357
aasS'1GKT'
p7358
(lp7359
(lp7360
I1279
aS'17'
p7361
aS'330'
p7362
aasS'2LAP'
p7363
(lp7364
(lp7365
I2637
aS'104'
p7366
aS'165'
p7367
aasS'3VUC'
p7368
(lp7369
(lp7370
I1279
aS'19'
p7371
aS'338'
p7372
aasS'3PX1'
p7373
(lp7374
(lp7375
I2637
aS'5'
aS'62'
p7376
aasS'3IVH'
p7377
(lp7378
(lp7379
I1279
aS'75'
p7380
aS'416'
p7381
aasS'3IVI'
p7382
(lp7383
(lp7384
I1279
aS'75'
p7385
aS'416'
p7386
aasS'5AFP'
p7387
(lp7388
(lp7389
I2631
aS'68'
p7390
aS'90'
p7391
aa(lp7392
I2637
aS'101'
p7393
aS'171'
p7394
aasS'1DEG'
p7395
(lp7396
(lp7397
I2637
aS'13'
p7398
aS'72'
p7399
aa(lp7400
I2637
aS'85'
p7401
aS'145'
p7402
aasS'2VIZ'
p7403
(lp7404
(lp7405
I1279
aS'75'
p7406
aS'416'
p7407
aasS'2VIY'
p7408
(lp7409
(lp7410
I1279
aS'75'
p7411
aS'416'
p7412
aasS'4LAP'
p7413
(lp7414
(lp7415
I1279
aS'17'
p7416
aS'329'
p7417
aasS'4GOW'
p7418
(lp7419
(lp7420
I2637
aS'13'
p7421
aS'72'
p7422
aa(lp7423
I2637
aS'85'
p7424
aS'145'
p7425
aa(lp7426
I3623
aS'524'
p7427
aS'549'
p7428
aasS'4DBP'
p7429
(lp7430
(lp7431
I1461
aS'59'
p7432
aS'759'
p7433
aa(lp7434
I2637
aS'13'
p7435
aS'72'
p7436
aa(lp7437
I2637
aS'85'
p7438
aS'145'
p7439
aasS'4DBQ'
p7440
(lp7441
(lp7442
I1461
aS'59'
p7443
aS'759'
p7444
aa(lp7445
I2637
aS'13'
p7446
aS'72'
p7447
aa(lp7448
I2637
aS'85'
p7449
aS'145'
p7450
aasS'1FI5'
p7451
(lp7452
(lp7453
I2637
aS'99'
p7454
aS'157'
p7455
aasS'2FCE'
p7456
(lp7457
(lp7458
I2637
aS'89'
p7459
aS'143'
p7460
aasS'4BEK'
p7461
(lp7462
(lp7463
I1279
aS'75'
p7464
aS'416'
p7465
aasS'4ZSR'
p7466
(lp7467
(lp7468
I1279
aS'14'
p7469
aS'355'
p7470
aasS'4ZSQ'
p7471
(lp7472
(lp7473
I1279
aS'14'
p7474
aS'355'
p7475
aasS'4ZSP'
p7476
(lp7477
(lp7478
I1279
aS'14'
p7479
aS'355'
p7480
aasS'3PGI'
p7481
(lp7482
(lp7483
I1279
aS'17'
p7484
aS'329'
p7485
aasS'2VIE'
p7486
(lp7487
(lp7488
I1279
aS'75'
p7489
aS'416'
p7490
aasS'1J1E'
p7491
(lp7492
(lp7493
I964
aS'32'
p7494
aS'83'
p7495
aa(lp7496
I1916
aS'203'
p7497
aS'230'
p7498
aa(lp7499
I1916
aS'224'
p7500
aS'271'
p7501
aa(lp7502
I1916
aS'46'
p7503
aS'162'
p7504
aa(lp7505
I2637
aS'99'
p7506
aS'157'
p7507
aasS'2I94'
p7508
(lp7509
(lp7510
I964
aS'40'
p7511
aS'87'
p7512
aa(lp7513
I2637
aS'102'
p7514
aS'174'
p7515
aasS'2JOJ'
p7516
(lp7517
(lp7518
I2637
aS'33'
p7519
aS'93'
p7520
aasS'3EK8'
p7521
(lp7522
(lp7523
I1607
aS'54'
p7524
aS'140'
p7525
aa(lp7526
I1607
aS'164'
p7527
aS'304'
p7528
aa(lp7529
I2637
aS'318'
p7530
aS'377'
p7531
aa(lp7532
I2637
aS'390'
p7533
aS'449'
p7534
aasS'3N4L'
p7535
(lp7536
(lp7537
I1279
aS'20'
p7538
aS'361'
p7539
aasS'1ZUZ'
p7540
(lp7541
(lp7542
I2637
aS'13'
p7543
aS'72'
p7544
aa(lp7545
I2637
aS'85'
p7546
aS'145'
p7547
aasS'4PYV'
p7548
(lp7549
(lp7550
I1279
aS'13'
p7551
aS'324'
p7552
aasS'3SG2'
p7553
(lp7554
(lp7555
I1607
aS'54'
p7556
aS'140'
p7557
aa(lp7558
I1607
aS'164'
p7559
aS'304'
p7560
aa(lp7561
I2637
aS'318'
p7562
aS'377'
p7563
aa(lp7564
I2637
aS'390'
p7565
aS'449'
p7566
aasS'2M8U'
p7567
(lp7568
(lp7569
I2637
aS'15'
p7570
aS'70'
p7571
aasS'4OVN'
p7572
(lp7573
(lp7574
I2637
aS'14'
p7575
aS'73'
p7576
aa(lp7577
I2637
aS'86'
p7578
aS'146'
p7579
aasS'4IL1'
p7580
(lp7581
(lp7582
I1697
aS'417'
p7583
aS'617'
p7584
aa(lp7585
I2637
aS'181'
p7586
aS'234'
p7587
aa(lp7588
I2637
aS'249'
p7589
aS'312'
p7590
aasS'3EK4'
p7591
(lp7592
(lp7593
I1607
aS'54'
p7594
aS'140'
p7595
aa(lp7596
I1607
aS'164'
p7597
aS'302'
p7598
aa(lp7599
I2637
aS'318'
p7600
aS'377'
p7601
aa(lp7602
I2637
aS'390'
p7603
aS'414'
p7604
aasS'3EK7'
p7605
(lp7606
(lp7607
I1607
aS'54'
p7608
aS'140'
p7609
aa(lp7610
I1607
aS'164'
p7611
aS'302'
p7612
aa(lp7613
I2637
aS'318'
p7614
aS'377'
p7615
aa(lp7616
I2637
aS'390'
p7617
aS'449'
p7618
aasS'1NYA'
p7619
(lp7620
(lp7621
I2637
aS'110'
p7622
aS'161'
p7623
aasS'3TPP'
p7624
(lp7625
(lp7626
I1279
aS'14'
p7627
aS'355'
p7628
aasS'3TPR'
p7629
(lp7630
(lp7631
I1279
aS'14'
p7632
aS'355'
p7633
aasS'3CMS'
p7634
(lp7635
(lp7636
I1279
aS'13'
p7637
aS'325'
p7638
aasS'3F9Q'
p7639
(lp7640
(lp7641
I1279
aS'16'
p7642
aS'324'
p7643
aasS'1LYW'
p7644
(lp7645
(lp7646
I1279
aS'14'
p7647
aS'94'
p7648
aa(lp7649
I1279
aS'106'
p7650
aS'345'
p7651
aasS'2M7M'
p7652
(lp7653
(lp7654
I2637
aS'5'
aS'62'
p7655
aasS'2PVB'
p7656
(lp7657
(lp7658
I2637
aS'44'
p7659
aS'105'
p7660
aasS'4E50'
p7661
(lp7662
(lp7663
I2637
aS'14'
p7664
aS'73'
p7665
aa(lp7666
I2637
aS'86'
p7667
aS'146'
p7668
aa(lp7669
I6491
aS'156'
p7670
aS'175'
p7671
aasS'4DPI'
p7672
(lp7673
(lp7674
I1279
aS'62'
p7675
aS'403'
p7676
aasS'4DPF'
p7677
(lp7678
(lp7679
I1279
aS'62'
p7680
aS'403'
p7681
aasS'3IXK'
p7682
(lp7683
(lp7684
I1279
aS'62'
p7685
aS'403'
p7686
aasS'3PN7'
p7687
(lp7688
(lp7689
I2637
aS'87'
p7690
aS'146'
p7691
aa(lp7692
I2638
aS'24'
p7693
aS'53'
p7694
aa(lp7695
I6491
aS'780'
p7696
aS'799'
p7697
aasS'3VG1'
p7698
(lp7699
(lp7700
I1279
aS'14'
p7701
aS'343'
p7702
aasS'4B05'
p7703
(lp7704
(lp7705
I1279
aS'14'
p7706
aS'355'
p7707
aasS'4TZR'
p7708
(lp7709
(lp7710
I252
aS'52'
p7711
aS'308'
p7712
aa(lp7713
I2637
aS'364'
p7714
aS'429'
p7715
aa(lp7716
I2637
aS'443'
p7717
aS'500'
p7718
aasS'3EKH'
p7719
(lp7720
(lp7721
I1607
aS'54'
p7722
aS'140'
p7723
aa(lp7724
I1607
aS'164'
p7725
aS'304'
p7726
aa(lp7727
I2637
aS'318'
p7728
aS'377'
p7729
aa(lp7730
I2637
aS'390'
p7731
aS'449'
p7732
aasS'3OHH'
p7733
(lp7734
(lp7735
I1279
aS'14'
p7736
aS'355'
p7737
aasS'3EKJ'
p7738
(lp7739
(lp7740
I1607
aS'60'
p7741
aS'140'
p7742
aa(lp7743
I1607
aS'164'
p7744
aS'304'
p7745
aa(lp7746
I2637
aS'318'
p7747
aS'377'
p7748
aasS'3HW1'
p7749
(lp7750
(lp7751
I1279
aS'14'
p7752
aS'355'
p7753
aasS'3OHF'
p7754
(lp7755
(lp7756
I1279
aS'14'
p7757
aS'355'
p7758
aasS'4H3I'
p7759
(lp7760
(lp7761
I1279
aS'75'
p7762
aS'416'
p7763
aasS'2VNN'
p7764
(lp7765
(lp7766
I1279
aS'75'
p7767
aS'416'
p7768
aasS'2L4H'
p7769
(lp7770
(lp7771
I2637
aS'109'
p7772
aS'176'
p7773
aasS'2L4I'
p7774
(lp7775
(lp7776
I2637
aS'109'
p7777
aS'157'
p7778
aasS'4LHH'
p7779
(lp7780
(lp7781
I1279
aS'17'
p7782
aS'329'
p7783
aasS'3JVT'
p7784
(lp7785
(lp7786
I2637
aS'87'
p7787
aS'146'
p7788
aa(lp7789
I2638
aS'19'
p7790
aS'43'
p7791
aa(lp7792
I6491
aS'780'
p7793
aS'799'
p7794
aasS'2KZ2'
p7795
(lp7796
(lp7797
I2637
aS'85'
p7798
aS'145'
p7799
aasS'2KYF'
p7800
(lp7801
(lp7802
I2637
aS'43'
p7803
aS'105'
p7804
aasS'3OX6'
p7805
(lp7806
(lp7807
I2631
aS'26'
p7808
aS'54'
p7809
aa(lp7810
I2637
aS'104'
p7811
aS'165'
p7812
aasS'2KYC'
p7813
(lp7814
(lp7815
I2637
aS'43'
p7816
aS'105'
p7817
aasS'4ZSM'
p7818
(lp7819
(lp7820
I1279
aS'14'
p7821
aS'355'
p7822
aasS'3G43'
p7823
(lp7824
(lp7825
I2637
aS'13'
p7826
aS'72'
p7827
aa(lp7828
I6773
aS'1608'
p7829
aS'1681'
p7830
aasS'3HX4'
p7831
(lp7832
(lp7833
I252
aS'52'
p7834
aS'308'
p7835
aa(lp7836
I2637
aS'364'
p7837
aS'429'
p7838
aa(lp7839
I2637
aS'443'
p7840
aS'500'
p7841
aasS'2LHH'
p7842
(lp7843
(lp7844
I2631
aS'84'
p7845
aS'111'
p7846
aa(lp7847
I2637
aS'13'
p7848
aS'72'
p7849
aasS'1YG9'
p7850
(lp7851
(lp7852
I1279
aS'13'
p7853
aS'323'
p7854
aasS'2APR'
p7855
(lp7856
(lp7857
I1279
aS'16'
p7858
aS'322'
p7859
aasS'1SW8'
p7860
(lp7861
(lp7862
I2637
aS'13'
p7863
aS'72'
p7864
aasS'1IZD'
p7865
(lp7866
(lp7867
I1279
aS'16'
p7868
aS'321'
p7869
aasS'1IZE'
p7870
(lp7871
(lp7872
I1279
aS'16'
p7873
aS'321'
p7874
aas.