(dp1
S'2F0A'
p2
(lp3
(lp4
I6338
aS'255'
p5
aS'333'
p6
aasS'4ATJ'
p7
(lp8
(lp9
I1596
aS'19'
p10
aS'269'
p11
aasS'1VFU'
p12
(lp13
(lp14
I1172
aS'503'
p15
aS'579'
p16
aa(lp17
I5151
aS'1'
aS'117'
p18
aa(lp19
I6428
aS'170'
p20
aS'466'
p21
aasS'1Q3P'
p22
(lp23
(lp24
I6338
aS'593'
p25
aS'681'
p26
aasS'2WAN'
p27
(lp28
(lp29
I6428
aS'475'
p30
aS'561'
p31
aa(lp32
I6428
aS'592'
p33
aS'785'
p34
aa(lp35
I6841
aS'318'
p36
aS'396'
p37
aasS'3LNY'
p38
(lp39
(lp40
I6338
aS'9'
aS'89'
p41
aasS'3LNX'
p42
(lp43
(lp44
I6338
aS'9'
aS'89'
p45
aasS'1UEQ'
p46
(lp47
(lp48
I6338
aS'24'
p49
aS'91'
p50
aasS'1UEP'
p51
(lp52
(lp53
I6338
aS'14'
p54
aS'92'
p55
aasS'1VFM'
p56
(lp57
(lp58
I1172
aS'503'
p59
aS'579'
p60
aa(lp61
I5151
aS'1'
aS'117'
p62
aa(lp63
I6428
aS'170'
p64
aS'466'
p65
aasS'2JRE'
p66
(lp67
(lp68
I6338
aS'17'
p69
aS'100'
p70
aasS'1Q3O'
p71
(lp72
(lp73
I6338
aS'593'
p74
aS'681'
p75
aasS'1UEW'
p76
(lp77
(lp78
I6338
aS'14'
p79
aS'99'
p80
aasS'1YZP'
p81
(lp82
(lp83
I1596
aS'25'
p84
aS'260'
p85
aa(lp86
I2581
aS'264'
p87
aS'342'
p88
aasS'1YZR'
p89
(lp90
(lp91
I1596
aS'25'
p92
aS'260'
p93
aa(lp94
I2581
aS'264'
p95
aS'342'
p96
aasS'1XD0'
p97
(lp98
(lp99
I5153
aS'409'
p100
aS'492'
p101
aa(lp102
I6428
aS'71'
p103
aS'308'
p104
aasS'1EHA'
p105
(lp106
(lp107
I6428
aS'116'
p108
aS'205'
p109
aa(lp110
I6428
aS'225'
p111
aS'423'
p112
aa(lp113
I6501
aS'491'
p114
aS'557'
p115
aasS'3BAW'
p116
(lp117
(lp118
I5153
aS'409'
p119
aS'492'
p120
aa(lp121
I6428
aS'71'
p122
aS'308'
p123
aasS'4MB1'
p124
(lp125
(lp126
I1172
aS'483'
p127
aS'555'
p128
aa(lp129
I6428
aS'27'
p130
aS'380'
p131
aasS'1KGX'
p132
(lp133
(lp134
I5153
aS'409'
p135
aS'492'
p136
aa(lp137
I6428
aS'71'
p138
aS'308'
p139
aasS'1JGI'
p140
(lp141
(lp142
I6428
aS'110'
p143
aS'319'
p144
aasS'3RIV'
p145
(lp146
(lp147
I1596
aS'45'
p148
aS'272'
p149
aasS'3RIW'
p150
(lp151
(lp152
I1596
aS'45'
p153
aS'272'
p154
aasS'3BAX'
p155
(lp156
(lp157
I5153
aS'409'
p158
aS'492'
p159
aa(lp160
I6428
aS'71'
p161
aS'307'
p162
aasS'3BAY'
p163
(lp164
(lp165
I5153
aS'409'
p166
aS'492'
p167
aa(lp168
I6428
aS'71'
p169
aS'307'
p170
aasS'2RCZ'
p171
(lp172
(lp173
I6338
aS'187'
p174
aS'261'
p175
aasS'1OT1'
p176
(lp177
(lp178
I3612
aS'499'
p179
aS'569'
p180
aa(lp181
I5153
aS'413'
p182
aS'491'
p183
aa(lp184
I6428
aS'52'
p185
aS'372'
p186
aa(lp187
I6582
aS'586'
p188
aS'679'
p189
aasS'1OT2'
p190
(lp191
(lp192
I3612
aS'499'
p193
aS'569'
p194
aa(lp195
I5153
aS'413'
p196
aS'491'
p197
aa(lp198
I6428
aS'52'
p199
aS'372'
p200
aa(lp201
I6582
aS'586'
p202
aS'679'
p203
aasS'3BAI'
p204
(lp205
(lp206
I5153
aS'409'
p207
aS'492'
p208
aa(lp209
I6428
aS'71'
p210
aS'308'
p211
aasS'3BAJ'
p212
(lp213
(lp214
I5153
aS'409'
p215
aS'492'
p216
aa(lp217
I6428
aS'71'
p218
aS'308'
p219
aasS'2ANZ'
p220
(lp221
(lp222
I1596
aS'37'
p223
aS'254'
p224
aasS'3NFL'
p225
(lp226
(lp227
I2556
aS'12'
p228
aS'16'
p229
aa(lp230
I6338
aS'518'
p231
aS'601'
p232
aasS'2BHZ'
p233
(lp234
(lp235
I3131
aS'513'
p236
aS'600'
p237
aa(lp238
I6428
aS'147'
p239
aS'228'
p240
aa(lp241
I6841
aS'25'
p242
aS'86'
p243
aasS'3CGT'
p244
(lp245
(lp246
I3612
aS'498'
p247
aS'577'
p248
aa(lp249
I5153
aS'413'
p250
aS'491'
p251
aa(lp252
I6428
aS'52'
p253
aS'372'
p254
aa(lp255
I6582
aS'584'
p256
aS'680'
p257
aasS'1UB2'
p258
(lp259
(lp260
I1596
aS'64'
p261
aS'394'
p262
aa(lp263
I1596
aS'402'
p264
aS'694'
p265
aasS'2V23'
p266
(lp267
(lp268
I1596
aS'37'
p269
aS'254'
p270
aasS'2QKV'
p271
(lp272
(lp273
I6338
aS'585'
p274
aS'660'
p275
aasS'2QKT'
p276
(lp277
(lp278
I6338
aS'585'
p279
aS'660'
p280
aasS'2QKU'
p281
(lp282
(lp283
I6338
aS'585'
p284
aS'660'
p285
aasS'1KXV'
p286
(lp287
(lp288
I2388
aS'11'
p289
aS'119'
p290
aa(lp291
I5153
aS'410'
p292
aS'492'
p293
aa(lp294
I6428
aS'72'
p295
aS'306'
p296
aasS'1D7F'
p297
(lp298
(lp299
I3612
aS'499'
p300
aS'569'
p301
aa(lp302
I5153
aS'413'
p303
aS'492'
p304
aa(lp305
I6428
aS'52'
p306
aS'372'
p307
aa(lp308
I6582
aS'586'
p309
aS'680'
p310
aasS'2ZLE'
p311
(lp312
(lp313
I4085
aS'51'
p314
aS'179'
p315
aa(lp316
I6338
aS'216'
p317
aS'296'
p318
aa(lp319
I6338
aS'322'
p320
aS'387'
p321
aa(lp322
I6968
aS'1194'
p323
aS'1534'
p324
aasS'3CYY'
p325
(lp326
(lp327
I6338
aS'187'
p328
aS'261'
p329
aasS'1JG9'
p330
(lp331
(lp332
I6428
aS'110'
p333
aS'334'
p334
aasS'6CGT'
p335
(lp336
(lp337
I3612
aS'498'
p338
aS'577'
p339
aa(lp340
I5153
aS'413'
p341
aS'491'
p342
aa(lp343
I6428
aS'52'
p344
aS'372'
p345
aa(lp346
I6582
aS'584'
p347
aS'680'
p348
aasS'2RC2'
p349
(lp350
(lp351
I1596
aS'37'
p352
aS'254'
p353
aasS'1B2Y'
p354
(lp355
(lp356
I5153
aS'409'
p357
aS'492'
p358
aa(lp359
I6428
aS'71'
p360
aS'308'
p361
aasS'2XIH'
p362
(lp363
(lp364
I1596
aS'20'
p365
aS'227'
p366
aasS'4E2O'
p367
(lp368
(lp369
I6428
aS'68'
p370
aS'363'
p371
aasS'1CPE'
p372
(lp373
(lp374
I1596
aS'37'
p375
aS'254'
p376
aasS'1CPF'
p377
(lp378
(lp379
I1596
aS'37'
p380
aS'254'
p381
aasS'1CPG'
p382
(lp383
(lp384
I1596
aS'37'
p385
aS'254'
p386
aasS'4XVA'
p387
(lp388
(lp389
I1596
aS'37'
p390
aS'254'
p391
aasS'4JOE'
p392
(lp393
(lp394
I6338
aS'290'
p395
aS'367'
p396
aasS'2AWU'
p397
(lp398
(lp399
I6338
aS'320'
p400
aS'402'
p401
aasS'2AWX'
p402
(lp403
(lp404
I6338
aS'320'
p405
aS'402'
p406
aasS'4F8K'
p407
(lp408
(lp409
I6338
aS'10'
p410
aS'87'
p411
aasS'2M3M'
p412
(lp413
(lp414
I6338
aS'320'
p415
aS'402'
p416
aasS'2OGP'
p417
(lp418
(lp419
I6338
aS'25'
p420
aS'107'
p421
aasS'1CPU'
p422
(lp423
(lp424
I5153
aS'409'
p425
aS'492'
p426
aa(lp427
I6428
aS'71'
p428
aS'308'
p429
aasS'1JXK'
p430
(lp431
(lp432
I5153
aS'404'
p433
aS'487'
p434
aa(lp435
I6428
aS'72'
p436
aS'309'
p437
aasS'1JXJ'
p438
(lp439
(lp440
I5153
aS'409'
p441
aS'492'
p442
aa(lp443
I6428
aS'72'
p444
aS'308'
p445
aasS'3E2N'
p446
(lp447
(lp448
I1596
aS'28'
p449
aS'247'
p450
aasS'2DLS'
p451
(lp452
(lp453
I6338
aS'13'
p454
aS'82'
p455
aasS'3FY5'
p456
(lp457
(lp458
I6338
aS'255'
p459
aS'334'
p460
aasS'2DLU'
p461
(lp462
(lp463
I6338
aS'24'
p464
aS'94'
p465
aasS'1HNY'
p466
(lp467
(lp468
I5153
aS'409'
p469
aS'492'
p470
aa(lp471
I6428
aS'71'
p472
aS'308'
p473
aasS'4JOH'
p474
(lp475
(lp476
I6338
aS'290'
p477
aS'367'
p478
aasS'2QBW'
p479
(lp480
(lp481
I4017
aS'105'
p482
aS'181'
p483
aa(lp484
I6338
aS'4'
aS'78'
p485
aasS'3BSH'
p486
(lp487
(lp488
I6428
aS'26'
p489
aS'187'
p490
aa(lp491
I6755
aS'345'
p492
aS'403'
p493
aasS'2EUN'
p494
(lp495
(lp496
I1596
aS'37'
p497
aS'254'
p498
aasS'2EUO'
p499
(lp500
(lp501
I1596
aS'37'
p502
aS'254'
p503
aasS'2TAA'
p504
(lp505
(lp506
I1204
aS'387'
p507
aS'474'
p508
aa(lp509
I6428
aS'40'
p510
aS'341'
p511
aasS'2EUQ'
p512
(lp513
(lp514
I1596
aS'37'
p515
aS'254'
p516
aasS'2EUR'
p517
(lp518
(lp519
I1596
aS'37'
p520
aS'254'
p521
aasS'2EUS'
p522
(lp523
(lp524
I1596
aS'37'
p525
aS'254'
p526
aasS'2EUT'
p527
(lp528
(lp529
I1596
aS'37'
p530
aS'254'
p531
aasS'2EUU'
p532
(lp533
(lp534
I1596
aS'37'
p535
aS'254'
p536
aasS'3WNU'
p537
(lp538
(lp539
I1596
aS'65'
p540
aS'394'
p541
aa(lp542
I1596
aS'402'
p543
aS'694'
p544
aasS'1ZJB'
p545
(lp546
(lp547
I3131
aS'462'
p548
aS'552'
p549
aa(lp550
I6428
aS'29'
p551
aS'374'
p552
aasS'1WJL'
p553
(lp554
(lp555
I6338
aS'15'
p556
aS'88'
p557
aasS'1QHO'
p558
(lp559
(lp560
I3612
aS'499'
p561
aS'574'
p562
aa(lp563
I5153
aS'414'
p564
aS'492'
p565
aa(lp566
I6428
aS'49'
p567
aS'373'
p568
aa(lp569
I6582
aS'582'
p570
aS'678'
p571
aasS'1UEZ'
p572
(lp573
(lp574
I6338
aS'13'
p575
aS'87'
p576
aasS'1STQ'
p577
(lp578
(lp579
I1596
aS'37'
p580
aS'254'
p581
aasS'1V1T'
p582
(lp583
(lp584
I6338
aS'115'
p585
aS'191'
p586
aa(lp587
I6338
aS'214'
p588
aS'270'
p589
aasS'3FAW'
p590
(lp591
(lp592
I6428
aS'642'
p593
aS'743'
p594
aa(lp595
I6428
aS'778'
p596
aS'971'
p597
aa(lp598
I6841
aS'480'
p599
aS'566'
p600
aasS'1S46'
p601
(lp602
(lp603
I6428
aS'110'
p604
aS'319'
p605
aasS'1BGP'
p606
(lp607
(lp608
I1596
aS'25'
p609
aS'269'
p610
aasS'4JOP'
p611
(lp612
(lp613
I6338
aS'290'
p614
aS'367'
p615
aasS'2YUY'
p616
(lp617
(lp618
I6338
aS'54'
p619
aS'116'
p620
aasS'3UEQ'
p621
(lp622
(lp623
I6428
aS'110'
p624
aS'334'
p625
aasS'2BCN'
p626
(lp627
(lp628
I1596
aS'37'
p629
aS'254'
p630
aa(lp631
I5098
aS'8'
aS'105'
p632
aasS'2AS2'
p633
(lp634
(lp635
I1596
aS'37'
p636
aS'254'
p637
aasS'1M53'
p638
(lp639
(lp640
I1172
aS'521'
p641
aS'591'
p642
aa(lp643
I6428
aS'70'
p644
aS'416'
p645
aasS'3NFK'
p646
(lp647
(lp648
I6338
aS'518'
p649
aS'601'
p650
aasS'1QHP'
p651
(lp652
(lp653
I3612
aS'499'
p654
aS'574'
p655
aa(lp656
I5153
aS'414'
p657
aS'492'
p658
aa(lp659
I6428
aS'49'
p660
aS'373'
p661
aa(lp662
I6582
aS'582'
p663
aS'678'
p664
aasS'4X9Y'
p665
(lp666
(lp667
I5153
aS'409'
p668
aS'492'
p669
aa(lp670
I6428
aS'71'
p671
aS'308'
p672
aasS'2EJY'
p673
(lp674
(lp675
I6338
aS'72'
p676
aS'148'
p677
aasS'1WZA'
p678
(lp679
(lp680
I5153
aS'445'
p681
aS'514'
p682
aa(lp683
I6428
aS'51'
p684
aS'372'
p685
aasS'1AEU'
p686
(lp687
(lp688
I1596
aS'37'
p689
aS'254'
p690
aasS'1AET'
p691
(lp692
(lp693
I1596
aS'37'
p694
aS'254'
p695
aasS'2W7R'
p696
(lp697
(lp698
I6338
aS'10'
p699
aS'87'
p700
aasS'1AEV'
p701
(lp702
(lp703
I1596
aS'37'
p704
aS'254'
p705
aasS'1AEQ'
p706
(lp707
(lp708
I1596
aS'37'
p709
aS'254'
p710
aasS'1WZK'
p711
(lp712
(lp713
I1172
aS'503'
p714
aS'579'
p715
aa(lp716
I5151
aS'1'
aS'117'
p717
aa(lp718
I6428
aS'170'
p719
aS'464'
p720
aasS'1AES'
p721
(lp722
(lp723
I1596
aS'37'
p724
aS'254'
p725
aasS'1AEM'
p726
(lp727
(lp728
I1596
aS'37'
p729
aS'254'
p730
aasS'1PAM'
p731
(lp732
(lp733
I3612
aS'499'
p734
aS'569'
p735
aa(lp736
I5153
aS'413'
p737
aS'492'
p738
aa(lp739
I6428
aS'52'
p740
aS'372'
p741
aa(lp742
I6582
aS'586'
p743
aS'680'
p744
aasS'1AEO'
p745
(lp746
(lp747
I1596
aS'37'
p748
aS'254'
p749
aasS'1AEN'
p750
(lp751
(lp752
I1596
aS'37'
p753
aS'254'
p754
aasS'1AEH'
p755
(lp756
(lp757
I1596
aS'37'
p758
aS'254'
p759
aasS'1AEK'
p760
(lp761
(lp762
I1596
aS'37'
p763
aS'254'
p764
aasS'1AEJ'
p765
(lp766
(lp767
I1596
aS'37'
p768
aS'254'
p769
aasS'1AEE'
p770
(lp771
(lp772
I1596
aS'37'
p773
aS'254'
p774
aasS'1AED'
p775
(lp776
(lp777
I1596
aS'37'
p778
aS'254'
p779
aasS'1AEG'
p780
(lp781
(lp782
I1596
aS'37'
p783
aS'254'
p784
aasS'1AEF'
p785
(lp786
(lp787
I1596
aS'37'
p788
aS'254'
p789
aasS'2IWO'
p790
(lp791
(lp792
I6338
aS'1835'
p793
aS'1916'
p794
aasS'1AEB'
p795
(lp796
(lp797
I1596
aS'37'
p798
aS'254'
p799
aasS'1BVN'
p800
(lp801
(lp802
I3973
aS'805'
p803
aS'873'
p804
aa(lp805
I5153
aS'410'
p806
aS'492'
p807
aa(lp808
I6428
aS'72'
p809
aS'306'
p810
aasS'2CYP'
p811
(lp812
(lp813
I1596
aS'37'
p814
aS'254'
p815
aasS'3SHW'
p816
(lp817
(lp818
I730
aS'520'
p819
aS'582'
p820
aa(lp821
I6338
aS'428'
p822
aS'498'
p823
aa(lp824
I6498
aS'691'
p825
aS'792'
p826
aasS'3OLG'
p827
(lp828
(lp829
I5153
aS'409'
p830
aS'492'
p831
aa(lp832
I6428
aS'71'
p833
aS'308'
p834
aasS'1BVA'
p835
(lp836
(lp837
I1596
aS'37'
p838
aS'254'
p839
aasS'3VX0'
p840
(lp841
(lp842
I1204
aS'386'
p843
aS'475'
p844
aa(lp845
I6428
aS'40'
p846
aS'341'
p847
aasS'3ZCH'
p848
(lp849
(lp850
I1596
aS'20'
p851
aS'227'
p852
aasS'2GHH'
p853
(lp854
(lp855
I1596
aS'20'
p856
aS'227'
p857
aasS'1BVZ'
p858
(lp859
(lp860
I1172
aS'503'
p861
aS'579'
p862
aa(lp863
I5151
aS'1'
aS'117'
p864
aa(lp865
I6428
aS'170'
p866
aS'466'
p867
aasS'3SHU'
p868
(lp869
(lp870
I6338
aS'13'
p871
aS'84'
p872
aasS'1GZB'
p873
(lp874
(lp875
I1596
aS'45'
p876
aS'264'
p877
aa(lp878
I2581
aS'269'
p879
aS'344'
p880
aasS'3VQF'
p881
(lp882
(lp883
I6338
aS'6'
aS'84'
p884
aasS'1GZA'
p885
(lp886
(lp887
I1596
aS'45'
p888
aS'264'
p889
aa(lp890
I2581
aS'269'
p891
aS'344'
p892
aasS'1MVY'
p893
(lp894
(lp895
I6428
aS'110'
p896
aS'319'
p897
aasS'1CIU'
p898
(lp899
(lp900
I3612
aS'499'
p901
aS'571'
p902
aa(lp903
I6428
aS'52'
p904
aS'372'
p905
aa(lp906
I6582
aS'584'
p907
aS'677'
p908
aasS'1G94'
p909
(lp910
(lp911
I5153
aS'362'
p912
aS'443'
p913
aa(lp914
I6428
aS'57'
p915
aS'293'
p916
aasS'2GJR'
p917
(lp918
(lp919
I4298
aS'438'
p920
aS'482'
p921
aa(lp922
I6428
aS'36'
p923
aS'374'
p924
aasS'2GJP'
p925
(lp926
(lp927
I4298
aS'438'
p928
aS'482'
p929
aa(lp930
I6428
aS'36'
p931
aS'374'
p932
aasS'1JIB'
p933
(lp934
(lp935
I1172
aS'503'
p936
aS'579'
p937
aa(lp938
I5151
aS'1'
aS'117'
p939
aa(lp940
I6428
aS'170'
p941
aS'466'
p942
aasS'1X6D'
p943
(lp944
(lp945
I6338
aS'20'
p946
aS'92'
p947
aasS'2ICV'
p948
(lp949
(lp950
I1596
aS'37'
p951
aS'254'
p952
aasS'4MPA'
p953
(lp954
(lp955
I6338
aS'18'
p956
aS'90'
p957
aasS'3RRW'
p958
(lp959
(lp960
I1596
aS'21'
p961
aS'192'
p962
aasS'4OQ7'
p963
(lp964
(lp965
I1596
aS'37'
p966
aS'252'
p967
aasS'2DH2'
p968
(lp969
(lp970
I6428
aS'138'
p971
aS'221'
p972
aasS'1XH2'
p973
(lp974
(lp975
I5153
aS'409'
p976
aS'492'
p977
aa(lp978
I6428
aS'71'
p979
aS'307'
p980
aasS'1XH1'
p981
(lp982
(lp983
I5153
aS'409'
p984
aS'492'
p985
aa(lp986
I6428
aS'71'
p987
aS'307'
p988
aasS'1XH0'
p989
(lp990
(lp991
I5153
aS'409'
p992
aS'492'
p993
aa(lp994
I6428
aS'71'
p995
aS'307'
p996
aasS'5CLW'
p997
(lp998
(lp999
I5153
aS'603'
p1000
aS'697'
p1001
aa(lp1002
I6428
aS'224'
p1003
aS'304'
p1004
aa(lp1005
I6841
aS'76'
p1006
aS'161'
p1007
aasS'3K1R'
p1008
(lp1009
(lp1010
I545
aS'394'
p1011
aS'445'
p1012
aa(lp1013
I6338
aS'90'
p1014
aS'164'
p1015
aasS'3QGL'
p1016
(lp1017
(lp1018
I6338
aS'43'
p1019
aS'131'
p1020
aasS'5CLT'
p1021
(lp1022
(lp1023
I5153
aS'603'
p1024
aS'697'
p1025
aa(lp1026
I6428
aS'224'
p1027
aS'304'
p1028
aa(lp1029
I6841
aS'76'
p1030
aS'161'
p1031
aasS'2XI6'
p1032
(lp1033
(lp1034
I1596
aS'20'
p1035
aS'227'
p1036
aasS'1ARX'
p1037
(lp1038
(lp1039
I1596
aS'45'
p1040
aS'264'
p1041
aa(lp1042
I2581
aS'269'
p1043
aS'344'
p1044
aasS'1UFX'
p1045
(lp1046
(lp1047
I6338
aS'11'
p1048
aS'80'
p1049
aasS'1Z86'
p1050
(lp1051
(lp1052
I6338
aS'82'
p1053
aS'160'
p1054
aasS'4LPC'
p1055
(lp1056
(lp1057
I5153
aS'628'
p1058
aS'725'
p1059
aa(lp1060
I6428
aS'273'
p1061
aS'343'
p1062
aa(lp1063
I6841
aS'125'
p1064
aS'207'
p1065
aasS'3AML'
p1066
(lp1067
(lp1068
I5153
aS'592'
p1069
aS'692'
p1070
aa(lp1071
I6428
aS'223'
p1072
aS'298'
p1073
aa(lp1074
I6841
aS'57'
p1075
aS'140'
p1076
aasS'1ZS2'
p1077
(lp1078
(lp1079
I6428
aS'110'
p1080
aS'319'
p1081
aasS'3ZCG'
p1082
(lp1083
(lp1084
I1596
aS'20'
p1085
aS'227'
p1086
aasS'4M8U'
p1087
(lp1088
(lp1089
I1172
aS'483'
p1090
aS'555'
p1091
aa(lp1092
I6428
aS'27'
p1093
aS'380'
p1094
aasS'2Q3G'
p1095
(lp1096
(lp1097
I6338
aS'7'
aS'80'
p1098
aasS'3CCP'
p1099
(lp1100
(lp1101
I1596
aS'37'
p1102
aS'254'
p1103
aa(lp1104
I1596
aS'37'
p1105
aS'254'
p1106
aasS'1XCW'
p1107
(lp1108
(lp1109
I5153
aS'409'
p1110
aS'492'
p1111
aa(lp1112
I6428
aS'71'
p1113
aS'308'
p1114
aasS'1KZM'
p1115
(lp1116
(lp1117
I1596
aS'19'
p1118
aS'269'
p1119
aasS'1XCX'
p1120
(lp1121
(lp1122
I5153
aS'409'
p1123
aS'492'
p1124
aa(lp1125
I6428
aS'71'
p1126
aS'308'
p1127
aasS'3CCX'
p1128
(lp1129
(lp1130
I1596
aS'37'
p1131
aS'254'
p1132
aasS'3NGH'
p1133
(lp1134
(lp1135
I6338
aS'10'
p1136
aS'87'
p1137
aasS'3KWX'
p1138
(lp1139
(lp1140
I1204
aS'386'
p1141
aS'475'
p1142
aa(lp1143
I6428
aS'40'
p1144
aS'341'
p1145
aasS'3B76'
p1146
(lp1147
(lp1148
I6338
aS'412'
p1149
aS'492'
p1150
aasS'3FKG'
p1151
(lp1152
(lp1153
I1596
aS'25'
p1154
aS'249'
p1155
aa(lp1156
I2581
aS'253'
p1157
aS'319'
p1158
aasS'3TSZ'
p1159
(lp1160
(lp1161
I730
aS'520'
p1162
aS'582'
p1163
aa(lp1164
I6338
aS'428'
p1165
aS'498'
p1166
aa(lp1167
I6498
aS'691'
p1168
aS'792'
p1169
aasS'1QAU'
p1170
(lp1171
(lp1172
I6338
aS'18'
p1173
aS'94'
p1174
aasS'2D3N'
p1175
(lp1176
(lp1177
I4298
aS'438'
p1178
aS'482'
p1179
aa(lp1180
I6428
aS'34'
p1181
aS'373'
p1182
aasS'1QAV'
p1183
(lp1184
(lp1185
I6338
aS'82'
p1186
aS'160'
p1187
aa(lp1188
I6338
aS'1018'
p1189
aS'1094'
p1190
aasS'1UF1'
p1191
(lp1192
(lp1193
I6338
aS'30'
p1194
aS'100'
p1195
aasS'2I04'
p1196
(lp1197
(lp1198
I6338
aS'455'
p1199
aS'522'
p1200
aasS'1C8Q'
p1201
(lp1202
(lp1203
I5153
aS'409'
p1204
aS'492'
p1205
aa(lp1206
I6428
aS'72'
p1207
aS'308'
p1208
aasS'3TSV'
p1209
(lp1210
(lp1211
I6338
aS'428'
p1212
aS'499'
p1213
aasS'3TSW'
p1214
(lp1215
(lp1216
I730
aS'520'
p1217
aS'582'
p1218
aa(lp1219
I6338
aS'428'
p1220
aS'498'
p1221
aa(lp1222
I6498
aS'691'
p1223
aS'792'
p1224
aasS'3VM5'
p1225
(lp1226
(lp1227
I5153
aS'411'
p1228
aS'493'
p1229
aa(lp1230
I6428
aS'74'
p1231
aS'305'
p1232
aasS'4CUO'
p1233
(lp1234
(lp1235
I1596
aS'18'
p1236
aS'266'
p1237
aasS'1VB7'
p1238
(lp1239
(lp1240
I6338
aS'14'
p1241
aS'84'
p1242
aasS'1C8I'
p1243
(lp1244
(lp1245
I1596
aS'45'
p1246
aS'264'
p1247
aa(lp1248
I2581
aS'269'
p1249
aS'344'
p1250
aasS'1VB9'
p1251
(lp1252
(lp1253
I1172
aS'503'
p1254
aS'579'
p1255
aa(lp1256
I5151
aS'1'
aS'117'
p1257
aa(lp1258
I6428
aS'170'
p1259
aS'466'
p1260
aasS'1GCY'
p1261
(lp1262
(lp1263
I641
aS'367'
p1264
aS'417'
p1265
aa(lp1266
I6428
aS'50'
p1267
aS'332'
p1268
aasS'2XIL'
p1269
(lp1270
(lp1271
I1596
aS'37'
p1272
aS'254'
p1273
aasS'1SMA'
p1274
(lp1275
(lp1276
I1172
aS'506'
p1277
aS'581'
p1278
aa(lp1279
I5151
aS'1'
aS'121'
p1280
aa(lp1281
I6428
aS'173'
p1282
aS'469'
p1283
aasS'1V3K'
p1284
(lp1285
(lp1286
I3612
aS'499'
p1287
aS'569'
p1288
aa(lp1289
I5153
aS'413'
p1290
aS'492'
p1291
aa(lp1292
I6428
aS'52'
p1293
aS'372'
p1294
aa(lp1295
I6582
aS'586'
p1296
aS'680'
p1297
aasS'4JOG'
p1298
(lp1299
(lp1300
I6338
aS'290'
p1301
aS'367'
p1302
aasS'1D3C'
p1303
(lp1304
(lp1305
I3612
aS'499'
p1306
aS'569'
p1307
aa(lp1308
I5153
aS'413'
p1309
aS'491'
p1310
aa(lp1311
I6428
aS'52'
p1312
aS'372'
p1313
aa(lp1314
I6582
aS'586'
p1315
aS'679'
p1316
aasS'7ATJ'
p1317
(lp1318
(lp1319
I1596
aS'19'
p1320
aS'269'
p1321
aasS'1SMD'
p1322
(lp1323
(lp1324
I5153
aS'409'
p1325
aS'492'
p1326
aa(lp1327
I6428
aS'72'
p1328
aS'308'
p1329
aasS'4JOK'
p1330
(lp1331
(lp1332
I6338
aS'290'
p1333
aS'367'
p1334
aasS'4JOJ'
p1335
(lp1336
(lp1337
I6338
aS'290'
p1338
aS'367'
p1339
aasS'2XIF'
p1340
(lp1341
(lp1342
I1596
aS'20'
p1343
aS'227'
p1344
aasS'2AS6'
p1345
(lp1346
(lp1347
I1596
aS'37'
p1348
aS'254'
p1349
aasS'4JOR'
p1350
(lp1351
(lp1352
I6338
aS'290'
p1353
aS'367'
p1354
aasS'2AS4'
p1355
(lp1356
(lp1357
I1596
aS'37'
p1358
aS'254'
p1359
aasS'3CZK'
p1360
(lp1361
(lp1362
I6428
aS'103'
p1363
aS'288'
p1364
aasS'3CZL'
p1365
(lp1366
(lp1367
I6428
aS'103'
p1368
aS'288'
p1369
aasS'2AS3'
p1370
(lp1371
(lp1372
I1596
aS'37'
p1373
aS'254'
p1374
aasS'2AS1'
p1375
(lp1376
(lp1377
I1596
aS'37'
p1378
aS'254'
p1379
aasS'1KXM'
p1380
(lp1381
(lp1382
I1596
aS'37'
p1383
aS'252'
p1384
aasS'1KXN'
p1385
(lp1386
(lp1387
I1596
aS'37'
p1388
aS'252'
p1389
aasS'3BAK'
p1390
(lp1391
(lp1392
I5153
aS'409'
p1393
aS'492'
p1394
aa(lp1395
I6428
aS'71'
p1396
aS'307'
p1397
aasS'4GED'
p1398
(lp1399
(lp1400
I1596
aS'45'
p1401
aS'272'
p1402
aa(lp1403
I5098
aS'14'
p1404
aS'113'
p1405
aasS'4AYS'
p1406
(lp1407
(lp1408
I6428
aS'99'
p1409
aS'312'
p1410
aasS'3CZG'
p1411
(lp1412
(lp1413
I6428
aS'103'
p1414
aS'301'
p1415
aasS'3AMK'
p1416
(lp1417
(lp1418
I5153
aS'592'
p1419
aS'692'
p1420
aa(lp1421
I6428
aS'223'
p1422
aS'301'
p1423
aa(lp1424
I6841
aS'57'
p1425
aS'140'
p1426
aasS'1HX0'
p1427
(lp1428
(lp1429
I5153
aS'410'
p1430
aS'492'
p1431
aa(lp1432
I6428
aS'72'
p1433
aS'306'
p1434
aasS'2BHY'
p1435
(lp1436
(lp1437
I3131
aS'513'
p1438
aS'600'
p1439
aa(lp1440
I6428
aS'147'
p1441
aS'228'
p1442
aa(lp1443
I6841
aS'25'
p1444
aS'86'
p1445
aasS'1ZUB'
p1446
(lp1447
(lp1448
I6338
aS'620'
p1449
aS'701'
p1450
aasS'2I1N'
p1451
(lp1452
(lp1453
I6338
aS'132'
p1454
aS'215'
p1455
aasS'1I16'
p1456
(lp1457
(lp1458
I6338
aS'33'
p1459
aS'114'
p1460
aasS'1PPI'
p1461
(lp1462
(lp1463
I5153
aS'410'
p1464
aS'492'
p1465
aa(lp1466
I6428
aS'72'
p1467
aS'306'
p1468
aasS'2KAW'
p1469
(lp1470
(lp1471
I6338
aS'5'
aS'88'
p1472
aasS'1AA4'
p1473
(lp1474
(lp1475
I1596
aS'37'
p1476
aS'254'
p1477
aasS'1DJ1'
p1478
(lp1479
(lp1480
I1596
aS'37'
p1481
aS'254'
p1482
aasS'1DJ5'
p1483
(lp1484
(lp1485
I1596
aS'37'
p1486
aS'254'
p1487
aasS'4BZY'
p1488
(lp1489
(lp1490
I5153
aS'603'
p1491
aS'697'
p1492
aa(lp1493
I6428
aS'224'
p1494
aS'304'
p1495
aa(lp1496
I6841
aS'76'
p1497
aS'161'
p1498
aasS'4CGT'
p1499
(lp1500
(lp1501
I3612
aS'498'
p1502
aS'577'
p1503
aa(lp1504
I5153
aS'413'
p1505
aS'491'
p1506
aa(lp1507
I6428
aS'52'
p1508
aS'372'
p1509
aa(lp1510
I6582
aS'584'
p1511
aS'680'
p1512
aasS'2EHR'
p1513
(lp1514
(lp1515
I6338
aS'21'
p1516
aS'103'
p1517
aasS'1LY8'
p1518
(lp1519
(lp1520
I1596
aS'48'
p1521
aS'263'
p1522
aa(lp1523
I2581
aS'268'
p1524
aS'343'
p1525
aasS'3UW8'
p1526
(lp1527
(lp1528
I1596
aS'74'
p1529
aS'391'
p1530
aa(lp1531
I1596
aS'398'
p1532
aS'703'
p1533
aasS'1GM1'
p1534
(lp1535
(lp1536
I6338
aS'16'
p1537
aS'96'
p1538
aasS'3K82'
p1539
(lp1540
(lp1541
I6338
aS'314'
p1542
aS'389'
p1543
aasS'3CH8'
p1544
(lp1545
(lp1546
I4017
aS'105'
p1547
aS'180'
p1548
aa(lp1549
I6338
aS'3'
aS'78'
p1550
aasS'4H8U'
p1551
(lp1552
(lp1553
I3131
aS'462'
p1554
aS'552'
p1555
aa(lp1556
I6428
aS'29'
p1557
aS'374'
p1558
aasS'1DS4'
p1559
(lp1560
(lp1561
I1596
aS'37'
p1562
aS'254'
p1563
aasS'2FXH'
p1564
(lp1565
(lp1566
I1596
aS'90'
p1567
aS'407'
p1568
aa(lp1569
I1596
aS'414'
p1570
aS'720'
p1571
aasS'4H8V'
p1572
(lp1573
(lp1574
I3131
aS'462'
p1575
aS'552'
p1576
aa(lp1577
I6428
aS'29'
p1578
aS'374'
p1579
aasS'2FXJ'
p1580
(lp1581
(lp1582
I1596
aS'90'
p1583
aS'407'
p1584
aa(lp1585
I1596
aS'414'
p1586
aS'720'
p1587
aasS'2QPS'
p1588
(lp1589
(lp1590
I6428
aS'26'
p1591
aS'187'
p1592
aa(lp1593
I6755
aS'345'
p1594
aS'403'
p1595
aasS'2FXG'
p1596
(lp1597
(lp1598
I1596
aS'90'
p1599
aS'407'
p1600
aa(lp1601
I1596
aS'414'
p1602
aS'720'
p1603
aasS'1J0I'
p1604
(lp1605
(lp1606
I1172
aS'506'
p1607
aS'581'
p1608
aa(lp1609
I5151
aS'1'
aS'121'
p1610
aa(lp1611
I6428
aS'173'
p1612
aS'469'
p1613
aasS'1J0H'
p1614
(lp1615
(lp1616
I1172
aS'506'
p1617
aS'581'
p1618
aa(lp1619
I5151
aS'1'
aS'121'
p1620
aa(lp1621
I6428
aS'173'
p1622
aS'469'
p1623
aasS'2H2B'
p1624
(lp1625
(lp1626
I6338
aS'24'
p1627
aS'106'
p1628
aasS'2H2C'
p1629
(lp1630
(lp1631
I6338
aS'24'
p1632
aS'106'
p1633
aasS'1DSG'
p1634
(lp1635
(lp1636
I1596
aS'37'
p1637
aS'254'
p1638
aasS'1UOK'
p1639
(lp1640
(lp1641
I1172
aS'486'
p1642
aS'553'
p1643
aa(lp1644
I6428
aS'28'
p1645
aS'376'
p1646
aasS'1DSE'
p1647
(lp1648
(lp1649
I1596
aS'37'
p1650
aS'254'
p1651
aasS'2JWE'
p1652
(lp1653
(lp1654
I6338
aS'3'
aS'77'
p1655
aasS'1DSO'
p1656
(lp1657
(lp1658
I1596
aS'37'
p1659
aS'254'
p1660
aasS'1XZ9'
p1661
(lp1662
(lp1663
I6338
aS'16'
p1664
aS'94'
p1665
aasS'4CN0'
p1666
(lp1667
(lp1668
I6338
aS'113'
p1669
aS'161'
p1670
aasS'2BHU'
p1671
(lp1672
(lp1673
I3131
aS'513'
p1674
aS'600'
p1675
aa(lp1676
I6428
aS'147'
p1677
aS'228'
p1678
aa(lp1679
I6841
aS'25'
p1680
aS'86'
p1681
aasS'1R6J'
p1682
(lp1683
(lp1684
I6338
aS'207'
p1685
aS'270'
p1686
aasS'1DSP'
p1687
(lp1688
(lp1689
I1596
aS'37'
p1690
aS'254'
p1691
aasS'2KJD'
p1692
(lp1693
(lp1694
I6338
aS'14'
p1695
aS'88'
p1696
aa(lp1697
I7010
aS'93'
p1698
aS'127'
p1699
aasS'2AMG'
p1700
(lp1701
(lp1702
I641
aS'367'
p1703
aS'417'
p1704
aa(lp1705
I6428
aS'50'
p1706
aS'332'
p1707
aasS'1Q4N'
p1708
(lp1709
(lp1710
I5153
aS'409'
p1711
aS'492'
p1712
aa(lp1713
I6428
aS'72'
p1714
aS'308'
p1715
aasS'2WPG'
p1716
(lp1717
(lp1718
I3131
aS'546'
p1719
aS'634'
p1720
aa(lp1721
I6428
aS'104'
p1722
aS'323'
p1723
aasS'3I4W'
p1724
(lp1725
(lp1726
I6338
aS'314'
p1727
aS'389'
p1728
aasS'1CMQ'
p1729
(lp1730
(lp1731
I1596
aS'37'
p1732
aS'254'
p1733
aasS'1CMP'
p1734
(lp1735
(lp1736
I1596
aS'37'
p1737
aS'254'
p1738
aasS'2W23'
p1739
(lp1740
(lp1741
I1596
aS'25'
p1742
aS'249'
p1743
aa(lp1744
I2581
aS'253'
p1745
aS'315'
p1746
aasS'5DO8'
p1747
(lp1748
(lp1749
I6428
aS'29'
p1750
aS'375'
p1751
aasS'1CMU'
p1752
(lp1753
(lp1754
I1596
aS'37'
p1755
aS'254'
p1756
aasS'1CMT'
p1757
(lp1758
(lp1759
I1596
aS'37'
p1760
aS'254'
p1761
aasS'4XV6'
p1762
(lp1763
(lp1764
I1596
aS'37'
p1765
aS'252'
p1766
aasS'3MH4'
p1767
(lp1768
(lp1769
I4085
aS'88'
p1770
aS'224'
p1771
aa(lp1772
I6338
aS'261'
p1773
aS'341'
p1774
aasS'3MH5'
p1775
(lp1776
(lp1777
I4085
aS'88'
p1778
aS'224'
p1779
aa(lp1780
I6338
aS'261'
p1781
aS'264'
p1782
aasS'4PAE'
p1783
(lp1784
(lp1785
I1596
aS'65'
p1786
aS'394'
p1787
aa(lp1788
I1596
aS'402'
p1789
aS'694'
p1790
aasS'3MH7'
p1791
(lp1792
(lp1793
I4085
aS'88'
p1794
aS'224'
p1795
aa(lp1796
I6338
aS'261'
p1797
aS'341'
p1798
aa(lp1799
I6338
aS'367'
p1800
aS'437'
p1801
aasS'1JI2'
p1802
(lp1803
(lp1804
I1172
aS'503'
p1805
aS'579'
p1806
aa(lp1807
I5151
aS'1'
aS'117'
p1808
aa(lp1809
I6428
aS'170'
p1810
aS'466'
p1811
aasS'1JI1'
p1812
(lp1813
(lp1814
I1172
aS'554'
p1815
aS'634'
p1816
aa(lp1817
I5151
aS'28'
p1818
aS'117'
p1819
aa(lp1820
I6428
aS'188'
p1821
aS'517'
p1822
aasS'1OB0'
p1823
(lp1824
(lp1825
I4298
aS'436'
p1826
aS'480'
p1827
aa(lp1828
I6428
aS'31'
p1829
aS'372'
p1830
aasS'1P1E'
p1831
(lp1832
(lp1833
I6338
aS'31'
p1834
aS'112'
p1835
aasS'1PEZ'
p1836
(lp1837
(lp1838
I3612
aS'499'
p1839
aS'569'
p1840
aa(lp1841
I5153
aS'413'
p1842
aS'491'
p1843
aa(lp1844
I6428
aS'52'
p1845
aS'372'
p1846
aa(lp1847
I6582
aS'586'
p1848
aS'679'
p1849
aasS'3QIK'
p1850
(lp1851
(lp1852
I6338
aS'631'
p1853
aS'684'
p1854
aasS'3SUZ'
p1855
(lp1856
(lp1857
I3145
aS'373'
p1858
aS'531'
p1859
aa(lp1860
I6338
aS'570'
p1861
aS'652'
p1862
aa(lp1863
I6338
aS'745'
p1864
aS'659'
p1865
aasS'2ZIC'
p1866
(lp1867
(lp1868
I1172
aS'465'
p1869
aS'524'
p1870
aa(lp1871
I6428
aS'28'
p1872
aS'359'
p1873
aasS'4GIN'
p1874
(lp1875
(lp1876
I3131
aS'462'
p1877
aS'552'
p1878
aa(lp1879
I6428
aS'29'
p1880
aS'374'
p1881
aasS'2VCN'
p1882
(lp1883
(lp1884
I1596
aS'20'
p1885
aS'227'
p1886
aasS'3KZD'
p1887
(lp1888
(lp1889
I6338
aS'857'
p1890
aS'920'
p1891
aasS'3KZE'
p1892
(lp1893
(lp1894
I6338
aS'854'
p1895
aS'920'
p1896
aasS'2ZID'
p1897
(lp1898
(lp1899
I1172
aS'465'
p1900
aS'524'
p1901
aa(lp1902
I6428
aS'28'
p1903
aS'359'
p1904
aasS'4MAZ'
p1905
(lp1906
(lp1907
I1172
aS'483'
p1908
aS'555'
p1909
aa(lp1910
I6428
aS'27'
p1911
aS'380'
p1912
aasS'4A9G'
p1913
(lp1914
(lp1915
I4085
aS'65'
p1916
aS'201'
p1917
aa(lp1918
I6338
aS'346'
p1919
aS'416'
p1920
aa(lp1921
I7211
aS'258'
p1922
aS'331'
p1923
aasS'2VCF'
p1924
(lp1925
(lp1926
I1596
aS'20'
p1927
aS'227'
p1928
aasS'4C50'
p1929
(lp1930
(lp1931
I1596
aS'91'
p1932
aS'397'
p1933
aa(lp1934
I1596
aS'406'
p1935
aS'713'
p1936
aasS'4C51'
p1937
(lp1938
(lp1939
I1596
aS'91'
p1940
aS'397'
p1941
aa(lp1942
I1596
aS'406'
p1943
aS'713'
p1944
aasS'1Z32'
p1945
(lp1946
(lp1947
I5153
aS'409'
p1948
aS'492'
p1949
aa(lp1950
I6428
aS'72'
p1951
aS'308'
p1952
aasS'2RC1'
p1953
(lp1954
(lp1955
I1596
aS'37'
p1956
aS'254'
p1957
aasS'4H11'
p1958
(lp1959
(lp1960
I6338
aS'98'
p1961
aS'181'
p1962
aasS'2RRM'
p1963
(lp1964
(lp1965
I6338
aS'7'
aS'89'
p1966
aasS'1KCK'
p1967
(lp1968
(lp1969
I3612
aS'499'
p1970
aS'569'
p1971
aa(lp1972
I5153
aS'413'
p1973
aS'491'
p1974
aa(lp1975
I6428
aS'52'
p1976
aS'372'
p1977
aa(lp1978
I6582
aS'586'
p1979
aS'679'
p1980
aasS'2RC0'
p1981
(lp1982
(lp1983
I1596
aS'37'
p1984
aS'254'
p1985
aasS'3ZO9'
p1986
(lp1987
(lp1988
I1172
aS'502'
p1989
aS'579'
p1990
aa(lp1991
I6428
aS'58'
p1992
aS'414'
p1993
aasS'2LUI'
p1994
(lp1995
(lp1996
I6338
aS'23'
p1997
aS'99'
p1998
aasS'2VCS'
p1999
(lp2000
(lp2001
I1596
aS'20'
p2002
aS'227'
p2003
aasS'2CCP'
p2004
(lp2005
(lp2006
I1596
aS'37'
p2007
aS'254'
p2008
aasS'1M7X'
p2009
(lp2010
(lp2011
I5153
aS'628'
p2012
aS'725'
p2013
aa(lp2014
I6428
aS'273'
p2015
aS'343'
p2016
aa(lp2017
I6841
aS'125'
p2018
aS'207'
p2019
aasS'1KEF'
p2020
(lp2021
(lp2022
I6338
aS'4'
aS'88'
p2023
aasS'1X5Q'
p2024
(lp2025
(lp2026
I6338
aS'20'
p2027
aS'101'
p2028
aasS'1X5R'
p2029
(lp2030
(lp2031
I6338
aS'26'
p2032
aS'103'
p2033
aasS'1XGZ'
p2034
(lp2035
(lp2036
I5153
aS'409'
p2037
aS'492'
p2038
aa(lp2039
I6428
aS'71'
p2040
aS'307'
p2041
aasS'2X08'
p2042
(lp2043
(lp2044
I1596
aS'38'
p2045
aS'254'
p2046
aasS'2DMZ'
p2047
(lp2048
(lp2049
I6338
aS'20'
p2050
aS'102'
p2051
aasS'2CCA'
p2052
(lp2053
(lp2054
I1596
aS'91'
p2055
aS'397'
p2056
aa(lp2057
I1596
aS'406'
p2058
aS'713'
p2059
aasS'2PCC'
p2060
(lp2061
(lp2062
I1596
aS'37'
p2063
aS'254'
p2064
aa(lp2065
I5098
aS'3'
aS'100'
p2066
aasS'1X5N'
p2067
(lp2068
(lp2069
I6338
aS'23'
p2070
aS'93'
p2071
aasS'1WI2'
p2072
(lp2073
(lp2074
I6338
aS'19'
p2075
aS'95'
p2076
aasS'1T2M'
p2077
(lp2078
(lp2079
I6338
aS'10'
p2080
aS'88'
p2081
aasS'4KA5'
p2082
(lp2083
(lp2084
I1596
aS'90'
p2085
aS'407'
p2086
aa(lp2087
I1596
aS'414'
p2088
aS'720'
p2089
aasS'4KA6'
p2090
(lp2091
(lp2092
I1596
aS'90'
p2093
aS'407'
p2094
aa(lp2095
I1596
aS'414'
p2096
aS'720'
p2097
aasS'1WI4'
p2098
(lp2099
(lp2100
I6338
aS'23'
p2101
aS'89'
p2102
aasS'1CPD'
p2103
(lp2104
(lp2105
I1596
aS'37'
p2106
aS'254'
p2107
aasS'1TCM'
p2108
(lp2109
(lp2110
I3612
aS'499'
p2111
aS'569'
p2112
aa(lp2113
I5153
aS'413'
p2114
aS'491'
p2115
aa(lp2116
I6428
aS'52'
p2117
aS'372'
p2118
aa(lp2119
I6582
aS'586'
p2120
aS'679'
p2121
aasS'1MXG'
p2122
(lp2123
(lp2124
I4298
aS'364'
p2125
aS'430'
p2126
aa(lp2127
I6428
aS'33'
p2128
aS'313'
p2129
aasS'1MXD'
p2130
(lp2131
(lp2132
I4298
aS'364'
p2133
aS'430'
p2134
aa(lp2135
I6428
aS'33'
p2136
aS'313'
p2137
aasS'2PWG'
p2138
(lp2139
(lp2140
I3131
aS'462'
p2141
aS'552'
p2142
aa(lp2143
I6428
aS'29'
p2144
aS'374'
p2145
aasS'2DM8'
p2146
(lp2147
(lp2148
I6338
aS'22'
p2149
aS'99'
p2150
aasS'4FLO'
p2151
(lp2152
(lp2153
I6428
aS'110'
p2154
aS'334'
p2155
aasS'1JF6'
p2156
(lp2157
(lp2158
I1172
aS'503'
p2159
aS'579'
p2160
aa(lp2161
I5151
aS'1'
aS'117'
p2162
aa(lp2163
I6428
aS'170'
p2164
aS'466'
p2165
aasS'2XJ5'
p2166
(lp2167
(lp2168
I1596
aS'37'
p2169
aS'254'
p2170
aasS'2XJ6'
p2171
(lp2172
(lp2173
I1596
aS'20'
p2174
aS'227'
p2175
aasS'2ZPM'
p2176
(lp2177
(lp2178
I6338
aS'225'
p2179
aS'277'
p2180
aasS'1E40'
p2181
(lp2182
(lp2183
I4298
aS'436'
p2184
aS'480'
p2185
aa(lp2186
I6428
aS'29'
p2187
aS'372'
p2188
aasS'1RGR'
p2189
(lp2190
(lp2191
I6338
aS'65'
p2192
aS'149'
p2193
aasS'1Q7X'
p2194
(lp2195
(lp2196
I6338
aS'13'
p2197
aS'98'
p2198
aasS'2XJ8'
p2199
(lp2200
(lp2201
I1596
aS'37'
p2202
aS'254'
p2203
aasS'1RGW'
p2204
(lp2205
(lp2206
I6338
aS'9'
aS'81'
p2207
aasS'2D0F'
p2208
(lp2209
(lp2210
I1172
aS'554'
p2211
aS'634'
p2212
aa(lp2213
I5151
aS'28'
p2214
aS'117'
p2215
aa(lp2216
I6428
aS'188'
p2217
aS'517'
p2218
aasS'4W93'
p2219
(lp2220
(lp2221
I5153
aS'409'
p2222
aS'492'
p2223
aa(lp2224
I6428
aS'71'
p2225
aS'308'
p2226
aasS'1S73'
p2227
(lp2228
(lp2229
I1596
aS'37'
p2230
aS'254'
p2231
aasS'2D0G'
p2232
(lp2233
(lp2234
I1172
aS'554'
p2235
aS'634'
p2236
aa(lp2237
I5151
aS'28'
p2238
aS'117'
p2239
aa(lp2240
I6428
aS'188'
p2241
aS'517'
p2242
aasS'1UM1'
p2243
(lp2244
(lp2245
I6338
aS'12'
p2246
aS'92'
p2247
aasS'1UM7'
p2248
(lp2249
(lp2250
I6338
aS'19'
p2251
aS'94'
p2252
aasS'2ATJ'
p2253
(lp2254
(lp2255
I1596
aS'19'
p2256
aS'269'
p2257
aasS'1CXL'
p2258
(lp2259
(lp2260
I3612
aS'499'
p2261
aS'569'
p2262
aa(lp2263
I5153
aS'413'
p2264
aS'491'
p2265
aa(lp2266
I6428
aS'52'
p2267
aS'372'
p2268
aa(lp2269
I6582
aS'586'
p2270
aS'679'
p2271
aasS'4FLQ'
p2272
(lp2273
(lp2274
I6428
aS'110'
p2275
aS'334'
p2276
aasS'4GI8'
p2277
(lp2278
(lp2279
I3131
aS'462'
p2280
aS'552'
p2281
aa(lp2282
I6428
aS'29'
p2283
aS'374'
p2284
aasS'1CXI'
p2285
(lp2286
(lp2287
I3612
aS'499'
p2288
aS'569'
p2289
aa(lp2290
I5153
aS'413'
p2291
aS'491'
p2292
aa(lp2293
I6428
aS'52'
p2294
aS'372'
p2295
aa(lp2296
I6582
aS'586'
p2297
aS'679'
p2298
aasS'4AEE'
p2299
(lp2300
(lp2301
I1172
aS'619'
p2302
aS'688'
p2303
aa(lp2304
I6428
aS'262'
p2305
aS'580'
p2306
aasS'1CXE'
p2307
(lp2308
(lp2309
I3612
aS'499'
p2310
aS'569'
p2311
aa(lp2312
I5153
aS'413'
p2313
aS'491'
p2314
aa(lp2315
I6428
aS'52'
p2316
aS'372'
p2317
aa(lp2318
I6582
aS'586'
p2319
aS'679'
p2320
aasS'4GI6'
p2321
(lp2322
(lp2323
I3131
aS'462'
p2324
aS'552'
p2325
aa(lp2326
I6428
aS'29'
p2327
aS'374'
p2328
aasS'1J0J'
p2329
(lp2330
(lp2331
I1172
aS'506'
p2332
aS'581'
p2333
aa(lp2334
I5151
aS'1'
aS'121'
p2335
aa(lp2336
I6428
aS'173'
p2337
aS'469'
p2338
aasS'2KV8'
p2339
(lp2340
(lp2341
I6338
aS'7'
aS'78'
p2342
aasS'8CGT'
p2343
(lp2344
(lp2345
I3612
aS'498'
p2346
aS'577'
p2347
aa(lp2348
I5153
aS'413'
p2349
aS'491'
p2350
aa(lp2351
I6428
aS'52'
p2352
aS'372'
p2353
aa(lp2354
I6582
aS'584'
p2355
aS'680'
p2356
aasS'3M28'
p2357
(lp2358
(lp2359
I1596
aS'37'
p2360
aS'254'
p2361
aasS'4CCX'
p2362
(lp2363
(lp2364
I1596
aS'37'
p2365
aS'254'
p2366
aasS'1MN1'
p2367
(lp2368
(lp2369
I1596
aS'25'
p2370
aS'260'
p2371
aa(lp2372
I2581
aS'264'
p2373
aS'342'
p2374
aasS'1MN2'
p2375
(lp2376
(lp2377
I1596
aS'24'
p2378
aS'260'
p2379
aa(lp2380
I2581
aS'264'
p2381
aS'342'
p2382
aasS'2YT8'
p2383
(lp2384
(lp2385
I6338
aS'18'
p2386
aS'81'
p2387
aasS'2JTI'
p2388
(lp2389
(lp2390
I1596
aS'37'
p2391
aS'254'
p2392
aa(lp2393
I5098
aS'3'
aS'100'
p2394
aasS'4CCP'
p2395
(lp2396
(lp2397
I1596
aS'37'
p2398
aS'254'
p2399
aasS'2YT7'
p2400
(lp2401
(lp2402
I6338
aS'12'
p2403
aS'95'
p2404
aasS'1L0P'
p2405
(lp2406
(lp2407
I5153
aS'362'
p2408
aS'443'
p2409
aa(lp2410
I6428
aS'57'
p2411
aS'293'
p2412
aasS'2LC7'
p2413
(lp2414
(lp2415
I6338
aS'164'
p2416
aS'249'
p2417
aasS'2LC6'
p2418
(lp2419
(lp2420
I6338
aS'166'
p2421
aS'249'
p2422
aasS'3OTP'
p2423
(lp2424
(lp2425
I4085
aS'88'
p2426
aS'224'
p2427
aa(lp2428
I6071
aS'28'
p2429
aS'58'
p2430
aa(lp2431
I6338
aS'261'
p2432
aS'341'
p2433
aa(lp2434
I6338
aS'368'
p2435
aS'437'
p2436
aasS'2FCF'
p2437
(lp2438
(lp2439
I6338
aS'1157'
p2440
aS'1235'
p2441
aa(lp2442
I6338
aS'1157'
p2443
aS'1235'
p2444
aasS'4A78'
p2445
(lp2446
(lp2447
I1596
aS'37'
p2448
aS'254'
p2449
aasS'2B2O'
p2450
(lp2451
(lp2452
I1596
aS'90'
p2453
aS'407'
p2454
aa(lp2455
I1596
aS'414'
p2456
aS'720'
p2457
aasS'2VUY'
p2458
(lp2459
(lp2460
I6428
aS'206'
p2461
aS'370'
p2462
aa(lp2463
I6841
aS'19'
p2464
aS'110'
p2465
aasS'4P4Q'
p2466
(lp2467
(lp2468
I1596
aS'37'
p2469
aS'254'
p2470
aa(lp2471
I5098
aS'3'
aS'100'
p2472
aasS'1VFO'
p2473
(lp2474
(lp2475
I1172
aS'503'
p2476
aS'579'
p2477
aa(lp2478
I5151
aS'1'
aS'117'
p2479
aa(lp2480
I6428
aS'170'
p2481
aS'466'
p2482
aasS'3PS4'
p2483
(lp2484
(lp2485
I6338
aS'969'
p2486
aS'1050'
p2487
aasS'1MWO'
p2488
(lp2489
(lp2490
I4298
aS'364'
p2491
aS'430'
p2492
aa(lp2493
I6428
aS'33'
p2494
aS'313'
p2495
aasS'3HDL'
p2496
(lp2497
(lp2498
I1596
aS'18'
p2499
aS'265'
p2500
aasS'3M23'
p2501
(lp2502
(lp2503
I1596
aS'37'
p2504
aS'254'
p2505
aasS'2H3L'
p2506
(lp2507
(lp2508
I6338
aS'1328'
p2509
aS'1406'
p2510
aasS'1MWV'
p2511
(lp2512
(lp2513
I1596
aS'90'
p2514
aS'407'
p2515
aa(lp2516
I1596
aS'414'
p2517
aS'720'
p2518
aasS'2CXG'
p2519
(lp2520
(lp2521
I3612
aS'499'
p2522
aS'569'
p2523
aa(lp2524
I5153
aS'413'
p2525
aS'491'
p2526
aa(lp2527
I6428
aS'52'
p2528
aS'372'
p2529
aa(lp2530
I6582
aS'586'
p2531
aS'679'
p2532
aasS'3KHF'
p2533
(lp2534
(lp2535
I6338
aS'957'
p2536
aS'1032'
p2537
aasS'2VRF'
p2538
(lp2539
(lp2540
I6338
aS'116'
p2541
aS'194'
p2542
aasS'1TQ3'
p2543
(lp2544
(lp2545
I6338
aS'314'
p2546
aS'389'
p2547
aasS'2B2R'
p2548
(lp2549
(lp2550
I1596
aS'90'
p2551
aS'407'
p2552
aa(lp2553
I1596
aS'414'
p2554
aS'720'
p2555
aasS'2B2S'
p2556
(lp2557
(lp2558
I1596
aS'90'
p2559
aS'407'
p2560
aa(lp2561
I1596
aS'414'
p2562
aS'720'
p2563
aasS'4LMM'
p2564
(lp2565
(lp2566
I6338
aS'18'
p2567
aS'90'
p2568
aasS'2B2Q'
p2569
(lp2570
(lp2571
I1596
aS'90'
p2572
aS'407'
p2573
aa(lp2574
I1596
aS'414'
p2575
aS'720'
p2576
aasS'1SCH'
p2577
(lp2578
(lp2579
I1596
aS'19'
p2580
aS'258'
p2581
aasS'2QMK'
p2582
(lp2583
(lp2584
I5153
aS'409'
p2585
aS'492'
p2586
aa(lp2587
I6428
aS'71'
p2588
aS'308'
p2589
aasS'1UJD'
p2590
(lp2591
(lp2592
I6338
aS'26'
p2593
aS'103'
p2594
aasS'1HVX'
p2595
(lp2596
(lp2597
I4298
aS'436'
p2598
aS'480'
p2599
aa(lp2600
I6428
aS'33'
p2601
aS'374'
p2602
aasS'1CGV'
p2603
(lp2604
(lp2605
I3612
aS'499'
p2606
aS'569'
p2607
aa(lp2608
I5153
aS'413'
p2609
aS'491'
p2610
aa(lp2611
I6428
aS'52'
p2612
aS'372'
p2613
aa(lp2614
I6582
aS'586'
p2615
aS'679'
p2616
aasS'3ID4'
p2617
(lp2618
(lp2619
I6338
aS'225'
p2620
aS'277'
p2621
aasS'1MW3'
p2622
(lp2623
(lp2624
I6428
aS'110'
p2625
aS'334'
p2626
aasS'1MW2'
p2627
(lp2628
(lp2629
I6428
aS'110'
p2630
aS'334'
p2631
aasS'1MW1'
p2632
(lp2633
(lp2634
I6428
aS'110'
p2635
aS'334'
p2636
aasS'1MW0'
p2637
(lp2638
(lp2639
I6428
aS'110'
p2640
aS'319'
p2641
aasS'4R2Z'
p2642
(lp2643
(lp2644
I6338
aS'385'
p2645
aS'455'
p2646
aasS'3E2O'
p2647
(lp2648
(lp2649
I1596
aS'37'
p2650
aS'254'
p2651
aasS'4UU6'
p2652
(lp2653
(lp2654
I6338
aS'257'
p2655
aS'331'
p2656
aasS'1UJU'
p2657
(lp2658
(lp2659
I6338
aS'15'
p2660
aS'100'
p2661
aasS'1UJV'
p2662
(lp2663
(lp2664
I6338
aS'15'
p2665
aS'77'
p2666
aasS'4UU5'
p2667
(lp2668
(lp2669
I6338
aS'257'
p2670
aS'331'
p2671
aasS'2OMJ'
p2672
(lp2673
(lp2674
I6338
aS'12'
p2675
aS'83'
p2676
aasS'3QDO'
p2677
(lp2678
(lp2679
I6338
aS'43'
p2680
aS'130'
p2681
aasS'4K72'
p2682
(lp2683
(lp2684
I6338
aS'290'
p2685
aS'367'
p2686
aasS'4K76'
p2687
(lp2688
(lp2689
I6338
aS'290'
p2690
aS'367'
p2691
aasS'3UT2'
p2692
(lp2693
(lp2694
I1596
aS'110'
p2695
aS'440'
p2696
aa(lp2697
I1596
aS'449'
p2698
aS'757'
p2699
aasS'4K75'
p2700
(lp2701
(lp2702
I6338
aS'290'
p2703
aS'367'
p2704
aasS'3N3N'
p2705
(lp2706
(lp2707
I1596
aS'90'
p2708
aS'407'
p2709
aa(lp2710
I1596
aS'414'
p2711
aS'720'
p2712
aa(lp2713
I1596
aS'90'
p2714
aS'407'
p2715
aa(lp2716
I1596
aS'414'
p2717
aS'720'
p2718
aasS'4A7M'
p2719
(lp2720
(lp2721
I1596
aS'37'
p2722
aS'254'
p2723
aasS'4K78'
p2724
(lp2725
(lp2726
I6338
aS'290'
p2727
aS'367'
p2728
aasS'1JFH'
p2729
(lp2730
(lp2731
I5153
aS'410'
p2732
aS'492'
p2733
aa(lp2734
I6428
aS'72'
p2735
aS'306'
p2736
aasS'1AMY'
p2737
(lp2738
(lp2739
I6428
aS'25'
p2740
aS'187'
p2741
aa(lp2742
I6755
aS'343'
p2743
aS'401'
p2744
aasS'2AIN'
p2745
(lp2746
(lp2747
I6338
aS'10'
p2748
aS'88'
p2749
aasS'4Q3H'
p2750
(lp2751
(lp2752
I6338
aS'156'
p2753
aS'230'
p2754
aasS'4XV8'
p2755
(lp2756
(lp2757
I1596
aS'37'
p2758
aS'252'
p2759
aasS'3AXA'
p2760
(lp2761
(lp2762
I6338
aS'7'
aS'85'
p2763
aasS'1ML2'
p2764
(lp2765
(lp2766
I1596
aS'37'
p2767
aS'254'
p2768
aasS'3R69'
p2769
(lp2770
(lp2771
I6338
aS'245'
p2772
aS'320'
p2773
aasS'3R68'
p2774
(lp2775
(lp2776
I6338
aS'245'
p2777
aS'320'
p2778
aasS'4TVU'
p2779
(lp2780
(lp2781
I1172
aS'470'
p2782
aS'547'
p2783
aa(lp2784
I6428
aS'31'
p2785
aS'391'
p2786
aasS'3AXH'
p2787
(lp2788
(lp2789
I6428
aS'37'
p2790
aS'400'
p2791
aasS'3AXI'
p2792
(lp2793
(lp2794
I6428
aS'37'
p2795
aS'400'
p2796
aasS'4XV4'
p2797
(lp2798
(lp2799
I1596
aS'37'
p2800
aS'252'
p2801
aasS'4XV5'
p2802
(lp2803
(lp2804
I1596
aS'37'
p2805
aS'252'
p2806
aasS'2PNT'
p2807
(lp2808
(lp2809
I6338
aS'102'
p2810
aS'185'
p2811
aasS'2W4F'
p2812
(lp2813
(lp2814
I6338
aS'730'
p2815
aS'811'
p2816
aasS'3WY1'
p2817
(lp2818
(lp2819
I1172
aS'465'
p2820
aS'532'
p2821
aa(lp2822
I6428
aS'30'
p2823
aS'378'
p2824
aasS'2OSG'
p2825
(lp2826
(lp2827
I6338
aS'9'
aS'78'
p2828
aasS'2KRG'
p2829
(lp2830
(lp2831
I6338
aS'156'
p2832
aS'230'
p2833
aa(lp2834
I7010
aS'235'
p2835
aS'358'
p2836
aasS'1MNP'
p2837
(lp2838
(lp2839
I1596
aS'25'
p2840
aS'260'
p2841
aa(lp2842
I2581
aS'264'
p2843
aS'342'
p2844
aasS'4FLR'
p2845
(lp2846
(lp2847
I6428
aS'110'
p2848
aS'334'
p2849
aasS'4FLS'
p2850
(lp2851
(lp2852
I6428
aS'110'
p2853
aS'319'
p2854
aasS'3GSL'
p2855
(lp2856
(lp2857
I6338
aS'65'
p2858
aS'149'
p2859
aa(lp2860
I6338
aS'161'
p2861
aS'243'
p2862
aasS'3FJW'
p2863
(lp2864
(lp2865
I1596
aS'25'
p2866
aS'249'
p2867
aa(lp2868
I2581
aS'253'
p2869
aS'329'
p2870
aasS'3M29'
p2871
(lp2872
(lp2873
I1596
aS'37'
p2874
aS'254'
p2875
aasS'3M26'
p2876
(lp2877
(lp2878
I1596
aS'37'
p2879
aS'254'
p2880
aasS'3M27'
p2881
(lp2882
(lp2883
I1596
aS'37'
p2884
aS'254'
p2885
aasS'1QI3'
p2886
(lp2887
(lp2888
I641
aS'367'
p2889
aS'417'
p2890
aa(lp2891
I6428
aS'50'
p2892
aS'332'
p2893
aasS'3M25'
p2894
(lp2895
(lp2896
I1596
aS'37'
p2897
aS'254'
p2898
aasS'1QI5'
p2899
(lp2900
(lp2901
I641
aS'367'
p2902
aS'417'
p2903
aa(lp2904
I6428
aS'50'
p2905
aS'332'
p2906
aasS'1QI4'
p2907
(lp2908
(lp2909
I641
aS'367'
p2910
aS'417'
p2911
aa(lp2912
I6428
aS'50'
p2913
aS'332'
p2914
aasS'2D0H'
p2915
(lp2916
(lp2917
I1172
aS'554'
p2918
aS'634'
p2919
aa(lp2920
I5151
aS'28'
p2921
aS'117'
p2922
aa(lp2923
I6428
aS'188'
p2924
aS'517'
p2925
aasS'3BSG'
p2926
(lp2927
(lp2928
I6428
aS'26'
p2929
aS'187'
p2930
aa(lp2931
I6755
aS'345'
p2932
aS'403'
p2933
aasS'1H5H'
p2934
(lp2935
(lp2936
I1596
aS'19'
p2937
aS'269'
p2938
aasS'3FMU'
p2939
(lp2940
(lp2941
I1596
aS'25'
p2942
aS'249'
p2943
aa(lp2944
I2581
aS'253'
p2945
aS'319'
p2946
aasS'1H5J'
p2947
(lp2948
(lp2949
I1596
aS'19'
p2950
aS'269'
p2951
aasS'2E39'
p2952
(lp2953
(lp2954
I1596
aS'45'
p2955
aS'264'
p2956
aa(lp2957
I2581
aS'269'
p2958
aS'344'
p2959
aasS'1H5L'
p2960
(lp2961
(lp2962
I1596
aS'19'
p2963
aS'269'
p2964
aasS'1H5M'
p2965
(lp2966
(lp2967
I1596
aS'19'
p2968
aS'269'
p2969
aasS'3A6O'
p2970
(lp2971
(lp2972
I1172
aS'503'
p2973
aS'579'
p2974
aa(lp2975
I5151
aS'1'
aS'117'
p2976
aa(lp2977
I6428
aS'170'
p2978
aS'466'
p2979
aasS'1H5A'
p2980
(lp2981
(lp2982
I1596
aS'19'
p2983
aS'269'
p2984
aasS'1H5C'
p2985
(lp2986
(lp2987
I1596
aS'19'
p2988
aS'269'
p2989
aasS'1H5D'
p2990
(lp2991
(lp2992
I1596
aS'19'
p2993
aS'269'
p2994
aasS'1H5E'
p2995
(lp2996
(lp2997
I1596
aS'19'
p2998
aS'269'
p2999
aasS'1H5F'
p3000
(lp3001
(lp3002
I1596
aS'19'
p3003
aS'269'
p3004
aasS'1H5G'
p3005
(lp3006
(lp3007
I1596
aS'19'
p3008
aS'269'
p3009
aasS'1BLI'
p3010
(lp3011
(lp3012
I4298
aS'436'
p3013
aS'480'
p3014
aa(lp3015
I4298
aS'436'
p3016
aS'480'
p3017
aa(lp3018
I6428
aS'31'
p3019
aS'372'
p3020
aa(lp3021
I6428
aS'31'
p3022
aS'372'
p3023
aasS'2OZF'
p3024
(lp3025
(lp3026
I6338
aS'156'
p3027
aS'230'
p3028
aasS'2GVY'
p3029
(lp3030
(lp3031
I1204
aS'386'
p3032
aS'475'
p3033
aa(lp3034
I6428
aS'40'
p3035
aS'341'
p3036
aasS'1NM9'
p3037
(lp3038
(lp3039
I5153
aS'409'
p3040
aS'492'
p3041
aa(lp3042
I6428
aS'71'
p3043
aS'308'
p3044
aasS'1OBY'
p3045
(lp3046
(lp3047
I6338
aS'206'
p3048
aS'270'
p3049
aasS'3AJ7'
p3050
(lp3051
(lp3052
I6428
aS'37'
p3053
aS'400'
p3054
aasS'2QV4'
p3055
(lp3056
(lp3057
I5153
aS'409'
p3058
aS'492'
p3059
aa(lp3060
I6428
aS'71'
p3061
aS'308'
p3062
aasS'4LXF'
p3063
(lp3064
(lp3065
I1172
aS'510'
p3066
aS'581'
p3067
aa(lp3068
I6428
aS'66'
p3069
aS'422'
p3070
aasS'2DIE'
p3071
(lp3072
(lp3073
I4298
aS'438'
p3074
aS'482'
p3075
aa(lp3076
I6428
aS'34'
p3077
aS'373'
p3078
aasS'1H5I'
p3079
(lp3080
(lp3081
I1596
aS'19'
p3082
aS'269'
p3083
aasS'3PDV'
p3084
(lp3085
(lp3086
I6338
aS'9'
aS'79'
p3087
aasS'2V1W'
p3088
(lp3089
(lp3090
I6338
aS'8'
aS'80'
p3091
aasS'3HPM'
p3092
(lp3093
(lp3094
I6338
aS'23'
p3095
aS'99'
p3096
aasS'3FM6'
p3097
(lp3098
(lp3099
I1596
aS'25'
p3100
aS'249'
p3101
aa(lp3102
I2581
aS'253'
p3103
aS'319'
p3104
aasS'9CGT'
p3105
(lp3106
(lp3107
I3612
aS'498'
p3108
aS'577'
p3109
aa(lp3110
I5153
aS'413'
p3111
aS'491'
p3112
aa(lp3113
I6428
aS'52'
p3114
aS'372'
p3115
aa(lp3116
I6582
aS'584'
p3117
aS'680'
p3118
aasS'3FM1'
p3119
(lp3120
(lp3121
I1596
aS'25'
p3122
aS'249'
p3123
aa(lp3124
I2581
aS'253'
p3125
aS'319'
p3126
aasS'1QPA'
p3127
(lp3128
(lp3129
I1596
aS'24'
p3130
aS'256'
p3131
aa(lp3132
I2581
aS'260'
p3133
aS'340'
p3134
aasS'1QPK'
p3135
(lp3136
(lp3137
I641
aS'367'
p3138
aS'417'
p3139
aa(lp3140
I6428
aS'50'
p3141
aS'332'
p3142
aasS'1KY9'
p3143
(lp3144
(lp3145
I4085
aS'88'
p3146
aS'224'
p3147
aa(lp3148
I6338
aS'261'
p3149
aS'341'
p3150
aasS'1H58'
p3151
(lp3152
(lp3153
I1596
aS'19'
p3154
aS'269'
p3155
aasS'1CCL'
p3156
(lp3157
(lp3158
I1596
aS'37'
p3159
aS'254'
p3160
aasS'1CCI'
p3161
(lp3162
(lp3163
I1596
aS'37'
p3164
aS'254'
p3165
aasS'1CCK'
p3166
(lp3167
(lp3168
I1596
aS'37'
p3169
aS'254'
p3170
aasS'1CCJ'
p3171
(lp3172
(lp3173
I1596
aS'37'
p3174
aS'254'
p3175
aasS'1KWA'
p3176
(lp3177
(lp3178
I6338
aS'491'
p3179
aS'567'
p3180
aasS'4JL7'
p3181
(lp3182
(lp3183
I6338
aS'18'
p3184
aS'90'
p3185
aasS'1CCG'
p3186
(lp3187
(lp3188
I1596
aS'37'
p3189
aS'254'
p3190
aasS'2E3A'
p3191
(lp3192
(lp3193
I1596
aS'45'
p3194
aS'264'
p3195
aa(lp3196
I2581
aS'269'
p3197
aS'344'
p3198
aasS'1CCA'
p3199
(lp3200
(lp3201
I1596
aS'37'
p3202
aS'254'
p3203
aasS'1HCH'
p3204
(lp3205
(lp3206
I1596
aS'19'
p3207
aS'269'
p3208
aasS'1CCC'
p3209
(lp3210
(lp3211
I1596
aS'37'
p3212
aS'254'
p3213
aasS'1H57'
p3214
(lp3215
(lp3216
I1596
aS'19'
p3217
aS'269'
p3218
aasS'3DJ3'
p3219
(lp3220
(lp3221
I6338
aS'20'
p3222
aS'109'
p3223
aasS'2EUP'
p3224
(lp3225
(lp3226
I1596
aS'37'
p3227
aS'254'
p3228
aasS'3DJ1'
p3229
(lp3230
(lp3231
I6338
aS'20'
p3232
aS'109'
p3233
aasS'3L4F'
p3234
(lp3235
(lp3236
I4879
aS'587'
p3237
aS'645'
p3238
aa(lp3239
I6338
aS'665'
p3240
aS'753'
p3241
aasS'3M2H'
p3242
(lp3243
(lp3244
I1596
aS'37'
p3245
aS'254'
p3246
aasS'3M2I'
p3247
(lp3248
(lp3249
I1596
aS'37'
p3250
aS'254'
p3251
aasS'3M2F'
p3252
(lp3253
(lp3254
I1596
aS'37'
p3255
aS'254'
p3256
aasS'3M2G'
p3257
(lp3258
(lp3259
I1596
aS'37'
p3260
aS'254'
p3261
aasS'3M2D'
p3262
(lp3263
(lp3264
I1596
aS'37'
p3265
aS'254'
p3266
aasS'3M2E'
p3267
(lp3268
(lp3269
I1596
aS'37'
p3270
aS'254'
p3271
aasS'3M2B'
p3272
(lp3273
(lp3274
I1596
aS'37'
p3275
aS'254'
p3276
aasS'3M2C'
p3277
(lp3278
(lp3279
I1596
aS'37'
p3280
aS'254'
p3281
aasS'4CMZ'
p3282
(lp3283
(lp3284
I6338
aS'19'
p3285
aS'67'
p3286
aasS'3M2A'
p3287
(lp3288
(lp3289
I1596
aS'37'
p3290
aS'254'
p3291
aasS'1Y7N'
p3292
(lp3293
(lp3294
I6338
aS'20'
p3295
aS'86'
p3296
aasS'2VNZ'
p3297
(lp3298
(lp3299
I1596
aS'20'
p3300
aS'227'
p3301
aasS'1UH4'
p3302
(lp3303
(lp3304
I1172
aS'554'
p3305
aS'634'
p3306
aa(lp3307
I5151
aS'28'
p3308
aS'117'
p3309
aa(lp3310
I6428
aS'188'
p3311
aS'517'
p3312
aasS'2VNX'
p3313
(lp3314
(lp3315
I1596
aS'20'
p3316
aS'227'
p3317
aasS'3CZE'
p3318
(lp3319
(lp3320
I6428
aS'103'
p3321
aS'301'
p3322
aasS'2YTW'
p3323
(lp3324
(lp3325
I6338
aS'32'
p3326
aS'93'
p3327
aasS'1H5K'
p3328
(lp3329
(lp3330
I1596
aS'19'
p3331
aS'269'
p3332
aasS'3FM4'
p3333
(lp3334
(lp3335
I1596
aS'25'
p3336
aS'249'
p3337
aa(lp3338
I2581
aS'253'
p3339
aS'319'
p3340
aasS'1KXQ'
p3341
(lp3342
(lp3343
I2388
aS'11'
p3344
aS'118'
p3345
aa(lp3346
I5153
aS'410'
p3347
aS'492'
p3348
aa(lp3349
I6428
aS'72'
p3350
aS'306'
p3351
aasS'3WDJ'
p3352
(lp3353
(lp3354
I6428
aS'263'
p3355
aS'348'
p3356
aa(lp3357
I6428
aS'381'
p3358
aS'576'
p3359
aa(lp3360
I6841
aS'111'
p3361
aS'188'
p3362
aasS'3WDH'
p3363
(lp3364
(lp3365
I6428
aS'263'
p3366
aS'348'
p3367
aa(lp3368
I6428
aS'381'
p3369
aS'576'
p3370
aa(lp3371
I6841
aS'111'
p3372
aS'188'
p3373
aasS'3WDI'
p3374
(lp3375
(lp3376
I6428
aS'263'
p3377
aS'348'
p3378
aa(lp3379
I6428
aS'381'
p3380
aS'576'
p3381
aa(lp3382
I6841
aS'111'
p3383
aS'188'
p3384
aasS'1SBM'
p3385
(lp3386
(lp3387
I1596
aS'37'
p3388
aS'254'
p3389
aasS'1RYC'
p3390
(lp3391
(lp3392
I1596
aS'37'
p3393
aS'254'
p3394
aasS'2FN5'
p3395
(lp3396
(lp3397
I6338
aS'9'
aS'91'
p3398
aasS'1FHF'
p3399
(lp3400
(lp3401
I1596
aS'27'
p3402
aS'266'
p3403
aasS'3Q3U'
p3404
(lp3405
(lp3406
I1596
aS'38'
p3407
aS'254'
p3408
aa(lp3409
I2581
aS'259'
p3410
aS'336'
p3411
aasS'4GVC'
p3412
(lp3413
(lp3414
I6338
aS'854'
p3415
aS'920'
p3416
aasS'2M10'
p3417
(lp3418
(lp3419
I6338
aS'10'
p3420
aS'90'
p3421
aasS'2ENO'
p3422
(lp3423
(lp3424
I6338
aS'21'
p3425
aS'104'
p3426
aasS'1VA8'
p3427
(lp3428
(lp3429
I6338
aS'29'
p3430
aS'103'
p3431
aasS'2WCS'
p3432
(lp3433
(lp3434
I1172
aS'404'
p3435
aS'483'
p3436
aa(lp3437
I6428
aS'53'
p3438
aS'367'
p3439
aasS'3HJE'
p3440
(lp3441
(lp3442
I4557
aS'642'
p3443
aS'704'
p3444
aa(lp3445
I6428
aS'17'
p3446
aS'331'
p3447
aasS'1JAE'
p3448
(lp3449
(lp3450
I5153
aS'386'
p3451
aS'467'
p3452
aa(lp3453
I6428
aS'66'
p3454
aS'312'
p3455
aasS'1U74'
p3456
(lp3457
(lp3458
I1596
aS'37'
p3459
aS'254'
p3460
aa(lp3461
I5098
aS'8'
aS'105'
p3462
aasS'4NMT'
p3463
(lp3464
(lp3465
I6338
aS'290'
p3466
aS'367'
p3467
aasS'3WMS'
p3468
(lp3469
(lp3470
I3612
aS'531'
p3471
aS'606'
p3472
aa(lp3473
I6428
aS'83'
p3474
aS'404'
p3475
aa(lp3476
I6582
aS'618'
p3477
aS'712'
p3478
aasS'4NMV'
p3479
(lp3480
(lp3481
I6338
aS'290'
p3482
aS'367'
p3483
aasS'4NMQ'
p3484
(lp3485
(lp3486
I6338
aS'290'
p3487
aS'367'
p3488
aasS'2WD4'
p3489
(lp3490
(lp3491
I1596
aS'20'
p3492
aS'227'
p3493
aasS'1MKQ'
p3494
(lp3495
(lp3496
I1596
aS'37'
p3497
aS'254'
p3498
aasS'4NMR'
p3499
(lp3500
(lp3501
I6338
aS'290'
p3502
aS'367'
p3503
aasS'1U2L'
p3504
(lp3505
(lp3506
I1596
aS'434'
p3507
aS'700'
p3508
aasS'1MFL'
p3509
(lp3510
(lp3511
I6338
aS'1287'
p3512
aS'1365'
p3513
aasS'4BM3'
p3514
(lp3515
(lp3516
I1596
aS'25'
p3517
aS'255'
p3518
aa(lp3519
I2581
aS'261'
p3520
aS'337'
p3521
aasS'1U2J'
p3522
(lp3523
(lp3524
I1596
aS'432'
p3525
aS'700'
p3526
aasS'1U2K'
p3527
(lp3528
(lp3529
I1596
aS'435'
p3530
aS'700'
p3531
aasS'1QLC'
p3532
(lp3533
(lp3534
I6338
aS'161'
p3535
aS'243'
p3536
aasS'2BXY'
p3537
(lp3538
(lp3539
I3131
aS'513'
p3540
aS'600'
p3541
aa(lp3542
I6428
aS'147'
p3543
aS'228'
p3544
aa(lp3545
I6841
aS'25'
p3546
aS'86'
p3547
aasS'2BXZ'
p3548
(lp3549
(lp3550
I3131
aS'513'
p3551
aS'600'
p3552
aa(lp3553
I6428
aS'147'
p3554
aS'228'
p3555
aa(lp3556
I6841
aS'25'
p3557
aS'86'
p3558
aasS'1GVI'
p3559
(lp3560
(lp3561
I1172
aS'506'
p3562
aS'581'
p3563
aa(lp3564
I5151
aS'1'
aS'121'
p3565
aa(lp3566
I6428
aS'173'
p3567
aS'469'
p3568
aasS'1UKQ'
p3569
(lp3570
(lp3571
I3612
aS'499'
p3572
aS'569'
p3573
aa(lp3574
I5153
aS'413'
p3575
aS'492'
p3576
aa(lp3577
I6428
aS'52'
p3578
aS'372'
p3579
aa(lp3580
I6582
aS'586'
p3581
aS'680'
p3582
aasS'1RPK'
p3583
(lp3584
(lp3585
I6428
aS'26'
p3586
aS'187'
p3587
aa(lp3588
I6755
aS'345'
p3589
aS'403'
p3590
aasS'4NMO'
p3591
(lp3592
(lp3593
I6338
aS'290'
p3594
aS'367'
p3595
aasS'4P0C'
p3596
(lp3597
(lp3598
I6338
aS'15'
p3599
aS'87'
p3600
aasS'3QJN'
p3601
(lp3602
(lp3603
I6338
aS'665'
p3604
aS'753'
p3605
aasS'2EAQ'
p3606
(lp3607
(lp3608
I6338
aS'1054'
p3609
aS'1100'
p3610
aasS'4Q6H'
p3611
(lp3612
(lp3613
I6338
aS'290'
p3614
aS'367'
p3615
aasS'4JOF'
p3616
(lp3617
(lp3618
I6338
aS'290'
p3619
aS'367'
p3620
aasS'1IZK'
p3621
(lp3622
(lp3623
I1172
aS'554'
p3624
aS'634'
p3625
aa(lp3626
I5151
aS'28'
p3627
aS'117'
p3628
aa(lp3629
I6428
aS'188'
p3630
aS'517'
p3631
aasS'1RP9'
p3632
(lp3633
(lp3634
I6428
aS'26'
p3635
aS'183'
p3636
aa(lp3637
I6755
aS'345'
p3638
aS'403'
p3639
aasS'1RP8'
p3640
(lp3641
(lp3642
I6428
aS'26'
p3643
aS'183'
p3644
aa(lp3645
I6755
aS'345'
p3646
aS'403'
p3647
aasS'3BMV'
p3648
(lp3649
(lp3650
I3612
aS'499'
p3651
aS'571'
p3652
aa(lp3653
I6428
aS'52'
p3654
aS'372'
p3655
aa(lp3656
I6582
aS'584'
p3657
aS'677'
p3658
aasS'3BMW'
p3659
(lp3660
(lp3661
I3612
aS'499'
p3662
aS'571'
p3663
aa(lp3664
I6428
aS'52'
p3665
aS'372'
p3666
aa(lp3667
I6582
aS'584'
p3668
aS'677'
p3669
aasS'4BLN'
p3670
(lp3671
(lp3672
I1596
aS'26'
p3673
aS'250'
p3674
aa(lp3675
I2581
aS'254'
p3676
aS'330'
p3677
aasS'4BLL'
p3678
(lp3679
(lp3680
I1596
aS'26'
p3681
aS'250'
p3682
aa(lp3683
I2581
aS'254'
p3684
aS'319'
p3685
aasS'4BLK'
p3686
(lp3687
(lp3688
I1596
aS'26'
p3689
aS'250'
p3690
aa(lp3691
I2581
aS'254'
p3692
aS'330'
p3693
aasS'1CCE'
p3694
(lp3695
(lp3696
I1596
aS'37'
p3697
aS'254'
p3698
aasS'1CCP'
p3699
(lp3700
(lp3701
I1596
aS'37'
p3702
aS'254'
p3703
aasS'3O46'
p3704
(lp3705
(lp3706
I6338
aS'141'
p3707
aS'216'
p3708
aasS'1KBK'
p3709
(lp3710
(lp3711
I5153
aS'409'
p3712
aS'492'
p3713
aa(lp3714
I6428
aS'71'
p3715
aS'308'
p3716
aasS'2F5Y'
p3717
(lp3718
(lp3719
I6338
aS'18'
p3720
aS'91'
p3721
aasS'1D5G'
p3722
(lp3723
(lp3724
I6338
aS'9'
aS'89'
p3725
aasS'1WHA'
p3726
(lp3727
(lp3728
I6338
aS'16'
p3729
aS'94'
p3730
aasS'1J0K'
p3731
(lp3732
(lp3733
I1172
aS'506'
p3734
aS'581'
p3735
aa(lp3736
I5151
aS'1'
aS'121'
p3737
aa(lp3738
I6428
aS'173'
p3739
aS'469'
p3740
aasS'1KBB'
p3741
(lp3742
(lp3743
I5153
aS'409'
p3744
aS'492'
p3745
aa(lp3746
I6428
aS'71'
p3747
aS'304'
p3748
aasS'2BOQ'
p3749
(lp3750
(lp3751
I1596
aS'25'
p3752
aS'249'
p3753
aa(lp3754
I2581
aS'253'
p3755
aS'319'
p3756
aasS'1E3X'
p3757
(lp3758
(lp3759
I4298
aS'436'
p3760
aS'480'
p3761
aa(lp3762
I6428
aS'29'
p3763
aS'372'
p3764
aasS'4BLZ'
p3765
(lp3766
(lp3767
I1596
aS'26'
p3768
aS'250'
p3769
aa(lp3770
I2581
aS'254'
p3771
aS'330'
p3772
aasS'4BLX'
p3773
(lp3774
(lp3775
I1596
aS'26'
p3776
aS'250'
p3777
aa(lp3778
I2581
aS'254'
p3779
aS'330'
p3780
aasS'4BLY'
p3781
(lp3782
(lp3783
I1596
aS'26'
p3784
aS'250'
p3785
aa(lp3786
I2581
aS'254'
p3787
aS'330'
p3788
aasS'2CSJ'
p3789
(lp3790
(lp3791
I6338
aS'18'
p3792
aS'96'
p3793
aasS'1VAH'
p3794
(lp3795
(lp3796
I5153
aS'410'
p3797
aS'492'
p3798
aa(lp3799
I6428
aS'72'
p3800
aS'305'
p3801
aasS'3VLM'
p3802
(lp3803
(lp3804
I1596
aS'74'
p3805
aS'391'
p3806
aa(lp3807
I1596
aS'398'
p3808
aS'703'
p3809
aasS'3VLL'
p3810
(lp3811
(lp3812
I1596
aS'74'
p3813
aS'391'
p3814
aa(lp3815
I1596
aS'398'
p3816
aS'703'
p3817
aasS'3VLK'
p3818
(lp3819
(lp3820
I1596
aS'74'
p3821
aS'391'
p3822
aa(lp3823
I1596
aS'398'
p3824
aS'703'
p3825
aasS'3VLJ'
p3826
(lp3827
(lp3828
I1596
aS'74'
p3829
aS'391'
p3830
aa(lp3831
I1596
aS'399'
p3832
aS'703'
p3833
aasS'3VLI'
p3834
(lp3835
(lp3836
I1596
aS'74'
p3837
aS'391'
p3838
aa(lp3839
I1596
aS'399'
p3840
aS'703'
p3841
aasS'3VLH'
p3842
(lp3843
(lp3844
I1596
aS'74'
p3845
aS'391'
p3846
aa(lp3847
I1596
aS'399'
p3848
aS'703'
p3849
aasS'4JB4'
p3850
(lp3851
(lp3852
I1596
aS'37'
p3853
aS'254'
p3854
aasS'7TAA'
p3855
(lp3856
(lp3857
I1204
aS'386'
p3858
aS'475'
p3859
aa(lp3860
I6428
aS'40'
p3861
aS'341'
p3862
aasS'3RL7'
p3863
(lp3864
(lp3865
I6338
aS'224'
p3866
aS'307'
p3867
aasS'4JMW'
p3868
(lp3869
(lp3870
I1596
aS'37'
p3871
aS'252'
p3872
aasS'5BN7'
p3873
(lp3874
(lp3875
I6428
aS'177'
p3876
aS'493'
p3877
aasS'4HP5'
p3878
(lp3879
(lp3880
I1172
aS'527'
p3881
aS'593'
p3882
aa(lp3883
I6428
aS'70'
p3884
aS'416'
p3885
aasS'3RL8'
p3886
(lp3887
(lp3888
I6338
aS'320'
p3889
aS'402'
p3890
aasS'3VM7'
p3891
(lp3892
(lp3893
I1204
aS'407'
p3894
aS'490'
p3895
aa(lp3896
I6428
aS'61'
p3897
aS'360'
p3898
aasS'1RY4'
p3899
(lp3900
(lp3901
I6338
aS'164'
p3902
aS'249'
p3903
aasS'4AMH'
p3904
(lp3905
(lp3906
I6338
aS'12'
p3907
aS'88'
p3908
aasS'1YYG'
p3909
(lp3910
(lp3911
I1596
aS'25'
p3912
aS'260'
p3913
aa(lp3914
I2581
aS'264'
p3915
aS'342'
p3916
aasS'2KG2'
p3917
(lp3918
(lp3919
I6338
aS'20'
p3920
aS'109'
p3921
aasS'2VR5'
p3922
(lp3923
(lp3924
I6428
aS'206'
p3925
aS'370'
p3926
aa(lp3927
I6841
aS'19'
p3928
aS'110'
p3929
aasS'2X7Z'
p3930
(lp3931
(lp3932
I6338
aS'320'
p3933
aS'402'
p3934
aasS'1LWJ'
p3935
(lp3936
(lp3937
I943
aS'392'
p3938
aS'441'
p3939
aa(lp3940
I6428
aS'20'
p3941
aS'321'
p3942
aasS'2E3B'
p3943
(lp3944
(lp3945
I1596
aS'45'
p3946
aS'264'
p3947
aa(lp3948
I2581
aS'269'
p3949
aS'344'
p3950
aasS'1LWH'
p3951
(lp3952
(lp3953
I943
aS'392'
p3954
aS'441'
p3955
aa(lp3956
I6428
aS'20'
p3957
aS'321'
p3958
aasS'2YUB'
p3959
(lp3960
(lp3961
I6338
aS'19'
p3962
aS'102'
p3963
aasS'2JIK'
p3964
(lp3965
(lp3966
I6338
aS'14'
p3967
aS'97'
p3968
aasS'1I75'
p3969
(lp3970
(lp3971
I3612
aS'499'
p3972
aS'569'
p3973
aa(lp3974
I5153
aS'413'
p3975
aS'492'
p3976
aa(lp3977
I6428
aS'52'
p3978
aS'372'
p3979
aa(lp3980
I6582
aS'586'
p3981
aS'680'
p3982
aasS'2JIN'
p3983
(lp3984
(lp3985
I6338
aS'14'
p3986
aS'97'
p3987
aasS'2JIL'
p3988
(lp3989
(lp3990
I6338
aS'152'
p3991
aS'235'
p3992
aasS'2VKA'
p3993
(lp3994
(lp3995
I1596
aS'25'
p3996
aS'250'
p3997
aa(lp3998
I2581
aS'253'
p3999
aS'316'
p4000
aasS'4JPT'
p4001
(lp4002
(lp4003
I1596
aS'37'
p4004
aS'252'
p4005
aa(lp4006
I1596
aS'37'
p4007
aS'252'
p4008
aasS'4JPU'
p4009
(lp4010
(lp4011
I1596
aS'37'
p4012
aS'252'
p4013
aasS'2GZV'
p4014
(lp4015
(lp4016
I6338
aS'23'
p4017
aS'99'
p4018
aasS'4H2C'
p4019
(lp4020
(lp4021
I3131
aS'462'
p4022
aS'552'
p4023
aa(lp4024
I6428
aS'29'
p4025
aS'374'
p4026
aasS'1H55'
p4027
(lp4028
(lp4029
I1596
aS'19'
p4030
aS'269'
p4031
aasS'4BM0'
p4032
(lp4033
(lp4034
I1596
aS'26'
p4035
aS'250'
p4036
aa(lp4037
I2581
aS'254'
p4038
aS'330'
p4039
aasS'1GW2'
p4040
(lp4041
(lp4042
I1596
aS'19'
p4043
aS'269'
p4044
aasS'1CYG'
p4045
(lp4046
(lp4047
I3612
aS'495'
p4048
aS'573'
p4049
aa(lp4050
I5153
aS'409'
p4051
aS'486'
p4052
aa(lp4053
I6428
aS'49'
p4054
aS'368'
p4055
aa(lp4056
I6582
aS'579'
p4057
aS'672'
p4058
aasS'1CYF'
p4059
(lp4060
(lp4061
I1596
aS'37'
p4062
aS'254'
p4063
aasS'1V3J'
p4064
(lp4065
(lp4066
I3612
aS'499'
p4067
aS'569'
p4068
aa(lp4069
I5153
aS'413'
p4070
aS'492'
p4071
aa(lp4072
I6428
aS'52'
p4073
aS'372'
p4074
aa(lp4075
I6582
aS'586'
p4076
aS'680'
p4077
aasS'1CCB'
p4078
(lp4079
(lp4080
I1596
aS'37'
p4081
aS'254'
p4082
aasS'1V3L'
p4083
(lp4084
(lp4085
I3612
aS'499'
p4086
aS'569'
p4087
aa(lp4088
I3612
aS'499'
p4089
aS'569'
p4090
aa(lp4091
I5153
aS'413'
p4092
aS'492'
p4093
aa(lp4094
I5153
aS'413'
p4095
aS'492'
p4096
aa(lp4097
I6428
aS'52'
p4098
aS'372'
p4099
aa(lp4100
I6428
aS'52'
p4101
aS'372'
p4102
aa(lp4103
I6582
aS'586'
p4104
aS'680'
p4105
aa(lp4106
I6582
aS'586'
p4107
aS'680'
p4108
aasS'1V3M'
p4109
(lp4110
(lp4111
I3612
aS'499'
p4112
aS'569'
p4113
aa(lp4114
I5153
aS'413'
p4115
aS'492'
p4116
aa(lp4117
I6428
aS'52'
p4118
aS'372'
p4119
aa(lp4120
I6582
aS'586'
p4121
aS'680'
p4122
aasS'4JPL'
p4123
(lp4124
(lp4125
I1596
aS'37'
p4126
aS'252'
p4127
aasS'3UER'
p4128
(lp4129
(lp4130
I6428
aS'103'
p4131
aS'327'
p4132
aasS'1OZI'
p4133
(lp4134
(lp4135
I6338
aS'16'
p4136
aS'101'
p4137
aasS'1GQ5'
p4138
(lp4139
(lp4140
I6338
aS'18'
p4141
aS'90'
p4142
aasS'1GWO'
p4143
(lp4144
(lp4145
I1596
aS'19'
p4146
aS'269'
p4147
aasS'2DB5'
p4148
(lp4149
(lp4150
I6338
aS'29'
p4151
aS'111'
p4152
aasS'4GIA'
p4153
(lp4154
(lp4155
I3131
aS'462'
p4156
aS'552'
p4157
aa(lp4158
I6428
aS'29'
p4159
aS'374'
p4160
aasS'1GWU'
p4161
(lp4162
(lp4163
I1596
aS'19'
p4164
aS'269'
p4165
aasS'1GWT'
p4166
(lp4167
(lp4168
I1596
aS'19'
p4169
aS'269'
p4170
aasS'3IJ8'
p4171
(lp4172
(lp4173
I5153
aS'409'
p4174
aS'492'
p4175
aa(lp4176
I6428
aS'71'
p4177
aS'308'
p4178
aasS'3IJ9'
p4179
(lp4180
(lp4181
I5153
aS'409'
p4182
aS'492'
p4183
aa(lp4184
I6428
aS'71'
p4185
aS'308'
p4186
aasS'2IWN'
p4187
(lp4188
(lp4189
I6338
aS'378'
p4190
aS'459'
p4191
aasS'4GQQ'
p4192
(lp4193
(lp4194
I5153
aS'409'
p4195
aS'492'
p4196
aa(lp4197
I6428
aS'71'
p4198
aS'308'
p4199
aasS'4GQR'
p4200
(lp4201
(lp4202
I5153
aS'409'
p4203
aS'492'
p4204
aa(lp4205
I6428
aS'71'
p4206
aS'308'
p4207
aasS'2M0Z'
p4208
(lp4209
(lp4210
I6338
aS'10'
p4211
aS'90'
p4212
aasS'2K20'
p4213
(lp4214
(lp4215
I6338
aS'20'
p4216
aS'91'
p4217
aasS'3IJ7'
p4218
(lp4219
(lp4220
I5153
aS'409'
p4221
aS'492'
p4222
aa(lp4223
I6428
aS'71'
p4224
aS'308'
p4225
aasS'4A5G'
p4226
(lp4227
(lp4228
I1596
aS'20'
p4229
aS'269'
p4230
aasS'1BPL'
p4231
(lp4232
(lp4233
I4298
aS'436'
p4234
aS'480'
p4235
aa(lp4236
I6428
aS'31'
p4237
aS'175'
p4238
aa(lp4239
I6428
aS'195'
p4240
aS'372'
p4241
aasS'3X16'
p4242
(lp4243
(lp4244
I1596
aS'65'
p4245
aS'394'
p4246
aa(lp4247
I1596
aS'402'
p4248
aS'694'
p4249
aasS'2E7K'
p4250
(lp4251
(lp4252
I6338
aS'16'
p4253
aS'84'
p4254
aasS'1LLP'
p4255
(lp4256
(lp4257
I1596
aS'22'
p4258
aS'255'
p4259
aa(lp4260
I2581
aS'261'
p4261
aS'340'
p4262
aasS'4FCN'
p4263
(lp4264
(lp4265
I1596
aS'25'
p4266
aS'249'
p4267
aa(lp4268
I2581
aS'253'
p4269
aS'319'
p4270
aasS'4FCS'
p4271
(lp4272
(lp4273
I1596
aS'25'
p4274
aS'249'
p4275
aa(lp4276
I2581
aS'253'
p4277
aS'315'
p4278
aasS'2H3M'
p4279
(lp4280
(lp4281
I6338
aS'24'
p4282
aS'106'
p4283
aasS'1ZOK'
p4284
(lp4285
(lp4286
I6338
aS'224'
p4287
aS'307'
p4288
aasS'1CGU'
p4289
(lp4290
(lp4291
I3612
aS'498'
p4292
aS'577'
p4293
aa(lp4294
I5153
aS'413'
p4295
aS'491'
p4296
aa(lp4297
I6428
aS'52'
p4298
aS'372'
p4299
aa(lp4300
I6582
aS'584'
p4301
aS'680'
p4302
aasS'1CGT'
p4303
(lp4304
(lp4305
I3612
aS'498'
p4306
aS'577'
p4307
aa(lp4308
I5153
aS'413'
p4309
aS'491'
p4310
aa(lp4311
I6428
aS'52'
p4312
aS'372'
p4313
aa(lp4314
I6582
aS'584'
p4315
aS'680'
p4316
aasS'1CGW'
p4317
(lp4318
(lp4319
I3612
aS'499'
p4320
aS'569'
p4321
aa(lp4322
I5153
aS'413'
p4323
aS'491'
p4324
aa(lp4325
I6428
aS'52'
p4326
aS'372'
p4327
aa(lp4328
I6582
aS'586'
p4329
aS'679'
p4330
aasS'2GDV'
p4331
(lp4332
(lp4333
I1206
aS'435'
p4334
aS'501'
p4335
aa(lp4336
I6428
aS'35'
p4337
aS'220'
p4338
aasS'1CGY'
p4339
(lp4340
(lp4341
I3612
aS'499'
p4342
aS'569'
p4343
aa(lp4344
I5153
aS'413'
p4345
aS'491'
p4346
aa(lp4347
I6428
aS'52'
p4348
aS'372'
p4349
aa(lp4350
I6582
aS'586'
p4351
aS'679'
p4352
aasS'1CGX'
p4353
(lp4354
(lp4355
I3612
aS'499'
p4356
aS'569'
p4357
aa(lp4358
I5153
aS'413'
p4359
aS'491'
p4360
aa(lp4361
I6428
aS'52'
p4362
aS'372'
p4363
aa(lp4364
I6582
aS'586'
p4365
aS'679'
p4366
aasS'2UZC'
p4367
(lp4368
(lp4369
I6338
aS'10'
p4370
aS'82'
p4371
aasS'1MFU'
p4372
(lp4373
(lp4374
I5153
aS'404'
p4375
aS'487'
p4376
aa(lp4377
I6428
aS'72'
p4378
aS'309'
p4379
aasS'1MFV'
p4380
(lp4381
(lp4382
I5153
aS'409'
p4383
aS'492'
p4384
aa(lp4385
I6428
aS'72'
p4386
aS'308'
p4387
aasS'1BEJ'
p4388
(lp4389
(lp4390
I1596
aS'37'
p4391
aS'254'
p4392
aasS'1MKR'
p4393
(lp4394
(lp4395
I1596
aS'37'
p4396
aS'254'
p4397
aasS'2Z17'
p4398
(lp4399
(lp4400
I6338
aS'19'
p4401
aS'102'
p4402
aa(lp4403
I6338
aS'19'
p4404
aS'102'
p4405
aasS'1X45'
p4406
(lp4407
(lp4408
I6338
aS'9'
aS'91'
p4409
aasS'2VNC'
p4410
(lp4411
(lp4412
I6428
aS'206'
p4413
aS'370'
p4414
aa(lp4415
I6841
aS'19'
p4416
aS'110'
p4417
aasS'1KXT'
p4418
(lp4419
(lp4420
I2388
aS'11'
p4421
aS'111'
p4422
aa(lp4423
I5153
aS'410'
p4424
aS'492'
p4425
aa(lp4426
I6428
aS'72'
p4427
aS'306'
p4428
aasS'2I0I'
p4429
(lp4430
(lp4431
I6338
aS'466'
p4432
aS'541'
p4433
aasS'1APX'
p4434
(lp4435
(lp4436
I1596
aS'25'
p4437
aS'227'
p4438
aasS'1MFG'
p4439
(lp4440
(lp4441
I6338
aS'1287'
p4442
aS'1365'
p4443
aasS'1SDQ'
p4444
(lp4445
(lp4446
I1596
aS'37'
p4447
aS'254'
p4448
aasS'1KOK'
p4449
(lp4450
(lp4451
I1596
aS'37'
p4452
aS'254'
p4453
aasS'1UKT'
p4454
(lp4455
(lp4456
I3612
aS'499'
p4457
aS'569'
p4458
aa(lp4459
I5153
aS'413'
p4460
aS'492'
p4461
aa(lp4462
I6428
aS'52'
p4463
aS'372'
p4464
aa(lp4465
I6582
aS'586'
p4466
aS'680'
p4467
aasS'1UKS'
p4468
(lp4469
(lp4470
I3612
aS'499'
p4471
aS'569'
p4472
aa(lp4473
I5153
aS'413'
p4474
aS'492'
p4475
aa(lp4476
I6428
aS'52'
p4477
aS'372'
p4478
aa(lp4479
I6582
aS'586'
p4480
aS'680'
p4481
aasS'3WXO'
p4482
(lp4483
(lp4484
I1596
aS'65'
p4485
aS'394'
p4486
aa(lp4487
I1596
aS'402'
p4488
aS'694'
p4489
aasS'1BFE'
p4490
(lp4491
(lp4492
I6338
aS'314'
p4493
aS'389'
p4494
aasS'2MHO'
p4495
(lp4496
(lp4497
I6338
aS'9'
aS'93'
p4498
aasS'1V0H'
p4499
(lp4500
(lp4501
I1596
aS'20'
p4502
aS'227'
p4503
aasS'4Q2Q'
p4504
(lp4505
(lp4506
I6338
aS'427'
p4507
aS'498'
p4508
aasS'4Q2P'
p4509
(lp4510
(lp4511
I6338
aS'140'
p4512
aS'209'
p4513
aasS'2YLJ'
p4514
(lp4515
(lp4516
I1596
aS'19'
p4517
aS'269'
p4518
aasS'1GJW'
p4519
(lp4520
(lp4521
I640
aS'573'
p4522
aS'636'
p4523
aa(lp4524
I6428
aS'126'
p4525
aS'210'
p4526
aasS'1GJU'
p4527
(lp4528
(lp4529
I640
aS'573'
p4530
aS'636'
p4531
aa(lp4532
I6428
aS'126'
p4533
aS'210'
p4534
aasS'4Q2O'
p4535
(lp4536
(lp4537
I6338
aS'9'
aS'80'
p4538
aasS'1U39'
p4539
(lp4540
(lp4541
I6338
aS'89'
p4542
aS'155'
p4543
aasS'3BCD'
p4544
(lp4545
(lp4546
I4298
aS'535'
p4547
aS'595'
p4548
aa(lp4549
I6428
aS'159'
p4550
aS'481'
p4551
aasS'2AAA'
p4552
(lp4553
(lp4554
I1204
aS'387'
p4555
aS'475'
p4556
aa(lp4557
I6428
aS'40'
p4558
aS'340'
p4559
aasS'2EEH'
p4560
(lp4561
(lp4562
I6338
aS'14'
p4563
aS'90'
p4564
aasS'2EEI'
p4565
(lp4566
(lp4567
I6338
aS'16'
p4568
aS'85'
p4569
aasS'2EEJ'
p4570
(lp4571
(lp4572
I6338
aS'14'
p4573
aS'86'
p4574
aasS'4A6Z'
p4575
(lp4576
(lp4577
I1596
aS'37'
p4578
aS'254'
p4579
aasS'4U3C'
p4580
(lp4581
(lp4582
I6428
aS'263'
p4583
aS'364'
p4584
aa(lp4585
I7167
aS'16'
p4586
aS'226'
p4587
aasS'4M56'
p4588
(lp4589
(lp4590
I1172
aS'483'
p4591
aS'555'
p4592
aa(lp4593
I6428
aS'27'
p4594
aS'380'
p4595
aasS'2QG1'
p4596
(lp4597
(lp4598
I6338
aS'1728'
p4599
aS'1803'
p4600
aasS'1B0I'
p4601
(lp4602
(lp4603
I5153
aS'362'
p4604
aS'443'
p4605
aa(lp4606
I6428
aS'57'
p4607
aS'293'
p4608
aasS'3M8M'
p4609
(lp4610
(lp4611
I1596
aS'25'
p4612
aS'260'
p4613
aa(lp4614
I2581
aS'264'
p4615
aS'342'
p4616
aasS'2E9B'
p4617
(lp4618
(lp4619
I6428
aS'254'
p4620
aS'343'
p4621
aa(lp4622
I6428
aS'375'
p4623
aS'574'
p4624
aa(lp4625
I6841
aS'105'
p4626
aS'182'
p4627
aasS'4G69'
p4628
(lp4629
(lp4630
I6338
aS'320'
p4631
aS'402'
p4632
aasS'4A8C'
p4633
(lp4634
(lp4635
I4085
aS'65'
p4636
aS'201'
p4637
aa(lp4638
I6338
aS'346'
p4639
aS'416'
p4640
aa(lp4641
I7211
aS'258'
p4642
aS'331'
p4643
aasS'3BC9'
p4644
(lp4645
(lp4646
I4298
aS'535'
p4647
aS'595'
p4648
aa(lp4649
I6428
aS'159'
p4650
aS'481'
p4651
aasS'4A8D'
p4652
(lp4653
(lp4654
I4085
aS'88'
p4655
aS'224'
p4656
aa(lp4657
I6338
aS'261'
p4658
aS'341'
p4659
aa(lp4660
I6338
aS'367'
p4661
aS'437'
p4662
aa(lp4663
I6968
aS'6'
aS'346'
p4664
aasS'4U33'
p4665
(lp4666
(lp4667
I6428
aS'263'
p4668
aS'364'
p4669
aa(lp4670
I7167
aS'16'
p4671
aS'226'
p4672
aasS'1EO7'
p4673
(lp4674
(lp4675
I3612
aS'499'
p4676
aS'569'
p4677
aa(lp4678
I5153
aS'413'
p4679
aS'491'
p4680
aa(lp4681
I6428
aS'52'
p4682
aS'372'
p4683
aa(lp4684
I6582
aS'586'
p4685
aS'679'
p4686
aasS'1EO5'
p4687
(lp4688
(lp4689
I3612
aS'499'
p4690
aS'569'
p4691
aa(lp4692
I5153
aS'413'
p4693
aS'491'
p4694
aa(lp4695
I6428
aS'52'
p4696
aS'372'
p4697
aa(lp4698
I6582
aS'586'
p4699
aS'679'
p4700
aasS'2PKU'
p4701
(lp4702
(lp4703
I6338
aS'23'
p4704
aS'99'
p4705
aasS'2G5M'
p4706
(lp4707
(lp4708
I6338
aS'9'
aS'90'
p4709
aasS'3VGH'
p4710
(lp4711
(lp4712
I6428
aS'116'
p4713
aS'205'
p4714
aa(lp4715
I6428
aS'225'
p4716
aS'423'
p4717
aa(lp4718
I6501
aS'491'
p4719
aS'557'
p4720
aasS'3EXB'
p4721
(lp4722
(lp4723
I1596
aS'37'
p4724
aS'252'
p4725
aasS'1JDR'
p4726
(lp4727
(lp4728
I1596
aS'37'
p4729
aS'254'
p4730
aasS'2DJT'
p4731
(lp4732
(lp4733
I6338
aS'17'
p4734
aS'95'
p4735
aasS'2IA8'
p4736
(lp4737
(lp4738
I1596
aS'37'
p4739
aS'254'
p4740
aasS'1BF2'
p4741
(lp4742
(lp4743
I6428
aS'210'
p4744
aS'381'
p4745
aa(lp4746
I6841
aS'7'
aS'122'
p4747
aasS'3N3O'
p4748
(lp4749
(lp4750
I1596
aS'90'
p4751
aS'407'
p4752
aa(lp4753
I1596
aS'414'
p4754
aS'720'
p4755
aasS'2Z1K'
p4756
(lp4757
(lp4758
I1172
aS'402'
p4759
aS'470'
p4760
aa(lp4761
I6428
aS'47'
p4762
aS'360'
p4763
aasS'1M5Z'
p4764
(lp4765
(lp4766
I6338
aS'25'
p4767
aS'102'
p4768
aasS'1W4Y'
p4769
(lp4770
(lp4771
I1596
aS'19'
p4772
aS'269'
p4773
aasS'2WL7'
p4774
(lp4775
(lp4776
I6338
aS'100'
p4777
aS'183'
p4778
aasS'1TP3'
p4779
(lp4780
(lp4781
I6338
aS'314'
p4782
aS'389'
p4783
aasS'1W4W'
p4784
(lp4785
(lp4786
I1596
aS'19'
p4787
aS'269'
p4788
aa(lp4789
I1596
aS'19'
p4790
aS'269'
p4791
aasS'2AQD'
p4792
(lp4793
(lp4794
I1596
aS'37'
p4795
aS'254'
p4796
aasS'1TP5'
p4797
(lp4798
(lp4799
I6338
aS'314'
p4800
aS'389'
p4801
aasS'2XKX'
p4802
(lp4803
(lp4804
I729
aS'431'
p4805
aS'487'
p4806
aa(lp4807
I1620
aS'242'
p4808
aS'309'
p4809
aa(lp4810
I2762
aS'31'
p4811
aS'61'
p4812
aa(lp4813
I6338
aS'62'
p4814
aS'146'
p4815
aa(lp4816
I6338
aS'158'
p4817
aS'240'
p4818
aa(lp4819
I6338
aS'311'
p4820
aS'385'
p4821
aa(lp4822
I6498
aS'531'
p4823
aS'707'
p4824
aasS'1ITK'
p4825
(lp4826
(lp4827
I1596
aS'74'
p4828
aS'391'
p4829
aa(lp4830
I1596
aS'398'
p4831
aS'703'
p4832
aasS'1G9H'
p4833
(lp4834
(lp4835
I5153
aS'362'
p4836
aS'443'
p4837
aa(lp4838
I6428
aS'57'
p4839
aS'293'
p4840
aasS'1G9O'
p4841
(lp4842
(lp4843
I6338
aS'18'
p4844
aS'90'
p4845
aasS'3GGE'
p4846
(lp4847
(lp4848
I6338
aS'118'
p4849
aS'187'
p4850
aasS'3GBD'
p4851
(lp4852
(lp4853
I6428
aS'43'
p4854
aS'389'
p4855
aasS'3GBE'
p4856
(lp4857
(lp4858
I6428
aS'43'
p4859
aS'389'
p4860
aasS'4FDQ'
p4861
(lp4862
(lp4863
I1596
aS'25'
p4864
aS'249'
p4865
aa(lp4866
I2581
aS'253'
p4867
aS'315'
p4868
aasS'1WFV'
p4869
(lp4870
(lp4871
I6338
aS'15'
p4872
aS'92'
p4873
aasS'1UH2'
p4874
(lp4875
(lp4876
I1172
aS'554'
p4877
aS'634'
p4878
aa(lp4879
I5151
aS'28'
p4880
aS'117'
p4881
aa(lp4882
I6428
aS'188'
p4883
aS'517'
p4884
aasS'1DCC'
p4885
(lp4886
(lp4887
I1596
aS'37'
p4888
aS'254'
p4889
aasS'2GGN'
p4890
(lp4891
(lp4892
I1596
aS'20'
p4893
aS'227'
p4894
aasS'1XV8'
p4895
(lp4896
(lp4897
I5153
aS'409'
p4898
aS'492'
p4899
aa(lp4900
I6428
aS'72'
p4901
aS'308'
p4902
aasS'4AIE'
p4903
(lp4904
(lp4905
I3131
aS'450'
p4906
aS'533'
p4907
aa(lp4908
I6428
aS'27'
p4909
aS'361'
p4910
aasS'1WFG'
p4911
(lp4912
(lp4913
I6338
aS'43'
p4914
aS'123'
p4915
aasS'3WN6'
p4916
(lp4917
(lp4918
I6428
aS'50'
p4919
aS'224'
p4920
aa(lp4921
I6755
aS'368'
p4922
aS'426'
p4923
aasS'1CDG'
p4924
(lp4925
(lp4926
I3612
aS'499'
p4927
aS'569'
p4928
aa(lp4929
I5153
aS'413'
p4930
aS'491'
p4931
aa(lp4932
I6428
aS'52'
p4933
aS'372'
p4934
aa(lp4935
I6582
aS'586'
p4936
aS'679'
p4937
aasS'2DAZ'
p4938
(lp4939
(lp4940
I6338
aS'30'
p4941
aS'106'
p4942
aasS'2PKT'
p4943
(lp4944
(lp4945
I6338
aS'5'
aS'81'
p4946
aasS'4OAJ'
p4947
(lp4948
(lp4949
I6338
aS'320'
p4950
aS'402'
p4951
aasS'2D8I'
p4952
(lp4953
(lp4954
I6338
aS'27'
p4955
aS'92'
p4956
aasS'1JL8'
p4957
(lp4958
(lp4959
I1172
aS'503'
p4960
aS'579'
p4961
aa(lp4962
I5151
aS'1'
aS'117'
p4963
aa(lp4964
I6428
aS'170'
p4965
aS'466'
p4966
aasS'2I0L'
p4967
(lp4968
(lp4969
I6338
aS'319'
p4970
aS'399'
p4971
aasS'1BSI'
p4972
(lp4973
(lp4974
I5153
aS'409'
p4975
aS'492'
p4976
aa(lp4977
I6428
aS'71'
p4978
aS'308'
p4979
aasS'1AC4'
p4980
(lp4981
(lp4982
I1596
aS'37'
p4983
aS'254'
p4984
aasS'3OU0'
p4985
(lp4986
(lp4987
I4085
aS'88'
p4988
aS'224'
p4989
aa(lp4990
I6338
aS'261'
p4991
aS'341'
p4992
aa(lp4993
I6338
aS'367'
p4994
aS'437'
p4995
aasS'1UD5'
p4996
(lp4997
(lp4998
I4298
aS'432'
p4999
aS'477'
p5000
aa(lp5001
I6428
aS'32'
p5002
aS'373'
p5003
aasS'3R98'
p5004
(lp5005
(lp5006
I1596
aS'37'
p5007
aS'254'
p5008
aasS'3R99'
p5009
(lp5010
(lp5011
I1596
aS'37'
p5012
aS'254'
p5013
aasS'1ZJA'
p5014
(lp5015
(lp5016
I3131
aS'462'
p5017
aS'552'
p5018
aa(lp5019
I6428
aS'29'
p5020
aS'374'
p5021
aasS'3DHP'
p5022
(lp5023
(lp5024
I5153
aS'409'
p5025
aS'492'
p5026
aa(lp5027
I6428
aS'72'
p5028
aS'309'
p5029
aasS'6ATJ'
p5030
(lp5031
(lp5032
I1596
aS'19'
p5033
aS'269'
p5034
aasS'1AQM'
p5035
(lp5036
(lp5037
I5153
aS'362'
p5038
aS'443'
p5039
aa(lp5040
I6428
aS'57'
p5041
aS'293'
p5042
aasS'3ZRT'
p5043
(lp5044
(lp5045
I6338
aS'7'
aS'91'
p5046
aa(lp5047
I6338
aS'103'
p5048
aS'185'
p5049
aasS'3CPU'
p5050
(lp5051
(lp5052
I5153
aS'409'
p5053
aS'492'
p5054
aa(lp5055
I6428
aS'71'
p5056
aS'304'
p5057
aasS'4K6Y'
p5058
(lp5059
(lp5060
I6338
aS'290'
p5061
aS'367'
p5062
aasS'1BEK'
p5063
(lp5064
(lp5065
I1596
aS'37'
p5066
aS'254'
p5067
aasS'1WHD'
p5068
(lp5069
(lp5070
I6338
aS'19'
p5071
aS'91'
p5072
aasS'3QE1'
p5073
(lp5074
(lp5075
I6338
aS'43'
p5076
aS'130'
p5077
aasS'1VJS'
p5078
(lp5079
(lp5080
I4298
aS'436'
p5081
aS'480'
p5082
aa(lp5083
I6428
aS'31'
p5084
aS'372'
p5085
aasS'2DV1'
p5086
(lp5087
(lp5088
I1596
aS'90'
p5089
aS'407'
p5090
aa(lp5091
I1596
aS'414'
p5092
aS'720'
p5093
aasS'2DV2'
p5094
(lp5095
(lp5096
I1596
aS'90'
p5097
aS'407'
p5098
aa(lp5099
I1596
aS'414'
p5100
aS'720'
p5101
aasS'1UH3'
p5102
(lp5103
(lp5104
I1172
aS'554'
p5105
aS'634'
p5106
aa(lp5107
I5151
aS'28'
p5108
aS'117'
p5109
aa(lp5110
I6428
aS'188'
p5111
aS'517'
p5112
aasS'2VO2'
p5113
(lp5114
(lp5115
I1596
aS'20'
p5116
aS'227'
p5117
aasS'2CPU'
p5118
(lp5119
(lp5120
I5153
aS'409'
p5121
aS'492'
p5122
aa(lp5123
I6428
aS'71'
p5124
aS'304'
p5125
aasS'4P2A'
p5126
(lp5127
(lp5128
I5574
aS'9'
aS'283'
p5129
aa(lp5130
I6338
aS'45'
p5131
aS'133'
p5132
aasS'4NNL'
p5133
(lp5134
(lp5135
I6338
aS'20'
p5136
aS'109'
p5137
aasS'4NNM'
p5138
(lp5139
(lp5140
I6338
aS'21'
p5141
aS'110'
p5142
aa(lp5143
I6338
aS'21'
p5144
aS'110'
p5145
aasS'1WF8'
p5146
(lp5147
(lp5148
I6338
aS'14'
p5149
aS'96'
p5150
aasS'3OLI'
p5151
(lp5152
(lp5153
I5153
aS'409'
p5154
aS'492'
p5155
aa(lp5156
I6428
aS'71'
p5157
aS'308'
p5158
aasS'1WF7'
p5159
(lp5160
(lp5161
I6338
aS'13'
p5162
aS'85'
p5163
aasS'1S6V'
p5164
(lp5165
(lp5166
I1596
aS'37'
p5167
aS'254'
p5168
aa(lp5169
I5098
aS'3'
aS'100'
p5170
aasS'2GHD'
p5171
(lp5172
(lp5173
I1596
aS'20'
p5174
aS'227'
p5175
aasS'1WG6'
p5176
(lp5177
(lp5178
I6338
aS'33'
p5179
aS'105'
p5180
aasS'1PJ9'
p5181
(lp5182
(lp5183
I3612
aS'499'
p5184
aS'569'
p5185
aa(lp5186
I5153
aS'413'
p5187
aS'491'
p5188
aa(lp5189
I6428
aS'52'
p5190
aS'372'
p5191
aa(lp5192
I6582
aS'586'
p5193
aS'679'
p5194
aasS'2GHC'
p5195
(lp5196
(lp5197
I1596
aS'20'
p5198
aS'227'
p5199
aasS'2DC2'
p5200
(lp5201
(lp5202
I6338
aS'14'
p5203
aS'91'
p5204
aasS'2JOA'
p5205
(lp5206
(lp5207
I6338
aS'402'
p5208
aS'455'
p5209
aasS'3VX1'
p5210
(lp5211
(lp5212
I1204
aS'386'
p5213
aS'475'
p5214
aa(lp5215
I6428
aS'40'
p5216
aS'341'
p5217
aasS'2GHK'
p5218
(lp5219
(lp5220
I1596
aS'20'
p5221
aS'227'
p5222
aa(lp5223
I1596
aS'20'
p5224
aS'227'
p5225
aasS'3R0H'
p5226
(lp5227
(lp5228
I6338
aS'491'
p5229
aS'572'
p5230
aa(lp5231
I6338
aS'585'
p5232
aS'660'
p5233
aasS'4H8H'
p5234
(lp5235
(lp5236
I3131
aS'462'
p5237
aS'552'
p5238
aa(lp5239
I6428
aS'29'
p5240
aS'374'
p5241
aasS'1DED'
p5242
(lp5243
(lp5244
I3612
aS'499'
p5245
aS'569'
p5246
aa(lp5247
I5153
aS'413'
p5248
aS'492'
p5249
aa(lp5250
I6428
aS'52'
p5251
aS'372'
p5252
aa(lp5253
I6582
aS'586'
p5254
aS'680'
p5255
aasS'3BLP'
p5256
(lp5257
(lp5258
I5153
aS'409'
p5259
aS'492'
p5260
aa(lp5261
I6428
aS'72'
p5262
aS'308'
p5263
aasS'4LQ1'
p5264
(lp5265
(lp5266
I5153
aS'628'
p5267
aS'725'
p5268
aa(lp5269
I6428
aS'273'
p5270
aS'343'
p5271
aa(lp5272
I6841
aS'125'
p5273
aS'207'
p5274
aasS'1W9Q'
p5275
(lp5276
(lp5277
I6338
aS'115'
p5278
aS'191'
p5279
aa(lp5280
I6338
aS'214'
p5281
aS'270'
p5282
aasS'4PQW'
p5283
(lp5284
(lp5285
I6338
aS'18'
p5286
aS'90'
p5287
aasS'4JM9'
p5288
(lp5289
(lp5290
I1596
aS'37'
p5291
aS'252'
p5292
aasS'4JM8'
p5293
(lp5294
(lp5295
I1596
aS'37'
p5296
aS'252'
p5297
aasS'1W9O'
p5298
(lp5299
(lp5300
I6338
aS'115'
p5301
aS'191'
p5302
aa(lp5303
I6338
aS'214'
p5304
aS'270'
p5305
aasS'3K1D'
p5306
(lp5307
(lp5308
I5153
aS'633'
p5309
aS'730'
p5310
aa(lp5311
I6428
aS'280'
p5312
aS'348'
p5313
aa(lp5314
I6841
aS'130'
p5315
aS'216'
p5316
aasS'2D90'
p5317
(lp5318
(lp5319
I6338
aS'11'
p5320
aS'86'
p5321
aasS'3BLK'
p5322
(lp5323
(lp5324
I5153
aS'409'
p5325
aS'492'
p5326
aa(lp5327
I6428
aS'72'
p5328
aS'309'
p5329
aasS'3ATJ'
p5330
(lp5331
(lp5332
I1596
aS'19'
p5333
aS'269'
p5334
aasS'2WKG'
p5335
(lp5336
(lp5337
I1172
aS'404'
p5338
aS'483'
p5339
aa(lp5340
I6428
aS'53'
p5341
aS'367'
p5342
aasS'4JM5'
p5343
(lp5344
(lp5345
I1596
aS'37'
p5346
aS'252'
p5347
aasS'1V62'
p5348
(lp5349
(lp5350
I6338
aS'21'
p5351
aS'99'
p5352
aasS'1W9E'
p5353
(lp5354
(lp5355
I6338
aS'115'
p5356
aS'191'
p5357
aa(lp5358
I6338
aS'214'
p5359
aS'270'
p5360
aasS'4JM6'
p5361
(lp5362
(lp5363
I1596
aS'37'
p5364
aS'252'
p5365
aasS'3CS0'
p5366
(lp5367
(lp5368
I4085
aS'88'
p5369
aS'224'
p5370
aa(lp5371
I6338
aS'261'
p5372
aS'341'
p5373
aa(lp5374
I6338
aS'367'
p5375
aS'437'
p5376
aasS'2R4H'
p5377
(lp5378
(lp5379
I6338
aS'6'
aS'81'
p5380
aasS'1P1D'
p5381
(lp5382
(lp5383
I6338
aS'31'
p5384
aS'112'
p5385
aa(lp5386
I6338
aS'129'
p5387
aS'209'
p5388
aasS'1KCL'
p5389
(lp5390
(lp5391
I3612
aS'499'
p5392
aS'569'
p5393
aa(lp5394
I5153
aS'413'
p5395
aS'491'
p5396
aa(lp5397
I6428
aS'52'
p5398
aS'372'
p5399
aa(lp5400
I6582
aS'586'
p5401
aS'679'
p5402
aasS'1QO4'
p5403
(lp5404
(lp5405
I1596
aS'18'
p5406
aS'267'
p5407
aasS'4E3B'
p5408
(lp5409
(lp5410
I6338
aS'21'
p5411
aS'110'
p5412
aasS'1PA2'
p5413
(lp5414
(lp5415
I1596
aS'18'
p5416
aS'267'
p5417
aasS'2M0V'
p5418
(lp5419
(lp5420
I6338
aS'156'
p5421
aS'230'
p5422
aa(lp5423
I7010
aS'235'
p5424
aS'269'
p5425
aasS'2M0U'
p5426
(lp5427
(lp5428
I6338
aS'18'
p5429
aS'90'
p5430
aasS'2M0T'
p5431
(lp5432
(lp5433
I6338
aS'18'
p5434
aS'90'
p5435
aasS'3VGE'
p5436
(lp5437
(lp5438
I6428
aS'116'
p5439
aS'205'
p5440
aa(lp5441
I6428
aS'225'
p5442
aS'423'
p5443
aa(lp5444
I6501
aS'491'
p5445
aS'557'
p5446
aasS'1WZL'
p5447
(lp5448
(lp5449
I1172
aS'503'
p5450
aS'579'
p5451
aa(lp5452
I5151
aS'1'
aS'117'
p5453
aa(lp5454
I6428
aS'170'
p5455
aS'466'
p5456
aasS'1IV8'
p5457
(lp5458
(lp5459
I4557
aS'654'
p5460
aS'719'
p5461
aa(lp5462
I6428
aS'19'
p5463
aS'322'
p5464
aasS'2CEP'
p5465
(lp5466
(lp5467
I1596
aS'37'
p5468
aS'254'
p5469
aasS'2X07'
p5470
(lp5471
(lp5472
I1596
aS'38'
p5473
aS'254'
p5474
aasS'1WO2'
p5475
(lp5476
(lp5477
I5153
aS'410'
p5478
aS'492'
p5479
aa(lp5480
I6428
aS'72'
p5481
aS'306'
p5482
aasS'4XV7'
p5483
(lp5484
(lp5485
I1596
aS'37'
p5486
aS'252'
p5487
aasS'2DIJ'
p5488
(lp5489
(lp5490
I3612
aS'499'
p5491
aS'569'
p5492
aa(lp5493
I5153
aS'413'
p5494
aS'491'
p5495
aa(lp5496
I6428
aS'52'
p5497
aS'372'
p5498
aa(lp5499
I6582
aS'586'
p5500
aS'679'
p5501
aasS'1N7F'
p5502
(lp5503
(lp5504
I6338
aS'673'
p5505
aS'751'
p5506
aasS'1A2F'
p5507
(lp5508
(lp5509
I1596
aS'37'
p5510
aS'254'
p5511
aasS'1WIF'
p5512
(lp5513
(lp5514
I6338
aS'34'
p5515
aS'91'
p5516
aasS'2KQF'
p5517
(lp5518
(lp5519
I6338
aS'28'
p5520
aS'89'
p5521
aasS'4UZU'
p5522
(lp5523
(lp5524
I4298
aS'434'
p5525
aS'478'
p5526
aa(lp5527
I6428
aS'33'
p5528
aS'372'
p5529
aasS'1BJ9'
p5530
(lp5531
(lp5532
I1596
aS'37'
p5533
aS'254'
p5534
aasS'3ZOA'
p5535
(lp5536
(lp5537
I1172
aS'502'
p5538
aS'579'
p5539
aa(lp5540
I6428
aS'58'
p5541
aS'414'
p5542
aasS'4E34'
p5543
(lp5544
(lp5545
I6338
aS'290'
p5546
aS'367'
p5547
aasS'4Q6S'
p5548
(lp5549
(lp5550
I6338
aS'290'
p5551
aS'367'
p5552
aasS'3E17'
p5553
(lp5554
(lp5555
I6338
aS'9'
aS'78'
p5556
aasS'4NMP'
p5557
(lp5558
(lp5559
I6338
aS'290'
p5560
aS'367'
p5561
aasS'1A2G'
p5562
(lp5563
(lp5564
I1596
aS'37'
p5565
aS'254'
p5566
aasS'3K8L'
p5567
(lp5568
(lp5569
I6428
aS'80'
p5570
aS'190'
p5571
aa(lp5572
I6428
aS'337'
p5573
aS'542'
p5574
aasS'3K8M'
p5575
(lp5576
(lp5577
I6428
aS'80'
p5578
aS'190'
p5579
aa(lp5580
I6428
aS'337'
p5581
aS'542'
p5582
aasS'3K8K'
p5583
(lp5584
(lp5585
I6428
aS'80'
p5586
aS'190'
p5587
aa(lp5588
I6428
aS'337'
p5589
aS'542'
p5590
aasS'3HPK'
p5591
(lp5592
(lp5593
I6338
aS'23'
p5594
aS'99'
p5595
aasS'4JMA'
p5596
(lp5597
(lp5598
I1596
aS'37'
p5599
aS'252'
p5600
aasS'1PIG'
p5601
(lp5602
(lp5603
I5153
aS'410'
p5604
aS'492'
p5605
aa(lp5606
I6428
aS'72'
p5607
aS'306'
p5608
aasS'4JMB'
p5609
(lp5610
(lp5611
I1596
aS'37'
p5612
aS'252'
p5613
aasS'1V6B'
p5614
(lp5615
(lp5616
I6338
aS'26'
p5617
aS'91'
p5618
aasS'1P6W'
p5619
(lp5620
(lp5621
I6428
aS'26'
p5622
aS'187'
p5623
aa(lp5624
I6755
aS'345'
p5625
aS'403'
p5626
aasS'2GUY'
p5627
(lp5628
(lp5629
I1204
aS'386'
p5630
aS'475'
p5631
aa(lp5632
I6428
aS'40'
p5633
aS'341'
p5634
aasS'3EDD'
p5635
(lp5636
(lp5637
I1674
aS'9'
aS'94'
p5638
aa(lp5639
I1677
aS'519'
p5640
aS'594'
p5641
aa(lp5642
I6428
aS'145'
p5643
aS'459'
p5644
aasS'2YA1'
p5645
(lp5646
(lp5647
I518
aS'138'
p5648
aS'237'
p5649
aa(lp5650
I518
aS'245'
p5651
aS'346'
p5652
aa(lp5653
I6428
aS'613'
p5654
aS'719'
p5655
aa(lp5656
I6428
aS'750'
p5657
aS'950'
p5658
aa(lp5659
I6841
aS'450'
p5660
aS'539'
p5661
aasS'3EDF'
p5662
(lp5663
(lp5664
I1674
aS'9'
aS'94'
p5665
aa(lp5666
I1677
aS'519'
p5667
aS'594'
p5668
aa(lp5669
I6428
aS'145'
p5670
aS'459'
p5671
aasS'4BM2'
p5672
(lp5673
(lp5674
I1596
aS'25'
p5675
aS'255'
p5676
aa(lp5677
I2581
aS'261'
p5678
aS'337'
p5679
aasS'4BM4'
p5680
(lp5681
(lp5682
I1596
aS'25'
p5683
aS'255'
p5684
aa(lp5685
I2581
aS'261'
p5686
aS'337'
p5687
aasS'1KB3'
p5688
(lp5689
(lp5690
I5153
aS'409'
p5691
aS'492'
p5692
aa(lp5693
I6428
aS'71'
p5694
aS'308'
p5695
aasS'4JMS'
p5696
(lp5697
(lp5698
I1596
aS'37'
p5699
aS'252'
p5700
aasS'4JMT'
p5701
(lp5702
(lp5703
I1596
aS'37'
p5704
aS'252'
p5705
aasS'3EDJ'
p5706
(lp5707
(lp5708
I1674
aS'9'
aS'94'
p5709
aa(lp5710
I1677
aS'519'
p5711
aS'594'
p5712
aa(lp5713
I6428
aS'145'
p5714
aS'459'
p5715
aasS'3EDK'
p5716
(lp5717
(lp5718
I1674
aS'9'
aS'94'
p5719
aa(lp5720
I1677
aS'519'
p5721
aS'594'
p5722
aa(lp5723
I6428
aS'145'
p5724
aS'459'
p5725
aasS'2KOM'
p5726
(lp5727
(lp5728
I6338
aS'462'
p5729
aS'544'
p5730
aasS'2KOH'
p5731
(lp5732
(lp5733
I6338
aS'595'
p5734
aS'666'
p5735
aasS'2KOJ'
p5736
(lp5737
(lp5738
I6338
aS'462'
p5739
aS'544'
p5740
aasS'1UIT'
p5741
(lp5742
(lp5743
I6338
aS'23'
p5744
aS'96'
p5745
aasS'1L6O'
p5746
(lp5747
(lp5748
I6338
aS'255'
p5749
aS'333'
p5750
aasS'1U37'
p5751
(lp5752
(lp5753
I6338
aS'21'
p5754
aS'103'
p5755
aasS'2GHE'
p5756
(lp5757
(lp5758
I1596
aS'20'
p5759
aS'227'
p5760
aasS'1XD1'
p5761
(lp5762
(lp5763
I5153
aS'409'
p5764
aS'492'
p5765
aa(lp5766
I6428
aS'71'
p5767
aS'308'
p5768
aasS'1CK6'
p5769
(lp5770
(lp5771
I1596
aS'45'
p5772
aS'264'
p5773
aa(lp5774
I2581
aS'269'
p5775
aS'344'
p5776
aasS'1U33'
p5777
(lp5778
(lp5779
I5153
aS'409'
p5780
aS'492'
p5781
aa(lp5782
I6428
aS'71'
p5783
aS'308'
p5784
aasS'3ZCY'
p5785
(lp5786
(lp5787
I1596
aS'20'
p5788
aS'227'
p5789
aa(lp5790
I1596
aS'20'
p5791
aS'227'
p5792
aasS'1U30'
p5793
(lp5794
(lp5795
I5153
aS'409'
p5796
aS'492'
p5797
aa(lp5798
I6428
aS'71'
p5799
aS'308'
p5800
aasS'2BY3'
p5801
(lp5802
(lp5803
I3131
aS'513'
p5804
aS'600'
p5805
aa(lp5806
I6428
aS'147'
p5807
aS'228'
p5808
aa(lp5809
I6841
aS'25'
p5810
aS'86'
p5811
aasS'2BY2'
p5812
(lp5813
(lp5814
I3131
aS'513'
p5815
aS'600'
p5816
aa(lp5817
I6428
aS'147'
p5818
aS'228'
p5819
aa(lp5820
I6841
aS'25'
p5821
aS'86'
p5822
aasS'3OLD'
p5823
(lp5824
(lp5825
I5153
aS'409'
p5826
aS'492'
p5827
aa(lp5828
I6428
aS'71'
p5829
aS'308'
p5830
aasS'2BY0'
p5831
(lp5832
(lp5833
I3131
aS'513'
p5834
aS'600'
p5835
aa(lp5836
I6428
aS'147'
p5837
aS'228'
p5838
aa(lp5839
I6841
aS'25'
p5840
aS'86'
p5841
aasS'2YA0'
p5842
(lp5843
(lp5844
I6428
aS'158'
p5845
aS'264'
p5846
aa(lp5847
I6428
aS'295'
p5848
aS'495'
p5849
aa(lp5850
I6841
aS'-5'
p5851
aS'84'
p5852
aasS'1G5A'
p5853
(lp5854
(lp5855
I6428
aS'110'
p5856
aS'334'
p5857
aasS'1U38'
p5858
(lp5859
(lp5860
I6338
aS'21'
p5861
aS'103'
p5862
aasS'3UCQ'
p5863
(lp5864
(lp5865
I6428
aS'103'
p5866
aS'327'
p5867
aasS'1EH9'
p5868
(lp5869
(lp5870
I6428
aS'116'
p5871
aS'205'
p5872
aa(lp5873
I6428
aS'225'
p5874
aS'423'
p5875
aa(lp5876
I6501
aS'491'
p5877
aS'557'
p5878
aasS'1WP6'
p5879
(lp5880
(lp5881
I4298
aS'438'
p5882
aS'482'
p5883
aa(lp5884
I6428
aS'34'
p5885
aS'373'
p5886
aasS'1PDR'
p5887
(lp5888
(lp5889
I6338
aS'467'
p5890
aS'542'
p5891
aasS'2CL4'
p5892
(lp5893
(lp5894
I1596
aS'20'
p5895
aS'227'
p5896
aasS'3WKM'
p5897
(lp5898
(lp5899
I1690
aS'144'
p5900
aS'215'
p5901
aa(lp5902
I1690
aS'124'
p5903
aS'209'
p5904
aa(lp5905
I2388
aS'5'
aS'121'
p5906
aa(lp5907
I2388
aS'6'
aS'110'
p5908
aa(lp5909
I6338
aS'122'
p5910
aS'161'
p5911
aa(lp5912
I7211
aS'210'
p5913
aS'268'
p5914
aasS'3WKL'
p5915
(lp5916
(lp5917
I6338
aS'122'
p5918
aS'161'
p5919
aa(lp5920
I7211
aS'210'
p5921
aS'268'
p5922
aasS'2VSP'
p5923
(lp5924
(lp5925
I6338
aS'382'
p5926
aS'454'
p5927
aasS'4JMZ'
p5928
(lp5929
(lp5930
I1596
aS'37'
p5931
aS'252'
p5932
aasS'1UD6'
p5933
(lp5934
(lp5935
I4298
aS'432'
p5936
aS'477'
p5937
aa(lp5938
I6428
aS'32'
p5939
aS'373'
p5940
aasS'1UD4'
p5941
(lp5942
(lp5943
I4298
aS'432'
p5944
aS'477'
p5945
aa(lp5946
I6428
aS'32'
p5947
aS'373'
p5948
aasS'3EDE'
p5949
(lp5950
(lp5951
I1674
aS'9'
aS'94'
p5952
aa(lp5953
I1677
aS'519'
p5954
aS'594'
p5955
aa(lp5956
I6428
aS'145'
p5957
aS'459'
p5958
aasS'1UD2'
p5959
(lp5960
(lp5961
I4298
aS'432'
p5962
aS'477'
p5963
aa(lp5964
I6428
aS'32'
p5965
aS'373'
p5966
aasS'1UD3'
p5967
(lp5968
(lp5969
I4298
aS'432'
p5970
aS'477'
p5971
aa(lp5972
I6428
aS'32'
p5973
aS'373'
p5974
aasS'2KA9'
p5975
(lp5976
(lp5977
I6338
aS'5'
aS'89'
p5978
aa(lp5979
I6338
aS'101'
p5980
aS'183'
p5981
aasS'1MC7'
p5982
(lp5983
(lp5984
I6338
aS'2'
aS'85'
p5985
aasS'2B0Z'
p5986
(lp5987
(lp5988
I1596
aS'37'
p5989
aS'254'
p5990
aa(lp5991
I5098
aS'3'
aS'100'
p5992
aasS'1HT6'
p5993
(lp5994
(lp5995
I6428
aS'26'
p5996
aS'187'
p5997
aa(lp5998
I6755
aS'345'
p5999
aS'403'
p6000
aasS'1UD8'
p6001
(lp6002
(lp6003
I4298
aS'432'
p6004
aS'477'
p6005
aa(lp6006
I6428
aS'32'
p6007
aS'373'
p6008
aasS'4OEO'
p6009
(lp6010
(lp6011
I6338
aS'24'
p6012
aS'106'
p6013
aasS'1GX2'
p6014
(lp6015
(lp6016
I1596
aS'19'
p6017
aS'269'
p6018
aasS'4JCM'
p6019
(lp6020
(lp6021
I3612
aS'490'
p6022
aS'567'
p6023
aa(lp6024
I6428
aS'52'
p6025
aS'362'
p6026
aa(lp6027
I6582
aS'575'
p6028
aS'667'
p6029
aasS'4JCL'
p6030
(lp6031
(lp6032
I3612
aS'500'
p6033
aS'575'
p6034
aa(lp6035
I3612
aS'500'
p6036
aS'575'
p6037
aa(lp6038
I6428
aS'52'
p6039
aS'373'
p6040
aa(lp6041
I6428
aS'52'
p6042
aS'373'
p6043
aa(lp6044
I6582
aS'587'
p6045
aS'681'
p6046
aa(lp6047
I6582
aS'587'
p6048
aS'681'
p6049
aasS'4FEF'
p6050
(lp6051
(lp6052
I1596
aS'25'
p6053
aS'249'
p6054
aa(lp6055
I2581
aS'253'
p6056
aS'315'
p6057
aasS'2DH3'
p6058
(lp6059
(lp6060
I6428
aS'138'
p6061
aS'221'
p6062
aasS'1WPC'
p6063
(lp6064
(lp6065
I4298
aS'438'
p6066
aS'482'
p6067
aa(lp6068
I6428
aS'34'
p6069
aS'373'
p6070
aasS'1BAG'
p6071
(lp6072
(lp6073
I6428
aS'29'
p6074
aS'281'
p6075
aasS'1E43'
p6076
(lp6077
(lp6078
I4298
aS'436'
p6079
aS'480'
p6080
aa(lp6081
I6428
aS'29'
p6082
aS'372'
p6083
aasS'3BH4'
p6084
(lp6085
(lp6086
I4298
aS'437'
p6087
aS'481'
p6088
aa(lp6089
I6428
aS'30'
p6090
aS'373'
p6091
aasS'3QGV'
p6092
(lp6093
(lp6094
I4298
aS'364'
p6095
aS'430'
p6096
aa(lp6097
I6428
aS'30'
p6098
aS'295'
p6099
aasS'1DTU'
p6100
(lp6101
(lp6102
I3612
aS'499'
p6103
aS'569'
p6104
aa(lp6105
I5153
aS'413'
p6106
aS'491'
p6107
aa(lp6108
I6428
aS'52'
p6109
aS'372'
p6110
aa(lp6111
I6582
aS'586'
p6112
aS'679'
p6113
aasS'1U3B'
p6114
(lp6115
(lp6116
I6338
aS'21'
p6117
aS'103'
p6118
aa(lp6119
I6338
aS'117'
p6120
aS'183'
p6121
aasS'4NMS'
p6122
(lp6123
(lp6124
I6338
aS'290'
p6125
aS'367'
p6126
aasS'4HOW'
p6127
(lp6128
(lp6129
I1172
aS'527'
p6130
aS'593'
p6131
aa(lp6132
I6428
aS'70'
p6133
aS'416'
p6134
aasS'2HE2'
p6135
(lp6136
(lp6137
I6338
aS'422'
p6138
aS'497'
p6139
aasS'2BYG'
p6140
(lp6141
(lp6142
I6338
aS'194'
p6143
aS'276'
p6144
aasS'2HE4'
p6145
(lp6146
(lp6147
I6338
aS'154'
p6148
aS'227'
p6149
aasS'1U2Y'
p6150
(lp6151
(lp6152
I5153
aS'409'
p6153
aS'492'
p6154
aa(lp6155
I6428
aS'71'
p6156
aS'308'
p6157
aasS'1SJ2'
p6158
(lp6159
(lp6160
I1596
aS'91'
p6161
aS'397'
p6162
aa(lp6163
I1596
aS'406'
p6164
aS'713'
p6165
aasS'2RBZ'
p6166
(lp6167
(lp6168
I1596
aS'37'
p6169
aS'254'
p6170
aasS'2CS5'
p6171
(lp6172
(lp6173
I6338
aS'19'
p6174
aS'102'
p6175
aasS'2RBX'
p6176
(lp6177
(lp6178
I1596
aS'37'
p6179
aS'254'
p6180
aasS'2RBY'
p6181
(lp6182
(lp6183
I1596
aS'37'
p6184
aS'254'
p6185
aasS'2RBV'
p6186
(lp6187
(lp6188
I1596
aS'37'
p6189
aS'254'
p6190
aasS'2RBW'
p6191
(lp6192
(lp6193
I1596
aS'37'
p6194
aS'254'
p6195
aasS'2RBT'
p6196
(lp6197
(lp6198
I1596
aS'37'
p6199
aS'254'
p6200
aasS'3QJM'
p6201
(lp6202
(lp6203
I6338
aS'665'
p6204
aS'753'
p6205
aasS'2VZ5'
p6206
(lp6207
(lp6208
I6338
aS'20'
p6209
aS'109'
p6210
aasS'4CZQ'
p6211
(lp6212
(lp6213
I1596
aS'31'
p6214
aS'263'
p6215
aa(lp6216
I2581
aS'268'
p6217
aS'346'
p6218
aasS'4CZP'
p6219
(lp6220
(lp6221
I1596
aS'31'
p6222
aS'263'
p6223
aa(lp6224
I2581
aS'268'
p6225
aS'346'
p6226
aasS'1LYK'
p6227
(lp6228
(lp6229
I1596
aS'44'
p6230
aS'263'
p6231
aa(lp6232
I2581
aS'268'
p6233
aS'343'
p6234
aasS'5AL9'
p6235
(lp6236
(lp6237
I1596
aS'45'
p6238
aS'272'
p6239
aasS'4GKL'
p6240
(lp6241
(lp6242
I6428
aS'31'
p6243
aS'294'
p6244
aasS'7CCP'
p6245
(lp6246
(lp6247
I1596
aS'37'
p6248
aS'254'
p6249
aasS'2V2E'
p6250
(lp6251
(lp6252
I1596
aS'37'
p6253
aS'254'
p6254
aasS'1B85'
p6255
(lp6256
(lp6257
I1596
aS'24'
p6258
aS'256'
p6259
aa(lp6260
I2581
aS'261'
p6261
aS'340'
p6262
aasS'1B80'
p6263
(lp6264
(lp6265
I1596
aS'24'
p6266
aS'256'
p6267
aa(lp6268
I2581
aS'261'
p6269
aS'340'
p6270
aasS'5CJH'
p6271
(lp6272
(lp6273
I1596
aS'110'
p6274
aS'440'
p6275
aa(lp6276
I1596
aS'449'
p6277
aS'757'
p6278
aasS'3M07'
p6279
(lp6280
(lp6281
I3131
aS'501'
p6282
aS'585'
p6283
aa(lp6284
I6428
aS'130'
p6285
aS'210'
p6286
aasS'1SOG'
p6287
(lp6288
(lp6289
I1596
aS'37'
p6290
aS'254'
p6291
aasS'3O5N'
p6292
(lp6293
(lp6294
I6338
aS'648'
p6295
aS'735'
p6296
aasS'2IWP'
p6297
(lp6298
(lp6299
I6338
aS'1835'
p6300
aS'1916'
p6301
aasS'2E8Z'
p6302
(lp6303
(lp6304
I6428
aS'254'
p6305
aS'343'
p6306
aa(lp6307
I6428
aS'375'
p6308
aS'574'
p6309
aa(lp6310
I6841
aS'105'
p6311
aS'182'
p6312
aasS'2E8Y'
p6313
(lp6314
(lp6315
I6428
aS'254'
p6316
aS'343'
p6317
aa(lp6318
I6428
aS'375'
p6319
aS'574'
p6320
aa(lp6321
I6841
aS'105'
p6322
aS'182'
p6323
aasS'4CZN'
p6324
(lp6325
(lp6326
I1596
aS'31'
p6327
aS'263'
p6328
aa(lp6329
I2581
aS'268'
p6330
aS'346'
p6331
aasS'4NVD'
p6332
(lp6333
(lp6334
I1596
aS'37'
p6335
aS'252'
p6336
aasS'2DKR'
p6337
(lp6338
(lp6339
I6338
aS'9'
aS'87'
p6340
aasS'4NVF'
p6341
(lp6342
(lp6343
I1596
aS'37'
p6344
aS'252'
p6345
aasS'4NVG'
p6346
(lp6347
(lp6348
I1596
aS'37'
p6349
aS'252'
p6350
aasS'4NVA'
p6351
(lp6352
(lp6353
I1596
aS'37'
p6354
aS'252'
p6355
aasS'4NVB'
p6356
(lp6357
(lp6358
I1596
aS'37'
p6359
aS'252'
p6360
aasS'4NVC'
p6361
(lp6362
(lp6363
I1596
aS'37'
p6364
aS'252'
p6365
aasS'4NVL'
p6366
(lp6367
(lp6368
I1596
aS'37'
p6369
aS'252'
p6370
aasS'4NVM'
p6371
(lp6372
(lp6373
I1596
aS'37'
p6374
aS'252'
p6375
aasS'4NVN'
p6376
(lp6377
(lp6378
I1596
aS'37'
p6379
aS'252'
p6380
aasS'4NVO'
p6381
(lp6382
(lp6383
I1596
aS'37'
p6384
aS'252'
p6385
aasS'4NVH'
p6386
(lp6387
(lp6388
I1596
aS'37'
p6389
aS'252'
p6390
aasS'4NVI'
p6391
(lp6392
(lp6393
I1596
aS'37'
p6394
aS'252'
p6395
aasS'4NVJ'
p6396
(lp6397
(lp6398
I1596
aS'37'
p6399
aS'252'
p6400
aasS'4NVK'
p6401
(lp6402
(lp6403
I1596
aS'37'
p6404
aS'252'
p6405
aasS'3OLE'
p6406
(lp6407
(lp6408
I5153
aS'409'
p6409
aS'492'
p6410
aa(lp6411
I6428
aS'71'
p6412
aS'308'
p6413
aasS'3A4A'
p6414
(lp6415
(lp6416
I6428
aS'37'
p6417
aS'400'
p6418
aasS'2QT5'
p6419
(lp6420
(lp6421
I6338
aS'55'
p6422
aS'132'
p6423
aa(lp6424
I6338
aS'152'
p6425
aS'235'
p6426
aasS'3GJ9'
p6427
(lp6428
(lp6429
I6338
aS'20'
p6430
aS'109'
p6431
aasS'1CXH'
p6432
(lp6433
(lp6434
I3612
aS'499'
p6435
aS'569'
p6436
aa(lp6437
I5153
aS'413'
p6438
aS'491'
p6439
aa(lp6440
I6428
aS'52'
p6441
aS'372'
p6442
aa(lp6443
I6582
aS'586'
p6444
aS'679'
p6445
aasS'2V90'
p6446
(lp6447
(lp6448
I6338
aS'251'
p6449
aS'328'
p6450
aasS'1KGU'
p6451
(lp6452
(lp6453
I5153
aS'409'
p6454
aS'492'
p6455
aa(lp6456
I6428
aS'71'
p6457
aS'308'
p6458
aasS'2GB8'
p6459
(lp6460
(lp6461
I1596
aS'37'
p6462
aS'254'
p6463
aa(lp6464
I5098
aS'3'
aS'100'
p6465
aasS'1KGW'
p6466
(lp6467
(lp6468
I5153
aS'409'
p6469
aS'492'
p6470
aa(lp6471
I6428
aS'71'
p6472
aS'308'
p6473
aasS'4GI9'
p6474
(lp6475
(lp6476
I3131
aS'462'
p6477
aS'552'
p6478
aa(lp6479
I6428
aS'29'
p6480
aS'374'
p6481
aasS'4WLC'
p6482
(lp6483
(lp6484
I1172
aS'465'
p6485
aS'524'
p6486
aa(lp6487
I6428
aS'28'
p6488
aS'359'
p6489
aasS'1PIF'
p6490
(lp6491
(lp6492
I5153
aS'410'
p6493
aS'492'
p6494
aa(lp6495
I6428
aS'72'
p6496
aS'306'
p6497
aasS'3PDZ'
p6498
(lp6499
(lp6500
I6338
aS'9'
aS'89'
p6501
aasS'4HOP'
p6502
(lp6503
(lp6504
I6338
aS'82'
p6505
aS'160'
p6506
aa(lp6507
I6338
aS'18'
p6508
aS'94'
p6509
aasS'3A47'
p6510
(lp6511
(lp6512
I6428
aS'37'
p6513
aS'400'
p6514
aasS'3FAX'
p6515
(lp6516
(lp6517
I6428
aS'642'
p6518
aS'743'
p6519
aa(lp6520
I6428
aS'778'
p6521
aS'971'
p6522
aa(lp6523
I6841
aS'480'
p6524
aS'566'
p6525
aasS'2JXO'
p6526
(lp6527
(lp6528
I6338
aS'156'
p6529
aS'230'
p6530
aasS'1CXK'
p6531
(lp6532
(lp6533
I3612
aS'499'
p6534
aS'569'
p6535
aa(lp6536
I3612
aS'499'
p6537
aS'569'
p6538
aa(lp6539
I5153
aS'413'
p6540
aS'491'
p6541
aa(lp6542
I5153
aS'413'
p6543
aS'491'
p6544
aa(lp6545
I6428
aS'52'
p6546
aS'372'
p6547
aa(lp6548
I6428
aS'52'
p6549
aS'372'
p6550
aa(lp6551
I6582
aS'586'
p6552
aS'679'
p6553
aa(lp6554
I6582
aS'586'
p6555
aS'679'
p6556
aasS'2PA1'
p6557
(lp6558
(lp6559
I6338
aS'9'
aS'79'
p6560
aasS'7CGT'
p6561
(lp6562
(lp6563
I3612
aS'498'
p6564
aS'577'
p6565
aa(lp6566
I5153
aS'413'
p6567
aS'491'
p6568
aa(lp6569
I6428
aS'52'
p6570
aS'372'
p6571
aa(lp6572
I6582
aS'584'
p6573
aS'680'
p6574
aasS'1IYN'
p6575
(lp6576
(lp6577
I1596
aS'12'
p6578
aS'243'
p6579
aasS'4JN0'
p6580
(lp6581
(lp6582
I1596
aS'37'
p6583
aS'252'
p6584
aasS'3BPU'
p6585
(lp6586
(lp6587
I6338
aS'644'
p6588
aS'720'
p6589
aasS'1AC8'
p6590
(lp6591
(lp6592
I1596
aS'37'
p6593
aS'254'
p6594
aasS'2Y6A'
p6595
(lp6596
(lp6597
I1596
aS'20'
p6598
aS'227'
p6599
aasS'2Y6B'
p6600
(lp6601
(lp6602
I1596
aS'20'
p6603
aS'227'
p6604
aasS'1Z87'
p6605
(lp6606
(lp6607
I6338
aS'82'
p6608
aS'160'
p6609
aasS'1MK8'
p6610
(lp6611
(lp6612
I1596
aS'37'
p6613
aS'254'
p6614
aasS'4NXR'
p6615
(lp6616
(lp6617
I6338
aS'854'
p6618
aS'916'
p6619
aasS'1CXF'
p6620
(lp6621
(lp6622
I3612
aS'499'
p6623
aS'569'
p6624
aa(lp6625
I5153
aS'413'
p6626
aS'491'
p6627
aa(lp6628
I6428
aS'52'
p6629
aS'372'
p6630
aa(lp6631
I6582
aS'586'
p6632
aS'679'
p6633
aasS'4NXP'
p6634
(lp6635
(lp6636
I6338
aS'856'
p6637
aS'916'
p6638
aasS'4NXQ'
p6639
(lp6640
(lp6641
I6338
aS'854'
p6642
aS'916'
p6643
aasS'2RBU'
p6644
(lp6645
(lp6646
I1596
aS'37'
p6647
aS'254'
p6648
aasS'3ID2'
p6649
(lp6650
(lp6651
I6338
aS'225'
p6652
aS'277'
p6653
aasS'3ID3'
p6654
(lp6655
(lp6656
I6338
aS'225'
p6657
aS'277'
p6658
aasS'2K1Z'
p6659
(lp6660
(lp6661
I6338
aS'20'
p6662
aS'91'
p6663
aasS'4JQM'
p6664
(lp6665
(lp6666
I1596
aS'37'
p6667
aS'252'
p6668
aasS'1LY9'
p6669
(lp6670
(lp6671
I1596
aS'44'
p6672
aS'263'
p6673
aa(lp6674
I2581
aS'268'
p6675
aS'343'
p6676
aasS'4JQN'
p6677
(lp6678
(lp6679
I1596
aS'37'
p6680
aS'252'
p6681
aasS'1B8Q'
p6682
(lp6683
(lp6684
I6338
aS'12'
p6685
aS'88'
p6686
aasS'4JQK'
p6687
(lp6688
(lp6689
I1596
aS'37'
p6690
aS'252'
p6691
aasS'4JQJ'
p6692
(lp6693
(lp6694
I1596
aS'37'
p6695
aS'252'
p6696
aasS'1ARP'
p6697
(lp6698
(lp6699
I1596
aS'45'
p6700
aS'264'
p6701
aa(lp6702
I2581
aS'269'
p6703
aS'344'
p6704
aasS'2CSS'
p6705
(lp6706
(lp6707
I6338
aS'29'
p6708
aS'110'
p6709
aasS'2O2T'
p6710
(lp6711
(lp6712
I6338
aS'141'
p6713
aS'220'
p6714
aasS'1ARU'
p6715
(lp6716
(lp6717
I1596
aS'45'
p6718
aS'264'
p6719
aa(lp6720
I2581
aS'269'
p6721
aS'344'
p6722
aasS'1ARV'
p6723
(lp6724
(lp6725
I1596
aS'45'
p6726
aS'264'
p6727
aa(lp6728
I2581
aS'269'
p6729
aS'344'
p6730
aasS'1ARW'
p6731
(lp6732
(lp6733
I1596
aS'45'
p6734
aS'264'
p6735
aa(lp6736
I2581
aS'269'
p6737
aS'344'
p6738
aasS'2PWH'
p6739
(lp6740
(lp6741
I3131
aS'462'
p6742
aS'552'
p6743
aa(lp6744
I6428
aS'29'
p6745
aS'374'
p6746
aasS'4HOX'
p6747
(lp6748
(lp6749
I1172
aS'527'
p6750
aS'593'
p6751
aa(lp6752
I6428
aS'70'
p6753
aS'416'
p6754
aasS'4HOZ'
p6755
(lp6756
(lp6757
I1172
aS'527'
p6758
aS'593'
p6759
aa(lp6760
I6428
aS'70'
p6761
aS'416'
p6762
aasS'3MH6'
p6763
(lp6764
(lp6765
I4085
aS'88'
p6766
aS'224'
p6767
aa(lp6768
I6338
aS'261'
p6769
aS'341'
p6770
aa(lp6771
I6338
aS'367'
p6772
aS'437'
p6773
aasS'1UA7'
p6774
(lp6775
(lp6776
I6428
aS'29'
p6777
aS'281'
p6778
aasS'1W9X'
p6779
(lp6780
(lp6781
I4298
aS'438'
p6782
aS'482'
p6783
aa(lp6784
I6428
aS'36'
p6785
aS'374'
p6786
aasS'2PWF'
p6787
(lp6788
(lp6789
I3131
aS'462'
p6790
aS'552'
p6791
aa(lp6792
I6428
aS'29'
p6793
aS'374'
p6794
aasS'1UA3'
p6795
(lp6796
(lp6797
I5153
aS'410'
p6798
aS'492'
p6799
aa(lp6800
I6428
aS'72'
p6801
aS'306'
p6802
aasS'2PWD'
p6803
(lp6804
(lp6805
I3131
aS'462'
p6806
aS'552'
p6807
aa(lp6808
I6428
aS'29'
p6809
aS'374'
p6810
aasS'1JD9'
p6811
(lp6812
(lp6813
I5153
aS'362'
p6814
aS'443'
p6815
aa(lp6816
I6428
aS'57'
p6817
aS'293'
p6818
aasS'2LA8'
p6819
(lp6820
(lp6821
I6338
aS'6'
aS'81'
p6822
aasS'4CZR'
p6823
(lp6824
(lp6825
I1596
aS'31'
p6826
aS'263'
p6827
aa(lp6828
I2581
aS'268'
p6829
aS'346'
p6830
aasS'1JCI'
p6831
(lp6832
(lp6833
I1596
aS'37'
p6834
aS'254'
p6835
aasS'2ZE0'
p6836
(lp6837
(lp6838
I6428
aS'28'
p6839
aS'373'
p6840
aasS'4GVD'
p6841
(lp6842
(lp6843
I6338
aS'855'
p6844
aS'920'
p6845
aasS'1R7A'
p6846
(lp6847
(lp6848
I1206
aS'435'
p6849
aS'501'
p6850
aa(lp6851
I6428
aS'35'
p6852
aS'220'
p6853
aasS'4N6X'
p6854
(lp6855
(lp6856
I6338
aS'18'
p6857
aS'90'
p6858
aasS'1JD7'
p6859
(lp6860
(lp6861
I5153
aS'362'
p6862
aS'443'
p6863
aa(lp6864
I6428
aS'57'
p6865
aS'293'
p6866
aasS'1BE9'
p6867
(lp6868
(lp6869
I6338
aS'314'
p6870
aS'389'
p6871
aasS'2EGN'
p6872
(lp6873
(lp6874
I6338
aS'102'
p6875
aS'184'
p6876
aasS'2REY'
p6877
(lp6878
(lp6879
I6338
aS'268'
p6880
aS'346'
p6881
aasS'2EGO'
p6882
(lp6883
(lp6884
I6338
aS'102'
p6885
aS'184'
p6886
aasS'2KBS'
p6887
(lp6888
(lp6889
I6338
aS'17'
p6890
aS'87'
p6891
aasS'3WY4'
p6892
(lp6893
(lp6894
I1172
aS'465'
p6895
aS'532'
p6896
aa(lp6897
I6428
aS'30'
p6898
aS'378'
p6899
aasS'1QGJ'
p6900
(lp6901
(lp6902
I1596
aS'18'
p6903
aS'265'
p6904
aasS'2D2O'
p6905
(lp6906
(lp6907
I1172
aS'503'
p6908
aS'579'
p6909
aa(lp6910
I5151
aS'1'
aS'117'
p6911
aa(lp6912
I6428
aS'170'
p6913
aS'466'
p6914
aasS'2PWE'
p6915
(lp6916
(lp6917
I3131
aS'462'
p6918
aS'552'
p6919
aa(lp6920
I6428
aS'29'
p6921
aS'374'
p6922
aasS'3WY3'
p6923
(lp6924
(lp6925
I1172
aS'465'
p6926
aS'532'
p6927
aa(lp6928
I6428
aS'30'
p6929
aS'378'
p6930
aasS'3WY2'
p6931
(lp6932
(lp6933
I1172
aS'465'
p6934
aS'532'
p6935
aa(lp6936
I6428
aS'30'
p6937
aS'378'
p6938
aasS'4U31'
p6939
(lp6940
(lp6941
I6428
aS'237'
p6942
aS'336'
p6943
aa(lp6944
I7167
aS'19'
p6945
aS'206'
p6946
aasS'1ATJ'
p6947
(lp6948
(lp6949
I1596
aS'19'
p6950
aS'269'
p6951
aasS'4WYT'
p6952
(lp6953
(lp6954
I6338
aS'15'
p6955
aS'99'
p6956
aa(lp6957
I6338
aS'113'
p6958
aS'198'
p6959
aasS'4WYU'
p6960
(lp6961
(lp6962
I6338
aS'15'
p6963
aS'99'
p6964
aa(lp6965
I6338
aS'113'
p6966
aS'198'
p6967
aasS'1G1Y'
p6968
(lp6969
(lp6970
I1172
aS'503'
p6971
aS'579'
p6972
aa(lp6973
I5151
aS'1'
aS'117'
p6974
aa(lp6975
I6428
aS'170'
p6976
aS'466'
p6977
aasS'1OAG'
p6978
(lp6979
(lp6980
I1596
aS'20'
p6981
aS'227'
p6982
aasS'1OAF'
p6983
(lp6984
(lp6985
I1596
aS'20'
p6986
aS'227'
p6987
aasS'2PDZ'
p6988
(lp6989
(lp6990
I6338
aS'4'
aS'82'
p6991
aasS'1A47'
p6992
(lp6993
(lp6994
I3612
aS'499'
p6995
aS'571'
p6996
aa(lp6997
I6428
aS'52'
p6998
aS'372'
p6999
aa(lp7000
I6582
aS'584'
p7001
aS'677'
p7002
aasS'1LYC'
p7003
(lp7004
(lp7005
I1596
aS'44'
p7006
aS'263'
p7007
aa(lp7008
I2581
aS'268'
p7009
aS'343'
p7010
aasS'3SFJ'
p7011
(lp7012
(lp7013
I6338
aS'21'
p7014
aS'110'
p7015
aasS'1NTE'
p7016
(lp7017
(lp7018
I6338
aS'207'
p7019
aS'270'
p7020
aasS'2YA2'
p7021
(lp7022
(lp7023
I6428
aS'158'
p7024
aS'264'
p7025
aa(lp7026
I6428
aS'295'
p7027
aS'495'
p7028
aa(lp7029
I6841
aS'-5'
p7030
aS'84'
p7031
aasS'1E3Z'
p7032
(lp7033
(lp7034
I4298
aS'436'
p7035
aS'480'
p7036
aa(lp7037
I6428
aS'29'
p7038
aS'372'
p7039
aasS'2OCS'
p7040
(lp7041
(lp7042
I6338
aS'14'
p7043
aS'86'
p7044
aasS'5CCP'
p7045
(lp7046
(lp7047
I1596
aS'37'
p7048
aS'254'
p7049
aasS'4G05'
p7050
(lp7051
(lp7052
I1596
aS'25'
p7053
aS'249'
p7054
aa(lp7055
I2581
aS'253'
p7056
aS'316'
p7057
aasS'1X7U'
p7058
(lp7059
(lp7060
I1596
aS'90'
p7061
aS'407'
p7062
aa(lp7063
I1596
aS'414'
p7064
aS'720'
p7065
aasS'1YYD'
p7066
(lp7067
(lp7068
I1596
aS'25'
p7069
aS'260'
p7070
aa(lp7071
I1596
aS'25'
p7072
aS'260'
p7073
aa(lp7074
I2581
aS'264'
p7075
aS'342'
p7076
aa(lp7077
I2581
aS'264'
p7078
aS'342'
p7079
aasS'2Q9V'
p7080
(lp7081
(lp7082
I6338
aS'847'
p7083
aS'921'
p7084
aasS'1AQH'
p7085
(lp7086
(lp7087
I5153
aS'362'
p7088
aS'443'
p7089
aa(lp7090
I6428
aS'57'
p7091
aS'293'
p7092
aasS'1UHP'
p7093
(lp7094
(lp7095
I6338
aS'14'
p7096
aS'97'
p7097
aasS'1HSR'
p7098
(lp7099
(lp7100
I1596
aS'45'
p7101
aS'264'
p7102
aa(lp7103
I2581
aS'269'
p7104
aS'344'
p7105
aasS'2EDP'
p7106
(lp7107
(lp7108
I6338
aS'17'
p7109
aS'90'
p7110
aa(lp7111
I6338
aS'17'
p7112
aS'90'
p7113
aasS'2EDV'
p7114
(lp7115
(lp7116
I6338
aS'16'
p7117
aS'85'
p7118
aasS'4U2Y'
p7119
(lp7120
(lp7121
I6428
aS'237'
p7122
aS'336'
p7123
aa(lp7124
I7167
aS'19'
p7125
aS'206'
p7126
aasS'1JDA'
p7127
(lp7128
(lp7129
I641
aS'367'
p7130
aS'417'
p7131
aa(lp7132
I6428
aS'50'
p7133
aS'332'
p7134
aasS'2EDZ'
p7135
(lp7136
(lp7137
I6338
aS'18'
p7138
aS'94'
p7139
aasS'1JDC'
p7140
(lp7141
(lp7142
I641
aS'367'
p7143
aS'417'
p7144
aa(lp7145
I6428
aS'50'
p7146
aS'332'
p7147
aasS'1BEM'
p7148
(lp7149
(lp7150
I1596
aS'37'
p7151
aS'254'
p7152
aasS'3DC0'
p7153
(lp7154
(lp7155
I6428
aS'28'
p7156
aS'281'
p7157
aasS'1JDD'
p7158
(lp7159
(lp7160
I641
aS'367'
p7161
aS'417'
p7162
aa(lp7163
I6428
aS'50'
p7164
aS'332'
p7165
aasS'2FE5'
p7166
(lp7167
(lp7168
I6338
aS'227'
p7169
aS'309'
p7170
aasS'4H7V'
p7171
(lp7172
(lp7173
I3131
aS'462'
p7174
aS'552'
p7175
aa(lp7176
I6428
aS'29'
p7177
aS'374'
p7178
aasS'2OPG'
p7179
(lp7180
(lp7181
I6338
aS'1630'
p7182
aS'1708'
p7183
aasS'1BES'
p7184
(lp7185
(lp7186
I1596
aS'37'
p7187
aS'254'
p7188
aasS'1BEP'
p7189
(lp7190
(lp7191
I1596
aS'37'
p7192
aS'254'
p7193
aasS'1BEQ'
p7194
(lp7195
(lp7196
I1596
aS'37'
p7197
aS'254'
p7198
aasS'3CBX'
p7199
(lp7200
(lp7201
I6338
aS'268'
p7202
aS'346'
p7203
aasS'3CBY'
p7204
(lp7205
(lp7206
I6338
aS'268'
p7207
aS'346'
p7208
aasS'3CBZ'
p7209
(lp7210
(lp7211
I6338
aS'268'
p7212
aS'346'
p7213
aasS'4XH7'
p7214
(lp7215
(lp7216
I6338
aS'554'
p7217
aS'620'
p7218
aasS'1VJ6'
p7219
(lp7220
(lp7221
I6338
aS'16'
p7222
aS'96'
p7223
aasS'4A71'
p7224
(lp7225
(lp7226
I1596
aS'37'
p7227
aS'254'
p7228
aasS'1KRJ'
p7229
(lp7230
(lp7231
I1596
aS'37'
p7232
aS'254'
p7233
aasS'2BY1'
p7234
(lp7235
(lp7236
I3131
aS'513'
p7237
aS'600'
p7238
aa(lp7239
I6428
aS'147'
p7240
aS'228'
p7241
aa(lp7242
I6841
aS'25'
p7243
aS'86'
p7244
aasS'3BCF'
p7245
(lp7246
(lp7247
I4298
aS'535'
p7248
aS'595'
p7249
aa(lp7250
I6428
aS'159'
p7251
aS'481'
p7252
aasS'1WH1'
p7253
(lp7254
(lp7255
I6338
aS'27'
p7256
aS'102'
p7257
aasS'6TAA'
p7258
(lp7259
(lp7260
I1204
aS'386'
p7261
aS'475'
p7262
aa(lp7263
I6428
aS'40'
p7264
aS'341'
p7265
aasS'1B82'
p7266
(lp7267
(lp7268
I1596
aS'24'
p7269
aS'256'
p7270
aa(lp7271
I2581
aS'261'
p7272
aS'340'
p7273
aasS'3DHU'
p7274
(lp7275
(lp7276
I6428
aS'26'
p7277
aS'116'
p7278
aa(lp7279
I6428
aS'134'
p7280
aS'313'
p7281
aasS'2Y5A'
p7282
(lp7283
(lp7284
I1596
aS'37'
p7285
aS'254'
p7286
aasS'3M5Q'
p7287
(lp7288
(lp7289
I1596
aS'25'
p7290
aS'260'
p7291
aa(lp7292
I2581
aS'264'
p7293
aS'342'
p7294
aasS'6CCP'
p7295
(lp7296
(lp7297
I1596
aS'37'
p7298
aS'254'
p7299
aasS'2CCD'
p7300
(lp7301
(lp7302
I1596
aS'91'
p7303
aS'397'
p7304
aa(lp7305
I1596
aS'406'
p7306
aS'713'
p7307
aasS'1I92'
p7308
(lp7309
(lp7310
I6338
aS'18'
p7311
aS'90'
p7312
aasS'1OSE'
p7313
(lp7314
(lp7315
I5153
aS'410'
p7316
aS'492'
p7317
aa(lp7318
I6428
aS'72'
p7319
aS'305'
p7320
aasS'4OKD'
p7321
(lp7322
(lp7323
I6428
aS'281'
p7324
aS'388'
p7325
aa(lp7326
I6841
aS'99'
p7327
aS'199'
p7328
aasS'4JMV'
p7329
(lp7330
(lp7331
I1596
aS'37'
p7332
aS'252'
p7333
aasS'2OQS'
p7334
(lp7335
(lp7336
I6338
aS'3'
aS'85'
p7337
aasS'2KPK'
p7338
(lp7339
(lp7340
I6338
aS'20'
p7341
aS'87'
p7342
aasS'2D92'
p7343
(lp7344
(lp7345
I6338
aS'22'
p7346
aS'101'
p7347
aasS'2KPL'
p7348
(lp7349
(lp7350
I6338
aS'20'
p7351
aS'87'
p7352
aasS'3VU2'
p7353
(lp7354
(lp7355
I5153
aS'592'
p7356
aS'692'
p7357
aa(lp7358
I6428
aS'223'
p7359
aS'301'
p7360
aa(lp7361
I6841
aS'57'
p7362
aS'140'
p7363
aasS'1WZM'
p7364
(lp7365
(lp7366
I1172
aS'503'
p7367
aS'579'
p7368
aa(lp7369
I5151
aS'1'
aS'117'
p7370
aa(lp7371
I6428
aS'170'
p7372
aS'466'
p7373
aasS'2EXG'
p7374
(lp7375
(lp7376
I6338
aS'16'
p7377
aS'94'
p7378
aasS'1N7E'
p7379
(lp7380
(lp7381
I6338
aS'673'
p7382
aS'751'
p7383
aasS'4E35'
p7384
(lp7385
(lp7386
I6338
aS'290'
p7387
aS'367'
p7388
aasS'2YCG'
p7389
(lp7390
(lp7391
I1596
aS'37'
p7392
aS'254'
p7393
aasS'1IU0'
p7394
(lp7395
(lp7396
I6338
aS'5'
aS'89'
p7397
aasS'1V5L'
p7398
(lp7399
(lp7400
I6338
aS'13'
p7401
aS'84'
p7402
aasS'1IU2'
p7403
(lp7404
(lp7405
I6338
aS'5'
aS'89'
p7406
aasS'4XB3'
p7407
(lp7408
(lp7409
I1172
aS'465'
p7410
aS'524'
p7411
aa(lp7412
I6428
aS'28'
p7413
aS'359'
p7414
aasS'2D3L'
p7415
(lp7416
(lp7417
I4298
aS'438'
p7418
aS'482'
p7419
aa(lp7420
I6428
aS'34'
p7421
aS'373'
p7422
aasS'4CVI'
p7423
(lp7424
(lp7425
I1596
aS'37'
p7426
aS'254'
p7427
aasS'4CVJ'
p7428
(lp7429
(lp7430
I1596
aS'37'
p7431
aS'254'
p7432
aasS'1N7T'
p7433
(lp7434
(lp7435
I6338
aS'19'
p7436
aS'97'
p7437
aasS'2EV8'
p7438
(lp7439
(lp7440
I6338
aS'72'
p7441
aS'148'
p7442
aasS'2IWQ'
p7443
(lp7444
(lp7445
I6338
aS'1157'
p7446
aS'1235'
p7447
aasS'4QL6'
p7448
(lp7449
(lp7450
I1091
aS'355'
p7451
aS'524'
p7452
aa(lp7453
I6338
aS'342'
p7454
aS'241'
p7455
aasS'4AEF'
p7456
(lp7457
(lp7458
I2624
aS'22'
p7459
aS'81'
p7460
aa(lp7461
I5151
aS'109'
p7462
aS'209'
p7463
aa(lp7464
I6428
aS'236'
p7465
aS'544'
p7466
aasS'4CZO'
p7467
(lp7468
(lp7469
I1596
aS'31'
p7470
aS'263'
p7471
aa(lp7472
I2581
aS'268'
p7473
aS'346'
p7474
aasS'1N99'
p7475
(lp7476
(lp7477
I6338
aS'115'
p7478
aS'191'
p7479
aa(lp7480
I6338
aS'214'
p7481
aS'270'
p7482
aasS'3VGB'
p7483
(lp7484
(lp7485
I6428
aS'116'
p7486
aS'205'
p7487
aa(lp7488
I6428
aS'225'
p7489
aS'423'
p7490
aa(lp7491
I6501
aS'491'
p7492
aS'557'
p7493
aasS'5CGT'
p7494
(lp7495
(lp7496
I3612
aS'498'
p7497
aS'577'
p7498
aa(lp7499
I5153
aS'413'
p7500
aS'491'
p7501
aa(lp7502
I6428
aS'52'
p7503
aS'372'
p7504
aa(lp7505
I6582
aS'584'
p7506
aS'680'
p7507
aasS'1V5Q'
p7508
(lp7509
(lp7510
I6338
aS'23'
p7511
aS'104'
p7512
aasS'3VGF'
p7513
(lp7514
(lp7515
I6428
aS'116'
p7516
aS'205'
p7517
aa(lp7518
I6428
aS'225'
p7519
aS'423'
p7520
aa(lp7521
I6501
aS'491'
p7522
aS'557'
p7523
aasS'3VGG'
p7524
(lp7525
(lp7526
I6428
aS'116'
p7527
aS'205'
p7528
aa(lp7529
I6428
aS'225'
p7530
aS'423'
p7531
aa(lp7532
I6501
aS'491'
p7533
aS'557'
p7534
aasS'3VGD'
p7535
(lp7536
(lp7537
I6428
aS'116'
p7538
aS'205'
p7539
aa(lp7540
I6428
aS'225'
p7541
aS'423'
p7542
aa(lp7543
I6501
aS'491'
p7544
aS'557'
p7545
aasS'2WSK'
p7546
(lp7547
(lp7548
I6428
aS'185'
p7549
aS'269'
p7550
aa(lp7551
I6841
aS'11'
p7552
aS'97'
p7553
aasS'1EBE'
p7554
(lp7555
(lp7556
I1596
aS'37'
p7557
aS'254'
p7558
aasS'4U2Z'
p7559
(lp7560
(lp7561
I6428
aS'237'
p7562
aS'336'
p7563
aa(lp7564
I7167
aS'19'
p7565
aS'206'
p7566
aasS'4NVE'
p7567
(lp7568
(lp7569
I1596
aS'37'
p7570
aS'252'
p7571
aasS'4HPH'
p7572
(lp7573
(lp7574
I1172
aS'527'
p7575
aS'593'
p7576
aa(lp7577
I6428
aS'70'
p7578
aS'416'
p7579
aasS'2VWR'
p7580
(lp7581
(lp7582
I6338
aS'339'
p7583
aS'418'
p7584
aasS'1ZBZ'
p7585
(lp7586
(lp7587
I1596
aS'37'
p7588
aS'254'
p7589
aasS'1LGA'
p7590
(lp7591
(lp7592
I1596
aS'22'
p7593
aS'255'
p7594
aa(lp7595
I2581
aS'261'
p7596
aS'340'
p7597
aasS'2N18'
p7598
(lp7599
(lp7600
I1596
aS'37'
p7601
aS'254'
p7602
aa(lp7603
I5098
aS'3'
aS'100'
p7604
aa(lp7605
I5098
aS'3'
aS'100'
p7606
aasS'1ZBY'
p7607
(lp7608
(lp7609
I1596
aS'37'
p7610
aS'254'
p7611
aasS'1KXH'
p7612
(lp7613
(lp7614
I5153
aS'362'
p7615
aS'443'
p7616
aa(lp7617
I6428
aS'57'
p7618
aS'293'
p7619
aasS'2GDU'
p7620
(lp7621
(lp7622
I1206
aS'435'
p7623
aS'501'
p7624
aa(lp7625
I6428
aS'35'
p7626
aS'220'
p7627
aasS'2EGK'
p7628
(lp7629
(lp7630
I6338
aS'102'
p7631
aS'184'
p7632
aa(lp7633
I6338
aS'102'
p7634
aS'184'
p7635
aasS'2EEG'
p7636
(lp7637
(lp7638
I6338
aS'16'
p7639
aS'87'
p7640
aasS'2QPU'
p7641
(lp7642
(lp7643
I6428
aS'26'
p7644
aS'187'
p7645
aa(lp7646
I6755
aS'345'
p7647
aS'403'
p7648
aasS'1H3G'
p7649
(lp7650
(lp7651
I1674
aS'9'
aS'94'
p7652
aa(lp7653
I1677
aS'519'
p7654
aS'594'
p7655
aa(lp7656
I6428
aS'145'
p7657
aS'459'
p7658
aasS'4Q2N'
p7659
(lp7660
(lp7661
I6338
aS'367'
p7662
aS'449'
p7663
aasS'2FNE'
p7664
(lp7665
(lp7666
I6338
aS'1960'
p7667
aS'2040'
p7668
aasS'4GO8'
p7669
(lp7670
(lp7671
I3131
aS'462'
p7672
aS'552'
p7673
aa(lp7674
I6428
aS'29'
p7675
aS'374'
p7676
aasS'4GO9'
p7677
(lp7678
(lp7679
I3131
aS'462'
p7680
aS'552'
p7681
aa(lp7682
I6428
aS'29'
p7683
aS'374'
p7684
aasS'2WC7'
p7685
(lp7686
(lp7687
I1172
aS'404'
p7688
aS'483'
p7689
aa(lp7690
I6428
aS'53'
p7691
aS'367'
p7692
aasS'3L2M'
p7693
(lp7694
(lp7695
I5153
aS'410'
p7696
aS'492'
p7697
aa(lp7698
I6428
aS'72'
p7699
aS'305'
p7700
aasS'3L2L'
p7701
(lp7702
(lp7703
I5153
aS'410'
p7704
aS'492'
p7705
aa(lp7706
I6428
aS'72'
p7707
aS'305'
p7708
aasS'1BG9'
p7709
(lp7710
(lp7711
I6428
aS'25'
p7712
aS'187'
p7713
aa(lp7714
I6755
aS'343'
p7715
aS'401'
p7716
aasS'1H3J'
p7717
(lp7718
(lp7719
I1596
aS'44'
p7720
aS'263'
p7721
aa(lp7722
I2581
aS'268'
p7723
aS'343'
p7724
aasS'1IZJ'
p7725
(lp7726
(lp7727
I1172
aS'554'
p7728
aS'634'
p7729
aa(lp7730
I5151
aS'28'
p7731
aS'117'
p7732
aa(lp7733
I6428
aS'188'
p7734
aS'517'
p7735
aasS'3CC0'
p7736
(lp7737
(lp7738
I6338
aS'268'
p7739
aS'346'
p7740
aasS'4OEP'
p7741
(lp7742
(lp7743
I6338
aS'24'
p7744
aS'106'
p7745
aasS'2L4S'
p7746
(lp7747
(lp7748
I6338
aS'20'
p7749
aS'109'
p7750
aasS'2VPH'
p7751
(lp7752
(lp7753
I6338
aS'518'
p7754
aS'601'
p7755
aasS'1Z53'
p7756
(lp7757
(lp7758
I1596
aS'37'
p7759
aS'254'
p7760
aasS'2L4T'
p7761
(lp7762
(lp7763
I6338
aS'20'
p7764
aS'109'
p7765
aas.