(dp1
S'3T0E'
p2
(lp3
(lp4
I749
aS'181'
p5
aS'291'
p6
aa(lp7
I1208
aS'116'
p8
aS'188'
p9
aa(lp10
I1690
aS'95'
p11
aS'173'
p12
aa(lp13
I1690
aS'132'
p14
aS'213'
p15
aa(lp16
I1690
aS'134'
p17
aS'219'
p18
aa(lp19
I2388
aS'5'
aS'107'
p20
aa(lp21
I2388
aS'4'
aS'114'
p22
aa(lp23
I4082
aS'3'
aS'97'
p24
aa(lp25
I4221
aS'43'
p26
aS'115'
p27
aa(lp28
I6254
aS'101'
p29
aS'177'
p30
aa(lp31
I6254
aS'292'
p32
aS'363'
p33
aa(lp34
I7398
aS'4'
aS'81'
p35
aasS'2IGA'
p36
(lp37
(lp38
I368
aS'19'
p39
aS'104'
p40
aa(lp41
I368
aS'152'
p42
aS'268'
p43
aasS'3N21'
p44
(lp45
(lp46
I2488
aS'153'
p47
aS'315'
p48
aa(lp49
I4914
aS'8'
aS'150'
p50
aasS'2NQB'
p51
(lp52
(lp53
I1405
aS'891'
p54
aS'919'
p55
aa(lp56
I5541
aS'33'
p57
aS'95'
p58
aa(lp59
I5994
aS'438'
p60
aS'531'
p61
aa(lp62
I5994
aS'814'
p63
aS'888'
p64
aa(lp65
I5994
aS'1228'
p66
aS'1297'
p67
aasS'3FV4'
p68
(lp69
(lp70
I2488
aS'153'
p71
aS'315'
p72
aa(lp73
I4914
aS'8'
aS'150'
p74
aasS'1KMY'
p75
(lp76
(lp77
I368
aS'143'
p78
aS'261'
p79
aasS'4KYH'
p80
(lp81
(lp82
I368
aS'33'
p83
aS'174'
p84
aasS'3X1V'
p85
(lp86
(lp87
I1405
aS'91'
p88
aS'118'
p89
aa(lp90
I5541
aS'33'
p91
aS'95'
p92
aa(lp93
I5994
aS'38'
p94
aS'131'
p95
aa(lp96
I5994
aS'13'
p97
aS'88'
p98
aa(lp99
I5994
aS'27'
p100
aS'100'
p101
aasS'2ZA0'
p102
(lp103
(lp104
I368
aS'33'
p105
aS'174'
p106
aasS'4LS1'
p107
(lp108
(lp109
I4812
aS'78'
p110
aS'378'
p111
aasS'4LS0'
p112
(lp113
(lp114
I4812
aS'78'
p115
aS'378'
p116
aasS'4LS2'
p117
(lp118
(lp119
I4812
aS'78'
p120
aS'378'
p121
aasS'3X1T'
p122
(lp123
(lp124
I1405
aS'91'
p125
aS'118'
p126
aa(lp127
I5541
aS'33'
p128
aS'95'
p129
aa(lp130
I5994
aS'38'
p131
aS'131'
p132
aa(lp133
I5994
aS'14'
p134
aS'88'
p135
aa(lp136
I5994
aS'33'
p137
aS'100'
p138
aasS'1EIL'
p139
(lp140
(lp141
I368
aS'142'
p142
aS'254'
p143
aasS'1FA6'
p144
(lp145
(lp146
I368
aS'3'
aS'123'
p147
aasS'3ZI6'
p148
(lp149
(lp150
I2488
aS'153'
p151
aS'315'
p152
aa(lp153
I4914
aS'8'
aS'150'
p154
aasS'1EIQ'
p155
(lp156
(lp157
I368
aS'142'
p158
aS'254'
p159
aasS'2NZD'
p160
(lp161
(lp162
I1405
aS'91'
p163
aS'119'
p164
aa(lp165
I5541
aS'33'
p166
aS'95'
p167
aa(lp168
I5994
aS'38'
p169
aS'131'
p170
aa(lp171
I5994
aS'14'
p172
aS'88'
p173
aa(lp174
I5994
aS'28'
p175
aS'97'
p176
aasS'1EIR'
p177
(lp178
(lp179
I368
aS'142'
p180
aS'254'
p181
aasS'1F1V'
p182
(lp183
(lp184
I368
aS'19'
p185
aS'106'
p186
aa(lp187
I368
aS'152'
p188
aS'268'
p189
aasS'5DEL'
p190
(lp191
(lp192
I4812
aS'208'
p193
aS'550'
p194
aasS'1F1U'
p195
(lp196
(lp197
I368
aS'19'
p198
aS'106'
p199
aa(lp200
I368
aS'152'
p201
aS'268'
p202
aasS'1F1R'
p203
(lp204
(lp205
I368
aS'19'
p206
aS'106'
p207
aa(lp208
I368
aS'152'
p209
aS'268'
p210
aasS'3DO1'
p211
(lp212
(lp213
I2488
aS'153'
p214
aS'315'
p215
aa(lp216
I4914
aS'8'
aS'150'
p217
aasS'3DO2'
p218
(lp219
(lp220
I2488
aS'153'
p221
aS'315'
p222
aa(lp223
I4914
aS'8'
aS'150'
p224
aasS'3T74'
p225
(lp226
(lp227
I2488
aS'153'
p228
aS'315'
p229
aa(lp230
I4914
aS'8'
aS'150'
p231
aasS'5DPF'
p232
(lp233
(lp234
I2488
aS'153'
p235
aS'315'
p236
aa(lp237
I4914
aS'8'
aS'150'
p238
aasS'5DPE'
p239
(lp240
(lp241
I2488
aS'153'
p242
aS'315'
p243
aa(lp244
I4914
aS'8'
aS'150'
p245
aasS'4H9O'
p246
(lp247
(lp248
I5541
aS'33'
p249
aS'95'
p250
aa(lp251
I5994
aS'38'
p252
aS'131'
p253
aasS'4H9N'
p254
(lp255
(lp256
I5541
aS'33'
p257
aS'95'
p258
aa(lp259
I5994
aS'37'
p260
aS'131'
p261
aasS'3W1R'
p262
(lp263
(lp264
I4812
aS'2'
aS'293'
p265
aasS'4ORM'
p266
(lp267
(lp268
I4812
aS'208'
p269
aS'550'
p270
aasS'4ORI'
p271
(lp272
(lp273
I4812
aS'78'
p274
aS'378'
p275
aasS'3W1X'
p276
(lp277
(lp278
I4812
aS'2'
aS'293'
p279
aasS'1NPC'
p280
(lp281
(lp282
I2488
aS'154'
p283
aS'316'
p284
aa(lp285
I4914
aS'8'
aS'151'
p286
aasS'1NPB'
p287
(lp288
(lp289
I368
aS'5'
aS'114'
p290
aasS'3W1A'
p291
(lp292
(lp293
I4812
aS'2'
aS'293'
p294
aasS'4H9S'
p295
(lp296
(lp297
I5541
aS'34'
p298
aS'95'
p299
aa(lp300
I5994
aS'45'
p301
aS'131'
p302
aasS'3W1L'
p303
(lp304
(lp305
I4812
aS'2'
aS'293'
p306
aasS'4H9Q'
p307
(lp308
(lp309
I5541
aS'33'
p310
aS'95'
p311
aa(lp312
I5994
aS'37'
p313
aS'131'
p314
aasS'4H9P'
p315
(lp316
(lp317
I5541
aS'33'
p318
aS'95'
p319
aa(lp320
I5994
aS'37'
p321
aS'131'
p322
aasS'1JQV'
p323
(lp324
(lp325
I4812
aS'1'
aS'293'
p326
aasS'1HAN'
p327
(lp328
(lp329
I368
aS'143'
p330
aS'261'
p331
aasS'4TLI'
p332
(lp333
(lp334
I2488
aS'153'
p335
aS'315'
p336
aa(lp337
I4914
aS'8'
aS'150'
p338
aasS'2IG9'
p339
(lp340
(lp341
I368
aS'19'
p342
aS'104'
p343
aa(lp344
I368
aS'152'
p345
aS'268'
p346
aasS'3FVP'
p347
(lp348
(lp349
I2488
aS'153'
p350
aS'315'
p351
aa(lp352
I4914
aS'8'
aS'150'
p353
aasS'4TLN'
p354
(lp355
(lp356
I2488
aS'153'
p357
aS'315'
p358
aa(lp359
I4914
aS'8'
aS'150'
p360
aasS'1TV5'
p361
(lp362
(lp363
I4812
aS'208'
p364
aS'550'
p365
aasS'2R5V'
p366
(lp367
(lp368
I368
aS'158'
p369
aS'306'
p370
aa(lp371
I4782
aS'29'
p372
aS'129'
p373
aasS'4OQV'
p374
(lp375
(lp376
I4812
aS'78'
p377
aS'378'
p378
aasS'3F2P'
p379
(lp380
(lp381
I2488
aS'153'
p382
aS'315'
p383
aa(lp384
I4914
aS'8'
aS'150'
p385
aasS'2Z31'
p386
(lp387
(lp388
I1690
aS'93'
p389
aS'174'
p390
aa(lp391
I1690
aS'105'
p392
aS'184'
p393
aa(lp394
I2388
aS'10'
p395
aS'114'
p396
aa(lp397
I2388
aS'6'
aS'117'
p398
aa(lp399
I4221
aS'15'
p400
aS'84A'
p401
aa(lp402
I7398
aS'4'
aS'83'
p403
aasS'4KYK'
p404
(lp405
(lp406
I368
aS'33'
p407
aS'174'
p408
aasS'1K2D'
p409
(lp410
(lp411
I1690
aS'93'
p412
aS'174'
p413
aa(lp414
I1690
aS'105'
p415
aS'184'
p416
aa(lp417
I4221
aS'15'
p418
aS'84A'
p419
aa(lp420
I7398
aS'4'
aS'83'
p421
aasS'4P23'
p422
(lp423
(lp424
I1208
aS'118'
p425
aS'190'
p426
aa(lp427
I1690
aS'130'
p428
aS'215'
p429
aa(lp430
I1690
aS'93'
p431
aS'174'
p432
aa(lp433
I1690
aS'106'
p434
aS'185'
p435
aa(lp436
I2388
aS'5'
aS'109'
p437
aa(lp438
I2388
aS'4'
aS'110'
p439
aa(lp440
I4221
aS'14'
p441
aS'84'
p442
aa(lp443
I7398
aS'3'
aS'83'
p444
aasS'2BC4'
p445
(lp446
(lp447
I1690
aS'110'
p448
aS'181'
p449
aa(lp450
I1690
aS'107'
p451
aS'185'
p452
aa(lp453
I4221
aS'9'
aS'87'
p454
aa(lp455
I7398
aS'15'
p456
aS'88'
p457
aasS'4P2R'
p458
(lp459
(lp460
I1208
aS'115'
p461
aS'187'
p462
aa(lp463
I1690
aS'94'
p464
aS'174'
p465
aa(lp466
I1690
aS'103'
p467
aS'184'
p468
aa(lp469
I1690
aS'134'
p470
aS'219'
p471
aa(lp472
I2388
aS'5'
aS'107'
p473
aa(lp474
I2388
aS'6'
aS'113'
p475
aa(lp476
I4221
aS'13'
p477
aS'86'
p478
aa(lp479
I7398
aS'4'
aS'82'
p480
aasS'4P2Q'
p481
(lp482
(lp483
I1208
aS'115'
p484
aS'187'
p485
aa(lp486
I1690
aS'94'
p487
aS'174'
p488
aa(lp489
I1690
aS'103'
p490
aS'184'
p491
aa(lp492
I1690
aS'134'
p493
aS'219'
p494
aa(lp495
I2388
aS'5'
aS'107'
p496
aa(lp497
I2388
aS'6'
aS'113'
p498
aa(lp499
I4221
aS'13'
p500
aS'86'
p501
aa(lp502
I7398
aS'4'
aS'82'
p503
aasS'4P5M'
p504
(lp505
(lp506
I1690
aS'93'
p507
aS'174'
p508
aa(lp509
I1690
aS'101'
p510
aS'182'
p511
aa(lp512
I4221
aS'13'
p513
aS'83'
p514
aa(lp515
I7398
aS'4'
aS'82'
p516
aasS'1LGT'
p517
(lp518
(lp519
I368
aS'143'
p520
aS'261'
p521
aasS'4HUZ'
p522
(lp523
(lp524
I368
aS'9'
aS'276'
p525
aasS'1LNU'
p526
(lp527
(lp528
I1690
aS'94'
p529
aS'175'
p530
aa(lp531
I1690
aS'132'
p532
aS'211'
p533
aa(lp534
I4221
aS'40'
p535
aS'110'
p536
aa(lp537
I7398
aS'4'
aS'84'
p538
aasS'4P5K'
p539
(lp540
(lp541
I1690
aS'93'
p542
aS'174'
p543
aa(lp544
I1690
aS'101'
p545
aS'182'
p546
aa(lp547
I4221
aS'13'
p548
aS'83'
p549
aa(lp550
I7398
aS'4'
aS'82'
p551
aasS'3F28'
p552
(lp553
(lp554
I2488
aS'153'
p555
aS'315'
p556
aa(lp557
I4914
aS'8'
aS'150'
p558
aasS'1LNE'
p559
(lp560
(lp561
I2488
aS'153'
p562
aS'315'
p563
aa(lp564
I4914
aS'8'
aS'150'
p565
aasS'1LND'
p566
(lp567
(lp568
I2488
aS'153'
p569
aS'315'
p570
aa(lp571
I4914
aS'8'
aS'150'
p572
aasS'1LNF'
p573
(lp574
(lp575
I2488
aS'153'
p576
aS'315'
p577
aa(lp578
I4914
aS'8'
aS'150'
p579
aasS'1LNA'
p580
(lp581
(lp582
I2488
aS'153'
p583
aS'315'
p584
aa(lp585
I4914
aS'8'
aS'150'
p586
aasS'1LNC'
p587
(lp588
(lp589
I2488
aS'153'
p590
aS'315'
p591
aa(lp592
I4914
aS'8'
aS'150'
p593
aasS'1LNB'
p594
(lp595
(lp596
I2488
aS'153'
p597
aS'315'
p598
aa(lp599
I4914
aS'8'
aS'150'
p600
aasS'1KX4'
p601
(lp602
(lp603
I1405
aS'91'
p604
aS'118'
p605
aa(lp606
I5541
aS'33'
p607
aS'95'
p608
aa(lp609
I5994
aS'38'
p610
aS'131'
p611
aa(lp612
I5994
aS'16'
p613
aS'88'
p614
aa(lp615
I5994
aS'24'
p616
aS'97'
p617
aasS'1KX5'
p618
(lp619
(lp620
I1405
aS'91'
p621
aS'124'
p622
aa(lp623
I5541
aS'33'
p624
aS'95'
p625
aa(lp626
I5994
aS'1'
aS'131'
p627
aa(lp628
I5994
aS'4'
aS'88'
p629
aa(lp630
I5994
aS'6'
aS'97'
p631
aasS'3W2N'
p632
(lp633
(lp634
I4812
aS'2'
aS'293'
p635
aasS'3W2J'
p636
(lp637
(lp638
I4812
aS'2'
aS'293'
p639
aasS'1KX3'
p640
(lp641
(lp642
I1405
aS'91'
p643
aS'120'
p644
aa(lp645
I5541
aS'33'
p646
aS'95'
p647
aa(lp648
I5994
aS'38'
p649
aS'131'
p650
aa(lp651
I5994
aS'14'
p652
aS'88'
p653
aa(lp654
I5994
aS'29'
p655
aS'97'
p656
aasS'3S5L'
p657
(lp658
(lp659
I1690
aS'95'
p660
aS'173'
p661
aa(lp662
I1690
aS'103'
p663
aS'184'
p664
aa(lp665
I4082
aS'2'
aS'97'
p666
aa(lp667
I4221
aS'14'
p668
aS'86'
p669
aa(lp670
I6254
aS'101'
p671
aS'177'
p672
aa(lp673
I7398
aS'4'
aS'81'
p674
aasS'4EO5'
p675
(lp676
(lp677
I5541
aS'34'
p678
aS'94'
p679
aa(lp680
I5994
aS'61'
p681
aS'131'
p682
aa(lp683
I7218
aS'2'
aS'154'
p684
aasS'4JDB'
p685
(lp686
(lp687
I4812
aS'2'
aS'293'
p688
aasS'2A7G'
p689
(lp690
(lp691
I2488
aS'153'
p692
aS'315'
p693
aa(lp694
I4914
aS'8'
aS'150'
p695
aasS'3QGO'
p696
(lp697
(lp698
I2488
aS'153'
p699
aS'315'
p700
aa(lp701
I4914
aS'8'
aS'150'
p702
aasS'3W2U'
p703
(lp704
(lp705
I4812
aS'2'
aS'293'
p706
aasS'3LJA'
p707
(lp708
(lp709
I1405
aS'91'
p710
aS'118'
p711
aa(lp712
I5541
aS'33'
p713
aS'95'
p714
aa(lp715
I5994
aS'37'
p716
aS'131'
p717
aa(lp718
I5994
aS'15'
p719
aS'88'
p720
aa(lp721
I5994
aS'24'
p722
aS'97'
p723
aasS'3TJX'
p724
(lp725
(lp726
I4812
aS'3'
aS'293'
p727
aasS'1TRL'
p728
(lp729
(lp730
I2488
aS'256'
p731
aS'315'
p732
aasS'3WKJ'
p733
(lp734
(lp735
I1405
aS'91'
p736
aS'118'
p737
aa(lp738
I5541
aS'34'
p739
aS'95'
p740
aa(lp741
I5994
aS'38'
p742
aS'131'
p743
aa(lp744
I5994
aS'12'
p745
aS'88'
p746
aa(lp747
I5994
aS'33'
p748
aS'101'
p749
aasS'4MTQ'
p750
(lp751
(lp752
I368
aS'2'
aS'123'
p753
aasS'4MTS'
p754
(lp755
(lp756
I368
aS'2'
aS'123'
p757
aasS'4MTR'
p758
(lp759
(lp760
I368
aS'2'
aS'123'
p761
aasS'4MTT'
p762
(lp763
(lp764
I368
aS'2'
aS'123'
p765
aasS'4MTW'
p766
(lp767
(lp768
I2488
aS'153'
p769
aS'315'
p770
aa(lp771
I4914
aS'8'
aS'150'
p772
aasS'4H57'
p773
(lp774
(lp775
I2488
aS'153'
p776
aS'315'
p777
aa(lp778
I4914
aS'8'
aS'150'
p779
aasS'1ID3'
p780
(lp781
(lp782
I1405
aS'92'
p783
aS'125'
p784
aa(lp785
I5541
aS'31'
p786
aS'95'
p787
aa(lp788
I5994
aS'38'
p789
aS'131'
p790
aa(lp791
I5994
aS'16'
p792
aS'89'
p793
aa(lp794
I5994
aS'36'
p795
aS'103'
p796
aasS'1U4G'
p797
(lp798
(lp799
I2488
aS'151'
p800
aS'295'
p801
aa(lp802
I4914
aS'11'
p803
aS'148'
p804
aasS'4HGA'
p805
(lp806
(lp807
I5541
aS'33'
p808
aS'95'
p809
aa(lp810
I5994
aS'43'
p811
aS'131'
p812
aasS'3KWQ'
p813
(lp814
(lp815
I1405
aS'91'
p816
aS'920'
p817
aa(lp818
I5541
aS'34'
p819
aS'95'
p820
aa(lp821
I5994
aS'39'
p822
aS'131'
p823
aa(lp824
I5994
aS'18'
p825
aS'88'
p826
aa(lp827
I5994
aS'31'
p828
aS'97'
p829
aasS'4OV5'
p830
(lp831
(lp832
I1690
aS'95'
p833
aS'173'
p834
aa(lp835
I1690
aS'103'
p836
aS'184'
p837
aa(lp838
I4221
aS'14'
p839
aS'86'
p840
aa(lp841
I7398
aS'4'
aS'81'
p842
aasS'1F1X'
p843
(lp844
(lp845
I368
aS'19'
p846
aS'104'
p847
aa(lp848
I368
aS'152'
p849
aS'268'
p850
aasS'1FRO'
p851
(lp852
(lp853
I368
aS'32'
p854
aS'173'
p855
aasS'1ZSW'
p856
(lp857
(lp858
I368
aS'7'
aS'115'
p859
aa(lp860
I368
aS'157'
p861
aS'271'
p862
aasS'7TLI'
p863
(lp864
(lp865
I2488
aS'153'
p866
aS'315'
p867
aa(lp868
I4914
aS'8'
aS'150'
p869
aasS'1XQA'
p870
(lp871
(lp872
I368
aS'2'
aS'110'
p873
aasS'7TLN'
p874
(lp875
(lp876
I2488
aS'153'
p877
aS'315'
p878
aa(lp879
I4914
aS'8'
aS'150'
p880
aasS'1JUE'
p881
(lp882
(lp883
I4812
aS'1'
aS'293'
p884
aasS'1JUB'
p885
(lp886
(lp887
I4812
aS'1'
aS'293'
p888
aasS'1D3G'
p889
(lp890
(lp891
I4812
aS'78'
p892
aS'378'
p893
aasS'4JD4'
p894
(lp895
(lp896
I4812
aS'2'
aS'293'
p897
aasS'4JD1'
p898
(lp899
(lp900
I368
aS'4'
aS'116'
p901
aasS'3ISQ'
p902
(lp903
(lp904
I368
aS'19'
p905
aS'122'
p906
aa(lp907
I368
aS'181'
p908
aS'335'
p909
aasS'4GER'
p910
(lp911
(lp912
I2488
aS'146'
p913
aS'303'
p914
aa(lp915
I4914
aS'2'
aS'143'
p916
aasS'1D3H'
p917
(lp918
(lp919
I4812
aS'78'
p920
aS'378'
p921
aasS'3DBK'
p922
(lp923
(lp924
I2488
aS'151'
p925
aS'295'
p926
aa(lp927
I4914
aS'11'
p928
aS'148'
p929
aasS'1QF0'
p930
(lp931
(lp932
I2488
aS'153'
p933
aS'315'
p934
aa(lp935
I4914
aS'8'
aS'150'
p936
aasS'1QF1'
p937
(lp938
(lp939
I2488
aS'153'
p940
aS'315'
p941
aa(lp942
I4914
aS'8'
aS'150'
p943
aasS'1QF2'
p944
(lp945
(lp946
I2488
aS'153'
p947
aS'315'
p948
aa(lp949
I4914
aS'8'
aS'150'
p950
aasS'2LY8'
p951
(lp952
(lp953
I5541
aS'63'
p954
aS'114'
p955
aa(lp956
I5994
aS'1'
aS'56'
p957
aasS'3W22'
p958
(lp959
(lp960
I4812
aS'2'
aS'293'
p961
aasS'3W23'
p962
(lp963
(lp964
I4812
aS'2'
aS'293'
p965
aasS'3W1U'
p966
(lp967
(lp968
I4812
aS'2'
aS'293'
p969
aa(lp970
I4812
aS'2'
aS'293'
p971
aasS'3W1T'
p972
(lp973
(lp974
I4812
aS'2'
aS'293'
p975
aasS'1PE7'
p976
(lp977
(lp978
I2488
aS'153'
p979
aS'315'
p980
aa(lp981
I4914
aS'8'
aS'150'
p982
aasS'3MHU'
p983
(lp984
(lp985
I4812
aS'3'
aS'293'
p986
aa(lp987
I4812
aS'3'
aS'293'
p988
aasS'5CPK'
p989
(lp990
(lp991
I1405
aS'107'
p992
aS'117'
p993
aa(lp994
I5541
aS'61'
p995
aS'101'
p996
aa(lp997
I5994
aS'41'
p998
aS'133'
p999
aa(lp1000
I5994
aS'19'
p1001
aS'104'
p1002
aa(lp1003
I5994
aS'42'
p1004
aS'122'
p1005
aasS'1PE5'
p1006
(lp1007
(lp1008
I2488
aS'153'
p1009
aS'315'
p1010
aa(lp1011
I4914
aS'8'
aS'150'
p1012
aasS'4XZQ'
p1013
(lp1014
(lp1015
I1405
aS'891'
p1016
aS'920'
p1017
aa(lp1018
I5541
aS'35'
p1019
aS'95'
p1020
aa(lp1021
I5994
aS'439'
p1022
aS'531'
p1023
aa(lp1024
I5994
aS'818'
p1025
aS'888'
p1026
aa(lp1027
I5994
aS'1231'
p1028
aS'1297'
p1029
aasS'1PE8'
p1030
(lp1031
(lp1032
I2488
aS'153'
p1033
aS'315'
p1034
aa(lp1035
I4914
aS'8'
aS'150'
p1036
aasS'3W1Q'
p1037
(lp1038
(lp1039
I4812
aS'2'
aS'293'
p1040
aasS'3G0U'
p1041
(lp1042
(lp1043
I4812
aS'78'
p1044
aS'378'
p1045
aasS'3W1P'
p1046
(lp1047
(lp1048
I4812
aS'2'
aS'293'
p1049
aasS'1BQB'
p1050
(lp1051
(lp1052
I2488
aS'155'
p1053
aS'300'
p1054
aa(lp1055
I4914
aS'4'
aS'152'
p1056
aasS'2TMN'
p1057
(lp1058
(lp1059
I2488
aS'153'
p1060
aS'315'
p1061
aa(lp1062
I4914
aS'8'
aS'150'
p1063
aasS'2VQX'
p1064
(lp1065
(lp1066
I2184
aS'7'
aS'37'
p1067
aa(lp1068
I2488
aS'173'
p1069
aS'340'
p1070
aa(lp1071
I4914
aS'62'
p1072
aS'170'
p1073
aasS'2L5A'
p1074
(lp1075
(lp1076
I1572
aS'84'
p1077
aS'132'
p1078
aa(lp1079
I5541
aS'167'
p1080
aS'218'
p1081
aa(lp1082
I5994
aS'1'
aS'74'
p1083
aasS'5BO0'
p1084
(lp1085
(lp1086
I5541
aS'33'
p1087
aS'95'
p1088
aa(lp1089
I5994
aS'58'
p1090
aS'131'
p1091
aa(lp1092
I6567
aS'68'
p1093
aS'124'
p1094
aa(lp1095
I7218
aS'1'
aS'154'
p1096
aasS'3OIX'
p1097
(lp1098
(lp1099
I4812
aS'5'
aS'292'
p1100
aasS'5BOO'
p1101
(lp1102
(lp1103
I4812
aS'208'
p1104
aS'550'
p1105
aasS'1KJO'
p1106
(lp1107
(lp1108
I2488
aS'153'
p1109
aS'315'
p1110
aa(lp1111
I4914
aS'8'
aS'150'
p1112
aasS'1KJP'
p1113
(lp1114
(lp1115
I2488
aS'153'
p1116
aS'315'
p1117
aa(lp1118
I4914
aS'8'
aS'150'
p1119
aasS'3LQZ'
p1120
(lp1121
(lp1122
I1690
aS'93'
p1123
aS'174'
p1124
aa(lp1125
I1690
aS'101'
p1126
aS'182'
p1127
aa(lp1128
I4221
aS'13'
p1129
aS'83'
p1130
aa(lp1131
I7398
aS'4'
aS'82'
p1132
aasS'3QIW'
p1133
(lp1134
(lp1135
I1208
aS'115'
p1136
aS'186'
p1137
aa(lp1138
I1690
aS'94'
p1139
aS'174'
p1140
aa(lp1141
I1690
aS'103'
p1142
aS'184'
p1143
aa(lp1144
I1690
aS'134'
p1145
aS'218'
p1146
aa(lp1147
I2388
aS'5'
aS'106'
p1148
aa(lp1149
I2388
aS'6'
aS'113'
p1150
aa(lp1151
I4221
aS'13'
p1152
aS'86'
p1153
aa(lp1154
I7398
aS'4'
aS'82'
p1155
aasS'3QIU'
p1156
(lp1157
(lp1158
I1208
aS'115'
p1159
aS'186'
p1160
aa(lp1161
I1690
aS'94'
p1162
aS'174'
p1163
aa(lp1164
I1690
aS'103'
p1165
aS'184'
p1166
aa(lp1167
I1690
aS'134'
p1168
aS'218'
p1169
aa(lp1170
I2388
aS'5'
aS'106'
p1171
aa(lp1172
I2388
aS'6'
aS'113'
p1173
aa(lp1174
I4221
aS'13'
p1175
aS'86'
p1176
aa(lp1177
I7398
aS'4'
aS'82'
p1178
aasS'2EI0'
p1179
(lp1180
(lp1181
I368
aS'149'
p1182
aS'266'
p1183
aasS'2EI1'
p1184
(lp1185
(lp1186
I368
aS'149'
p1187
aS'266'
p1188
aasS'3MGS'
p1189
(lp1190
(lp1191
I1405
aS'91'
p1192
aS'118'
p1193
aa(lp1194
I5541
aS'33'
p1195
aS'95'
p1196
aa(lp1197
I5994
aS'37'
p1198
aS'131'
p1199
aa(lp1200
I5994
aS'15'
p1201
aS'88'
p1202
aa(lp1203
I5994
aS'24'
p1204
aS'97'
p1205
aasS'2EI3'
p1206
(lp1207
(lp1208
I368
aS'149'
p1209
aS'266'
p1210
aasS'1JQX'
p1211
(lp1212
(lp1213
I4812
aS'1'
aS'293'
p1214
aasS'4OW3'
p1215
(lp1216
(lp1217
I2488
aS'153'
p1218
aS'315'
p1219
aa(lp1220
I4914
aS'8'
aS'150'
p1221
aasS'4UJE'
p1222
(lp1223
(lp1224
I62
aS'19'
p1225
aS'100'
p1226
aa(lp1227
I86
aS'2'
aS'69'
p1228
aa(lp1229
I125
aS'24'
p1230
aS'101'
p1231
aa(lp1232
I143
aS'19'
p1233
aS'112'
p1234
aa(lp1235
I143
aS'114'
p1236
aS'182'
p1237
aa(lp1238
I145
aS'10'
p1239
aS'63'
p1240
aa(lp1241
I147
aS'102'
p1242
aS'166'
p1243
aa(lp1244
I341
aS'6'
aS'99'
p1245
aa(lp1246
I472
aS'275'
p1247
aS'348'
p1248
aa(lp1249
I481
aS'4'
aS'145'
p1250
aa(lp1251
I512
aS'2'
aS'60'
p1252
aa(lp1253
I587
aS'2'
aS'96'
p1254
aa(lp1255
I625
aS'8'
aS'68'
p1256
aa(lp1257
I672
aS'2'
aS'190'
p1258
aa(lp1259
I905
aS'17'
p1260
aS'124'
p1261
aa(lp1262
I1127
aS'212'
p1263
aS'258'
p1264
aa(lp1265
I1431
aS'38'
p1266
aS'67'
p1267
aa(lp1268
I1484
aS'3'
aS'88'
p1269
aa(lp1270
I1732
aS'12'
p1271
aS'165'
p1272
aa(lp1273
I1735
aS'16'
p1274
aS'116'
p1275
aa(lp1276
I1787
aS'67'
p1277
aS'165'
p1278
aa(lp1279
I1801
aS'9'
aS'184'
p1280
aa(lp1281
I2021
aS'90'
p1282
aS'140'
p1283
aa(lp1284
I2074
aS'2'
aS'190'
p1285
aa(lp1286
I2075
aS'78'
p1287
aS'127'
p1288
aa(lp1289
I2266
aS'3'
aS'99'
p1290
aa(lp1291
I2417
aS'51'
p1292
aS'83'
p1293
aa(lp1294
I2417
aS'7'
aS'35'
p1295
aa(lp1296
I2417
aS'178'
p1297
aS'211'
p1298
aa(lp1299
I2446
aS'106'
p1300
aS'188'
p1301
aa(lp1302
I2502
aS'3'
aS'39'
p1303
aa(lp1304
I2772
aS'12'
p1305
aS'85'
p1306
aa(lp1307
I2772
aS'99'
p1308
aS'178'
p1309
aa(lp1310
I2835
aS'108'
p1311
aS'151'
p1312
aa(lp1313
I3026
aS'52'
p1314
aS'136'
p1315
aa(lp1316
I3055
aS'7'
aS'130'
p1317
aa(lp1318
I3071
aS'22'
p1319
aS'139'
p1320
aa(lp1321
I3282
aS'7'
aS'191'
p1322
aa(lp1323
I3544
aS'14'
p1324
aS'142'
p1325
aa(lp1326
I3545
aS'21'
p1327
aS'115'
p1328
aa(lp1329
I3548
aS'75'
p1330
aS'144'
p1331
aa(lp1332
I3549
aS'9'
aS'54'
p1333
aa(lp1334
I3550
aS'74'
p1335
aS'147'
p1336
aa(lp1337
I3651
aS'17'
p1338
aS'87'
p1339
aa(lp1340
I3767
aS'21'
p1341
aS'221'
p1342
aa(lp1343
I3809
aS'185'
p1344
aS'256'
p1345
aa(lp1346
I3813
aS'6'
aS'56'
p1347
aa(lp1348
I4048
aS'202'
p1349
aS'219'
p1350
aa(lp1351
I4161
aS'27'
p1352
aS'173'
p1353
aa(lp1354
I4162
aS'28'
p1355
aS'146'
p1356
aa(lp1357
I4222
aS'2'
aS'54'
p1358
aa(lp1359
I4304
aS'5'
aS'73'
p1360
aa(lp1361
I4410
aS'47'
p1362
aS'120'
p1363
aa(lp1364
I4667
aS'5'
aS'139'
p1365
aa(lp1366
I4691
aS'9'
aS'49'
p1367
aa(lp1368
I4935
aS'2'
aS'119'
p1369
aa(lp1370
I4980
aS'3'
aS'42'
p1371
aa(lp1372
I5041
aS'6'
aS'130'
p1373
aa(lp1374
I5042
aS'14'
p1375
aS'146'
p1376
aa(lp1377
I5050
aS'62'
p1378
aS'204'
p1379
aa(lp1380
I5273
aS'97'
p1381
aS'230'
p1382
aa(lp1383
I5516
aS'10'
p1384
aS'63'
p1385
aa(lp1386
I5517
aS'22'
p1387
aS'262'
p1388
aa(lp1389
I5519
aS'12'
p1390
aS'207'
p1391
aa(lp1392
I5520
aS'2'
aS'375'
p1393
aa(lp1394
I5521
aS'13'
p1395
aS'90'
p1396
aa(lp1397
I5532
aS'9'
aS'140'
p1398
aa(lp1399
I5807
aS'1'
aS'79'
p1400
aa(lp1401
I5992
aS'8'
aS'63'
p1402
aa(lp1403
I5993
aS'8'
aS'122'
p1404
aa(lp1405
I5996
aS'18'
p1406
aS'151'
p1407
aa(lp1408
I5997
aS'76'
p1409
aS'140'
p1410
aa(lp1411
I6062
aS'192'
p1412
aS'283'
p1413
aa(lp1414
I6235
aS'1'
aS'25'
p1415
aa(lp1416
I6236
aS'17'
p1417
aS'94'
p1418
aa(lp1419
I6345
aS'20'
p1420
aS'92'
p1421
aa(lp1422
I6388
aS'3'
aS'95'
p1423
aa(lp1424
I6403
aS'29'
p1425
aS'147'
p1426
aa(lp1427
I6412
aS'47'
p1428
aS'128'
p1429
aa(lp1430
I6453
aS'16'
p1431
aS'117'
p1432
aa(lp1433
I6484
aS'181'
p1434
aS'288'
p1435
aa(lp1436
I6625
aS'17'
p1437
aS'110'
p1438
aa(lp1439
I6625
aS'131'
p1440
aS'212'
p1441
aa(lp1442
I6625
aS'13'
p1443
aS'105'
p1444
aa(lp1445
I6680
aS'95'
p1446
aS'169'
p1447
aa(lp1448
I6703
aS'1'
aS'64'
p1449
aa(lp1450
I6753
aS'5'
aS'104'
p1451
aa(lp1452
I6925
aS'1'
aS'126'
p1453
aa(lp1454
I7161
aS'40'
p1455
aS'112'
p1456
aa(lp1457
I7213
aS'9'
aS'44'
p1458
aa(lp1459
I7213
aS'55'
p1460
aS'91'
p1461
aa(lp1462
I7213
aS'96'
p1463
aS'133'
p1464
aa(lp1465
I7213
aS'145'
p1466
aS'178'
p1467
aa(lp1468
I7213
aS'188'
p1469
aS'220'
p1470
aa(lp1471
I7213
aS'225'
p1472
aS'260'
p1473
aa(lp1474
I7223
aS'5'
aS'120'
p1475
aa(lp1476
I7397
aS'28'
p1477
aS'82'
p1478
aa(lp1479
I7432
aS'2'
aS'97'
p1480
aa(lp1481
I7504
aS'102'
p1482
aS'147'
p1483
aasS'4UJD'
p1484
(lp1485
(lp1486
I62
aS'19'
p1487
aS'100'
p1488
aa(lp1489
I86
aS'2'
aS'69'
p1490
aa(lp1491
I125
aS'24'
p1492
aS'101'
p1493
aa(lp1494
I143
aS'19'
p1495
aS'112'
p1496
aa(lp1497
I143
aS'114'
p1498
aS'182'
p1499
aa(lp1500
I145
aS'10'
p1501
aS'63'
p1502
aa(lp1503
I147
aS'102'
p1504
aS'166'
p1505
aa(lp1506
I341
aS'6'
aS'99'
p1507
aa(lp1508
I472
aS'275'
p1509
aS'348'
p1510
aa(lp1511
I481
aS'4'
aS'145'
p1512
aa(lp1513
I512
aS'2'
aS'60'
p1514
aa(lp1515
I587
aS'2'
aS'96'
p1516
aa(lp1517
I625
aS'8'
aS'68'
p1518
aa(lp1519
I672
aS'2'
aS'190'
p1520
aa(lp1521
I905
aS'17'
p1522
aS'124'
p1523
aa(lp1524
I1127
aS'212'
p1525
aS'258'
p1526
aa(lp1527
I1431
aS'38'
p1528
aS'67'
p1529
aa(lp1530
I1484
aS'3'
aS'88'
p1531
aa(lp1532
I1732
aS'12'
p1533
aS'165'
p1534
aa(lp1535
I1735
aS'16'
p1536
aS'116'
p1537
aa(lp1538
I1787
aS'67'
p1539
aS'165'
p1540
aa(lp1541
I1801
aS'9'
aS'184'
p1542
aa(lp1543
I2021
aS'90'
p1544
aS'140'
p1545
aa(lp1546
I2074
aS'2'
aS'190'
p1547
aa(lp1548
I2075
aS'78'
p1549
aS'127'
p1550
aa(lp1551
I2266
aS'3'
aS'99'
p1552
aa(lp1553
I2417
aS'51'
p1554
aS'83'
p1555
aa(lp1556
I2417
aS'7'
aS'35'
p1557
aa(lp1558
I2417
aS'178'
p1559
aS'211'
p1560
aa(lp1561
I2446
aS'106'
p1562
aS'188'
p1563
aa(lp1564
I2502
aS'3'
aS'39'
p1565
aa(lp1566
I2772
aS'12'
p1567
aS'85'
p1568
aa(lp1569
I2772
aS'99'
p1570
aS'178'
p1571
aa(lp1572
I2835
aS'108'
p1573
aS'151'
p1574
aa(lp1575
I3026
aS'52'
p1576
aS'136'
p1577
aa(lp1578
I3055
aS'7'
aS'130'
p1579
aa(lp1580
I3071
aS'22'
p1581
aS'139'
p1582
aa(lp1583
I3282
aS'7'
aS'191'
p1584
aa(lp1585
I3544
aS'14'
p1586
aS'142'
p1587
aa(lp1588
I3545
aS'21'
p1589
aS'115'
p1590
aa(lp1591
I3548
aS'75'
p1592
aS'144'
p1593
aa(lp1594
I3549
aS'9'
aS'54'
p1595
aa(lp1596
I3550
aS'74'
p1597
aS'147'
p1598
aa(lp1599
I3651
aS'17'
p1600
aS'87'
p1601
aa(lp1602
I3767
aS'21'
p1603
aS'221'
p1604
aa(lp1605
I3809
aS'185'
p1606
aS'256'
p1607
aa(lp1608
I3813
aS'6'
aS'56'
p1609
aa(lp1610
I4048
aS'202'
p1611
aS'219'
p1612
aa(lp1613
I4161
aS'27'
p1614
aS'173'
p1615
aa(lp1616
I4162
aS'28'
p1617
aS'146'
p1618
aa(lp1619
I4222
aS'2'
aS'54'
p1620
aa(lp1621
I4304
aS'5'
aS'73'
p1622
aa(lp1623
I4410
aS'47'
p1624
aS'120'
p1625
aa(lp1626
I4654
aS'1084'
p1627
aS'1160'
p1628
aa(lp1629
I4667
aS'5'
aS'139'
p1630
aa(lp1631
I4691
aS'9'
aS'49'
p1632
aa(lp1633
I4935
aS'2'
aS'119'
p1634
aa(lp1635
I4980
aS'3'
aS'42'
p1636
aa(lp1637
I5041
aS'6'
aS'130'
p1638
aa(lp1639
I5042
aS'14'
p1640
aS'146'
p1641
aa(lp1642
I5050
aS'62'
p1643
aS'204'
p1644
aa(lp1645
I5273
aS'97'
p1646
aS'230'
p1647
aa(lp1648
I5516
aS'10'
p1649
aS'63'
p1650
aa(lp1651
I5517
aS'22'
p1652
aS'262'
p1653
aa(lp1654
I5519
aS'12'
p1655
aS'207'
p1656
aa(lp1657
I5520
aS'2'
aS'375'
p1658
aa(lp1659
I5521
aS'13'
p1660
aS'90'
p1661
aa(lp1662
I5532
aS'9'
aS'140'
p1663
aa(lp1664
I5807
aS'1'
aS'79'
p1665
aa(lp1666
I5903
aS'1189'
p1667
aS'1283'
p1668
aa(lp1669
I5992
aS'8'
aS'63'
p1670
aa(lp1671
I5993
aS'8'
aS'122'
p1672
aa(lp1673
I5996
aS'18'
p1674
aS'151'
p1675
aa(lp1676
I5997
aS'76'
p1677
aS'140'
p1678
aa(lp1679
I6062
aS'192'
p1680
aS'283'
p1681
aa(lp1682
I6226
aS'847'
p1683
aS'1057'
p1684
aa(lp1685
I6235
aS'1'
aS'25'
p1686
aa(lp1687
I6236
aS'17'
p1688
aS'94'
p1689
aa(lp1690
I6345
aS'20'
p1691
aS'92'
p1692
aa(lp1693
I6388
aS'3'
aS'95'
p1694
aa(lp1695
I6403
aS'29'
p1696
aS'147'
p1697
aa(lp1698
I6412
aS'47'
p1699
aS'128'
p1700
aa(lp1701
I6453
aS'16'
p1702
aS'117'
p1703
aa(lp1704
I6484
aS'181'
p1705
aS'288'
p1706
aa(lp1707
I6625
aS'131'
p1708
aS'212'
p1709
aa(lp1710
I6625
aS'13'
p1711
aS'105'
p1712
aa(lp1713
I6625
aS'17'
p1714
aS'110'
p1715
aa(lp1716
I6680
aS'95'
p1717
aS'169'
p1718
aa(lp1719
I6703
aS'1'
aS'64'
p1720
aa(lp1721
I6753
aS'5'
aS'104'
p1722
aa(lp1723
I6925
aS'1'
aS'126'
p1724
aa(lp1725
I7161
aS'40'
p1726
aS'112'
p1727
aa(lp1728
I7213
aS'9'
aS'44'
p1729
aa(lp1730
I7213
aS'55'
p1731
aS'91'
p1732
aa(lp1733
I7213
aS'96'
p1734
aS'133'
p1735
aa(lp1736
I7213
aS'145'
p1737
aS'178'
p1738
aa(lp1739
I7213
aS'188'
p1740
aS'220'
p1741
aa(lp1742
I7213
aS'225'
p1743
aS'260'
p1744
aa(lp1745
I7223
aS'5'
aS'120'
p1746
aa(lp1747
I7397
aS'28'
p1748
aS'82'
p1749
aa(lp1750
I7432
aS'2'
aS'97'
p1751
aa(lp1752
I7504
aS'102'
p1753
aS'147'
p1754
aasS'4UJC'
p1755
(lp1756
(lp1757
I62
aS'19'
p1758
aS'100'
p1759
aa(lp1760
I86
aS'2'
aS'69'
p1761
aa(lp1762
I125
aS'24'
p1763
aS'101'
p1764
aa(lp1765
I143
aS'19'
p1766
aS'112'
p1767
aa(lp1768
I143
aS'114'
p1769
aS'182'
p1770
aa(lp1771
I145
aS'10'
p1772
aS'63'
p1773
aa(lp1774
I147
aS'102'
p1775
aS'166'
p1776
aa(lp1777
I341
aS'6'
aS'99'
p1778
aa(lp1779
I472
aS'275'
p1780
aS'348'
p1781
aa(lp1782
I481
aS'4'
aS'145'
p1783
aa(lp1784
I512
aS'2'
aS'60'
p1785
aa(lp1786
I587
aS'2'
aS'96'
p1787
aa(lp1788
I625
aS'8'
aS'68'
p1789
aa(lp1790
I672
aS'2'
aS'190'
p1791
aa(lp1792
I905
aS'17'
p1793
aS'124'
p1794
aa(lp1795
I1127
aS'212'
p1796
aS'258'
p1797
aa(lp1798
I1431
aS'38'
p1799
aS'67'
p1800
aa(lp1801
I1484
aS'3'
aS'88'
p1802
aa(lp1803
I1732
aS'12'
p1804
aS'165'
p1805
aa(lp1806
I1735
aS'16'
p1807
aS'116'
p1808
aa(lp1809
I1787
aS'67'
p1810
aS'165'
p1811
aa(lp1812
I1801
aS'9'
aS'184'
p1813
aa(lp1814
I2021
aS'90'
p1815
aS'140'
p1816
aa(lp1817
I2074
aS'2'
aS'190'
p1818
aa(lp1819
I2075
aS'78'
p1820
aS'127'
p1821
aa(lp1822
I2266
aS'3'
aS'99'
p1823
aa(lp1824
I2417
aS'51'
p1825
aS'83'
p1826
aa(lp1827
I2417
aS'7'
aS'35'
p1828
aa(lp1829
I2417
aS'178'
p1830
aS'211'
p1831
aa(lp1832
I2446
aS'106'
p1833
aS'188'
p1834
aa(lp1835
I2502
aS'3'
aS'39'
p1836
aa(lp1837
I2772
aS'12'
p1838
aS'85'
p1839
aa(lp1840
I2772
aS'99'
p1841
aS'178'
p1842
aa(lp1843
I2835
aS'108'
p1844
aS'151'
p1845
aa(lp1846
I3026
aS'52'
p1847
aS'136'
p1848
aa(lp1849
I3055
aS'7'
aS'130'
p1850
aa(lp1851
I3071
aS'22'
p1852
aS'139'
p1853
aa(lp1854
I3282
aS'7'
aS'191'
p1855
aa(lp1856
I3544
aS'14'
p1857
aS'142'
p1858
aa(lp1859
I3545
aS'21'
p1860
aS'115'
p1861
aa(lp1862
I3548
aS'75'
p1863
aS'144'
p1864
aa(lp1865
I3549
aS'9'
aS'54'
p1866
aa(lp1867
I3550
aS'74'
p1868
aS'147'
p1869
aa(lp1870
I3651
aS'17'
p1871
aS'87'
p1872
aa(lp1873
I3767
aS'21'
p1874
aS'221'
p1875
aa(lp1876
I3809
aS'185'
p1877
aS'256'
p1878
aa(lp1879
I3813
aS'6'
aS'56'
p1880
aa(lp1881
I4048
aS'202'
p1882
aS'219'
p1883
aa(lp1884
I4161
aS'27'
p1885
aS'173'
p1886
aa(lp1887
I4162
aS'28'
p1888
aS'146'
p1889
aa(lp1890
I4222
aS'2'
aS'54'
p1891
aa(lp1892
I4304
aS'5'
aS'73'
p1893
aa(lp1894
I4410
aS'47'
p1895
aS'120'
p1896
aa(lp1897
I4654
aS'1084'
p1898
aS'1160'
p1899
aa(lp1900
I4667
aS'5'
aS'139'
p1901
aa(lp1902
I4691
aS'9'
aS'49'
p1903
aa(lp1904
I4935
aS'2'
aS'119'
p1905
aa(lp1906
I4980
aS'3'
aS'42'
p1907
aa(lp1908
I5041
aS'6'
aS'130'
p1909
aa(lp1910
I5042
aS'14'
p1911
aS'146'
p1912
aa(lp1913
I5050
aS'62'
p1914
aS'204'
p1915
aa(lp1916
I5273
aS'97'
p1917
aS'230'
p1918
aa(lp1919
I5516
aS'10'
p1920
aS'63'
p1921
aa(lp1922
I5517
aS'22'
p1923
aS'262'
p1924
aa(lp1925
I5519
aS'12'
p1926
aS'207'
p1927
aa(lp1928
I5520
aS'2'
aS'375'
p1929
aa(lp1930
I5521
aS'13'
p1931
aS'90'
p1932
aa(lp1933
I5532
aS'9'
aS'140'
p1934
aa(lp1935
I5807
aS'1'
aS'79'
p1936
aa(lp1937
I5903
aS'1189'
p1938
aS'1283'
p1939
aa(lp1940
I5992
aS'8'
aS'63'
p1941
aa(lp1942
I5993
aS'8'
aS'122'
p1943
aa(lp1944
I5996
aS'18'
p1945
aS'151'
p1946
aa(lp1947
I5997
aS'76'
p1948
aS'140'
p1949
aa(lp1950
I6062
aS'192'
p1951
aS'283'
p1952
aa(lp1953
I6226
aS'847'
p1954
aS'1057'
p1955
aa(lp1956
I6235
aS'1'
aS'25'
p1957
aa(lp1958
I6236
aS'17'
p1959
aS'94'
p1960
aa(lp1961
I6345
aS'20'
p1962
aS'92'
p1963
aa(lp1964
I6388
aS'3'
aS'95'
p1965
aa(lp1966
I6403
aS'29'
p1967
aS'147'
p1968
aa(lp1969
I6412
aS'47'
p1970
aS'128'
p1971
aa(lp1972
I6453
aS'16'
p1973
aS'117'
p1974
aa(lp1975
I6484
aS'181'
p1976
aS'288'
p1977
aa(lp1978
I6625
aS'131'
p1979
aS'212'
p1980
aa(lp1981
I6625
aS'13'
p1982
aS'105'
p1983
aa(lp1984
I6625
aS'17'
p1985
aS'110'
p1986
aa(lp1987
I6680
aS'95'
p1988
aS'169'
p1989
aa(lp1990
I6703
aS'1'
aS'64'
p1991
aa(lp1992
I6753
aS'5'
aS'104'
p1993
aa(lp1994
I6925
aS'1'
aS'126'
p1995
aa(lp1996
I7161
aS'40'
p1997
aS'112'
p1998
aa(lp1999
I7213
aS'9'
aS'44'
p2000
aa(lp2001
I7213
aS'55'
p2002
aS'91'
p2003
aa(lp2004
I7213
aS'96'
p2005
aS'133'
p2006
aa(lp2007
I7213
aS'145'
p2008
aS'178'
p2009
aa(lp2010
I7213
aS'188'
p2011
aS'220'
p2012
aa(lp2013
I7213
aS'225'
p2014
aS'260'
p2015
aa(lp2016
I7223
aS'5'
aS'120'
p2017
aa(lp2018
I7397
aS'28'
p2019
aS'82'
p2020
aa(lp2021
I7432
aS'2'
aS'97'
p2022
aa(lp2023
I7504
aS'102'
p2024
aS'147'
p2025
aasS'3QIB'
p2026
(lp2027
(lp2028
I1208
aS'117'
p2029
aS'189'
p2030
aa(lp2031
I1690
aS'94'
p2032
aS'174'
p2033
aa(lp2034
I1690
aS'103'
p2035
aS'184'
p2036
aa(lp2037
I1690
aS'134'
p2038
aS'219'
p2039
aa(lp2040
I2388
aS'5'
aS'108'
p2041
aa(lp2042
I2388
aS'6'
aS'114'
p2043
aa(lp2044
I4221
aS'13'
p2045
aS'86'
p2046
aa(lp2047
I7398
aS'4'
aS'82'
p2048
aasS'4ZBJ'
p2049
(lp2050
(lp2051
I2812
aS'122'
p2052
aS'142'
p2053
aa(lp2054
I5541
aS'34'
p2055
aS'95'
p2056
aa(lp2057
I5994
aS'61'
p2058
aS'131'
p2059
aa(lp2060
I7218
aS'2'
aS'154'
p2061
aasS'3RDT'
p2062
(lp2063
(lp2064
I1208
aS'118'
p2065
aS'190'
p2066
aa(lp2067
I1690
aS'93'
p2068
aS'174'
p2069
aa(lp2070
I1690
aS'106'
p2071
aS'185'
p2072
aa(lp2073
I1690
aS'130'
p2074
aS'215'
p2075
aa(lp2076
I2388
aS'5'
aS'109'
p2077
aa(lp2078
I2388
aS'4'
aS'110'
p2079
aa(lp2080
I4221
aS'14'
p2081
aS'84'
p2082
aa(lp2083
I7398
aS'3'
aS'83'
p2084
aasS'4JS3'
p2085
(lp2086
(lp2087
I4812
aS'78'
p2088
aS'378'
p2089
aasS'1TG5'
p2090
(lp2091
(lp2092
I368
aS'202'
p2093
aS'358'
p2094
aasS'3W6Y'
p2095
(lp2096
(lp2097
I4812
aS'2'
aS'293'
p2098
aasS'4C56'
p2099
(lp2100
(lp2101
I1208
aS'119'
p2102
aS'191'
p2103
aa(lp2104
I1680
aS'27'
p2105
aS'119'
p2106
aa(lp2107
I1690
aS'134'
p2108
aS'219'
p2109
aa(lp2110
I1690
aS'95'
p2111
aS'173'
p2112
aa(lp2113
I1690
aS'103'
p2114
aS'184'
p2115
aa(lp2116
I2388
aS'7'
aS'111'
p2117
aa(lp2118
I2388
aS'8'
aS'114'
p2119
aa(lp2120
I4221
aS'14'
p2121
aS'86'
p2122
aa(lp2123
I6311
aS'131'
p2124
aS'234'
p2125
aa(lp2126
I7398
aS'4'
aS'81'
p2127
aasS'4MAY'
p2128
(lp2129
(lp2130
I1208
aS'119'
p2131
aS'191'
p2132
aa(lp2133
I1690
aS'94'
p2134
aS'174'
p2135
aa(lp2136
I1690
aS'103'
p2137
aS'184'
p2138
aa(lp2139
I1690
aS'130'
p2140
aS'215'
p2141
aa(lp2142
I2388
aS'6'
aS'110'
p2143
aa(lp2144
I2388
aS'4'
aS'110'
p2145
aa(lp2146
I4221
aS'15'
p2147
aS'85'
p2148
aa(lp2149
I7398
aS'3'
aS'82'
p2150
aasS'3T8H'
p2151
(lp2152
(lp2153
I2488
aS'153'
p2154
aS'315'
p2155
aa(lp2156
I4914
aS'8'
aS'150'
p2157
aasS'1SJH'
p2158
(lp2159
(lp2160
I1680
aS'26'
p2161
aS'117'
p2162
aa(lp2163
I1690
aS'95'
p2164
aS'173'
p2165
aa(lp2166
I1690
aS'103'
p2167
aS'184'
p2168
aa(lp2169
I4221
aS'14'
p2170
aS'86'
p2171
aa(lp2172
I6311
aS'130'
p2173
aS'234'
p2174
aa(lp2175
I7398
aS'4'
aS'81'
p2176
aasS'2WV8'
p2177
(lp2178
(lp2179
I4812
aS'78'
p2180
aS'378'
p2181
aasS'3DNZ'
p2182
(lp2183
(lp2184
I2488
aS'153'
p2185
aS'315'
p2186
aa(lp2187
I4914
aS'8'
aS'150'
p2188
aasS'4H9R'
p2189
(lp2190
(lp2191
I5541
aS'33'
p2192
aS'95'
p2193
aa(lp2194
I5994
aS'37'
p2195
aS'131'
p2196
aasS'1D6E'
p2197
(lp2198
(lp2199
I1680
aS'27'
p2200
aS'119'
p2201
aa(lp2202
I1690
aS'95'
p2203
aS'173'
p2204
aa(lp2205
I1690
aS'103'
p2206
aS'184'
p2207
aa(lp2208
I4221
aS'14'
p2209
aS'86'
p2210
aa(lp2211
I6311
aS'131'
p2212
aS'234'
p2213
aa(lp2214
I7398
aS'4'
aS'81'
p2215
aasS'4CQ9'
p2216
(lp2217
(lp2218
I4812
aS'208'
p2219
aS'550'
p2220
aasS'3T8C'
p2221
(lp2222
(lp2223
I2488
aS'153'
p2224
aS'315'
p2225
aa(lp2226
I4914
aS'8'
aS'150'
p2227
aasS'3T8D'
p2228
(lp2229
(lp2230
I2488
aS'153'
p2231
aS'315'
p2232
aa(lp2233
I4914
aS'8'
aS'150'
p2234
aasS'3T8G'
p2235
(lp2236
(lp2237
I2488
aS'153'
p2238
aS'315'
p2239
aa(lp2240
I4914
aS'8'
aS'150'
p2241
aasS'1SJE'
p2242
(lp2243
(lp2244
I1680
aS'26'
p2245
aS'117'
p2246
aa(lp2247
I1690
aS'95'
p2248
aS'173'
p2249
aa(lp2250
I1690
aS'103'
p2251
aS'184'
p2252
aa(lp2253
I4221
aS'14'
p2254
aS'86'
p2255
aa(lp2256
I6311
aS'130'
p2257
aS'234'
p2258
aa(lp2259
I7398
aS'4'
aS'81'
p2260
aasS'1P3K'
p2261
(lp2262
(lp2263
I1405
aS'891'
p2264
aS'920'
p2265
aa(lp2266
I5541
aS'33'
p2267
aS'95'
p2268
aa(lp2269
I5994
aS'439'
p2270
aS'531'
p2271
aa(lp2272
I5994
aS'815'
p2273
aS'888'
p2274
aa(lp2275
I5994
aS'1231'
p2276
aS'1297'
p2277
aasS'1KS7'
p2278
(lp2279
(lp2280
I2488
aS'153'
p2281
aS'315'
p2282
aa(lp2283
I4914
aS'8'
aS'150'
p2284
aasS'1P3I'
p2285
(lp2286
(lp2287
I1405
aS'891'
p2288
aS'917'
p2289
aa(lp2290
I5541
aS'38'
p2291
aS'95'
p2292
aa(lp2293
I5994
aS'438'
p2294
aS'531'
p2295
aa(lp2296
I5994
aS'815'
p2297
aS'888'
p2298
aa(lp2299
I5994
aS'1228'
p2300
aS'1297'
p2301
aasS'1P3O'
p2302
(lp2303
(lp2304
I1405
aS'891'
p2305
aS'920'
p2306
aa(lp2307
I5541
aS'32'
p2308
aS'95'
p2309
aa(lp2310
I5994
aS'438'
p2311
aS'531'
p2312
aa(lp2313
I5994
aS'814'
p2314
aS'888'
p2315
aa(lp2316
I5994
aS'1231'
p2317
aS'1297'
p2318
aasS'1P3L'
p2319
(lp2320
(lp2321
I1405
aS'891'
p2322
aS'920'
p2323
aa(lp2324
I5541
aS'33'
p2325
aS'95'
p2326
aa(lp2327
I5994
aS'438'
p2328
aS'531'
p2329
aa(lp2330
I5994
aS'815'
p2331
aS'888'
p2332
aa(lp2333
I5994
aS'1231'
p2334
aS'1297'
p2335
aasS'1P3M'
p2336
(lp2337
(lp2338
I1405
aS'891'
p2339
aS'920'
p2340
aa(lp2341
I5541
aS'33'
p2342
aS'95'
p2343
aa(lp2344
I5994
aS'437'
p2345
aS'531'
p2346
aa(lp2347
I5994
aS'814'
p2348
aS'888'
p2349
aa(lp2350
I5994
aS'1231'
p2351
aS'1297'
p2352
aasS'1P3B'
p2353
(lp2354
(lp2355
I1405
aS'891'
p2356
aS'920'
p2357
aa(lp2358
I5541
aS'41'
p2359
aS'95'
p2360
aa(lp2361
I5994
aS'437'
p2362
aS'531'
p2363
aa(lp2364
I5994
aS'813'
p2365
aS'888'
p2366
aa(lp2367
I5994
aS'1229'
p2368
aS'1297'
p2369
aasS'1KEI'
p2370
(lp2371
(lp2372
I2488
aS'153'
p2373
aS'315'
p2374
aa(lp2375
I4914
aS'8'
aS'150'
p2376
aasS'1P3A'
p2377
(lp2378
(lp2379
I1405
aS'891'
p2380
aS'920'
p2381
aa(lp2382
I5541
aS'33'
p2383
aS'95'
p2384
aa(lp2385
I5994
aS'438'
p2386
aS'531'
p2387
aa(lp2388
I5994
aS'814'
p2389
aS'888'
p2390
aa(lp2391
I5994
aS'1232'
p2392
aS'1297'
p2393
aasS'1P3F'
p2394
(lp2395
(lp2396
I1405
aS'891'
p2397
aS'918'
p2398
aa(lp2399
I5541
aS'48'
p2400
aS'95'
p2401
aa(lp2402
I5994
aS'437'
p2403
aS'531'
p2404
aa(lp2405
I5994
aS'815'
p2406
aS'888'
p2407
aa(lp2408
I5994
aS'1232'
p2409
aS'1297'
p2410
aasS'1P3G'
p2411
(lp2412
(lp2413
I1405
aS'891'
p2414
aS'917'
p2415
aa(lp2416
I5541
aS'38'
p2417
aS'95'
p2418
aa(lp2419
I5994
aS'438'
p2420
aS'531'
p2421
aa(lp2422
I5994
aS'814'
p2423
aS'888'
p2424
aa(lp2425
I5994
aS'1230'
p2426
aS'1297'
p2427
aasS'4IR0'
p2428
(lp2429
(lp2430
I368
aS'4'
aS'116'
p2431
aasS'3TMN'
p2432
(lp2433
(lp2434
I2488
aS'153'
p2435
aS'315'
p2436
aa(lp2437
I4914
aS'8'
aS'150'
p2438
aasS'4TMN'
p2439
(lp2440
(lp2441
I2488
aS'153'
p2442
aS'315'
p2443
aa(lp2444
I4914
aS'8'
aS'150'
p2445
aasS'1P3P'
p2446
(lp2447
(lp2448
I1405
aS'891'
p2449
aS'920'
p2450
aa(lp2451
I5541
aS'36'
p2452
aS'95'
p2453
aa(lp2454
I5994
aS'436'
p2455
aS'531'
p2456
aa(lp2457
I5994
aS'814'
p2458
aS'888'
p2459
aa(lp2460
I5994
aS'1230'
p2461
aS'1297'
p2462
aasS'1BH5'
p2463
(lp2464
(lp2465
I368
aS'32'
p2466
aS'173'
p2467
aasS'1TLI'
p2468
(lp2469
(lp2470
I2488
aS'153'
p2471
aS'315'
p2472
aa(lp2473
I4914
aS'8'
aS'150'
p2474
aasS'3FGD'
p2475
(lp2476
(lp2477
I2488
aS'153'
p2478
aS'315'
p2479
aa(lp2480
I4914
aS'8'
aS'150'
p2481
aasS'3F1Q'
p2482
(lp2483
(lp2484
I4812
aS'78'
p2485
aS'378'
p2486
aasS'1TLX'
p2487
(lp2488
(lp2489
I2488
aS'153'
p2490
aS'315'
p2491
aa(lp2492
I4914
aS'8'
aS'150'
p2493
aasS'4I5B'
p2494
(lp2495
(lp2496
I1690
aS'95'
p2497
aS'173'
p2498
aa(lp2499
I1690
aS'103'
p2500
aS'184'
p2501
aa(lp2502
I4221
aS'14'
p2503
aS'86'
p2504
aa(lp2505
I7398
aS'4'
aS'81'
p2506
aasS'1TLP'
p2507
(lp2508
(lp2509
I2488
aS'153'
p2510
aS'315'
p2511
aa(lp2512
I4914
aS'8'
aS'150'
p2513
aasS'4CQA'
p2514
(lp2515
(lp2516
I4812
aS'208'
p2517
aS'550'
p2518
aasS'2WI0'
p2519
(lp2520
(lp2521
I2488
aS'153'
p2522
aS'315'
p2523
aa(lp2524
I4914
aS'8'
aS'150'
p2525
aasS'3AV2'
p2526
(lp2527
(lp2528
I1405
aS'91'
p2529
aS'118'
p2530
aa(lp2531
I5541
aS'34'
p2532
aS'95'
p2533
aa(lp2534
I5994
aS'38'
p2535
aS'131'
p2536
aa(lp2537
I5994
aS'14'
p2538
aS'88'
p2539
aa(lp2540
I5994
aS'31'
p2541
aS'100'
p2542
aasS'3T87'
p2543
(lp2544
(lp2545
I2488
aS'153'
p2546
aS'315'
p2547
aa(lp2548
I4914
aS'8'
aS'150'
p2549
aasS'4H1L'
p2550
(lp2551
(lp2552
I1690
aS'95'
p2553
aS'173'
p2554
aa(lp2555
I1690
aS'103'
p2556
aS'184'
p2557
aa(lp2558
I2388
aS'9'
aS'111'
p2559
aa(lp2560
I2388
aS'4'
aS'111'
p2561
aa(lp2562
I4221
aS'13'
p2563
aS'86'
p2564
aa(lp2565
I7398
aS'4'
aS'81'
p2566
aasS'1YMM'
p2567
(lp2568
(lp2569
I1142
aS'85'
p2570
aS'98'
p2571
aa(lp2572
I1690
aS'95'
p2573
aS'173'
p2574
aa(lp2575
I1690
aS'103'
p2576
aS'184'
p2577
aa(lp2578
I1690
aS'138'
p2579
aS'223'
p2580
aa(lp2581
I2388
aS'9'
aS'104'
p2582
aa(lp2583
I2388
aS'6'
aS'118'
p2584
aa(lp2585
I4221
aS'14'
p2586
aS'86'
p2587
aa(lp2588
I7398
aS'4'
aS'81'
p2589
aasS'1SQD'
p2590
(lp2591
(lp2592
I368
aS'202'
p2593
aS'358'
p2594
aasS'1HDM'
p2595
(lp2596
(lp2597
I1690
aS'107'
p2598
aS'179'
p2599
aa(lp2600
I1690
aS'101'
p2601
aS'178'
p2602
aa(lp2603
I4221
aS'9'
aS'81'
p2604
aa(lp2605
I7398
aS'15'
p2606
aS'85'
p2607
aasS'2ZI8'
p2608
(lp2609
(lp2610
I368
aS'142'
p2611
aS'267'
p2612
aasS'4AEN'
p2613
(lp2614
(lp2615
I1690
aS'95'
p2616
aS'173'
p2617
aa(lp2618
I1690
aS'103'
p2619
aS'184'
p2620
aa(lp2621
I4221
aS'14'
p2622
aS'86'
p2623
aa(lp2624
I7398
aS'4'
aS'81'
p2625
aasS'1SQI'
p2626
(lp2627
(lp2628
I368
aS'19'
p2629
aS'123'
p2630
aa(lp2631
I368
aS'181'
p2632
aS'335'
p2633
aasS'4GRL'
p2634
(lp2635
(lp2636
I1208
aS'119'
p2637
aS'191'
p2638
aa(lp2639
I1690
aS'94'
p2640
aS'174'
p2641
aa(lp2642
I1690
aS'103'
p2643
aS'184'
p2644
aa(lp2645
I1690
aS'157'
p2646
aS'242'
p2647
aa(lp2648
I2388
aS'6'
aS'110'
p2649
aa(lp2650
I2388
aS'31'
p2651
aS'137'
p2652
aa(lp2653
I4221
aS'15'
p2654
aS'85'
p2655
aa(lp2656
I7398
aS'3'
aS'82'
p2657
aasS'3UTA'
p2658
(lp2659
(lp2660
I1405
aS'91'
p2661
aS'119'
p2662
aa(lp2663
I5541
aS'33'
p2664
aS'95'
p2665
aa(lp2666
I5994
aS'38'
p2667
aS'131'
p2668
aa(lp2669
I5994
aS'14'
p2670
aS'88'
p2671
aa(lp2672
I5994
aS'28'
p2673
aS'97'
p2674
aasS'1HQR'
p2675
(lp2676
(lp2677
I1680
aS'515'
p2678
aS'592'
p2679
aa(lp2680
I1690
aS'95'
p2681
aS'173'
p2682
aa(lp2683
I1690
aS'303'
p2684
aS'384'
p2685
aa(lp2686
I4221
aS'214'
p2687
aS'286'
p2688
aa(lp2689
I6311
aS'601'
p2690
aS'706'
p2691
aa(lp2692
I7398
aS'4'
aS'81'
p2693
aasS'2FJ7'
p2694
(lp2695
(lp2696
I1405
aS'91'
p2697
aS'120'
p2698
aa(lp2699
I5541
aS'33'
p2700
aS'95'
p2701
aa(lp2702
I5994
aS'38'
p2703
aS'131'
p2704
aa(lp2705
I5994
aS'14'
p2706
aS'88'
p2707
aa(lp2708
I5994
aS'30'
p2709
aS'97'
p2710
aasS'4IGH'
p2711
(lp2712
(lp2713
I4812
aS'78'
p2714
aS'378'
p2715
aasS'4P4R'
p2716
(lp2717
(lp2718
I1690
aS'93'
p2719
aS'174'
p2720
aa(lp2721
I1690
aS'101'
p2722
aS'182'
p2723
aa(lp2724
I4221
aS'13'
p2725
aS'83'
p2726
aa(lp2727
I7398
aS'4'
aS'82'
p2728
aasS'2IPK'
p2729
(lp2730
(lp2731
I1680
aS'26'
p2732
aS'117'
p2733
aa(lp2734
I1690
aS'95'
p2735
aS'173'
p2736
aa(lp2737
I1690
aS'103'
p2738
aS'184'
p2739
aa(lp2740
I4221
aS'14'
p2741
aS'86'
p2742
aa(lp2743
I6311
aS'130'
p2744
aS'234'
p2745
aa(lp2746
I7398
aS'4'
aS'81'
p2747
aasS'5D7Z'
p2748
(lp2749
(lp2750
I368
aS'25'
p2751
aS'145'
p2752
aa(lp2753
I368
aS'157'
p2754
aS'277'
p2755
aasS'1CJX'
p2756
(lp2757
(lp2758
I368
aS'159'
p2759
aS'278'
p2760
aa(lp2761
I4782
aS'4'
aS'141'
p2762
aasS'4UUZ'
p2763
(lp2764
(lp2765
I5541
aS'33'
p2766
aS'95'
p2767
aa(lp2768
I5994
aS'57'
p2769
aS'131'
p2770
aa(lp2771
I6567
aS'69'
p2772
aS'122'
p2773
aasS'4NAY'
p2774
(lp2775
(lp2776
I368
aS'5'
aS'116'
p2777
aasS'4NAZ'
p2778
(lp2779
(lp2780
I368
aS'5'
aS'116'
p2781
aasS'3W97'
p2782
(lp2783
(lp2784
I1405
aS'91'
p2785
aS'118'
p2786
aa(lp2787
I5541
aS'34'
p2788
aS'95'
p2789
aa(lp2790
I5994
aS'38'
p2791
aS'131'
p2792
aa(lp2793
I5994
aS'13'
p2794
aS'88'
p2795
aa(lp2796
I5994
aS'32'
p2797
aS'100'
p2798
aasS'4P4K'
p2799
(lp2800
(lp2801
I1208
aS'122'
p2802
aS'194'
p2803
aa(lp2804
I1690
aS'93'
p2805
aS'174'
p2806
aa(lp2807
I1690
aS'101'
p2808
aS'182'
p2809
aa(lp2810
I1690
aS'133'
p2811
aS'218'
p2812
aa(lp2813
I2388
aS'7'
aS'113'
p2814
aa(lp2815
I2388
aS'6'
aS'113'
p2816
aa(lp2817
I4221
aS'13'
p2818
aS'83'
p2819
aa(lp2820
I7398
aS'4'
aS'82'
p2821
aasS'1KW9'
p2822
(lp2823
(lp2824
I368
aS'142'
p2825
aS'254'
p2826
aasS'4P46'
p2827
(lp2828
(lp2829
I1208
aS'118'
p2830
aS'190'
p2831
aa(lp2832
I1690
aS'93'
p2833
aS'174'
p2834
aa(lp2835
I1690
aS'106'
p2836
aS'185'
p2837
aa(lp2838
I1690
aS'130'
p2839
aS'215'
p2840
aa(lp2841
I2388
aS'5'
aS'109'
p2842
aa(lp2843
I2388
aS'4'
aS'110'
p2844
aa(lp2845
I4221
aS'14'
p2846
aS'84'
p2847
aa(lp2848
I7398
aS'3'
aS'83'
p2849
aasS'2PXY'
p2850
(lp2851
(lp2852
I1690
aS'93'
p2853
aS'174'
p2854
aa(lp2855
I1690
aS'105'
p2856
aS'184'
p2857
aa(lp2858
I2388
aS'10'
p2859
aS'114'
p2860
aa(lp2861
I2388
aS'6'
aS'117'
p2862
aa(lp2863
I4221
aS'15'
p2864
aS'84A'
p2865
aa(lp2866
I7398
aS'4'
aS'83'
p2867
aasS'1JWS'
p2868
(lp2869
(lp2870
I1680
aS'26'
p2871
aS'117'
p2872
aa(lp2873
I1690
aS'95'
p2874
aS'173'
p2875
aa(lp2876
I1690
aS'103'
p2877
aS'184'
p2878
aa(lp2879
I4221
aS'14'
p2880
aS'86'
p2881
aa(lp2882
I6311
aS'130'
p2883
aS'234'
p2884
aa(lp2885
I7398
aS'4'
aS'81'
p2886
aasS'4MXJ'
p2887
(lp2888
(lp2889
I2488
aS'153'
p2890
aS'315'
p2891
aa(lp2892
I4914
aS'8'
aS'150'
p2893
aasS'1KNF'
p2894
(lp2895
(lp2896
I368
aS'143'
p2897
aS'261'
p2898
aasS'1KND'
p2899
(lp2900
(lp2901
I368
aS'143'
p2902
aS'261'
p2903
aasS'3FXS'
p2904
(lp2905
(lp2906
I2488
aS'153'
p2907
aS'315'
p2908
aa(lp2909
I4914
aS'8'
aS'150'
p2910
aasS'3FXP'
p2911
(lp2912
(lp2913
I2488
aS'153'
p2914
aS'315'
p2915
aa(lp2916
I4914
aS'8'
aS'150'
p2917
aasS'1PYW'
p2918
(lp2919
(lp2920
I1680
aS'26'
p2921
aS'117'
p2922
aa(lp2923
I1690
aS'95'
p2924
aS'173'
p2925
aa(lp2926
I1690
aS'103'
p2927
aS'184'
p2928
aa(lp2929
I4221
aS'14'
p2930
aS'86'
p2931
aa(lp2932
I6311
aS'130'
p2933
aS'234'
p2934
aa(lp2935
I7398
aS'4'
aS'81'
p2936
aasS'1Q0C'
p2937
(lp2938
(lp2939
I368
aS'19'
p2940
aS'104'
p2941
aa(lp2942
I368
aS'152'
p2943
aS'268'
p2944
aasS'1Q0O'
p2945
(lp2946
(lp2947
I368
aS'19'
p2948
aS'104'
p2949
aa(lp2950
I368
aS'152'
p2951
aS'268'
p2952
aasS'1F76'
p2953
(lp2954
(lp2955
I4812
aS'47'
p2956
aS'335'
p2957
aasS'3UT9'
p2958
(lp2959
(lp2960
I1405
aS'91'
p2961
aS'118'
p2962
aa(lp2963
I5541
aS'33'
p2964
aS'95'
p2965
aa(lp2966
I5994
aS'38'
p2967
aS'131'
p2968
aa(lp2969
I5994
aS'14'
p2970
aS'88'
p2971
aa(lp2972
I5994
aS'26'
p2973
aS'97'
p2974
aasS'4MWP'
p2975
(lp2976
(lp2977
I2488
aS'153'
p2978
aS'315'
p2979
aa(lp2980
I4914
aS'8'
aS'150'
p2981
aasS'1GXW'
p2982
(lp2983
(lp2984
I2488
aS'153'
p2985
aS'315'
p2986
aa(lp2987
I4914
aS'8'
aS'150'
p2988
aasS'1T5X'
p2989
(lp2990
(lp2991
I1680
aS'26'
p2992
aS'117'
p2993
aa(lp2994
I1690
aS'95'
p2995
aS'173'
p2996
aa(lp2997
I1690
aS'103'
p2998
aS'184'
p2999
aa(lp3000
I4221
aS'14'
p3001
aS'86'
p3002
aa(lp3003
I6311
aS'130'
p3004
aS'234'
p3005
aa(lp3006
I7398
aS'4'
aS'81'
p3007
aasS'3QXD'
p3008
(lp3009
(lp3010
I1690
aS'95'
p3011
aS'173'
p3012
aa(lp3013
I1690
aS'103'
p3014
aS'184'
p3015
aa(lp3016
I4221
aS'14'
p3017
aS'86'
p3018
aa(lp3019
I7398
aS'4'
aS'81'
p3020
aasS'5BWG'
p3021
(lp3022
(lp3023
I368
aS'22'
p3024
aS'107'
p3025
aa(lp3026
I368
aS'155'
p3027
aS'271'
p3028
aasS'3QXA'
p3029
(lp3030
(lp3031
I1690
aS'95'
p3032
aS'173'
p3033
aa(lp3034
I1690
aS'103'
p3035
aS'184'
p3036
aa(lp3037
I4221
aS'14'
p3038
aS'86'
p3039
aa(lp3040
I7398
aS'4'
aS'81'
p3041
aasS'5BWH'
p3042
(lp3043
(lp3044
I368
aS'22'
p3045
aS'107'
p3046
aa(lp3047
I368
aS'155'
p3048
aS'271'
p3049
aasS'3FJL'
p3050
(lp3051
(lp3052
I4812
aS'78'
p3053
aS'378'
p3054
aasS'3TRO'
p3055
(lp3056
(lp3057
I4812
aS'3'
aS'293'
p3058
aasS'3C6L'
p3059
(lp3060
(lp3061
I1208
aS'118'
p3062
aS'188'
p3063
aa(lp3064
I1690
aS'128'
p3065
aS'211'
p3066
aa(lp3067
I1690
aS'94'
p3068
aS'175'
p3069
aa(lp3070
I1690
aS'139'
p3071
aS'211'
p3072
aa(lp3073
I2388
aS'5'
aS'109'
p3074
aa(lp3075
I2388
aS'4'
aS'110'
p3076
aa(lp3077
I4221
aS'40'
p3078
aS'110'
p3079
aa(lp3080
I7398
aS'4'
aS'84'
p3081
aasS'1KW8'
p3082
(lp3083
(lp3084
I368
aS'142'
p3085
aS'254'
p3086
aasS'1IEA'
p3087
(lp3088
(lp3089
I1690
aS'94'
p3090
aS'174'
p3091
aa(lp3092
I1690
aS'103'
p3093
aS'184'
p3094
aa(lp3095
I4221
aS'13'
p3096
aS'86'
p3097
aa(lp3098
I7398
aS'4'
aS'82'
p3099
aasS'1IEB'
p3100
(lp3101
(lp3102
I1690
aS'94'
p3103
aS'174'
p3104
aa(lp3105
I1690
aS'103'
p3106
aS'184'
p3107
aa(lp3108
I4221
aS'13'
p3109
aS'86'
p3110
aa(lp3111
I7398
aS'4'
aS'82'
p3112
aasS'1KW3'
p3113
(lp3114
(lp3115
I368
aS'142'
p3116
aS'254'
p3117
aasS'1KW6'
p3118
(lp3119
(lp3120
I368
aS'142'
p3121
aS'254'
p3122
aasS'3A6N'
p3123
(lp3124
(lp3125
I1405
aS'91'
p3126
aS'118'
p3127
aa(lp3128
I5541
aS'34'
p3129
aS'95'
p3130
aa(lp3131
I5994
aS'38'
p3132
aS'131'
p3133
aa(lp3134
I5994
aS'14'
p3135
aS'88'
p3136
aa(lp3137
I5994
aS'31'
p3138
aS'100'
p3139
aasS'4OPN'
p3140
(lp3141
(lp3142
I368
aS'33'
p3143
aS'174'
p3144
aasS'6TLI'
p3145
(lp3146
(lp3147
I2488
aS'153'
p3148
aS'315'
p3149
aa(lp3150
I4914
aS'8'
aS'150'
p3151
aasS'1ZLA'
p3152
(lp3153
(lp3154
I1405
aS'891'
p3155
aS'920'
p3156
aa(lp3157
I5541
aS'33'
p3158
aS'95'
p3159
aa(lp3160
I5994
aS'438'
p3161
aS'531'
p3162
aa(lp3163
I5994
aS'814'
p3164
aS'888'
p3165
aa(lp3166
I5994
aS'1230'
p3167
aS'1297'
p3168
aasS'3OJT'
p3169
(lp3170
(lp3171
I368
aS'19'
p3172
aS'104'
p3173
aa(lp3174
I368
aS'152'
p3175
aS'268'
p3176
aasS'5CTO'
p3177
(lp3178
(lp3179
I368
aS'252'
p3180
aS'401'
p3181
aasS'5TMN'
p3182
(lp3183
(lp3184
I2488
aS'153'
p3185
aS'315'
p3186
aa(lp3187
I4914
aS'8'
aS'150'
p3188
aasS'3FCQ'
p3189
(lp3190
(lp3191
I2488
aS'153'
p3192
aS'315'
p3193
aa(lp3194
I4914
aS'8'
aS'150'
p3195
aasS'2XN9'
p3196
(lp3197
(lp3198
I1208
aS'117'
p3199
aS'189'
p3200
aa(lp3201
I1680
aS'27'
p3202
aS'98'
p3203
aa(lp3204
I1690
aS'134'
p3205
aS'219'
p3206
aa(lp3207
I1690
aS'95'
p3208
aS'173'
p3209
aa(lp3210
I1690
aS'103'
p3211
aS'184'
p3212
aa(lp3213
I2388
aS'6'
aS'108'
p3214
aa(lp3215
I2388
aS'8'
aS'114'
p3216
aa(lp3217
I4221
aS'14'
p3218
aS'86'
p3219
aa(lp3220
I6311
aS'110'
p3221
aS'211'
p3222
aa(lp3223
I7398
aS'4'
aS'81'
p3224
aasS'3HQ0'
p3225
(lp3226
(lp3227
I368
aS'10'
p3228
aS'120'
p3229
aa(lp3230
I368
aS'152'
p3231
aS'267'
p3232
aasS'3OJJ'
p3233
(lp3234
(lp3235
I368
aS'19'
p3236
aS'104'
p3237
aa(lp3238
I368
aS'152'
p3239
aS'268'
p3240
aasS'3OJK'
p3241
(lp3242
(lp3243
I368
aS'19'
p3244
aS'104'
p3245
aa(lp3246
I368
aS'152'
p3247
aS'268'
p3248
aasS'3MGQ'
p3249
(lp3250
(lp3251
I1405
aS'91'
p3252
aS'119'
p3253
aa(lp3254
I5541
aS'33'
p3255
aS'95'
p3256
aa(lp3257
I5994
aS'37'
p3258
aS'131'
p3259
aa(lp3260
I5994
aS'15'
p3261
aS'88'
p3262
aa(lp3263
I5994
aS'23'
p3264
aS'97'
p3265
aasS'1KWC'
p3266
(lp3267
(lp3268
I368
aS'142'
p3269
aS'254'
p3270
aasS'1KWB'
p3271
(lp3272
(lp3273
I368
aS'142'
p3274
aS'254'
p3275
aasS'3C60'
p3276
(lp3277
(lp3278
I1208
aS'118'
p3279
aS'190'
p3280
aa(lp3281
I1690
aS'130'
p3282
aS'215'
p3283
aa(lp3284
I1690
aS'94'
p3285
aS'175'
p3286
aa(lp3287
I1690
aS'132'
p3288
aS'211'
p3289
aa(lp3290
I2388
aS'7'
aS'109'
p3291
aa(lp3292
I2388
aS'4'
aS'110'
p3293
aa(lp3294
I4221
aS'40'
p3295
aS'110'
p3296
aa(lp3297
I7398
aS'4'
aS'84'
p3298
aasS'3C61'
p3299
(lp3300
(lp3301
I4812
aS'3'
aS'294'
p3302
aasS'3EIM'
p3303
(lp3304
(lp3305
I2488
aS'153'
p3306
aS'315'
p3307
aa(lp3308
I4914
aS'8'
aS'150'
p3309
aasS'1THL'
p3310
(lp3311
(lp3312
I2488
aS'153'
p3313
aS'315'
p3314
aa(lp3315
I4914
aS'8'
aS'150'
p3316
aasS'4OI5'
p3317
(lp3318
(lp3319
I2488
aS'153'
p3320
aS'315'
p3321
aa(lp3322
I4914
aS'8'
aS'150'
p3323
aasS'2EI2'
p3324
(lp3325
(lp3326
I368
aS'149'
p3327
aS'266'
p3328
aasS'1QIN'
p3329
(lp3330
(lp3331
I368
aS'32'
p3332
aS'173'
p3333
aasS'3MGR'
p3334
(lp3335
(lp3336
I1405
aS'91'
p3337
aS'118'
p3338
aa(lp3339
I5541
aS'33'
p3340
aS'95'
p3341
aa(lp3342
I5994
aS'37'
p3343
aS'131'
p3344
aa(lp3345
I5994
aS'15'
p3346
aS'88'
p3347
aa(lp3348
I5994
aS'24'
p3349
aS'97'
p3350
aasS'3FJ6'
p3351
(lp3352
(lp3353
I4812
aS'78'
p3354
aS'378'
p3355
aasS'3VB0'
p3356
(lp3357
(lp3358
I368
aS'144'
p3359
aS'261'
p3360
aasS'3C1C'
p3361
(lp3362
(lp3363
I1405
aS'891'
p3364
aS'918'
p3365
aa(lp3366
I5541
aS'33'
p3367
aS'95'
p3368
aa(lp3369
I5994
aS'438'
p3370
aS'531'
p3371
aa(lp3372
I5994
aS'814'
p3373
aS'888'
p3374
aa(lp3375
I5994
aS'1230'
p3376
aS'1297'
p3377
aasS'3C1B'
p3378
(lp3379
(lp3380
I1405
aS'891'
p3381
aS'919'
p3382
aa(lp3383
I5541
aS'33'
p3384
aS'95'
p3385
aa(lp3386
I5994
aS'438'
p3387
aS'531'
p3388
aa(lp3389
I5994
aS'814'
p3390
aS'888'
p3391
aa(lp3392
I5994
aS'1228'
p3393
aS'1297'
p3394
aasS'3MVD'
p3395
(lp3396
(lp3397
I1405
aS'91'
p3398
aS'118'
p3399
aa(lp3400
I3728
aS'42'
p3401
aS'89'
p3402
aa(lp3403
I3728
aS'92'
p3404
aS'141'
p3405
aa(lp3406
I3728
aS'144'
p3407
aS'192'
p3408
aa(lp3409
I3728
aS'363'
p3410
aS'414'
p3411
aa(lp3412
I5541
aS'33'
p3413
aS'95'
p3414
aa(lp3415
I5994
aS'37'
p3416
aS'131'
p3417
aa(lp3418
I5994
aS'12'
p3419
aS'88'
p3420
aa(lp3421
I5994
aS'29'
p3422
aS'97'
p3423
aasS'3W83'
p3424
(lp3425
(lp3426
I4812
aS'2'
aS'293'
p3427
aasS'3W86'
p3428
(lp3429
(lp3430
I4812
aS'2'
aS'293'
p3431
aasS'3W87'
p3432
(lp3433
(lp3434
I4812
aS'2'
aS'293'
p3435
aasS'1KKK'
p3436
(lp3437
(lp3438
I2488
aS'153'
p3439
aS'315'
p3440
aa(lp3441
I4914
aS'8'
aS'150'
p3442
aasS'4N4E'
p3443
(lp3444
(lp3445
I2488
aS'153'
p3446
aS'315'
p3447
aa(lp3448
I4914
aS'8'
aS'150'
p3449
aasS'4K89'
p3450
(lp3451
(lp3452
I2488
aS'151'
p3453
aS'295'
p3454
aa(lp3455
I4914
aS'11'
p3456
aS'148'
p3457
aasS'3ZWS'
p3458
(lp3459
(lp3460
I4812
aS'78'
p3461
aS'378'
p3462
aasS'5BNX'
p3463
(lp3464
(lp3465
I5541
aS'33'
p3466
aS'95'
p3467
aa(lp3468
I5994
aS'58'
p3469
aS'131'
p3470
aa(lp3471
I6567
aS'68'
p3472
aS'124'
p3473
aa(lp3474
I7218
aS'1'
aS'154'
p3475
aasS'1R5I'
p3476
(lp3477
(lp3478
I1690
aS'95'
p3479
aS'173'
p3480
aa(lp3481
I1690
aS'103'
p3482
aS'184'
p3483
aa(lp3484
I4221
aS'14'
p3485
aS'86'
p3486
aa(lp3487
I4487
aS'0'
aS'212'
p3488
aa(lp3489
I7398
aS'4'
aS'81'
p3490
aasS'1R5V'
p3491
(lp3492
(lp3493
I1690
aS'94'
p3494
aS'174'
p3495
aa(lp3496
I1690
aS'130'
p3497
aS'211'
p3498
aa(lp3499
I4221
aS'40'
p3500
aS'113'
p3501
aa(lp3502
I7398
aS'4'
aS'82'
p3503
aasS'1R5W'
p3504
(lp3505
(lp3506
I1690
aS'94'
p3507
aS'174'
p3508
aa(lp3509
I1690
aS'130'
p3510
aS'211'
p3511
aa(lp3512
I4221
aS'40'
p3513
aS'113'
p3514
aa(lp3515
I7398
aS'4'
aS'82'
p3516
aasS'5C3I'
p3517
(lp3518
(lp3519
I5541
aS'33'
p3520
aS'95'
p3521
aa(lp3522
I5994
aS'48'
p3523
aS'131'
p3524
aa(lp3525
I6567
aS'68'
p3526
aS'123'
p3527
aa(lp3528
I7218
aS'2'
aS'153'
p3529
aasS'1S9V'
p3530
(lp3531
(lp3532
I1690
aS'94'
p3533
aS'173'
p3534
aa(lp3535
I1690
aS'103'
p3536
aS'184'
p3537
aa(lp3538
I4221
aS'14'
p3539
aS'85'
p3540
aa(lp3541
I7398
aS'4'
aS'82'
p3542
aasS'1S32'
p3543
(lp3544
(lp3545
I1405
aS'891'
p3546
aS'918'
p3547
aa(lp3548
I5541
aS'33'
p3549
aS'95'
p3550
aa(lp3551
I5994
aS'438'
p3552
aS'531'
p3553
aa(lp3554
I5994
aS'812'
p3555
aS'888'
p3556
aa(lp3557
I5994
aS'1222'
p3558
aS'1297'
p3559
aasS'2BXV'
p3560
(lp3561
(lp3562
I4812
aS'78'
p3563
aS'378'
p3564
aasS'3W3O'
p3565
(lp3566
(lp3567
I4812
aS'2'
aS'293'
p3568
aasS'3AYW'
p3569
(lp3570
(lp3571
I1405
aS'91'
p3572
aS'118'
p3573
aa(lp3574
I5541
aS'34'
p3575
aS'95'
p3576
aa(lp3577
I5994
aS'38'
p3578
aS'131'
p3579
aa(lp3580
I5994
aS'11'
p3581
aS'88'
p3582
aa(lp3583
I5994
aS'30'
p3584
aS'100'
p3585
aasS'1D5X'
p3586
(lp3587
(lp3588
I1680
aS'27'
p3589
aS'119'
p3590
aa(lp3591
I1690
aS'95'
p3592
aS'173'
p3593
aa(lp3594
I1690
aS'103'
p3595
aS'184'
p3596
aa(lp3597
I4221
aS'14'
p3598
aS'86'
p3599
aa(lp3600
I6311
aS'131'
p3601
aS'234'
p3602
aa(lp3603
I7398
aS'4'
aS'81'
p3604
aasS'4RX0'
p3605
(lp3606
(lp3607
I4812
aS'208'
p3608
aS'550'
p3609
aasS'1D5Z'
p3610
(lp3611
(lp3612
I1680
aS'27'
p3613
aS'119'
p3614
aa(lp3615
I1690
aS'95'
p3616
aS'173'
p3617
aa(lp3618
I1690
aS'103'
p3619
aS'184'
p3620
aa(lp3621
I4221
aS'14'
p3622
aS'86'
p3623
aa(lp3624
I6311
aS'131'
p3625
aS'234'
p3626
aa(lp3627
I7398
aS'4'
aS'81'
p3628
aasS'2YFW'
p3629
(lp3630
(lp3631
I5541
aS'31'
p3632
aS'94'
p3633
aa(lp3634
I5994
aS'105'
p3635
aS'180'
p3636
aasS'2YFV'
p3637
(lp3638
(lp3639
I1572
aS'63'
p3640
aS'103'
p3641
aa(lp3642
I5541
aS'33'
p3643
aS'95'
p3644
aa(lp3645
I5994
aS'108'
p3646
aS'180'
p3647
aasS'1D5M'
p3648
(lp3649
(lp3650
I1680
aS'27'
p3651
aS'119'
p3652
aa(lp3653
I1690
aS'95'
p3654
aS'173'
p3655
aa(lp3656
I1690
aS'103'
p3657
aS'184'
p3658
aa(lp3659
I4221
aS'14'
p3660
aS'86'
p3661
aa(lp3662
I6311
aS'131'
p3663
aS'234'
p3664
aa(lp3665
I7398
aS'4'
aS'81'
p3666
aasS'4EF9'
p3667
(lp3668
(lp3669
I4812
aS'3'
aS'293'
p3670
aasS'4EF8'
p3671
(lp3672
(lp3673
I4812
aS'3'
aS'293'
p3674
aasS'5ANC'
p3675
(lp3676
(lp3677
I200
aS'14'
p3678
aS'100'
p3679
aa(lp3680
I400
aS'107'
p3681
aS'225'
p3682
aa(lp3683
I1732
aS'12'
p3684
aS'166'
p3685
aa(lp3686
I1733
aS'75'
p3687
aS'143'
p3688
aa(lp3689
I1734
aS'6'
aS'103'
p3690
aa(lp3691
I2075
aS'1'
aS'50'
p3692
aa(lp3693
I2772
aS'12'
p3694
aS'85'
p3695
aa(lp3696
I2772
aS'97'
p3697
aS'176'
p3698
aa(lp3699
I3071
aS'19'
p3700
aS'136'
p3701
aa(lp3702
I5271
aS'615'
p3703
aS'678'
p3704
aa(lp3705
I5520
aS'1'
aS'374'
p3706
aa(lp3707
I5589
aS'980'
p3708
aS'1064'
p3709
aa(lp3710
I5683
aS'14'
p3711
aS'67'
p3712
aa(lp3713
I6226
aS'18'
p3714
aS'269'
p3715
aa(lp3716
I6703
aS'1'
aS'64'
p3717
aasS'3TU4'
p3718
(lp3719
(lp3720
I1405
aS'91'
p3721
aS'118'
p3722
aa(lp3723
I3365
aS'50'
p3724
aS'187'
p3725
aa(lp3726
I5541
aS'33'
p3727
aS'95'
p3728
aa(lp3729
I5994
aS'37'
p3730
aS'131'
p3731
aa(lp3732
I5994
aS'12'
p3733
aS'88'
p3734
aa(lp3735
I5994
aS'29'
p3736
aS'97'
p3737
aasS'3ZW5'
p3738
(lp3739
(lp3740
I368
aS'25'
p3741
aS'142'
p3742
aasS'3OJN'
p3743
(lp3744
(lp3745
I368
aS'19'
p3746
aS'104'
p3747
aa(lp3748
I368
aS'152'
p3749
aS'268'
p3750
aasS'3T2J'
p3751
(lp3752
(lp3753
I2488
aS'153'
p3754
aS'315'
p3755
aa(lp3756
I4914
aS'8'
aS'150'
p3757
aasS'3T2I'
p3758
(lp3759
(lp3760
I2488
aS'153'
p3761
aS'315'
p3762
aa(lp3763
I4914
aS'8'
aS'150'
p3764
aasS'3T2H'
p3765
(lp3766
(lp3767
I2488
aS'153'
p3768
aS'315'
p3769
aa(lp3770
I4914
aS'8'
aS'150'
p3771
aasS'3B6G'
p3772
(lp3773
(lp3774
I1405
aS'91'
p3775
aS'120'
p3776
aa(lp3777
I5541
aS'33'
p3778
aS'95'
p3779
aa(lp3780
I5994
aS'33'
p3781
aS'131'
p3782
aa(lp3783
I5994
aS'15'
p3784
aS'88'
p3785
aa(lp3786
I5994
aS'22'
p3787
aS'97'
p3788
aasS'1R9C'
p3789
(lp3790
(lp3791
I368
aS'4'
aS'119'
p3792
aasS'4M65'
p3793
(lp3794
(lp3795
I2488
aS'153'
p3796
aS'315'
p3797
aa(lp3798
I4914
aS'8'
aS'150'
p3799
aasS'3X1S'
p3800
(lp3801
(lp3802
I5541
aS'33'
p3803
aS'95'
p3804
aa(lp3805
I5994
aS'39'
p3806
aS'131'
p3807
aa(lp3808
I5994
aS'31'
p3809
aS'100'
p3810
aasS'1Y3G'
p3811
(lp3812
(lp3813
I2488
aS'153'
p3814
aS'315'
p3815
aa(lp3816
I4914
aS'8'
aS'150'
p3817
aasS'1FA8'
p3818
(lp3819
(lp3820
I368
aS'3'
aS'123'
p3821
aasS'3L7T'
p3822
(lp3823
(lp3824
I368
aS'6'
aS'132'
p3825
aasS'1FA7'
p3826
(lp3827
(lp3828
I368
aS'3'
aS'123'
p3829
aasS'1FA5'
p3830
(lp3831
(lp3832
I368
aS'3'
aS'123'
p3833
aasS'3VW9'
p3834
(lp3835
(lp3836
I368
aS'32'
p3837
aS'173'
p3838
aasS'1KTD'
p3839
(lp3840
(lp3841
I1690
aS'94'
p3842
aS'174'
p3843
aa(lp3844
I1690
aS'130'
p3845
aS'211'
p3846
aa(lp3847
I4221
aS'40'
p3848
aS'113'
p3849
aa(lp3850
I7398
aS'4'
aS'82'
p3851
aasS'1KTO'
p3852
(lp3853
(lp3854
I2488
aS'153'
p3855
aS'315'
p3856
aa(lp3857
I4914
aS'8'
aS'150'
p3858
aasS'1IAK'
p3859
(lp3860
(lp3861
I1690
aS'93'
p3862
aS'174'
p3863
aa(lp3864
I1690
aS'105'
p3865
aS'184'
p3866
aa(lp3867
I4221
aS'15'
p3868
aS'84A'
p3869
aa(lp3870
I6478
aS'176'
p3871
aS'181'
p3872
aa(lp3873
I7398
aS'4'
aS'83'
p3874
aasS'3AN2'
p3875
(lp3876
(lp3877
I1405
aS'91'
p3878
aS'112'
p3879
aa(lp3880
I5541
aS'34'
p3881
aS'95'
p3882
aa(lp3883
I5994
aS'46'
p3884
aS'133'
p3885
aa(lp3886
I5994
aS'16'
p3887
aS'88'
p3888
aa(lp3889
I5994
aS'35'
p3890
aS'100'
p3891
aasS'1IAO'
p3892
(lp3893
(lp3894
I1690
aS'93'
p3895
aS'174'
p3896
aa(lp3897
I1690
aS'105'
p3898
aS'184'
p3899
aa(lp3900
I4221
aS'14'
p3901
aS'84'
p3902
aa(lp3903
I7398
aS'3'
aS'82'
p3904
aasS'1TFZ'
p3905
(lp3906
(lp3907
I368
aS'202'
p3908
aS'358'
p3909
aasS'4NB0'
p3910
(lp3911
(lp3912
I368
aS'5'
aS'116'
p3913
aasS'4NB1'
p3914
(lp3915
(lp3916
I368
aS'5'
aS'116'
p3917
aasS'4NB2'
p3918
(lp3919
(lp3920
I368
aS'5'
aS'116'
p3921
aasS'2IO5'
p3922
(lp3923
(lp3924
I5541
aS'33'
p3925
aS'95'
p3926
aa(lp3927
I5994
aS'60'
p3928
aS'131'
p3929
aa(lp3930
I7218
aS'1'
aS'154'
p3931
aasS'5CPI'
p3932
(lp3933
(lp3934
I1405
aS'105'
p3935
aS'117'
p3936
aa(lp3937
I5541
aS'62'
p3938
aS'101'
p3939
aa(lp3940
I5994
aS'41'
p3941
aS'133'
p3942
aa(lp3943
I5994
aS'17'
p3944
aS'102'
p3945
aa(lp3946
I5994
aS'42'
p3947
aS'123'
p3948
aasS'5CPJ'
p3949
(lp3950
(lp3951
I1405
aS'108'
p3952
aS'117'
p3953
aa(lp3954
I5541
aS'62'
p3955
aS'101'
p3956
aa(lp3957
I5994
aS'44'
p3958
aS'133'
p3959
aa(lp3960
I5994
aS'20'
p3961
aS'105'
p3962
aa(lp3963
I5994
aS'42'
p3964
aS'123'
p3965
aasS'1MPY'
p3966
(lp3967
(lp3968
I368
aS'9'
aS'119'
p3969
aa(lp3970
I368
aS'151'
p3971
aS'266'
p3972
aasS'2PRL'
p3973
(lp3974
(lp3975
I4812
aS'78'
p3976
aS'378'
p3977
aasS'2PRM'
p3978
(lp3979
(lp3980
I4812
aS'78'
p3981
aS'378'
p3982
aasS'2PRH'
p3983
(lp3984
(lp3985
I4812
aS'78'
p3986
aS'378'
p3987
aasS'2EHZ'
p3988
(lp3989
(lp3990
I368
aS'149'
p3991
aS'266'
p3992
aasS'1DLH'
p3993
(lp3994
(lp3995
I1690
aS'95'
p3996
aS'173'
p3997
aa(lp3998
I1690
aS'103'
p3999
aS'184'
p4000
aa(lp4001
I4221
aS'14'
p4002
aS'86'
p4003
aa(lp4004
I7398
aS'4'
aS'81'
p4005
aasS'4H26'
p4006
(lp4007
(lp4008
I1690
aS'95'
p4009
aS'173'
p4010
aa(lp4011
I1690
aS'103'
p4012
aS'184'
p4013
aa(lp4014
I4221
aS'13'
p4015
aS'86'
p4016
aa(lp4017
I7398
aS'4'
aS'81'
p4018
aasS'4H25'
p4019
(lp4020
(lp4021
I1690
aS'95'
p4022
aS'173'
p4023
aa(lp4024
I1690
aS'103'
p4025
aS'184'
p4026
aa(lp4027
I4221
aS'13'
p4028
aS'86'
p4029
aa(lp4030
I7398
aS'4'
aS'81'
p4031
aasS'1UUM'
p4032
(lp4033
(lp4034
I4812
aS'78'
p4035
aS'378'
p4036
aasS'1UUO'
p4037
(lp4038
(lp4039
I4812
aS'78'
p4040
aS'378'
p4041
aasS'1KT2'
p4042
(lp4043
(lp4044
I1690
aS'94'
p4045
aS'174'
p4046
aa(lp4047
I1690
aS'130'
p4048
aS'211'
p4049
aa(lp4050
I4221
aS'40'
p4051
aS'113'
p4052
aa(lp4053
I7398
aS'4'
aS'82'
p4054
aasS'2F8N'
p4055
(lp4056
(lp4057
I1405
aS'1091'
p4058
aS'1119'
p4059
aa(lp4060
I1405
aS'91'
p4061
aS'118'
p4062
aa(lp4063
I5541
aS'33'
p4064
aS'95'
p4065
aa(lp4066
I5994
aS'438'
p4067
aS'531'
p4068
aa(lp4069
I5994
aS'1230'
p4070
aS'1297'
p4071
aa(lp4072
I5994
aS'1430'
p4073
aS'1497'
p4074
aa(lp4075
I5994
aS'1012'
p4076
aS'1087'
p4077
aa(lp4078
I5994
aS'14'
p4079
aS'88'
p4080
aasS'2ZYQ'
p4081
(lp4082
(lp4083
I368
aS'142'
p4084
aS'267'
p4085
aasS'5BS7'
p4086
(lp4087
(lp4088
I2472
aS'606'
p4089
aS'675'
p4090
aa(lp4091
I5541
aS'33'
p4092
aS'95'
p4093
aa(lp4094
I5994
aS'60'
p4095
aS'131'
p4096
aasS'4FQX'
p4097
(lp4098
(lp4099
I1690
aS'110'
p4100
aS'181'
p4101
aa(lp4102
I1690
aS'107'
p4103
aS'185'
p4104
aa(lp4105
I1690
aS'95'
p4106
aS'173'
p4107
aa(lp4108
I1690
aS'103'
p4109
aS'184'
p4110
aa(lp4111
I4221
aS'9'
aS'87'
p4112
aa(lp4113
I4221
aS'14'
p4114
aS'86'
p4115
aa(lp4116
I7398
aS'15'
p4117
aS'88'
p4118
aa(lp4119
I7398
aS'4'
aS'81'
p4120
aasS'2BSL'
p4121
(lp4122
(lp4123
I4812
aS'1'
aS'293'
p4124
aasS'1HYT'
p4125
(lp4126
(lp4127
I2488
aS'153'
p4128
aS'315'
p4129
aa(lp4130
I4914
aS'8'
aS'150'
p4131
aasS'4TNL'
p4132
(lp4133
(lp4134
I2488
aS'153'
p4135
aS'315'
p4136
aa(lp4137
I4914
aS'8'
aS'150'
p4138
aasS'3TLI'
p4139
(lp4140
(lp4141
I2488
aS'153'
p4142
aS'315'
p4143
aa(lp4144
I4914
aS'8'
aS'150'
p4145
aasS'1FV1'
p4146
(lp4147
(lp4148
I1142
aS'86'
p4149
aS'104'
p4150
aa(lp4151
I1690
aS'95'
p4152
aS'173'
p4153
aa(lp4154
I1690
aS'103'
p4155
aS'184'
p4156
aa(lp4157
I4221
aS'14'
p4158
aS'86'
p4159
aa(lp4160
I7398
aS'4'
aS'81'
p4161
aasS'3P7P'
p4162
(lp4163
(lp4164
I2488
aS'153'
p4165
aS'315'
p4166
aa(lp4167
I4914
aS'8'
aS'150'
p4168
aasS'3P7Q'
p4169
(lp4170
(lp4171
I2488
aS'153'
p4172
aS'315'
p4173
aa(lp4174
I4914
aS'8'
aS'150'
p4175
aasS'3P7R'
p4176
(lp4177
(lp4178
I2488
aS'153'
p4179
aS'315'
p4180
aa(lp4181
I4914
aS'8'
aS'150'
p4182
aasS'3P7S'
p4183
(lp4184
(lp4185
I2488
aS'153'
p4186
aS'315'
p4187
aa(lp4188
I4914
aS'8'
aS'150'
p4189
aasS'3P7T'
p4190
(lp4191
(lp4192
I2488
aS'153'
p4193
aS'315'
p4194
aa(lp4195
I4914
aS'8'
aS'150'
p4196
aasS'3P7U'
p4197
(lp4198
(lp4199
I2488
aS'153'
p4200
aS'315'
p4201
aa(lp4202
I4914
aS'8'
aS'150'
p4203
aasS'3P7V'
p4204
(lp4205
(lp4206
I2488
aS'153'
p4207
aS'315'
p4208
aa(lp4209
I4914
aS'8'
aS'150'
p4210
aasS'3P7W'
p4211
(lp4212
(lp4213
I2488
aS'153'
p4214
aS'315'
p4215
aa(lp4216
I4914
aS'8'
aS'150'
p4217
aasS'2IAM'
p4218
(lp4219
(lp4220
I1208
aS'115'
p4221
aS'187'
p4222
aa(lp4223
I1690
aS'95'
p4224
aS'173'
p4225
aa(lp4226
I1690
aS'103'
p4227
aS'184'
p4228
aa(lp4229
I1690
aS'130'
p4230
aS'215'
p4231
aa(lp4232
I2388
aS'5'
aS'106'
p4233
aa(lp4234
I2388
aS'14'
p4235
aS'109'
p4236
aa(lp4237
I4221
aS'14'
p4238
aS'86'
p4239
aa(lp4240
I7398
aS'4'
aS'81'
p4241
aasS'2IAN'
p4242
(lp4243
(lp4244
I1208
aS'115'
p4245
aS'187'
p4246
aa(lp4247
I1690
aS'95'
p4248
aS'173'
p4249
aa(lp4250
I1690
aS'103'
p4251
aS'184'
p4252
aa(lp4253
I1690
aS'130'
p4254
aS'215'
p4255
aa(lp4256
I2388
aS'5'
aS'106'
p4257
aa(lp4258
I2388
aS'14'
p4259
aS'109'
p4260
aa(lp4261
I4221
aS'14'
p4262
aS'86'
p4263
aa(lp4264
I7398
aS'4'
aS'81'
p4265
aasS'1JWU'
p4266
(lp4267
(lp4268
I1680
aS'26'
p4269
aS'117'
p4270
aa(lp4271
I1690
aS'95'
p4272
aS'173'
p4273
aa(lp4274
I1690
aS'103'
p4275
aS'184'
p4276
aa(lp4277
I4221
aS'14'
p4278
aS'86'
p4279
aa(lp4280
I6311
aS'130'
p4281
aS'234'
p4282
aa(lp4283
I7398
aS'4'
aS'81'
p4284
aasS'3W73'
p4285
(lp4286
(lp4287
I4812
aS'2'
aS'293'
p4288
aasS'3W72'
p4289
(lp4290
(lp4291
I4812
aS'2'
aS'293'
p4292
aasS'3W71'
p4293
(lp4294
(lp4295
I4812
aS'2'
aS'293'
p4296
aasS'3W70'
p4297
(lp4298
(lp4299
I4812
aS'2'
aS'293'
p4300
aasS'3WEX'
p4301
(lp4302
(lp4303
I1690
aS'93'
p4304
aS'174'
p4305
aa(lp4306
I1690
aS'101'
p4307
aS'182'
p4308
aa(lp4309
I4221
aS'13'
p4310
aS'83'
p4311
aa(lp4312
I7398
aS'4'
aS'82'
p4313
aasS'3W76'
p4314
(lp4315
(lp4316
I4812
aS'2'
aS'293'
p4317
aasS'3W75'
p4318
(lp4319
(lp4320
I4812
aS'2'
aS'293'
p4321
aasS'3W74'
p4322
(lp4323
(lp4324
I4812
aS'2'
aS'293'
p4325
aasS'4G6X'
p4326
(lp4327
(lp4328
I368
aS'3'
aS'124'
p4329
aa(lp4330
I368
aS'3'
aS'124'
p4331
aasS'2PYO'
p4332
(lp4333
(lp4334
I1405
aS'90'
p4335
aS'120'
p4336
aa(lp4337
I5541
aS'33'
p4338
aS'95'
p4339
aa(lp4340
I5994
aS'37'
p4341
aS'131'
p4342
aa(lp4343
I5994
aS'13'
p4344
aS'87'
p4345
aa(lp4346
I5994
aS'28'
p4347
aS'97'
p4348
aasS'3O8A'
p4349
(lp4350
(lp4351
I4812
aS'208'
p4352
aS'550'
p4353
aasS'1K8I'
p4354
(lp4355
(lp4356
I1690
aS'107'
p4357
aS'178'
p4358
aa(lp4359
I1690
aS'106'
p4360
aS'184'
p4361
aa(lp4362
I4221
aS'8'
aS'87'
p4363
aa(lp4364
I7398
aS'12'
p4365
aS'85'
p4366
aasS'3PL6'
p4367
(lp4368
(lp4369
I1208
aS'119'
p4370
aS'191'
p4371
aa(lp4372
I1690
aS'94'
p4373
aS'174'
p4374
aa(lp4375
I1690
aS'103'
p4376
aS'184'
p4377
aa(lp4378
I1690
aS'157'
p4379
aS'242'
p4380
aa(lp4381
I2388
aS'6'
aS'110'
p4382
aa(lp4383
I2388
aS'31'
p4384
aS'137'
p4385
aa(lp4386
I4221
aS'15'
p4387
aS'85'
p4388
aa(lp4389
I7398
aS'3'
aS'82'
p4390
aasS'3T8F'
p4391
(lp4392
(lp4393
I2488
aS'153'
p4394
aS'315'
p4395
aa(lp4396
I4914
aS'8'
aS'150'
p4397
aasS'4X2A'
p4398
(lp4399
(lp4400
I368
aS'33'
p4401
aS'174'
p4402
aasS'3W7R'
p4403
(lp4404
(lp4405
I4812
aS'78'
p4406
aS'378'
p4407
aasS'3W7Q'
p4408
(lp4409
(lp4410
I4812
aS'2'
aS'293'
p4411
aasS'3W7P'
p4412
(lp4413
(lp4414
I4812
aS'2'
aS'293'
p4415
aasS'1A6A'
p4416
(lp4417
(lp4418
I1690
aS'95'
p4419
aS'173'
p4420
aa(lp4421
I1690
aS'103'
p4422
aS'184'
p4423
aa(lp4424
I4221
aS'13'
p4425
aS'86'
p4426
aa(lp4427
I7398
aS'5'
aS'81'
p4428
aasS'1OVD'
p4429
(lp4430
(lp4431
I4812
aS'1'
aS'293'
p4432
aasS'4GHH'
p4433
(lp4434
(lp4435
I368
aS'19'
p4436
aS'104'
p4437
aa(lp4438
I368
aS'152'
p4439
aS'268'
p4440
aasS'4GHG'
p4441
(lp4442
(lp4443
I368
aS'19'
p4444
aS'104'
p4445
aa(lp4446
I368
aS'152'
p4447
aS'268'
p4448
aasS'4GHF'
p4449
(lp4450
(lp4451
I368
aS'19'
p4452
aS'104'
p4453
aa(lp4454
I368
aS'152'
p4455
aS'268'
p4456
aasS'4GHE'
p4457
(lp4458
(lp4459
I368
aS'19'
p4460
aS'104'
p4461
aa(lp4462
I368
aS'152'
p4463
aS'268'
p4464
aasS'4GHD'
p4465
(lp4466
(lp4467
I368
aS'19'
p4468
aS'104'
p4469
aa(lp4470
I368
aS'152'
p4471
aS'268'
p4472
aasS'4GHC'
p4473
(lp4474
(lp4475
I368
aS'19'
p4476
aS'104'
p4477
aa(lp4478
I368
aS'152'
p4479
aS'268'
p4480
aasS'4X23'
p4481
(lp4482
(lp4483
I1405
aS'90'
p4484
aS'116'
p4485
aa(lp4486
I5541
aS'35'
p4487
aS'95'
p4488
aa(lp4489
I5994
aS'40'
p4490
aS'131'
p4491
aa(lp4492
I5994
aS'18'
p4493
aS'87'
p4494
aa(lp4495
I5994
aS'33'
p4496
aS'97'
p4497
aasS'3W7C'
p4498
(lp4499
(lp4500
I4812
aS'2'
aS'293'
p4501
aasS'3B59'
p4502
(lp4503
(lp4504
I368
aS'141'
p4505
aS'250'
p4506
aa(lp4507
I4779
aS'16'
p4508
aS'120'
p4509
aasS'3W7G'
p4510
(lp4511
(lp4512
I4812
aS'2'
aS'293'
p4513
aasS'3W7E'
p4514
(lp4515
(lp4516
I4812
aS'2'
aS'293'
p4517
aasS'1QIP'
p4518
(lp4519
(lp4520
I368
aS'32'
p4521
aS'173'
p4522
aasS'3W7K'
p4523
(lp4524
(lp4525
I4812
aS'2'
aS'293'
p4526
aasS'3W7J'
p4527
(lp4528
(lp4529
I4812
aS'2'
aS'293'
p4530
aasS'3W7I'
p4531
(lp4532
(lp4533
I4812
aS'2'
aS'293'
p4534
aasS'3W7H'
p4535
(lp4536
(lp4537
I4812
aS'2'
aS'293'
p4538
aasS'3W7O'
p4539
(lp4540
(lp4541
I4812
aS'2'
aS'293'
p4542
aasS'1JWM'
p4543
(lp4544
(lp4545
I1680
aS'26'
p4546
aS'117'
p4547
aa(lp4548
I1690
aS'95'
p4549
aS'173'
p4550
aa(lp4551
I1690
aS'103'
p4552
aS'184'
p4553
aa(lp4554
I4221
aS'14'
p4555
aS'86'
p4556
aa(lp4557
I6311
aS'130'
p4558
aS'234'
p4559
aa(lp4560
I7398
aS'4'
aS'81'
p4561
aasS'3W7M'
p4562
(lp4563
(lp4564
I4812
aS'2'
aS'293'
p4565
aasS'3W7L'
p4566
(lp4567
(lp4568
I4812
aS'2'
aS'293'
p4569
aasS'1T47'
p4570
(lp4571
(lp4572
I368
aS'22'
p4573
aS'129'
p4574
aa(lp4575
I368
aS'185'
p4576
aS'335'
p4577
aasS'3PKV'
p4578
(lp4579
(lp4580
I368
aS'4'
aS'114'
p4581
aasS'3PKW'
p4582
(lp4583
(lp4584
I368
aS'4'
aS'114'
p4585
aasS'1Z9G'
p4586
(lp4587
(lp4588
I2488
aS'153'
p4589
aS'315'
p4590
aa(lp4591
I4914
aS'8'
aS'150'
p4592
aasS'3LEL'
p4593
(lp4594
(lp4595
I1405
aS'91'
p4596
aS'118'
p4597
aa(lp4598
I5541
aS'33'
p4599
aS'95'
p4600
aa(lp4601
I5994
aS'38'
p4602
aS'131'
p4603
aa(lp4604
I5994
aS'15'
p4605
aS'88'
p4606
aa(lp4607
I5994
aS'23'
p4608
aS'97'
p4609
aasS'2DJX'
p4610
(lp4611
(lp4612
I4812
aS'2'
aS'293'
p4613
aasS'3PKX'
p4614
(lp4615
(lp4616
I368
aS'4'
aS'114'
p4617
aasS'3MGP'
p4618
(lp4619
(lp4620
I1405
aS'91'
p4621
aS'118'
p4622
aa(lp4623
I5541
aS'33'
p4624
aS'95'
p4625
aa(lp4626
I5994
aS'37'
p4627
aS'131'
p4628
aa(lp4629
I5994
aS'15'
p4630
aS'88'
p4631
aa(lp4632
I5994
aS'23'
p4633
aS'97'
p4634
aasS'3AZM'
p4635
(lp4636
(lp4637
I1405
aS'91'
p4638
aS'118'
p4639
aa(lp4640
I5541
aS'34'
p4641
aS'95'
p4642
aa(lp4643
I5994
aS'38'
p4644
aS'131'
p4645
aa(lp4646
I5994
aS'13'
p4647
aS'88'
p4648
aa(lp4649
I5994
aS'30'
p4650
aS'100'
p4651
aasS'2DJL'
p4652
(lp4653
(lp4654
I4812
aS'2'
aS'293'
p4655
aasS'2WHZ'
p4656
(lp4657
(lp4658
I2488
aS'153'
p4659
aS'315'
p4660
aa(lp4661
I4914
aS'8'
aS'150'
p4662
aasS'4P57'
p4663
(lp4664
(lp4665
I1690
aS'93'
p4666
aS'174'
p4667
aa(lp4668
I1690
aS'101'
p4669
aS'182'
p4670
aa(lp4671
I4221
aS'13'
p4672
aS'83'
p4673
aa(lp4674
I7398
aS'4'
aS'82'
p4675
aasS'1GT8'
p4676
(lp4677
(lp4678
I1416
aS'946'
p4679
aS'1004'
p4680
aa(lp4681
I1417
aS'57'
p4682
aS'166'
p4683
aa(lp4684
I4812
aS'534'
p4685
aS'838'
p4686
aa(lp4687
I7341
aS'189'
p4688
aS'490'
p4689
aasS'5TLI'
p4690
(lp4691
(lp4692
I2488
aS'153'
p4693
aS'315'
p4694
aa(lp4695
I4914
aS'8'
aS'150'
p4696
aasS'3W7D'
p4697
(lp4698
(lp4699
I4812
aS'2'
aS'293'
p4700
aasS'5TLN'
p4701
(lp4702
(lp4703
I2488
aS'153'
p4704
aS'315'
p4705
aa(lp4706
I4914
aS'8'
aS'150'
p4707
aasS'2B0M'
p4708
(lp4709
(lp4710
I4812
aS'78'
p4711
aS'378'
p4712
aasS'3FBO'
p4713
(lp4714
(lp4715
I2488
aS'153'
p4716
aS'315'
p4717
aa(lp4718
I4914
aS'8'
aS'150'
p4719
aasS'2NNA'
p4720
(lp4721
(lp4722
I1690
aS'94'
p4723
aS'173'
p4724
aa(lp4725
I1690
aS'103'
p4726
aS'184'
p4727
aa(lp4728
I4221
aS'14'
p4729
aS'85'
p4730
aa(lp4731
I7398
aS'4'
aS'82'
p4732
aasS'3LZ1'
p4733
(lp4734
(lp4735
I1405
aS'91'
p4736
aS'118'
p4737
aa(lp4738
I5541
aS'33'
p4739
aS'95'
p4740
aa(lp4741
I5994
aS'38'
p4742
aS'131'
p4743
aa(lp4744
I5994
aS'16'
p4745
aS'88'
p4746
aa(lp4747
I5994
aS'28'
p4748
aS'97'
p4749
aasS'3C5Z'
p4750
(lp4751
(lp4752
I1208
aS'118'
p4753
aS'190'
p4754
aa(lp4755
I1690
aS'130'
p4756
aS'215'
p4757
aa(lp4758
I1690
aS'94'
p4759
aS'175'
p4760
aa(lp4761
I1690
aS'132'
p4762
aS'211'
p4763
aa(lp4764
I2388
aS'5'
aS'110'
p4765
aa(lp4766
I2388
aS'4'
aS'109'
p4767
aa(lp4768
I4221
aS'40'
p4769
aS'110'
p4770
aa(lp4771
I7398
aS'4'
aS'84'
p4772
aasS'3MNN'
p4773
(lp4774
(lp4775
I1405
aS'91'
p4776
aS'119'
p4777
aa(lp4778
I5541
aS'33'
p4779
aS'95'
p4780
aa(lp4781
I5994
aS'38'
p4782
aS'131'
p4783
aa(lp4784
I5994
aS'14'
p4785
aS'88'
p4786
aa(lp4787
I5994
aS'28'
p4788
aS'97'
p4789
aasS'1KRO'
p4790
(lp4791
(lp4792
I2488
aS'153'
p4793
aS'315'
p4794
aa(lp4795
I4914
aS'8'
aS'150'
p4796
aasS'3W84'
p4797
(lp4798
(lp4799
I4812
aS'2'
aS'293'
p4800
aasS'1F66'
p4801
(lp4802
(lp4803
I1405
aS'894'
p4804
aS'918'
p4805
aa(lp4806
I5541
aS'33'
p4807
aS'95'
p4808
aa(lp4809
I5994
aS'436'
p4810
aS'531'
p4811
aa(lp4812
I5994
aS'816'
p4813
aS'893'
p4814
aa(lp4815
I5994
aS'1228'
p4816
aS'1297'
p4817
aasS'3W85'
p4818
(lp4819
(lp4820
I4812
aS'2'
aS'293'
p4821
aasS'3GYE'
p4822
(lp4823
(lp4824
I4812
aS'3'
aS'293'
p4825
aasS'3W7N'
p4826
(lp4827
(lp4828
I4812
aS'2'
aS'293'
p4829
aasS'1AQD'
p4830
(lp4831
(lp4832
I1690
aS'95'
p4833
aS'173'
p4834
aa(lp4835
I1690
aS'103'
p4836
aS'184'
p4837
aa(lp4838
I4221
aS'14'
p4839
aS'86'
p4840
aa(lp4841
I7398
aS'4'
aS'81'
p4842
aasS'3LS7'
p4843
(lp4844
(lp4845
I2488
aS'153'
p4846
aS'315'
p4847
aa(lp4848
I4914
aS'8'
aS'150'
p4849
aasS'4I0P'
p4850
(lp4851
(lp4852
I1690
aS'110'
p4853
aS'181'
p4854
aa(lp4855
I1690
aS'107'
p4856
aS'185'
p4857
aa(lp4858
I1690
aS'93'
p4859
aS'173'
p4860
aa(lp4861
I1690
aS'103'
p4862
aS'184'
p4863
aa(lp4864
I4221
aS'9'
aS'87'
p4865
aa(lp4866
I4221
aS'14'
p4867
aS'85'
p4868
aa(lp4869
I7398
aS'15'
p4870
aS'88'
p4871
aa(lp4872
I7398
aS'4'
aS'82'
p4873
aasS'3WA9'
p4874
(lp4875
(lp4876
I1405
aS'94'
p4877
aS'120'
p4878
aa(lp4879
I5541
aS'34'
p4880
aS'95'
p4881
aa(lp4882
I5994
aS'38'
p4883
aS'131'
p4884
aa(lp4885
I5994
aS'15'
p4886
aS'93'
p4887
aa(lp4888
I5994
aS'32'
p4889
aS'100'
p4890
aasS'3W88'
p4891
(lp4892
(lp4893
I4812
aS'2'
aS'293'
p4894
aasS'4RT5'
p4895
(lp4896
(lp4897
I368
aS'16'
p4898
aS'69'
p4899
aasS'3WAA'
p4900
(lp4901
(lp4902
I1405
aS'94'
p4903
aS'120'
p4904
aa(lp4905
I5541
aS'34'
p4906
aS'95'
p4907
aa(lp4908
I5994
aS'38'
p4909
aS'131'
p4910
aa(lp4911
I5994
aS'14'
p4912
aS'93'
p4913
aa(lp4914
I5994
aS'31'
p4915
aS'100'
p4916
aasS'1L3F'
p4917
(lp4918
(lp4919
I2488
aS'153'
p4920
aS'315'
p4921
aa(lp4922
I4914
aS'8'
aS'150'
p4923
aasS'1ZDP'
p4924
(lp4925
(lp4926
I2488
aS'153'
p4927
aS'315'
p4928
aa(lp4929
I4914
aS'8'
aS'150'
p4930
aasS'3OUM'
p4931
(lp4932
(lp4933
I368
aS'4'
aS'114'
p4934
aasS'3OUL'
p4935
(lp4936
(lp4937
I368
aS'4'
aS'114'
p4938
aasS'5DMK'
p4939
(lp4940
(lp4941
I1690
aS'96'
p4942
aS'174'
p4943
aa(lp4944
I1690
aS'120'
p4945
aS'199'
p4946
aa(lp4947
I4221
aS'30'
p4948
aS'99'
p4949
aa(lp4950
I7398
aS'6'
aS'85'
p4951
aasS'8TLN'
p4952
(lp4953
(lp4954
I2488
aS'153'
p4955
aS'315'
p4956
aa(lp4957
I4914
aS'8'
aS'150'
p4958
aasS'4P5T'
p4959
(lp4960
(lp4961
I1208
aS'119'
p4962
aS'191'
p4963
aa(lp4964
I1690
aS'130'
p4965
aS'215'
p4966
aa(lp4967
I1690
aS'93'
p4968
aS'174'
p4969
aa(lp4970
I1690
aS'106'
p4971
aS'185'
p4972
aa(lp4973
I2388
aS'5'
aS'110'
p4974
aa(lp4975
I2388
aS'4'
aS'110'
p4976
aa(lp4977
I4221
aS'14'
p4978
aS'84'
p4979
aa(lp4980
I7398
aS'3'
aS'83'
p4981
aasS'3BZA'
p4982
(lp4983
(lp4984
I368
aS'19'
p4985
aS'104'
p4986
aa(lp4987
I368
aS'152'
p4988
aS'268'
p4989
aasS'8TLI'
p4990
(lp4991
(lp4992
I2488
aS'153'
p4993
aS'315'
p4994
aa(lp4995
I4914
aS'8'
aS'150'
p4996
aasS'3FB0'
p4997
(lp4998
(lp4999
I2488
aS'153'
p5000
aS'315'
p5001
aa(lp5002
I4914
aS'8'
aS'150'
p5003
aasS'4KUD'
p5004
(lp5005
(lp5006
I1405
aS'92'
p5007
aS'118'
p5008
aa(lp5009
I3365
aS'50'
p5010
aS'187'
p5011
aa(lp5012
I5541
aS'31'
p5013
aS'95'
p5014
aa(lp5015
I5994
aS'38'
p5016
aS'131'
p5017
aa(lp5018
I5994
aS'16'
p5019
aS'89'
p5020
aa(lp5021
I5994
aS'37'
p5022
aS'103'
p5023
aasS'1GTH'
p5024
(lp5025
(lp5026
I1416
aS'946'
p5027
aS'1004'
p5028
aa(lp5029
I1417
aS'57'
p5030
aS'166'
p5031
aa(lp5032
I4812
aS'534'
p5033
aS'838'
p5034
aa(lp5035
I7341
aS'189'
p5036
aS'490'
p5037
aasS'1GTE'
p5038
(lp5039
(lp5040
I1416
aS'946'
p5041
aS'1004'
p5042
aa(lp5043
I1417
aS'57'
p5044
aS'166'
p5045
aa(lp5046
I4812
aS'534'
p5047
aS'838'
p5048
aa(lp5049
I7341
aS'189'
p5050
aS'490'
p5051
aasS'1DHY'
p5052
(lp5053
(lp5054
I368
aS'142'
p5055
aS'254'
p5056
aasS'1JK8'
p5057
(lp5058
(lp5059
I1690
aS'94'
p5060
aS'173'
p5061
aa(lp5062
I1690
aS'103'
p5063
aS'184'
p5064
aa(lp5065
I4221
aS'14'
p5066
aS'85'
p5067
aa(lp5068
I7398
aS'4'
aS'82'
p5069
aasS'1EZM'
p5070
(lp5071
(lp5072
I2488
aS'151'
p5073
aS'295'
p5074
aa(lp5075
I4914
aS'11'
p5076
aS'148'
p5077
aasS'2IAD'
p5078
(lp5079
(lp5080
I1690
aS'93'
p5081
aS'174'
p5082
aa(lp5083
I1690
aS'105'
p5084
aS'184'
p5085
aa(lp5086
I4221
aS'14'
p5087
aS'84'
p5088
aa(lp5089
I7398
aS'3'
aS'82'
p5090
aasS'4E41'
p5091
(lp5092
(lp5093
I1208
aS'116'
p5094
aS'188'
p5095
aa(lp5096
I1690
aS'95'
p5097
aS'173'
p5098
aa(lp5099
I1690
aS'103'
p5100
aS'184'
p5101
aa(lp5102
I1690
aS'129'
p5103
aS'214'
p5104
aa(lp5105
I2388
aS'5'
aS'107'
p5106
aa(lp5107
I2388
aS'4'
aS'109'
p5108
aa(lp5109
I4221
aS'14'
p5110
aS'86'
p5111
aa(lp5112
I7398
aS'4'
aS'81'
p5113
aasS'1JRC'
p5114
(lp5115
(lp5116
I4812
aS'1'
aS'293'
p5117
aasS'1JRB'
p5118
(lp5119
(lp5120
I4812
aS'1'
aS'293'
p5121
aasS'2WL9'
p5122
(lp5123
(lp5124
I368
aS'146'
p5125
aS'263'
p5126
aasS'4JJN'
p5127
(lp5128
(lp5129
I1405
aS'92'
p5130
aS'118'
p5131
aa(lp5132
I3365
aS'50'
p5133
aS'187'
p5134
aa(lp5135
I5541
aS'31'
p5136
aS'95'
p5137
aa(lp5138
I5994
aS'38'
p5139
aS'131'
p5140
aa(lp5141
I5994
aS'14'
p5142
aS'89'
p5143
aa(lp5144
I5994
aS'34'
p5145
aS'103'
p5146
aasS'3TQ0'
p5147
(lp5148
(lp5149
I4812
aS'3'
aS'293'
p5150
aasS'2WL3'
p5151
(lp5152
(lp5153
I368
aS'146'
p5154
aS'263'
p5155
aasS'3W0T'
p5156
(lp5157
(lp5158
I368
aS'32'
p5159
aS'173'
p5160
aasS'3W0U'
p5161
(lp5162
(lp5163
I368
aS'32'
p5164
aS'173'
p5165
aasS'1FYT'
p5166
(lp5167
(lp5168
I1208
aS'123'
p5169
aS'195'
p5170
aa(lp5171
I1690
aS'95'
p5172
aS'173'
p5173
aa(lp5174
I1690
aS'103'
p5175
aS'184'
p5176
aa(lp5177
I1690
aS'137'
p5178
aS'222'
p5179
aa(lp5180
I2388
aS'8'
aS'114'
p5181
aa(lp5182
I2388
aS'6'
aS'116'
p5183
aa(lp5184
I4221
aS'14'
p5185
aS'86'
p5186
aa(lp5187
I7398
aS'4'
aS'81'
p5188
aasS'4OZI'
p5189
(lp5190
(lp5191
I1208
aS'135'
p5192
aS'207'
p5193
aa(lp5194
I1690
aS'94'
p5195
aS'173'
p5196
aa(lp5197
I1690
aS'103'
p5198
aS'184'
p5199
aa(lp5200
I1690
aS'145'
p5201
aS'230'
p5202
aa(lp5203
I2388
aS'6'
aS'127'
p5204
aa(lp5205
I2388
aS'6'
aS'125'
p5206
aa(lp5207
I4221
aS'14'
p5208
aS'85'
p5209
aa(lp5210
I7398
aS'4'
aS'82'
p5211
aasS'4OZH'
p5212
(lp5213
(lp5214
I1208
aS'135'
p5215
aS'207'
p5216
aa(lp5217
I1690
aS'94'
p5218
aS'173'
p5219
aa(lp5220
I1690
aS'103'
p5221
aS'184'
p5222
aa(lp5223
I1690
aS'147'
p5224
aS'232'
p5225
aa(lp5226
I2388
aS'6'
aS'126'
p5227
aa(lp5228
I2388
aS'6'
aS'127'
p5229
aa(lp5230
I4221
aS'14'
p5231
aS'85'
p5232
aa(lp5233
I7398
aS'4'
aS'82'
p5234
aasS'1ESP'
p5235
(lp5236
(lp5237
I2488
aS'154'
p5238
aS'316'
p5239
aa(lp5240
I4914
aS'8'
aS'151'
p5241
aasS'4OZG'
p5242
(lp5243
(lp5244
I1208
aS'135'
p5245
aS'207'
p5246
aa(lp5247
I1690
aS'94'
p5248
aS'173'
p5249
aa(lp5250
I1690
aS'103'
p5251
aS'184'
p5252
aa(lp5253
I1690
aS'147'
p5254
aS'232'
p5255
aa(lp5256
I2388
aS'6'
aS'126'
p5257
aa(lp5258
I2388
aS'6'
aS'127'
p5259
aa(lp5260
I4221
aS'14'
p5261
aS'85'
p5262
aa(lp5263
I7398
aS'4'
aS'82'
p5264
aasS'4OZF'
p5265
(lp5266
(lp5267
I1208
aS'135'
p5268
aS'207'
p5269
aa(lp5270
I1690
aS'94'
p5271
aS'173'
p5272
aa(lp5273
I1690
aS'103'
p5274
aS'184'
p5275
aa(lp5276
I1690
aS'147'
p5277
aS'232'
p5278
aa(lp5279
I2388
aS'6'
aS'126'
p5280
aa(lp5281
I2388
aS'6'
aS'127'
p5282
aa(lp5283
I4221
aS'14'
p5284
aS'85'
p5285
aa(lp5286
I7398
aS'4'
aS'82'
p5287
aasS'4MZN'
p5288
(lp5289
(lp5290
I2488
aS'153'
p5291
aS'315'
p5292
aa(lp5293
I4914
aS'8'
aS'150'
p5294
aasS'3KUY'
p5295
(lp5296
(lp5297
I1405
aS'91'
p5298
aS'119'
p5299
aa(lp5300
I5541
aS'33'
p5301
aS'95'
p5302
aa(lp5303
I5994
aS'38'
p5304
aS'131'
p5305
aa(lp5306
I5994
aS'14'
p5307
aS'88'
p5308
aa(lp5309
I5994
aS'28'
p5310
aS'97'
p5311
aasS'2DOR'
p5312
(lp5313
(lp5314
I4812
aS'1'
aS'293'
p5315
aasS'4KGC'
p5316
(lp5317
(lp5318
I1405
aS'91'
p5319
aS'119'
p5320
aa(lp5321
I5541
aS'33'
p5322
aS'95'
p5323
aa(lp5324
I5994
aS'38'
p5325
aS'131'
p5326
aa(lp5327
I5994
aS'14'
p5328
aS'88'
p5329
aa(lp5330
I5994
aS'28'
p5331
aS'97'
p5332
aasS'3W99'
p5333
(lp5334
(lp5335
I1405
aS'91'
p5336
aS'118'
p5337
aa(lp5338
I5541
aS'35'
p5339
aS'95'
p5340
aa(lp5341
I5994
aS'38'
p5342
aS'131'
p5343
aa(lp5344
I5994
aS'14'
p5345
aS'88'
p5346
aa(lp5347
I5994
aS'30'
p5348
aS'100'
p5349
aasS'3W98'
p5350
(lp5351
(lp5352
I1405
aS'91'
p5353
aS'118'
p5354
aa(lp5355
I5541
aS'34'
p5356
aS'95'
p5357
aa(lp5358
I5994
aS'38'
p5359
aS'131'
p5360
aa(lp5361
I5994
aS'13'
p5362
aS'88'
p5363
aa(lp5364
I5994
aS'30'
p5365
aS'100'
p5366
aasS'1ES0'
p5367
(lp5368
(lp5369
I1690
aS'93'
p5370
aS'174'
p5371
aa(lp5372
I1690
aS'113'
p5373
aS'184'
p5374
aa(lp5375
I4221
aS'14'
p5376
aS'85'
p5377
aa(lp5378
I7398
aS'3'
aS'82'
p5379
aasS'3ECK'
p5380
(lp5381
(lp5382
I368
aS'19'
p5383
aS'104'
p5384
aa(lp5385
I368
aS'152'
p5386
aS'268'
p5387
aasS'3W96'
p5388
(lp5389
(lp5390
I1405
aS'91'
p5391
aS'118'
p5392
aa(lp5393
I5541
aS'34'
p5394
aS'95'
p5395
aa(lp5396
I5994
aS'39'
p5397
aS'131'
p5398
aa(lp5399
I5994
aS'13'
p5400
aS'88'
p5401
aa(lp5402
I5994
aS'30'
p5403
aS'100'
p5404
aasS'4JTT'
p5405
(lp5406
(lp5407
I4812
aS'78'
p5408
aS'378'
p5409
aasS'4JTU'
p5410
(lp5411
(lp5412
I4812
aS'78'
p5413
aS'378'
p5414
aasS'4JTS'
p5415
(lp5416
(lp5417
I4812
aS'78'
p5418
aS'378'
p5419
aasS'4N5P'
p5420
(lp5421
(lp5422
I2488
aS'153'
p5423
aS'315'
p5424
aa(lp5425
I4914
aS'8'
aS'150'
p5426
aasS'1H15'
p5427
(lp5428
(lp5429
I1690
aS'95'
p5430
aS'173'
p5431
aa(lp5432
I1690
aS'103'
p5433
aS'184'
p5434
aa(lp5435
I4221
aS'14'
p5436
aS'86'
p5437
aa(lp5438
I7398
aS'4'
aS'81'
p5439
aasS'4GG6'
p5440
(lp5441
(lp5442
I1208
aS'135'
p5443
aS'205'
p5444
aa(lp5445
I1208
aS'135'
p5446
aS'205'
p5447
aa(lp5448
I1690
aS'94'
p5449
aS'173'
p5450
aa(lp5451
I1690
aS'103'
p5452
aS'184'
p5453
aa(lp5454
I1690
aS'147'
p5455
aS'232'
p5456
aa(lp5457
I1690
aS'94'
p5458
aS'173'
p5459
aa(lp5460
I1690
aS'103'
p5461
aS'184'
p5462
aa(lp5463
I1690
aS'147'
p5464
aS'232'
p5465
aa(lp5466
I2388
aS'6'
aS'126'
p5467
aa(lp5468
I2388
aS'6'
aS'127'
p5469
aa(lp5470
I2388
aS'6'
aS'126'
p5471
aa(lp5472
I2388
aS'6'
aS'127'
p5473
aa(lp5474
I4221
aS'14'
p5475
aS'85'
p5476
aa(lp5477
I4221
aS'14'
p5478
aS'85'
p5479
aa(lp5480
I7398
aS'4'
aS'82'
p5481
aa(lp5482
I7398
aS'4'
aS'82'
p5483
aasS'3FLF'
p5484
(lp5485
(lp5486
I2488
aS'153'
p5487
aS'315'
p5488
aa(lp5489
I4914
aS'8'
aS'150'
p5490
aasS'3HPY'
p5491
(lp5492
(lp5493
I368
aS'10'
p5494
aS'120'
p5495
aa(lp5496
I368
aS'152'
p5497
aS'267'
p5498
aasS'5ANB'
p5499
(lp5500
(lp5501
I200
aS'14'
p5502
aS'100'
p5503
aa(lp5504
I400
aS'107'
p5505
aS'225'
p5506
aa(lp5507
I701
aS'4'
aS'203'
p5508
aa(lp5509
I1732
aS'12'
p5510
aS'166'
p5511
aa(lp5512
I1733
aS'75'
p5513
aS'143'
p5514
aa(lp5515
I1734
aS'6'
aS'103'
p5516
aa(lp5517
I2075
aS'1'
aS'50'
p5518
aa(lp5519
I2772
aS'12'
p5520
aS'85'
p5521
aa(lp5522
I2772
aS'97'
p5523
aS'176'
p5524
aa(lp5525
I3071
aS'19'
p5526
aS'136'
p5527
aa(lp5528
I5271
aS'615'
p5529
aS'678'
p5530
aa(lp5531
I5520
aS'1'
aS'374'
p5532
aa(lp5533
I5589
aS'980'
p5534
aS'1064'
p5535
aa(lp5536
I5683
aS'14'
p5537
aS'67'
p5538
aa(lp5539
I6226
aS'18'
p5540
aS'269'
p5541
aa(lp5542
I6703
aS'1'
aS'64'
p5543
aasS'3HPV'
p5544
(lp5545
(lp5546
I368
aS'10'
p5547
aS'120'
p5548
aa(lp5549
I368
aS'152'
p5550
aS'267'
p5551
aasS'3W2L'
p5552
(lp5553
(lp5554
I4812
aS'2'
aS'293'
p5555
aasS'3W2M'
p5556
(lp5557
(lp5558
I4812
aS'2'
aS'293'
p5559
aasS'1DOR'
p5560
(lp5561
(lp5562
I4812
aS'1'
aS'293'
p5563
aasS'1F9Z'
p5564
(lp5565
(lp5566
I368
aS'3'
aS'123'
p5567
aasS'1U35'
p5568
(lp5569
(lp5570
I1405
aS'891'
p5571
aS'919'
p5572
aa(lp5573
I5541
aS'33'
p5574
aS'95'
p5575
aa(lp5576
I5994
aS'438'
p5577
aS'531'
p5578
aa(lp5579
I5994
aS'814'
p5580
aS'887'
p5581
aa(lp5582
I5994
aS'1230'
p5583
aS'1297'
p5584
aasS'3WTP'
p5585
(lp5586
(lp5587
I1405
aS'91'
p5588
aS'118'
p5589
aa(lp5590
I5541
aS'34'
p5591
aS'95'
p5592
aa(lp5593
I5994
aS'46'
p5594
aS'133'
p5595
aa(lp5596
I5994
aS'12'
p5597
aS'88'
p5598
aa(lp5599
I5994
aS'30'
p5600
aS'100'
p5601
aa(lp5602
I5994
aS'36'
p5603
aS'131'
p5604
aasS'1ZGL'
p5605
(lp5606
(lp5607
I1208
aS'123'
p5608
aS'195'
p5609
aa(lp5610
I1690
aS'95'
p5611
aS'173'
p5612
aa(lp5613
I1690
aS'103'
p5614
aS'184'
p5615
aa(lp5616
I1690
aS'137'
p5617
aS'222'
p5618
aa(lp5619
I2388
aS'6'
aS'114'
p5620
aa(lp5621
I2388
aS'6'
aS'116'
p5622
aa(lp5623
I4221
aS'14'
p5624
aS'86'
p5625
aa(lp5626
I7398
aS'4'
aS'81'
p5627
aasS'3NQX'
p5628
(lp5629
(lp5630
I2488
aS'356'
p5631
aS'500'
p5632
aa(lp5633
I4914
aS'215'
p5634
aS'353'
p5635
aasS'3NQY'
p5636
(lp5637
(lp5638
I2488
aS'356'
p5639
aS'500'
p5640
aa(lp5641
I4914
aS'215'
p5642
aS'353'
p5643
aa(lp5644
I5231
aS'64'
p5645
aS'110'
p5646
aa(lp5647
I5264
aS'148'
p5648
aS'198'
p5649
aasS'3NQZ'
p5650
(lp5651
(lp5652
I2488
aS'356'
p5653
aS'500'
p5654
aa(lp5655
I4914
aS'215'
p5656
aS'353'
p5657
aa(lp5658
I5231
aS'64'
p5659
aS'110'
p5660
aa(lp5661
I5264
aS'148'
p5662
aS'198'
p5663
aasS'3I65'
p5664
(lp5665
(lp5666
I4812
aS'208'
p5667
aS'550'
p5668
aasS'4V8M'
p5669
(lp5670
(lp5671
I62
aS'85'
p5672
aS'162'
p5673
aa(lp5674
I86
aS'2'
aS'68'
p5675
aa(lp5676
I125
aS'29'
p5677
aS'107'
p5678
aa(lp5679
I143
aS'54'
p5680
aS'150'
p5681
aa(lp5682
I143
aS'148'
p5683
aS'218'
p5684
aa(lp5685
I145
aS'10'
p5686
aS'61'
p5687
aa(lp5688
I147
aS'86'
p5689
aS'150'
p5690
aa(lp5691
I341
aS'12'
p5692
aS'107'
p5693
aa(lp5694
I472
aS'273'
p5695
aS'349'
p5696
aa(lp5697
I481
aS'4'
aS'145'
p5698
aa(lp5699
I512
aS'2'
aS'60'
p5700
aa(lp5701
I587
aS'4'
aS'97'
p5702
aa(lp5703
I625
aS'37'
p5704
aS'102'
p5705
aa(lp5706
I672
aS'2'
aS'203'
p5707
aa(lp5708
I905
aS'15'
p5709
aS'122'
p5710
aa(lp5711
I1127
aS'209'
p5712
aS'256'
p5713
aa(lp5714
I1484
aS'3'
aS'88'
p5715
aa(lp5716
I1732
aS'12'
p5717
aS'166'
p5718
aa(lp5719
I1733
aS'74'
p5720
aS'143'
p5721
aa(lp5722
I1735
aS'42'
p5723
aS'125'
p5724
aa(lp5725
I1787
aS'71'
p5726
aS'169'
p5727
aa(lp5728
I1801
aS'8'
aS'191'
p5729
aa(lp5730
I2021
aS'100'
p5731
aS'149'
p5732
aa(lp5733
I2074
aS'20'
p5734
aS'207'
p5735
aa(lp5736
I2075
aS'2'
aS'51'
p5737
aa(lp5738
I2266
aS'3'
aS'99'
p5739
aa(lp5740
I2417
aS'175'
p5741
aS'199'
p5742
aa(lp5743
I2417
aS'49'
p5744
aS'80'
p5745
aa(lp5746
I2417
aS'6'
aS'31'
p5747
aa(lp5748
I2446
aS'106'
p5749
aS'187'
p5750
aa(lp5751
I2502
aS'9'
aS'36'
p5752
aa(lp5753
I2772
aS'11'
p5754
aS'85'
p5755
aa(lp5756
I2772
aS'97'
p5757
aS'176'
p5758
aa(lp5759
I2835
aS'44'
p5760
aS'87'
p5761
aa(lp5762
I2835
aS'106'
p5763
aS'150'
p5764
aa(lp5765
I3026
aS'51'
p5766
aS'133'
p5767
aa(lp5768
I3055
aS'6'
aS'128'
p5769
aa(lp5770
I3071
aS'21'
p5771
aS'139'
p5772
aa(lp5773
I3282
aS'9'
aS'191'
p5774
aa(lp5775
I3544
aS'15'
p5776
aS'143'
p5777
aa(lp5778
I3545
aS'19'
p5779
aS'111'
p5780
aa(lp5781
I3548
aS'89'
p5782
aS'156'
p5783
aa(lp5784
I3549
aS'16'
p5785
aS'55'
p5786
aa(lp5787
I3550
aS'74'
p5788
aS'142'
p5789
aa(lp5790
I3651
aS'27'
p5791
aS'96'
p5792
aa(lp5793
I3767
aS'20'
p5794
aS'223'
p5795
aa(lp5796
I3809
aS'169'
p5797
aS'240'
p5798
aa(lp5799
I3813
aS'3'
aS'60'
p5800
aa(lp5801
I4161
aS'27'
p5802
aS'179'
p5803
aa(lp5804
I4162
aS'48'
p5805
aS'128'
p5806
aa(lp5807
I4162
aS'28'
p5808
aS'143'
p5809
aa(lp5810
I4222
aS'2'
aS'53'
p5811
aa(lp5812
I4304
aS'19'
p5813
aS'87'
p5814
aa(lp5815
I4410
aS'48'
p5816
aS'120'
p5817
aa(lp5818
I4667
aS'22'
p5819
aS'156'
p5820
aa(lp5821
I4691
aS'9'
aS'49'
p5822
aa(lp5823
I4935
aS'2'
aS'118'
p5824
aa(lp5825
I4980
aS'3'
aS'39'
p5826
aa(lp5827
I5041
aS'6'
aS'130'
p5828
aa(lp5829
I5042
aS'16'
p5830
aS'149'
p5831
aa(lp5832
I5050
aS'48'
p5833
aS'190'
p5834
aa(lp5835
I5273
aS'98'
p5836
aS'229'
p5837
aa(lp5838
I5516
aS'14'
p5839
aS'67'
p5840
aa(lp5841
I5517
aS'22'
p5842
aS'260'
p5843
aa(lp5844
I5519
aS'17'
p5845
aS'210'
p5846
aa(lp5847
I5520
aS'53'
p5848
aS'424'
p5849
aa(lp5850
I5521
aS'69'
p5851
aS'88'
p5852
aa(lp5853
I5532
aS'9'
aS'142'
p5854
aa(lp5855
I5683
aS'15'
p5856
aS'67'
p5857
aa(lp5858
I5807
aS'8'
aS'83'
p5859
aa(lp5860
I5992
aS'44'
p5861
aS'64'
p5862
aa(lp5863
I5993
aS'8'
aS'119'
p5864
aa(lp5865
I5996
aS'17'
p5866
aS'149'
p5867
aa(lp5868
I5997
aS'84'
p5869
aS'143'
p5870
aa(lp5871
I6062
aS'198'
p5872
aS'295'
p5873
aa(lp5874
I6236
aS'20'
p5875
aS'93'
p5876
aa(lp5877
I6345
aS'21'
p5878
aS'90'
p5879
aa(lp5880
I6388
aS'5'
aS'100'
p5881
aa(lp5882
I6403
aS'22'
p5883
aS'132'
p5884
aa(lp5885
I6412
aS'62'
p5886
aS'135'
p5887
aa(lp5888
I6453
aS'22'
p5889
aS'124'
p5890
aa(lp5891
I6484
aS'69'
p5892
aS'192'
p5893
aa(lp5894
I6625
aS'32'
p5895
aS'125'
p5896
aa(lp5897
I6625
aS'20'
p5898
aS'111'
p5899
aa(lp5900
I6625
aS'145'
p5901
aS'218'
p5902
aa(lp5903
I6680
aS'92'
p5904
aS'166'
p5905
aa(lp5906
I6703
aS'1'
aS'69'
p5907
aa(lp5908
I6753
aS'38'
p5909
aS'142'
p5910
aa(lp5911
I6925
aS'1'
aS'129'
p5912
aa(lp5913
I7161
aS'27'
p5914
aS'110'
p5915
aa(lp5916
I7213
aS'9'
aS'43'
p5917
aa(lp5918
I7213
aS'62'
p5919
aS'95'
p5920
aa(lp5921
I7213
aS'99'
p5922
aS'137'
p5923
aa(lp5924
I7213
aS'140'
p5925
aS'182'
p5926
aa(lp5927
I7213
aS'187'
p5928
aS'224'
p5929
aa(lp5930
I7223
aS'7'
aS'113'
p5931
aa(lp5932
I7397
aS'29'
p5933
aS'82'
p5934
aa(lp5935
I7432
aS'2'
aS'102'
p5936
aa(lp5937
I7504
aS'101'
p5938
aS'149'
p5939
aasS'2E6A'
p5940
(lp5941
(lp5942
I4812
aS'2'
aS'293'
p5943
aasS'3W2K'
p5944
(lp5945
(lp5946
I4812
aS'2'
aS'293'
p5947
aasS'2E6D'
p5948
(lp5949
(lp5950
I4812
aS'2'
aS'293'
p5951
aasS'3I68'
p5952
(lp5953
(lp5954
I4812
aS'208'
p5955
aS'550'
p5956
aasS'2E6F'
p5957
(lp5958
(lp5959
I4812
aS'2'
aS'293'
p5960
aasS'2ICW'
p5961
(lp5962
(lp5963
I1690
aS'95'
p5964
aS'173'
p5965
aa(lp5966
I1690
aS'103'
p5967
aS'184'
p5968
aa(lp5969
I2388
aS'7'
aS'110'
p5970
aa(lp5971
I2388
aS'6'
aS'110'
p5972
aa(lp5973
I4221
aS'14'
p5974
aS'86'
p5975
aa(lp5976
I4487
aS'1'
aS'212'
p5977
aa(lp5978
I7398
aS'4'
aS'81'
p5979
aasS'1KL6'
p5980
(lp5981
(lp5982
I2488
aS'153'
p5983
aS'315'
p5984
aa(lp5985
I4914
aS'8'
aS'150'
p5986
aasS'3MJY'
p5987
(lp5988
(lp5989
I4812
aS'3'
aS'293'
p5990
aasS'3I6R'
p5991
(lp5992
(lp5993
I4812
aS'208'
p5994
aS'550'
p5995
aasS'1LO5'
p5996
(lp5997
(lp5998
I1680
aS'37'
p5999
aS'113'
p6000
aa(lp6001
I1690
aS'95'
p6002
aS'173'
p6003
aa(lp6004
I1690
aS'103'
p6005
aS'184'
p6006
aa(lp6007
I4221
aS'14'
p6008
aS'86'
p6009
aa(lp6010
I6311
aS'123'
p6011
aS'230'
p6012
aa(lp6013
I7398
aS'4'
aS'81'
p6014
aasS'2WBJ'
p6015
(lp6016
(lp6017
I1208
aS'119'
p6018
aS'191'
p6019
aa(lp6020
I1690
aS'95'
p6021
aS'173'
p6022
aa(lp6023
I1690
aS'103'
p6024
aS'184'
p6025
aa(lp6026
I1690
aS'160'
p6027
aS'245'
p6028
aa(lp6029
I2388
aS'8'
aS'111'
p6030
aa(lp6031
I2388
aS'28'
p6032
aS'140'
p6033
aa(lp6034
I4221
aS'14'
p6035
aS'86'
p6036
aa(lp6037
I7398
aS'4'
aS'81'
p6038
aasS'1KLG'
p6039
(lp6040
(lp6041
I1680
aS'26'
p6042
aS'117'
p6043
aa(lp6044
I1690
aS'95'
p6045
aS'173'
p6046
aa(lp6047
I1690
aS'103'
p6048
aS'184'
p6049
aa(lp6050
I4221
aS'14'
p6051
aS'86'
p6052
aa(lp6053
I6311
aS'130'
p6054
aS'234'
p6055
aa(lp6056
I7398
aS'4'
aS'81'
p6057
aasS'2E68'
p6058
(lp6059
(lp6060
I4812
aS'2'
aS'293'
p6061
aasS'1KLU'
p6062
(lp6063
(lp6064
I1680
aS'26'
p6065
aS'117'
p6066
aa(lp6067
I1690
aS'95'
p6068
aS'173'
p6069
aa(lp6070
I1690
aS'103'
p6071
aS'184'
p6072
aa(lp6073
I4221
aS'14'
p6074
aS'86'
p6075
aa(lp6076
I6311
aS'130'
p6077
aS'234'
p6078
aa(lp6079
I7398
aS'4'
aS'81'
p6080
aasS'4WU8'
p6081
(lp6082
(lp6083
I1405
aS'91'
p6084
aS'119'
p6085
aa(lp6086
I5541
aS'33'
p6087
aS'95'
p6088
aa(lp6089
I5994
aS'38'
p6090
aS'131'
p6091
aa(lp6092
I5994
aS'14'
p6093
aS'88'
p6094
aa(lp6095
I5994
aS'28'
p6096
aS'97'
p6097
aasS'4WU9'
p6098
(lp6099
(lp6100
I1405
aS'91'
p6101
aS'119'
p6102
aa(lp6103
I5541
aS'33'
p6104
aS'95'
p6105
aa(lp6106
I5994
aS'38'
p6107
aS'131'
p6108
aa(lp6109
I5994
aS'14'
p6110
aS'88'
p6111
aa(lp6112
I5994
aS'28'
p6113
aS'97'
p6114
aasS'3AFA'
p6115
(lp6116
(lp6117
I1405
aS'91'
p6118
aS'118'
p6119
aa(lp6120
I5541
aS'34'
p6121
aS'95'
p6122
aa(lp6123
I5994
aS'38'
p6124
aS'131'
p6125
aa(lp6126
I5994
aS'11'
p6127
aS'88'
p6128
aa(lp6129
I5994
aS'30'
p6130
aS'100'
p6131
aasS'4J8X'
p6132
(lp6133
(lp6134
I1405
aS'91'
p6135
aS'119'
p6136
aa(lp6137
I5541
aS'33'
p6138
aS'95'
p6139
aa(lp6140
I5994
aS'38'
p6141
aS'131'
p6142
aa(lp6143
I5994
aS'14'
p6144
aS'88'
p6145
aa(lp6146
I5994
aS'28'
p6147
aS'97'
p6148
aasS'1BX2'
p6149
(lp6150
(lp6151
I1142
aS'85'
p6152
aS'98'
p6153
aa(lp6154
I1690
aS'95'
p6155
aS'173'
p6156
aa(lp6157
I1690
aS'103'
p6158
aS'184'
p6159
aa(lp6160
I4221
aS'14'
p6161
aS'86'
p6162
aa(lp6163
I7398
aS'4'
aS'81'
p6164
aasS'4J8V'
p6165
(lp6166
(lp6167
I1405
aS'91'
p6168
aS'119'
p6169
aa(lp6170
I5541
aS'33'
p6171
aS'95'
p6172
aa(lp6173
I5994
aS'38'
p6174
aS'131'
p6175
aa(lp6176
I5994
aS'14'
p6177
aS'88'
p6178
aa(lp6179
I5994
aS'28'
p6180
aS'97'
p6181
aasS'4WZH'
p6182
(lp6183
(lp6184
I4812
aS'3'
aS'294'
p6185
aasS'4J8U'
p6186
(lp6187
(lp6188
I1405
aS'91'
p6189
aS'119'
p6190
aa(lp6191
I5541
aS'33'
p6192
aS'95'
p6193
aa(lp6194
I5994
aS'38'
p6195
aS'131'
p6196
aa(lp6197
I5994
aS'14'
p6198
aS'88'
p6199
aa(lp6200
I5994
aS'28'
p6201
aS'97'
p6202
aasS'6TMN'
p6203
(lp6204
(lp6205
I2488
aS'153'
p6206
aS'315'
p6207
aa(lp6208
I4914
aS'8'
aS'150'
p6209
aasS'2HUE'
p6210
(lp6211
(lp6212
I5541
aS'34'
p6213
aS'95'
p6214
aa(lp6215
I5994
aS'61'
p6216
aS'131'
p6217
aa(lp6218
I7218
aS'2'
aS'154'
p6219
aasS'2G4Z'
p6220
(lp6221
(lp6222
I2488
aS'153'
p6223
aS'315'
p6224
aa(lp6225
I4914
aS'8'
aS'150'
p6226
aasS'3KXB'
p6227
(lp6228
(lp6229
I1405
aS'91'
p6230
aS'118'
p6231
aa(lp6232
I5541
aS'33'
p6233
aS'95'
p6234
aa(lp6235
I5994
aS'42'
p6236
aS'131'
p6237
aa(lp6238
I5994
aS'14'
p6239
aS'88'
p6240
aa(lp6241
I5994
aS'37'
p6242
aS'97'
p6243
aasS'2TLX'
p6244
(lp6245
(lp6246
I2488
aS'153'
p6247
aS'315'
p6248
aa(lp6249
I4914
aS'8'
aS'150'
p6250
aasS'2FQI'
p6251
(lp6252
(lp6253
I4812
aS'78'
p6254
aS'378'
p6255
aasS'3AV1'
p6256
(lp6257
(lp6258
I1405
aS'91'
p6259
aS'118'
p6260
aa(lp6261
I1405
aS'91'
p6262
aS'118'
p6263
aa(lp6264
I5541
aS'34'
p6265
aS'95'
p6266
aa(lp6267
I5541
aS'34'
p6268
aS'95'
p6269
aa(lp6270
I5994
aS'39'
p6271
aS'131'
p6272
aa(lp6273
I5994
aS'14'
p6274
aS'88'
p6275
aa(lp6276
I5994
aS'32'
p6277
aS'100'
p6278
aa(lp6279
I5994
aS'39'
p6280
aS'131'
p6281
aa(lp6282
I5994
aS'14'
p6283
aS'88'
p6284
aa(lp6285
I5994
aS'32'
p6286
aS'100'
p6287
aasS'4LD9'
p6288
(lp6289
(lp6290
I1405
aS'91'
p6291
aS'117'
p6292
aa(lp6293
I3365
aS'50'
p6294
aS'187'
p6295
aa(lp6296
I5541
aS'33'
p6297
aS'95'
p6298
aa(lp6299
I5994
aS'37'
p6300
aS'131'
p6301
aa(lp6302
I5994
aS'20'
p6303
aS'88'
p6304
aa(lp6305
I5994
aS'38'
p6306
aS'101'
p6307
aasS'3LZ0'
p6308
(lp6309
(lp6310
I1405
aS'91'
p6311
aS'118'
p6312
aa(lp6313
I5541
aS'33'
p6314
aS'95'
p6315
aa(lp6316
I5994
aS'38'
p6317
aS'131'
p6318
aa(lp6319
I5994
aS'16'
p6320
aS'88'
p6321
aa(lp6322
I5994
aS'28'
p6323
aS'97'
p6324
aasS'4GBX'
p6325
(lp6326
(lp6327
I1690
aS'110'
p6328
aS'181'
p6329
aa(lp6330
I1690
aS'107'
p6331
aS'185'
p6332
aa(lp6333
I1690
aS'95'
p6334
aS'173'
p6335
aa(lp6336
I1690
aS'103'
p6337
aS'184'
p6338
aa(lp6339
I4221
aS'9'
aS'87'
p6340
aa(lp6341
I4221
aS'14'
p6342
aS'86'
p6343
aa(lp6344
I7398
aS'15'
p6345
aS'88'
p6346
aa(lp6347
I7398
aS'4'
aS'81'
p6348
aasS'3S4S'
p6349
(lp6350
(lp6351
I1690
aS'95'
p6352
aS'173'
p6353
aa(lp6354
I1690
aS'103'
p6355
aS'184'
p6356
aa(lp6357
I4082
aS'1'
aS'97'
p6358
aa(lp6359
I4221
aS'14'
p6360
aS'86'
p6361
aa(lp6362
I6254
aS'101'
p6363
aS'177'
p6364
aa(lp6365
I7398
aS'4'
aS'81'
p6366
aasS'3MS3'
p6367
(lp6368
(lp6369
I2488
aS'153'
p6370
aS'315'
p6371
aa(lp6372
I4914
aS'8'
aS'150'
p6373
aasS'1U3H'
p6374
(lp6375
(lp6376
I1690
aS'93'
p6377
aS'174'
p6378
aa(lp6379
I1690
aS'105'
p6380
aS'184'
p6381
aa(lp6382
I2388
aS'5'
aS'114'
p6383
aa(lp6384
I2388
aS'6'
aS'117'
p6385
aa(lp6386
I4221
aS'15'
p6387
aS'84A'
p6388
aa(lp6389
I7398
aS'4'
aS'83'
p6390
aasS'3MSN'
p6391
(lp6392
(lp6393
I2488
aS'153'
p6394
aS'315'
p6395
aa(lp6396
I4914
aS'8'
aS'150'
p6397
aasS'3MSA'
p6398
(lp6399
(lp6400
I2488
aS'153'
p6401
aS'315'
p6402
aa(lp6403
I4914
aS'8'
aS'150'
p6404
aasS'1ZBB'
p6405
(lp6406
(lp6407
I1405
aS'91'
p6408
aS'120'
p6409
aa(lp6410
I5541
aS'33'
p6411
aS'95'
p6412
aa(lp6413
I5994
aS'39'
p6414
aS'131'
p6415
aa(lp6416
I5994
aS'10'
p6417
aS'88'
p6418
aa(lp6419
I5994
aS'8'
aS'97'
p6420
aasS'3ZWT'
p6421
(lp6422
(lp6423
I4812
aS'78'
p6424
aS'378'
p6425
aasS'3MSF'
p6426
(lp6427
(lp6428
I2488
aS'153'
p6429
aS'315'
p6430
aa(lp6431
I4914
aS'8'
aS'150'
p6432
aasS'3EY7'
p6433
(lp6434
(lp6435
I368
aS'10'
p6436
aS'126'
p6437
aasS'3PDO'
p6438
(lp6439
(lp6440
I1690
aS'95'
p6441
aS'173'
p6442
aa(lp6443
I1690
aS'103'
p6444
aS'184'
p6445
aa(lp6446
I4221
aS'14'
p6447
aS'86'
p6448
aa(lp6449
I7398
aS'4'
aS'81'
p6450
aasS'1KG0'
p6451
(lp6452
(lp6453
I1690
aS'95'
p6454
aS'173'
p6455
aa(lp6456
I1690
aS'103'
p6457
aS'184'
p6458
aa(lp6459
I4221
aS'14'
p6460
aS'86'
p6461
aa(lp6462
I7398
aS'4'
aS'81'
p6463
aasS'3G0X'
p6464
(lp6465
(lp6466
I4812
aS'78'
p6467
aS'378'
p6468
aasS'4J8W'
p6469
(lp6470
(lp6471
I1405
aS'91'
p6472
aS'119'
p6473
aa(lp6474
I5541
aS'33'
p6475
aS'95'
p6476
aa(lp6477
I5994
aS'38'
p6478
aS'131'
p6479
aa(lp6480
I5994
aS'14'
p6481
aS'88'
p6482
aa(lp6483
I5994
aS'28'
p6484
aS'97'
p6485
aasS'1D9K'
p6486
(lp6487
(lp6488
I1690
aS'93'
p6489
aS'174'
p6490
aa(lp6491
I1690
aS'105'
p6492
aS'184'
p6493
aa(lp6494
I2388
aS'5'
aS'114'
p6495
aa(lp6496
I2388
aS'6'
aS'116A'
p6497
aa(lp6498
I4221
aS'15'
p6499
aS'84A'
p6500
aa(lp6501
I7398
aS'4'
aS'83'
p6502
aasS'3C3N'
p6503
(lp6504
(lp6505
I4812
aS'4'
aS'295'
p6506
aasS'4D9W'
p6507
(lp6508
(lp6509
I2488
aS'153'
p6510
aS'315'
p6511
aa(lp6512
I4914
aS'8'
aS'150'
p6513
aasS'2OJE'
p6514
(lp6515
(lp6516
I1690
aS'95'
p6517
aS'173'
p6518
aa(lp6519
I1690
aS'103'
p6520
aS'184'
p6521
aa(lp6522
I4221
aS'14'
p6523
aS'86'
p6524
aa(lp6525
I4487
aS'0'
aS'212'
p6526
aa(lp6527
I7398
aS'4'
aS'81'
p6528
aasS'3U2O'
p6529
(lp6530
(lp6531
I4812
aS'78'
p6532
aS'378'
p6533
aasS'3ECJ'
p6534
(lp6535
(lp6536
I368
aS'19'
p6537
aS'104'
p6538
aa(lp6539
I368
aS'152'
p6540
aS'268'
p6541
aasS'3W1M'
p6542
(lp6543
(lp6544
I4812
aS'2'
aS'293'
p6545
aasS'3O6F'
p6546
(lp6547
(lp6548
I1208
aS'116'
p6549
aS'188'
p6550
aa(lp6551
I1690
aS'95'
p6552
aS'173'
p6553
aa(lp6554
I1690
aS'132'
p6555
aS'213'
p6556
aa(lp6557
I1690
aS'134'
p6558
aS'219'
p6559
aa(lp6560
I2388
aS'5'
aS'107'
p6561
aa(lp6562
I2388
aS'4'
aS'114'
p6563
aa(lp6564
I4221
aS'43'
p6565
aS'115'
p6566
aa(lp6567
I7398
aS'4'
aS'81'
p6568
aasS'3REH'
p6569
(lp6570
(lp6571
I1405
aS'91'
p6572
aS'119'
p6573
aa(lp6574
I5541
aS'33'
p6575
aS'95'
p6576
aa(lp6577
I5994
aS'38'
p6578
aS'131'
p6579
aa(lp6580
I5994
aS'14'
p6581
aS'88'
p6582
aa(lp6583
I5994
aS'28'
p6584
aS'97'
p6585
aasS'3REI'
p6586
(lp6587
(lp6588
I1405
aS'91'
p6589
aS'119'
p6590
aa(lp6591
I5541
aS'33'
p6592
aS'95'
p6593
aa(lp6594
I5994
aS'38'
p6595
aS'131'
p6596
aa(lp6597
I5994
aS'14'
p6598
aS'88'
p6599
aa(lp6600
I5994
aS'28'
p6601
aS'97'
p6602
aasS'3REJ'
p6603
(lp6604
(lp6605
I1405
aS'91'
p6606
aS'118'
p6607
aa(lp6608
I5541
aS'33'
p6609
aS'95'
p6610
aa(lp6611
I5994
aS'38'
p6612
aS'131'
p6613
aa(lp6614
I5994
aS'16'
p6615
aS'88'
p6616
aa(lp6617
I5994
aS'24'
p6618
aS'97'
p6619
aasS'3REK'
p6620
(lp6621
(lp6622
I1405
aS'91'
p6623
aS'118'
p6624
aa(lp6625
I5541
aS'33'
p6626
aS'95'
p6627
aa(lp6628
I5994
aS'38'
p6629
aS'131'
p6630
aa(lp6631
I5994
aS'16'
p6632
aS'88'
p6633
aa(lp6634
I5994
aS'24'
p6635
aS'97'
p6636
aasS'3REL'
p6637
(lp6638
(lp6639
I1405
aS'91'
p6640
aS'118'
p6641
aa(lp6642
I5541
aS'33'
p6643
aS'95'
p6644
aa(lp6645
I5994
aS'38'
p6646
aS'131'
p6647
aa(lp6648
I5994
aS'16'
p6649
aS'88'
p6650
aa(lp6651
I5994
aS'24'
p6652
aS'97'
p6653
aasS'4PV5'
p6654
(lp6655
(lp6656
I368
aS'33'
p6657
aS'174'
p6658
aasS'3DO0'
p6659
(lp6660
(lp6661
I2488
aS'153'
p6662
aS'315'
p6663
aa(lp6664
I4914
aS'8'
aS'150'
p6665
aasS'5AN9'
p6666
(lp6667
(lp6668
I200
aS'14'
p6669
aS'100'
p6670
aa(lp6671
I400
aS'107'
p6672
aS'225'
p6673
aa(lp6674
I701
aS'4'
aS'203'
p6675
aa(lp6676
I1732
aS'12'
p6677
aS'166'
p6678
aa(lp6679
I1733
aS'75'
p6680
aS'143'
p6681
aa(lp6682
I1734
aS'6'
aS'103'
p6683
aa(lp6684
I2075
aS'1'
aS'50'
p6685
aa(lp6686
I2772
aS'12'
p6687
aS'85'
p6688
aa(lp6689
I2772
aS'97'
p6690
aS'176'
p6691
aa(lp6692
I3071
aS'19'
p6693
aS'136'
p6694
aa(lp6695
I5520
aS'1'
aS'374'
p6696
aa(lp6697
I5683
aS'14'
p6698
aS'67'
p6699
aa(lp6700
I6703
aS'1'
aS'64'
p6701
aasS'3NN7'
p6702
(lp6703
(lp6704
I2488
aS'153'
p6705
aS'315'
p6706
aa(lp6707
I4914
aS'8'
aS'150'
p6708
aasS'3GZ3'
p6709
(lp6710
(lp6711
I4812
aS'3'
aS'293'
p6712
aasS'3QH5'
p6713
(lp6714
(lp6715
I2488
aS'153'
p6716
aS'315'
p6717
aa(lp6718
I4914
aS'8'
aS'150'
p6719
aasS'3LM4'
p6720
(lp6721
(lp6722
I368
aS'152'
p6723
aS'269'
p6724
aasS'3QH1'
p6725
(lp6726
(lp6727
I2488
aS'153'
p6728
aS'315'
p6729
aa(lp6730
I4914
aS'8'
aS'150'
p6731
aasS'1HXY'
p6732
(lp6733
(lp6734
I1680
aS'27'
p6735
aS'98'
p6736
aa(lp6737
I1690
aS'95'
p6738
aS'173'
p6739
aa(lp6740
I1690
aS'103'
p6741
aS'184'
p6742
aa(lp6743
I4221
aS'14'
p6744
aS'86'
p6745
aa(lp6746
I6311
aS'110'
p6747
aS'211'
p6748
aa(lp6749
I7398
aS'4'
aS'81'
p6750
aasS'3SFK'
p6751
(lp6752
(lp6753
I4812
aS'208'
p6754
aS'550'
p6755
aasS'1SEB'
p6756
(lp6757
(lp6758
I1680
aS'27'
p6759
aS'119'
p6760
aa(lp6761
I1690
aS'95'
p6762
aS'173'
p6763
aa(lp6764
I1690
aS'103'
p6765
aS'184'
p6766
aa(lp6767
I4221
aS'14'
p6768
aS'86'
p6769
aa(lp6770
I6311
aS'131'
p6771
aS'234'
p6772
aa(lp6773
I7398
aS'4'
aS'81'
p6774
aasS'2CV5'
p6775
(lp6776
(lp6777
I1405
aS'91'
p6778
aS'118'
p6779
aa(lp6780
I5541
aS'33'
p6781
aS'95'
p6782
aa(lp6783
I5994
aS'38'
p6784
aS'131'
p6785
aa(lp6786
I5994
aS'11'
p6787
aS'88'
p6788
aa(lp6789
I5994
aS'27'
p6790
aS'97'
p6791
aasS'4JGD'
p6792
(lp6793
(lp6794
I4812
aS'78'
p6795
aS'378'
p6796
aasS'3ZGJ'
p6797
(lp6798
(lp6799
I368
aS'179'
p6800
aS'326'
p6801
aa(lp6802
I4782
aS'55'
p6803
aS'121'
p6804
aasS'4D91'
p6805
(lp6806
(lp6807
I2488
aS'153'
p6808
aS'315'
p6809
aa(lp6810
I4914
aS'8'
aS'150'
p6811
aasS'3KVL'
p6812
(lp6813
(lp6814
I4812
aS'78'
p6815
aS'378'
p6816
aasS'3KVM'
p6817
(lp6818
(lp6819
I4812
aS'78'
p6820
aS'378'
p6821
aasS'3O62'
p6822
(lp6823
(lp6824
I1405
aS'91'
p6825
aS'118'
p6826
aa(lp6827
I5541
aS'33'
p6828
aS'95'
p6829
aa(lp6830
I5994
aS'38'
p6831
aS'131'
p6832
aa(lp6833
I5994
aS'14'
p6834
aS'88'
p6835
aa(lp6836
I5994
aS'28'
p6837
aS'97'
p6838
aasS'3KVJ'
p6839
(lp6840
(lp6841
I4812
aS'78'
p6842
aS'378'
p6843
aasS'3KVK'
p6844
(lp6845
(lp6846
I4812
aS'78'
p6847
aS'378'
p6848
aasS'3W1N'
p6849
(lp6850
(lp6851
I4812
aS'2'
aS'293'
p6852
aasS'3AZF'
p6853
(lp6854
(lp6855
I1405
aS'91'
p6856
aS'118'
p6857
aa(lp6858
I5541
aS'34'
p6859
aS'95'
p6860
aa(lp6861
I5994
aS'38'
p6862
aS'131'
p6863
aa(lp6864
I5994
aS'11'
p6865
aS'88'
p6866
aa(lp6867
I5994
aS'31'
p6868
aS'100'
p6869
aasS'3AZG'
p6870
(lp6871
(lp6872
I1405
aS'91'
p6873
aS'118'
p6874
aa(lp6875
I5541
aS'34'
p6876
aS'95'
p6877
aa(lp6878
I5994
aS'38'
p6879
aS'131'
p6880
aa(lp6881
I5994
aS'11'
p6882
aS'88'
p6883
aa(lp6884
I5994
aS'31'
p6885
aS'100'
p6886
aasS'3AZE'
p6887
(lp6888
(lp6889
I1405
aS'91'
p6890
aS'118'
p6891
aa(lp6892
I5541
aS'34'
p6893
aS'95'
p6894
aa(lp6895
I5994
aS'38'
p6896
aS'131'
p6897
aa(lp6898
I5994
aS'11'
p6899
aS'88'
p6900
aa(lp6901
I5994
aS'31'
p6902
aS'100'
p6903
aasS'3AZJ'
p6904
(lp6905
(lp6906
I1405
aS'91'
p6907
aS'110'
p6908
aa(lp6909
I1405
aS'91'
p6910
aS'110'
p6911
aa(lp6912
I5541
aS'33'
p6913
aS'95'
p6914
aa(lp6915
I5541
aS'33'
p6916
aS'95'
p6917
aa(lp6918
I5994
aS'38'
p6919
aS'131'
p6920
aa(lp6921
I5994
aS'11'
p6922
aS'88'
p6923
aa(lp6924
I5994
aS'29'
p6925
aS'100'
p6926
aa(lp6927
I5994
aS'38'
p6928
aS'131'
p6929
aa(lp6930
I5994
aS'11'
p6931
aS'88'
p6932
aa(lp6933
I5994
aS'29'
p6934
aS'100'
p6935
aasS'3AZK'
p6936
(lp6937
(lp6938
I1405
aS'91'
p6939
aS'118'
p6940
aa(lp6941
I5541
aS'34'
p6942
aS'95'
p6943
aa(lp6944
I5994
aS'38'
p6945
aS'131'
p6946
aa(lp6947
I5994
aS'11'
p6948
aS'88'
p6949
aa(lp6950
I5994
aS'30'
p6951
aS'100'
p6952
aasS'3AZH'
p6953
(lp6954
(lp6955
I1405
aS'91'
p6956
aS'118'
p6957
aa(lp6958
I5541
aS'34'
p6959
aS'95'
p6960
aa(lp6961
I5994
aS'38'
p6962
aS'131'
p6963
aa(lp6964
I5994
aS'13'
p6965
aS'88'
p6966
aa(lp6967
I5994
aS'30'
p6968
aS'100'
p6969
aasS'3AZI'
p6970
(lp6971
(lp6972
I1405
aS'91'
p6973
aS'118'
p6974
aa(lp6975
I5541
aS'40'
p6976
aS'95'
p6977
aa(lp6978
I5994
aS'38'
p6979
aS'131'
p6980
aa(lp6981
I5994
aS'11'
p6982
aS'88'
p6983
aa(lp6984
I5994
aS'30'
p6985
aS'100'
p6986
aasS'3AZN'
p6987
(lp6988
(lp6989
I1405
aS'91'
p6990
aS'118'
p6991
aa(lp6992
I5541
aS'34'
p6993
aS'95'
p6994
aa(lp6995
I5994
aS'38'
p6996
aS'131'
p6997
aa(lp6998
I5994
aS'11'
p6999
aS'88'
p7000
aa(lp7001
I5994
aS'30'
p7002
aS'100'
p7003
aasS'3AZL'
p7004
(lp7005
(lp7006
I1405
aS'91'
p7007
aS'118'
p7008
aa(lp7009
I5541
aS'34'
p7010
aS'95'
p7011
aa(lp7012
I5994
aS'38'
p7013
aS'131'
p7014
aa(lp7015
I5994
aS'11'
p7016
aS'88'
p7017
aa(lp7018
I5994
aS'31'
p7019
aS'100'
p7020
aasS'4RYH'
p7021
(lp7022
(lp7023
I4812
aS'208'
p7024
aS'550'
p7025
aasS'1TMN'
p7026
(lp7027
(lp7028
I2488
aS'153'
p7029
aS'315'
p7030
aa(lp7031
I4914
aS'8'
aS'150'
p7032
aasS'3UTB'
p7033
(lp7034
(lp7035
I1405
aS'91'
p7036
aS'118'
p7037
aa(lp7038
I5541
aS'33'
p7039
aS'95'
p7040
aa(lp7041
I5994
aS'38'
p7042
aS'131'
p7043
aa(lp7044
I5994
aS'16'
p7045
aS'88'
p7046
aa(lp7047
I5994
aS'24'
p7048
aS'97'
p7049
aasS'1FJQ'
p7050
(lp7051
(lp7052
I2488
aS'153'
p7053
aS'315'
p7054
aa(lp7055
I4914
aS'8'
aS'150'
p7056
aasS'4B52'
p7057
(lp7058
(lp7059
I2488
aS'146'
p7060
aS'303'
p7061
aa(lp7062
I4914
aS'2'
aS'143'
p7063
aasS'1FJW'
p7064
(lp7065
(lp7066
I2488
aS'153'
p7067
aS'315'
p7068
aa(lp7069
I4914
aS'8'
aS'150'
p7070
aasS'1FJV'
p7071
(lp7072
(lp7073
I2488
aS'153'
p7074
aS'315'
p7075
aa(lp7076
I4914
aS'8'
aS'150'
p7077
aasS'1FJU'
p7078
(lp7079
(lp7080
I2488
aS'153'
p7081
aS'315'
p7082
aa(lp7083
I4914
aS'8'
aS'150'
p7084
aasS'1FJT'
p7085
(lp7086
(lp7087
I2488
aS'153'
p7088
aS'315'
p7089
aa(lp7090
I4914
aS'8'
aS'150'
p7091
aasS'2G9H'
p7092
(lp7093
(lp7094
I1680
aS'54'
p7095
aS'83'
p7096
aa(lp7097
I1690
aS'95'
p7098
aS'173'
p7099
aa(lp7100
I1690
aS'103'
p7101
aS'184'
p7102
aa(lp7103
I4221
aS'14'
p7104
aS'86'
p7105
aa(lp7106
I6311
aS'94'
p7107
aS'212'
p7108
aa(lp7109
I7398
aS'4'
aS'81'
p7110
aasS'3PGC'
p7111
(lp7112
(lp7113
I1690
aS'95'
p7114
aS'173'
p7115
aa(lp7116
I1690
aS'103'
p7117
aS'184'
p7118
aa(lp7119
I4221
aS'14'
p7120
aS'86'
p7121
aa(lp7122
I7398
aS'4'
aS'81'
p7123
aasS'3PGD'
p7124
(lp7125
(lp7126
I1690
aS'95'
p7127
aS'173'
p7128
aa(lp7129
I1690
aS'103'
p7130
aS'184'
p7131
aa(lp7132
I4221
aS'14'
p7133
aS'86'
p7134
aa(lp7135
I7398
aS'4'
aS'81'
p7136
aasS'1J8H'
p7137
(lp7138
(lp7139
I1208
aS'123'
p7140
aS'195'
p7141
aa(lp7142
I1690
aS'95'
p7143
aS'173'
p7144
aa(lp7145
I1690
aS'103'
p7146
aS'184'
p7147
aa(lp7148
I1690
aS'137'
p7149
aS'222'
p7150
aa(lp7151
I2388
aS'8'
aS'114'
p7152
aa(lp7153
I2388
aS'6'
aS'116'
p7154
aa(lp7155
I4221
aS'14'
p7156
aS'86'
p7157
aa(lp7158
I7398
aS'4'
aS'81'
p7159
aasS'4D8P'
p7160
(lp7161
(lp7162
I1690
aS'94'
p7163
aS'173'
p7164
aa(lp7165
I1690
aS'103'
p7166
aS'184'
p7167
aa(lp7168
I4221
aS'14'
p7169
aS'85'
p7170
aa(lp7171
I7398
aS'4'
aS'82'
p7172
aasS'3T73'
p7173
(lp7174
(lp7175
I2488
aS'153'
p7176
aS'315'
p7177
aa(lp7178
I4914
aS'8'
aS'150'
p7179
aasS'4Z66'
p7180
(lp7181
(lp7182
I1405
aS'891'
p7183
aS'920'
p7184
aa(lp7185
I5541
aS'38'
p7186
aS'98'
p7187
aa(lp7188
I5994
aS'439'
p7189
aS'531'
p7190
aa(lp7191
I5994
aS'818'
p7192
aS'888'
p7193
aa(lp7194
I5994
aS'1230'
p7195
aS'1297'
p7196
aasS'3FOR'
p7197
(lp7198
(lp7199
I2488
aS'153'
p7200
aS'315'
p7201
aa(lp7202
I4914
aS'8'
aS'150'
p7203
aasS'1H7W'
p7204
(lp7205
(lp7206
I1416
aS'946'
p7207
aS'1004'
p7208
aa(lp7209
I1417
aS'57'
p7210
aS'166'
p7211
aa(lp7212
I4812
aS'534'
p7213
aS'838'
p7214
aa(lp7215
I7341
aS'189'
p7216
aS'490'
p7217
aasS'4YS3'
p7218
(lp7219
(lp7220
I1405
aS'891'
p7221
aS'920'
p7222
aa(lp7223
I5541
aS'35'
p7224
aS'95'
p7225
aa(lp7226
I5994
aS'439'
p7227
aS'531'
p7228
aa(lp7229
I5994
aS'818'
p7230
aS'888'
p7231
aa(lp7232
I5994
aS'1231'
p7233
aS'1297'
p7234
aasS'4AH2'
p7235
(lp7236
(lp7237
I1690
aS'95'
p7238
aS'173'
p7239
aa(lp7240
I1690
aS'103'
p7241
aS'184'
p7242
aa(lp7243
I4221
aS'14'
p7244
aS'86'
p7245
aa(lp7246
I7398
aS'4'
aS'81'
p7247
aasS'1H7X'
p7248
(lp7249
(lp7250
I1416
aS'946'
p7251
aS'1004'
p7252
aa(lp7253
I1417
aS'57'
p7254
aS'166'
p7255
aa(lp7256
I4812
aS'534'
p7257
aS'838'
p7258
aa(lp7259
I7341
aS'189'
p7260
aS'490'
p7261
aasS'2FPT'
p7262
(lp7263
(lp7264
I4812
aS'78'
p7265
aS'378'
p7266
aasS'2FPV'
p7267
(lp7268
(lp7269
I4812
aS'78'
p7270
aS'378'
p7271
aasS'2FPY'
p7272
(lp7273
(lp7274
I4812
aS'78'
p7275
aS'378'
p7276
aasS'2B4G'
p7277
(lp7278
(lp7279
I4812
aS'3'
aS'294'
p7280
aasS'1LKD'
p7281
(lp7282
(lp7283
I368
aS'143'
p7284
aS'261'
p7285
aasS'4QLC'
p7286
(lp7287
(lp7288
I1405
aS'90'
p7289
aS'117'
p7290
aa(lp7291
I5541
aS'33'
p7292
aS'95'
p7293
aa(lp7294
I5994
aS'38'
p7295
aS'131'
p7296
aa(lp7297
I5994
aS'14'
p7298
aS'87'
p7299
aa(lp7300
I5994
aS'29'
p7301
aS'97'
p7302
aa(lp7303
I6418
aS'25'
p7304
aS'96'
p7305
aasS'3B6F'
p7306
(lp7307
(lp7308
I1405
aS'91'
p7309
aS'120'
p7310
aa(lp7311
I5541
aS'33'
p7312
aS'95'
p7313
aa(lp7314
I5994
aS'33'
p7315
aS'131'
p7316
aa(lp7317
I5994
aS'15'
p7318
aS'88'
p7319
aa(lp7320
I5994
aS'22'
p7321
aS'97'
p7322
aasS'1SP8'
p7323
(lp7324
(lp7325
I368
aS'217'
p7326
aS'373'
p7327
aasS'1SP9'
p7328
(lp7329
(lp7330
I368
aS'223'
p7331
aS'379'
p7332
aasS'2TLI'
p7333
(lp7334
(lp7335
I2488
aS'153'
p7336
aS'315'
p7337
aa(lp7338
I4914
aS'8'
aS'150'
p7339
aasS'1OS0'
p7340
(lp7341
(lp7342
I2488
aS'153'
p7343
aS'315'
p7344
aa(lp7345
I4914
aS'8'
aS'150'
p7346
aasS'3KOL'
p7347
(lp7348
(lp7349
I368
aS'19'
p7350
aS'148'
p7351
aasS'4Z6L'
p7352
(lp7353
(lp7354
I368
aS'22'
p7355
aS'107'
p7356
aa(lp7357
I368
aS'155'
p7358
aS'271'
p7359
aasS'4Z6M'
p7360
(lp7361
(lp7362
I368
aS'22'
p7363
aS'107'
p7364
aa(lp7365
I368
aS'155'
p7366
aS'271'
p7367
aasS'4Z6N'
p7368
(lp7369
(lp7370
I368
aS'21'
p7371
aS'106'
p7372
aa(lp7373
I368
aS'154'
p7374
aS'270'
p7375
aasS'4Z6O'
p7376
(lp7377
(lp7378
I368
aS'21'
p7379
aS'106'
p7380
aa(lp7381
I368
aS'154'
p7382
aS'270'
p7383
aasS'1FJ3'
p7384
(lp7385
(lp7386
I2488
aS'153'
p7387
aS'315'
p7388
aa(lp7389
I4914
aS'8'
aS'150'
p7390
aasS'1KR6'
p7391
(lp7392
(lp7393
I2488
aS'153'
p7394
aS'315'
p7395
aa(lp7396
I4914
aS'8'
aS'150'
p7397
aasS'4Z6Z'
p7398
(lp7399
(lp7400
I368
aS'22'
p7401
aS'107'
p7402
aa(lp7403
I368
aS'155'
p7404
aS'271'
p7405
aasS'4Z6P'
p7406
(lp7407
(lp7408
I368
aS'22'
p7409
aS'107'
p7410
aa(lp7411
I368
aS'155'
p7412
aS'271'
p7413
aasS'4Z6Q'
p7414
(lp7415
(lp7416
I368
aS'22'
p7417
aS'107'
p7418
aa(lp7419
I368
aS'155'
p7420
aS'271'
p7421
aasS'4Z6R'
p7422
(lp7423
(lp7424
I368
aS'22'
p7425
aS'107'
p7426
aa(lp7427
I368
aS'155'
p7428
aS'271'
p7429
aasS'4Z6S'
p7430
(lp7431
(lp7432
I368
aS'22'
p7433
aS'107'
p7434
aa(lp7435
I368
aS'155'
p7436
aS'271'
p7437
aa(lp7438
I368
aS'22'
p7439
aS'107'
p7440
aa(lp7441
I368
aS'155'
p7442
aS'271'
p7443
aasS'4Z6T'
p7444
(lp7445
(lp7446
I368
aS'22'
p7447
aS'107'
p7448
aa(lp7449
I368
aS'155'
p7450
aS'271'
p7451
aasS'4Z6U'
p7452
(lp7453
(lp7454
I368
aS'22'
p7455
aS'107'
p7456
aa(lp7457
I368
aS'155'
p7458
aS'271'
p7459
aasS'4Z6V'
p7460
(lp7461
(lp7462
I368
aS'22'
p7463
aS'107'
p7464
aa(lp7465
I368
aS'155'
p7466
aS'271'
p7467
aasS'4Z6W'
p7468
(lp7469
(lp7470
I368
aS'22'
p7471
aS'107'
p7472
aa(lp7473
I368
aS'155'
p7474
aS'271'
p7475
aas.