(dp1
S'2CKX'
p2
(lp3
(lp4
I514
aS'579'
p5
aS'626'
p6
aasS'1SBB'
p7
(lp8
(lp9
I1680
aS'27'
p10
aS'119'
p11
aa(lp12
I1690
aS'134'
p13
aS'221'
p14
aa(lp15
I2388
aS'6'
aS'250'
p16
aa(lp17
I6311
aS'131'
p18
aS'234'
p19
aasS'3T0B'
p20
(lp21
(lp22
I2127
aS'635'
p23
aS'720'
p24
aa(lp25
I2202
aS'335'
p26
aS'628'
p27
aa(lp28
I2203
aS'49'
p29
aS'218'
p30
aa(lp31
I6027
aS'753'
p32
aS'1018'
p33
aa(lp34
I7238
aS'221'
p35
aS'333'
p36
aasS'1WQW'
p37
(lp38
(lp39
I5194
aS'15'
p40
aS'132'
p41
aa(lp42
I5243
aS'188'
p43
aS'233'
p44
aasS'3T0D'
p45
(lp46
(lp47
I2127
aS'635'
p48
aS'720'
p49
aa(lp50
I2202
aS'335'
p51
aS'628'
p52
aa(lp53
I2203
aS'49'
p54
aS'218'
p55
aa(lp56
I6027
aS'753'
p57
aS'1018'
p58
aa(lp59
I7238
aS'221'
p60
aS'333'
p61
aasS'4V40'
p62
(lp63
(lp64
I2127
aS'635'
p65
aS'720'
p66
aa(lp67
I2202
aS'335'
p68
aS'628'
p69
aa(lp70
I2203
aS'49'
p71
aS'218'
p72
aa(lp73
I6027
aS'753'
p74
aS'1018'
p75
aa(lp76
I7238
aS'221'
p77
aS'333'
p78
aasS'4V41'
p79
(lp80
(lp81
I2127
aS'635'
p82
aS'720'
p83
aa(lp84
I2202
aS'335'
p85
aS'628'
p86
aa(lp87
I2203
aS'49'
p88
aS'218'
p89
aa(lp90
I6027
aS'753'
p91
aS'1018'
p92
aa(lp93
I7238
aS'221'
p94
aS'333'
p95
aasS'2DEQ'
p96
(lp97
(lp98
I5194
aS'15'
p99
aS'132'
p100
aa(lp101
I5194
aS'15'
p102
aS'132'
p103
aa(lp104
I5243
aS'188'
p105
aS'233'
p106
aa(lp107
I5243
aS'188'
p108
aS'233'
p109
aasS'4V44'
p110
(lp111
(lp112
I2127
aS'635'
p113
aS'720'
p114
aa(lp115
I2202
aS'335'
p116
aS'628'
p117
aa(lp118
I2203
aS'49'
p119
aS'218'
p120
aa(lp121
I6027
aS'753'
p122
aS'1018'
p123
aa(lp124
I7238
aS'221'
p125
aS'333'
p126
aasS'4V45'
p127
(lp128
(lp129
I2127
aS'635'
p130
aS'720'
p131
aa(lp132
I2202
aS'335'
p133
aS'628'
p134
aa(lp135
I2203
aS'49'
p136
aS'218'
p137
aa(lp138
I6027
aS'753'
p139
aS'1018'
p140
aa(lp141
I7238
aS'221'
p142
aS'333'
p143
aasS'2XEJ'
p144
(lp145
(lp146
I1653
aS'171'
p147
aS'257'
p148
aa(lp149
I4881
aS'627'
p150
aS'747'
p151
aa(lp152
I6193
aS'357'
p153
aS'481'
p154
aasS'3Q5U'
p155
(lp156
(lp157
I4134
aS'109'
p158
aS'149'
p159
aa(lp160
I4134
aS'151'
p161
aS'190'
p162
aa(lp163
I4134
aS'194'
p164
aS'238'
p165
aa(lp166
I4134
aS'251'
p167
aS'279'
p168
aa(lp169
I4134
aS'283'
p170
aS'321'
p171
aa(lp172
I4134
aS'324'
p173
aS'364'
p174
aa(lp175
I4134
aS'367'
p176
aS'405'
p177
aa(lp178
I4134
aS'410'
p179
aS'447'
p180
aa(lp181
I7514
aS'458'
p182
aS'497'
p183
aasS'1Q3C'
p184
(lp185
(lp186
I1525
aS'2'
aS'85'
p187
aa(lp188
I4043
aS'234'
p189
aS'262'
p190
aa(lp191
I5039
aS'126'
p192
aS'204'
p193
aasS'1Q3B'
p194
(lp195
(lp196
I1525
aS'1'
aS'85'
p197
aa(lp198
I4043
aS'234'
p199
aS'262'
p200
aa(lp201
I5039
aS'126'
p202
aS'204'
p203
aasS'1VFC'
p204
(lp205
(lp206
I514
aS'447'
p207
aS'494'
p208
aasS'3H7M'
p209
(lp210
(lp211
I7018
aS'58'
p212
aS'275'
p213
aasS'4MB7'
p214
(lp215
(lp216
I5039
aS'145'
p217
aS'222'
p218
aasS'2DXU'
p219
(lp220
(lp221
I5194
aS'15'
p222
aS'132'
p223
aa(lp224
I5243
aS'188'
p225
aS'233'
p226
aasS'4G4N'
p227
(lp228
(lp229
I1525
aS'2'
aS'117'
p230
aa(lp231
I4043
aS'246'
p232
aS'273'
p233
aa(lp234
I5039
aS'134'
p235
aS'217'
p236
aasS'4NKU'
p237
(lp238
(lp239
I6411
aS'267'
p240
aS'336'
p241
aa(lp242
I6589
aS'70'
p243
aS'140'
p244
aasS'4NKT'
p245
(lp246
(lp247
I6411
aS'267'
p248
aS'336'
p249
aa(lp250
I6589
aS'70'
p251
aS'140'
p252
aasS'4E7X'
p253
(lp254
(lp255
I6411
aS'267'
p256
aS'336'
p257
aa(lp258
I6589
aS'70'
p259
aS'143'
p260
aasS'3RIR'
p261
(lp262
(lp263
I1554
aS'6'
aS'57'
p264
aa(lp265
I5194
aS'91'
p266
aS'212'
p267
aasS'4KPT'
p268
(lp269
(lp270
I7018
aS'30'
p271
aS'248'
p272
aasS'1XT8'
p273
(lp274
(lp275
I7018
aS'22'
p276
aS'232'
p277
aasS'4X0C'
p278
(lp279
(lp280
I5585
aS'305'
p281
aS'530'
p282
aasS'3NF4'
p283
(lp284
(lp285
I1737
aS'14'
p286
aS'124'
p287
aa(lp288
I1738
aS'128'
p289
aS'220'
p290
aa(lp291
I1743
aS'233'
p292
aS'381'
p293
aasS'4G4Q'
p294
(lp295
(lp296
I1525
aS'2'
aS'117'
p297
aa(lp298
I4043
aS'246'
p299
aS'273'
p300
aa(lp301
I5039
aS'134'
p302
aS'217'
p303
aasS'4G4P'
p304
(lp305
(lp306
I7018
aS'26'
p307
aS'243'
p308
aasS'3OWE'
p309
(lp310
(lp311
I1680
aS'46'
p312
aS'114'
p313
aa(lp314
I2388
aS'6'
aS'110'
p315
aa(lp316
I6311
aS'126'
p317
aS'230'
p318
aasS'3HN3'
p319
(lp320
(lp321
I2202
aS'329'
p322
aS'630'
p323
aa(lp324
I2203
aS'35'
p325
aS'224'
p326
aa(lp327
I7238
aS'226'
p328
aS'327'
p329
aasS'1JQI'
p330
(lp331
(lp332
I1737
aS'12'
p333
aS'123'
p334
aa(lp335
I1737
aS'12'
p336
aS'123'
p337
aa(lp338
I1738
aS'127'
p339
aS'222'
p340
aa(lp341
I1738
aS'127'
p342
aS'222'
p343
aa(lp344
I1743
aS'234'
p345
aS'382'
p346
aa(lp347
I1743
aS'234'
p348
aS'382'
p349
aasS'4X05'
p350
(lp351
(lp352
I5585
aS'305'
p353
aS'530'
p354
aasS'3IAQ'
p355
(lp356
(lp357
I2127
aS'635'
p358
aS'720'
p359
aa(lp360
I2202
aS'335'
p361
aS'628'
p362
aa(lp363
I2203
aS'49'
p364
aS'218'
p365
aa(lp366
I6027
aS'753'
p367
aS'1018'
p368
aa(lp369
I7238
aS'221'
p370
aS'333'
p371
aasS'4X07'
p372
(lp373
(lp374
I5585
aS'304'
p375
aS'530'
p376
aasS'3ZIN'
p377
(lp378
(lp379
I4134
aS'109'
p380
aS'149'
p381
aa(lp382
I4134
aS'151'
p383
aS'190'
p384
aa(lp385
I4134
aS'194'
p386
aS'238'
p387
aa(lp388
I4134
aS'251'
p389
aS'279'
p390
aa(lp391
I4134
aS'283'
p392
aS'321'
p393
aa(lp394
I4134
aS'324'
p395
aS'364'
p396
aa(lp397
I4134
aS'367'
p398
aS'405'
p399
aa(lp400
I4134
aS'410'
p401
aS'447'
p402
aa(lp403
I7514
aS'458'
p404
aS'497'
p405
aasS'3ZIO'
p406
(lp407
(lp408
I4134
aS'109'
p409
aS'149'
p410
aa(lp411
I4134
aS'151'
p412
aS'190'
p413
aa(lp414
I4134
aS'194'
p415
aS'238'
p416
aa(lp417
I4134
aS'251'
p418
aS'279'
p419
aa(lp420
I4134
aS'283'
p421
aS'321'
p422
aa(lp423
I4134
aS'324'
p424
aS'364'
p425
aa(lp426
I4134
aS'367'
p427
aS'405'
p428
aa(lp429
I4134
aS'410'
p430
aS'447'
p431
aa(lp432
I7514
aS'458'
p433
aS'497'
p434
aasS'1SIR'
p435
(lp436
(lp437
I1737
aS'18'
p438
aS'128'
p439
aa(lp440
I1738
aS'132'
p441
aS'225'
p442
aa(lp443
I1743
aS'245'
p444
aS'384'
p445
aasS'1SIQ'
p446
(lp447
(lp448
I1737
aS'18'
p449
aS'128'
p450
aa(lp451
I1738
aS'132'
p452
aS'225'
p453
aa(lp454
I1743
aS'245'
p455
aS'384'
p456
aasS'5COE'
p457
(lp458
(lp459
I4426
aS'42'
p460
aS'123'
p461
aa(lp462
I5155
aS'128'
p463
aS'206'
p464
aasS'4JKL'
p465
(lp466
(lp467
I2202
aS'273'
p468
aS'588'
p469
aa(lp470
I2203
aS'10'
p471
aS'177'
p472
aa(lp473
I7238
aS'180'
p474
aS'271'
p475
aasS'4JKK'
p476
(lp477
(lp478
I2202
aS'273'
p479
aS'588'
p480
aa(lp481
I2203
aS'10'
p482
aS'177'
p483
aa(lp484
I7238
aS'180'
p485
aS'271'
p486
aasS'2XEG'
p487
(lp488
(lp489
I1653
aS'171'
p490
aS'257'
p491
aa(lp492
I4881
aS'627'
p493
aS'747'
p494
aa(lp495
I6193
aS'357'
p496
aS'481'
p497
aasS'3ZIR'
p498
(lp499
(lp500
I4134
aS'109'
p501
aS'149'
p502
aa(lp503
I4134
aS'151'
p504
aS'190'
p505
aa(lp506
I4134
aS'194'
p507
aS'238'
p508
aa(lp509
I4134
aS'251'
p510
aS'279'
p511
aa(lp512
I4134
aS'283'
p513
aS'321'
p514
aa(lp515
I4134
aS'324'
p516
aS'364'
p517
aa(lp518
I4134
aS'367'
p519
aS'405'
p520
aa(lp521
I4134
aS'410'
p522
aS'447'
p523
aa(lp524
I7514
aS'458'
p525
aS'497'
p526
aasS'3TWL'
p527
(lp528
(lp529
I1525
aS'2'
aS'131'
p530
aa(lp531
I5039
aS'146'
p532
aS'235'
p533
aasS'3TWM'
p534
(lp535
(lp536
I1525
aS'2'
aS'131'
p537
aa(lp538
I5039
aS'146'
p539
aS'235'
p540
aasS'3SBJ'
p541
(lp542
(lp543
I1525
aS'2'
aS'117'
p544
aa(lp545
I4043
aS'246'
p546
aS'273'
p547
aa(lp548
I5039
aS'134'
p549
aS'216'
p550
aasS'1IHM'
p551
(lp552
(lp553
I5585
aS'1301'
p554
aS'1520'
p555
aa(lp556
I7197
aS'1029'
p557
aS'1293'
p558
aasS'3TWK'
p559
(lp560
(lp561
I1525
aS'2'
aS'131'
p562
aa(lp563
I5039
aS'146'
p564
aS'235'
p565
aasS'3PUN'
p566
(lp567
(lp568
I5585
aS'305'
p569
aS'527'
p570
aasS'1Q39'
p571
(lp572
(lp573
I1525
aS'4'
aS'85'
p574
aa(lp575
I4043
aS'234'
p576
aS'262'
p577
aa(lp578
I5039
aS'126'
p579
aS'204'
p580
aasS'3PUM'
p581
(lp582
(lp583
I5585
aS'305'
p584
aS'527'
p585
aasS'1WQ7'
p586
(lp587
(lp588
I5194
aS'15'
p589
aS'132'
p590
aa(lp591
I5243
aS'188'
p592
aS'233'
p593
aasS'1VF9'
p594
(lp595
(lp596
I514
aS'447'
p597
aS'494'
p598
aasS'1BIB'
p599
(lp600
(lp601
I1554
aS'9'
aS'58'
p602
aa(lp603
I5194
aS'84'
p604
aS'208'
p605
aa(lp606
I5243
aS'271'
p607
aS'317'
p608
aasS'1BIA'
p609
(lp610
(lp611
I1554
aS'9'
aS'58'
p612
aa(lp613
I5194
aS'84'
p614
aS'208'
p615
aa(lp616
I5243
aS'271'
p617
aS'317'
p618
aasS'2ZAF'
p619
(lp620
(lp621
I1737
aS'8'
aS'124'
p622
aa(lp623
I1743
aS'269'
p624
aS'417'
p625
aasS'4XU0'
p626
(lp627
(lp628
I5194
aS'57'
p629
aS'147'
p630
aa(lp631
I5243
aS'218'
p632
aS'264'
p633
aasS'4BKX'
p634
(lp635
(lp636
I514
aS'287'
p637
aS'331'
p638
aa(lp639
I2274
aS'167'
p640
aS'219'
p641
aa(lp642
I3355
aS'25'
p643
aS'318'
p644
aasS'1GGG'
p645
(lp646
(lp647
I7018
aS'5'
aS'222'
p648
aasS'1KDU'
p649
(lp650
(lp651
I5155
aS'1'
aS'80'
p652
aasS'4UDU'
p653
(lp654
(lp655
I1208
aS'119'
p656
aS'190'
p657
aa(lp658
I1680
aS'71'
p659
aS'113'
p660
aa(lp661
I1690
aS'133'
p662
aS'218'
p663
aa(lp664
I2388
aS'7'
aS'111'
p665
aa(lp666
I2388
aS'7'
aS'113'
p667
aa(lp668
I6311
aS'123'
p669
aS'230'
p670
aasS'3T09'
p671
(lp672
(lp673
I2127
aS'635'
p674
aS'720'
p675
aa(lp676
I2202
aS'335'
p677
aS'628'
p678
aa(lp679
I2203
aS'49'
p680
aS'218'
p681
aa(lp682
I6027
aS'753'
p683
aS'1018'
p684
aa(lp685
I7238
aS'221'
p686
aS'333'
p687
aasS'3SKB'
p688
(lp689
(lp690
I5585
aS'305'
p691
aS'531'
p692
aasS'1X2G'
p693
(lp694
(lp695
I1505
aS'249'
p696
aS'331'
p697
aa(lp698
I5194
aS'51'
p699
aS'157'
p700
aasS'3S9M'
p701
(lp702
(lp703
I1653
aS'227'
p704
aS'345'
p705
aa(lp706
I4529
aS'6'
aS'328'
p707
aa(lp708
I4529
aS'342'
p709
aS'664'
p710
aa(lp711
I4881
aS'637'
p712
aS'749'
p713
aa(lp714
I6193
aS'388'
p715
aS'576'
p716
aasS'3S9L'
p717
(lp718
(lp719
I1653
aS'227'
p720
aS'345'
p721
aa(lp722
I4529
aS'6'
aS'328'
p723
aa(lp724
I4529
aS'342'
p725
aS'664'
p726
aa(lp727
I4881
aS'637'
p728
aS'749'
p729
aa(lp730
I6193
aS'388'
p731
aS'576'
p732
aasS'3S9N'
p733
(lp734
(lp735
I1653
aS'227'
p736
aS'345'
p737
aa(lp738
I4529
aS'6'
aS'328'
p739
aa(lp740
I4529
aS'342'
p741
aS'664'
p742
aa(lp743
I4881
aS'637'
p744
aS'749'
p745
aa(lp746
I6193
aS'388'
p747
aS'576'
p748
aasS'4P44'
p749
(lp750
(lp751
I1653
aS'171'
p752
aS'257'
p753
aa(lp754
I4881
aS'627'
p755
aS'747'
p756
aa(lp757
I6193
aS'357'
p758
aS'481'
p759
aasS'4JYW'
p760
(lp761
(lp762
I1653
aS'171'
p763
aS'257'
p764
aa(lp765
I4881
aS'627'
p766
aS'747'
p767
aa(lp768
I6193
aS'357'
p769
aS'481'
p770
aasS'1IVH'
p771
(lp772
(lp773
I1737
aS'14'
p774
aS'128'
p775
aa(lp776
I1738
aS'132'
p777
aS'229'
p778
aa(lp779
I1743
aS'241'
p780
aS'388'
p781
aasS'1NNJ'
p782
(lp783
(lp784
I1525
aS'2'
aS'114'
p785
aa(lp786
I4043
aS'242'
p787
aS'270'
p788
aa(lp789
I5039
aS'131'
p790
aS'219'
p791
aasS'1HA5'
p792
(lp793
(lp794
I1680
aS'1024'
p795
aS'1105'
p796
aa(lp797
I6311
aS'1115'
p798
aS'1218'
p799
aasS'3UL0'
p800
(lp801
(lp802
I4134
aS'109'
p803
aS'149'
p804
aa(lp805
I4134
aS'151'
p806
aS'190'
p807
aa(lp808
I4134
aS'194'
p809
aS'238'
p810
aa(lp811
I4134
aS'251'
p812
aS'279'
p813
aa(lp814
I4134
aS'283'
p815
aS'321'
p816
aa(lp817
I4134
aS'324'
p818
aS'364'
p819
aa(lp820
I4134
aS'367'
p821
aS'405'
p822
aa(lp823
I4134
aS'410'
p824
aS'447'
p825
aa(lp826
I7514
aS'458'
p827
aS'496'
p828
aasS'3UL1'
p829
(lp830
(lp831
I4134
aS'109'
p832
aS'149'
p833
aa(lp834
I4134
aS'151'
p835
aS'190'
p836
aa(lp837
I4134
aS'194'
p838
aS'238'
p839
aa(lp840
I4134
aS'251'
p841
aS'279'
p842
aa(lp843
I4134
aS'283'
p844
aS'321'
p845
aa(lp846
I4134
aS'324'
p847
aS'364'
p848
aa(lp849
I4134
aS'367'
p850
aS'405'
p851
aa(lp852
I4134
aS'410'
p853
aS'447'
p854
aa(lp855
I7514
aS'458'
p856
aS'497'
p857
aasS'4O5M'
p858
(lp859
(lp860
I1737
aS'7'
aS'118'
p861
aa(lp862
I1738
aS'122'
p863
aS'217'
p864
aa(lp865
I1743
aS'239'
p866
aS'377'
p867
aasS'1WDN'
p868
(lp869
(lp870
I7018
aS'5'
aS'222'
p871
aasS'4UV9'
p872
(lp873
(lp874
I514
aS'382'
p875
aS'425'
p876
aa(lp877
I5213
aS'177'
p878
aS'264'
p879
aa(lp880
I6157
aS'288'
p881
aS'825'
p882
aasS'4UV8'
p883
(lp884
(lp885
I514
aS'382'
p886
aS'425'
p887
aa(lp888
I5213
aS'177'
p889
aS'264'
p890
aa(lp891
I6157
aS'288'
p892
aS'825'
p893
aasS'4BVW'
p894
(lp895
(lp896
I5155
aS'1'
aS'78'
p897
aasS'3A45'
p898
(lp899
(lp900
I1525
aS'2'
aS'118'
p901
aa(lp902
I5039
aS'136'
p903
aS'207'
p904
aasS'2YUM'
p905
(lp906
(lp907
I514
aS'10'
p908
aS'58'
p909
aasS'2HHP'
p910
(lp911
(lp912
I3898
aS'8'
aS'351'
p913
aa(lp914
I5877
aS'353'
p915
aS'529'
p916
aa(lp917
I6589
aS'81'
p918
aS'154'
p919
aasS'2EJ9'
p920
(lp921
(lp922
I5194
aS'9'
aS'126'
p923
aa(lp924
I5243
aS'190'
p925
aS'235'
p926
aasS'3MUZ'
p927
(lp928
(lp929
I2127
aS'635'
p930
aS'720'
p931
aa(lp932
I2202
aS'335'
p933
aS'628'
p934
aa(lp935
I2203
aS'49'
p936
aS'218'
p937
aa(lp938
I6027
aS'753'
p939
aS'1018'
p940
aa(lp941
I7238
aS'221'
p942
aS'333'
p943
aasS'3MUY'
p944
(lp945
(lp946
I2127
aS'635'
p947
aS'720'
p948
aa(lp949
I2202
aS'335'
p950
aS'628'
p951
aa(lp952
I2203
aS'49'
p953
aS'218'
p954
aa(lp955
I6027
aS'753'
p956
aS'1018'
p957
aa(lp958
I7238
aS'221'
p959
aS'333'
p960
aasS'2O1M'
p961
(lp962
(lp963
I7018
aS'18'
p964
aS'242'
p965
aasS'1IQ1'
p966
(lp967
(lp968
I4134
aS'109'
p969
aS'149'
p970
aa(lp971
I4134
aS'151'
p972
aS'190'
p973
aa(lp974
I4134
aS'194'
p975
aS'238'
p976
aa(lp977
I4134
aS'251'
p978
aS'279'
p979
aa(lp980
I4134
aS'283'
p981
aS'321'
p982
aa(lp983
I4134
aS'324'
p984
aS'364'
p985
aa(lp986
I4134
aS'367'
p987
aS'405'
p988
aa(lp989
I4134
aS'410'
p990
aS'447'
p991
aa(lp992
I7514
aS'458'
p993
aS'497'
p994
aasS'3BY1'
p995
(lp996
(lp997
I5585
aS'301'
p998
aS'516'
p999
aa(lp1000
I7197
aS'230'
p1001
aS'293'
p1002
aasS'4OOV'
p1003
(lp1004
(lp1005
I5585
aS'305'
p1006
aS'530'
p1007
aasS'4OOS'
p1008
(lp1009
(lp1010
I5585
aS'305'
p1011
aS'530'
p1012
aasS'2DZ9'
p1013
(lp1014
(lp1015
I5194
aS'15'
p1016
aS'132'
p1017
aa(lp1018
I5243
aS'188'
p1019
aS'233'
p1020
aasS'2O1P'
p1021
(lp1022
(lp1023
I3898
aS'8'
aS'351'
p1024
aa(lp1025
I5877
aS'353'
p1026
aS'531'
p1027
aa(lp1028
I6589
aS'81'
p1029
aS'154'
p1030
aasS'4XU3'
p1031
(lp1032
(lp1033
I5194
aS'57'
p1034
aS'147'
p1035
aa(lp1036
I5243
aS'218'
p1037
aS'264'
p1038
aasS'4XU2'
p1039
(lp1040
(lp1041
I5194
aS'57'
p1042
aS'147'
p1043
aa(lp1044
I5243
aS'218'
p1045
aS'264'
p1046
aasS'4XU1'
p1047
(lp1048
(lp1049
I5194
aS'57'
p1050
aS'147'
p1051
aa(lp1052
I5243
aS'218'
p1053
aS'264'
p1054
aasS'2YUS'
p1055
(lp1056
(lp1057
I514
aS'20'
p1058
aS'62'
p1059
aasS'2DZC'
p1060
(lp1061
(lp1062
I5194
aS'15'
p1063
aS'132'
p1064
aa(lp1065
I5243
aS'188'
p1066
aS'233'
p1067
aasS'2CRG'
p1068
(lp1069
(lp1070
I514
aS'10'
p1071
aS'54'
p1072
aasS'4P2N'
p1073
(lp1074
(lp1075
I5585
aS'306'
p1076
aS'525'
p1077
aa(lp1078
I5585
aS'306'
p1079
aS'525'
p1080
aa(lp1081
I7197
aS'231'
p1082
aS'293'
p1083
aa(lp1084
I7197
aS'231'
p1085
aS'293'
p1086
aasS'4IV6'
p1087
(lp1088
(lp1089
I1737
aS'4'
aS'115'
p1090
aa(lp1091
I1738
aS'120'
p1092
aS'214'
p1093
aa(lp1094
I1743
aS'228'
p1095
aS'376'
p1096
aasS'1R2Z'
p1097
(lp1098
(lp1099
I1525
aS'2'
aS'117'
p1100
aa(lp1101
I4043
aS'246'
p1102
aS'273'
p1103
aa(lp1104
I5039
aS'134'
p1105
aS'224'
p1106
aasS'1R2Y'
p1107
(lp1108
(lp1109
I1525
aS'2'
aS'117'
p1110
aa(lp1111
I4043
aS'246'
p1112
aS'273'
p1113
aa(lp1114
I5039
aS'134'
p1115
aS'224'
p1116
aasS'3UKY'
p1117
(lp1118
(lp1119
I4134
aS'109'
p1120
aS'149'
p1121
aa(lp1122
I4134
aS'151'
p1123
aS'190'
p1124
aa(lp1125
I4134
aS'194'
p1126
aS'238'
p1127
aa(lp1128
I4134
aS'251'
p1129
aS'279'
p1130
aa(lp1131
I4134
aS'283'
p1132
aS'321'
p1133
aa(lp1134
I4134
aS'324'
p1135
aS'364'
p1136
aa(lp1137
I4134
aS'367'
p1138
aS'405'
p1139
aa(lp1140
I4134
aS'410'
p1141
aS'447'
p1142
aa(lp1143
I7514
aS'458'
p1144
aS'497'
p1145
aasS'3UKX'
p1146
(lp1147
(lp1148
I4134
aS'109'
p1149
aS'149'
p1150
aa(lp1151
I4134
aS'151'
p1152
aS'190'
p1153
aa(lp1154
I4134
aS'194'
p1155
aS'238'
p1156
aa(lp1157
I4134
aS'251'
p1158
aS'279'
p1159
aa(lp1160
I4134
aS'283'
p1161
aS'321'
p1162
aa(lp1163
I4134
aS'324'
p1164
aS'364'
p1165
aa(lp1166
I4134
aS'367'
p1167
aS'405'
p1168
aa(lp1169
I4134
aS'410'
p1170
aS'447'
p1171
aa(lp1172
I7514
aS'458'
p1173
aS'497'
p1174
aasS'3BXM'
p1175
(lp1176
(lp1177
I1653
aS'171'
p1178
aS'257'
p1179
aa(lp1180
I4881
aS'627'
p1181
aS'747'
p1182
aa(lp1183
I6193
aS'357'
p1184
aS'481'
p1185
aasS'3UKZ'
p1186
(lp1187
(lp1188
I4134
aS'109'
p1189
aS'149'
p1190
aa(lp1191
I4134
aS'151'
p1192
aS'190'
p1193
aa(lp1194
I4134
aS'194'
p1195
aS'238'
p1196
aa(lp1197
I4134
aS'251'
p1198
aS'279'
p1199
aa(lp1200
I4134
aS'283'
p1201
aS'321'
p1202
aa(lp1203
I4134
aS'324'
p1204
aS'364'
p1205
aa(lp1206
I4134
aS'367'
p1207
aS'405'
p1208
aa(lp1209
I4134
aS'410'
p1210
aS'447'
p1211
aa(lp1212
I7514
aS'458'
p1213
aS'497'
p1214
aasS'1L1T'
p1215
(lp1216
(lp1217
I1525
aS'2'
aS'117'
p1218
aa(lp1219
I4043
aS'246'
p1220
aS'273'
p1221
aa(lp1222
I5039
aS'134'
p1223
aS'220'
p1224
aasS'1L1Z'
p1225
(lp1226
(lp1227
I1525
aS'2'
aS'117'
p1228
aa(lp1229
I4043
aS'246'
p1230
aS'273'
p1231
aa(lp1232
I5039
aS'134'
p1233
aS'222'
p1234
aasS'2F5O'
p1235
(lp1236
(lp1237
I1525
aS'2'
aS'117'
p1238
aa(lp1239
I4043
aS'246'
p1240
aS'273'
p1241
aa(lp1242
I5039
aS'134'
p1243
aS'216'
p1244
aasS'1R2J'
p1245
(lp1246
(lp1247
I1737
aS'12'
p1248
aS'104'
p1249
aa(lp1250
I1738
aS'108'
p1251
aS'199'
p1252
aa(lp1253
I1743
aS'219'
p1254
aS'361'
p1255
aasS'3UKW'
p1256
(lp1257
(lp1258
I4134
aS'109'
p1259
aS'149'
p1260
aa(lp1261
I4134
aS'151'
p1262
aS'190'
p1263
aa(lp1264
I4134
aS'194'
p1265
aS'238'
p1266
aa(lp1267
I4134
aS'251'
p1268
aS'279'
p1269
aa(lp1270
I4134
aS'283'
p1271
aS'321'
p1272
aa(lp1273
I4134
aS'324'
p1274
aS'364'
p1275
aa(lp1276
I4134
aS'367'
p1277
aS'405'
p1278
aa(lp1279
I4134
aS'410'
p1280
aS'447'
p1281
aa(lp1282
I7514
aS'458'
p1283
aS'497'
p1284
aasS'4UVC'
p1285
(lp1286
(lp1287
I514
aS'382'
p1288
aS'425'
p1289
aa(lp1290
I5213
aS'177'
p1291
aS'264'
p1292
aa(lp1293
I6157
aS'288'
p1294
aS'825'
p1295
aasS'4UVB'
p1296
(lp1297
(lp1298
I514
aS'382'
p1299
aS'425'
p1300
aa(lp1301
I5213
aS'177'
p1302
aS'264'
p1303
aa(lp1304
I6157
aS'288'
p1305
aS'825'
p1306
aasS'4UVA'
p1307
(lp1308
(lp1309
I514
aS'382'
p1310
aS'425'
p1311
aa(lp1312
I5213
aS'177'
p1313
aS'264'
p1314
aa(lp1315
I6157
aS'288'
p1316
aS'825'
p1317
aasS'4IO7'
p1318
(lp1319
(lp1320
I7018
aS'11'
p1321
aS'243'
p1322
aasS'4IO2'
p1323
(lp1324
(lp1325
I7018
aS'11'
p1326
aS'243'
p1327
aasS'4IO3'
p1328
(lp1329
(lp1330
I7018
aS'11'
p1331
aS'243'
p1332
aasS'1HN1'
p1333
(lp1334
(lp1335
I2127
aS'635'
p1336
aS'720'
p1337
aa(lp1338
I2202
aS'335'
p1339
aS'628'
p1340
aa(lp1341
I2203
aS'49'
p1342
aS'218'
p1343
aa(lp1344
I6027
aS'753'
p1345
aS'1018'
p1346
aa(lp1347
I7238
aS'221'
p1348
aS'333'
p1349
aasS'3MKH'
p1350
(lp1351
(lp1352
I1737
aS'13'
p1353
aS'125'
p1354
aa(lp1355
I1743
aS'260'
p1356
aS'410'
p1357
aasS'2L0S'
p1358
(lp1359
(lp1360
I5155
aS'1'
aS'80'
p1361
aasS'3MKP'
p1362
(lp1363
(lp1364
I4426
aS'42'
p1365
aS'123'
p1366
aa(lp1367
I5155
aS'128'
p1368
aS'206'
p1369
aasS'1IV6'
p1370
(lp1371
(lp1372
I514
aS'380'
p1373
aS'427'
p1374
aasS'1ET9'
p1375
(lp1376
(lp1377
I1680
aS'13'
p1378
aS'92'
p1379
aa(lp1380
I6311
aS'101'
p1381
aS'203'
p1382
aasS'2IX6'
p1383
(lp1384
(lp1385
I1737
aS'56'
p1386
aS'165'
p1387
aa(lp1388
I1738
aS'171'
p1389
aS'263'
p1390
aa(lp1391
I1743
aS'281'
p1392
aS'421'
p1393
aasS'2IX5'
p1394
(lp1395
(lp1396
I1737
aS'56'
p1397
aS'165'
p1398
aa(lp1399
I1738
aS'171'
p1400
aS'263'
p1401
aa(lp1402
I1743
aS'281'
p1403
aS'421'
p1404
aasS'4Z4Y'
p1405
(lp1406
(lp1407
I5585
aS'307'
p1408
aS'538'
p1409
aasS'3W2D'
p1410
(lp1411
(lp1412
I1680
aS'54'
p1413
aS'146'
p1414
aa(lp1415
I1690
aS'143'
p1416
aS'228'
p1417
aa(lp1418
I1690
aS'154'
p1419
aS'231'
p1420
aa(lp1421
I2388
aS'28'
p1422
aS'128'
p1423
aa(lp1424
I2388
aS'28'
p1425
aS'137'
p1426
aa(lp1427
I6311
aS'158'
p1428
aS'261'
p1429
aasS'2PF1'
p1430
(lp1431
(lp1432
I5155
aS'66'
p1433
aS'144'
p1434
aa(lp1435
I6715
aS'36'
p1436
aS'46'
p1437
aasS'2PF2'
p1438
(lp1439
(lp1440
I5155
aS'66'
p1441
aS'144'
p1442
aa(lp1443
I6715
aS'6'
aS'46'
p1444
aasS'2OBT'
p1445
(lp1446
(lp1447
I5585
aS'305'
p1448
aS'530'
p1449
aasS'2OBS'
p1450
(lp1451
(lp1452
I5585
aS'305'
p1453
aS'530'
p1454
aasS'2OBR'
p1455
(lp1456
(lp1457
I5585
aS'305'
p1458
aS'530'
p1459
aasS'4RGM'
p1460
(lp1461
(lp1462
I1680
aS'27'
p1463
aS'119'
p1464
aa(lp1465
I1690
aS'120'
p1466
aS'205'
p1467
aa(lp1468
I1690
aS'136'
p1469
aS'213'
p1470
aa(lp1471
I2388
aS'6'
aS'106'
p1472
aa(lp1473
I2388
aS'7'
aS'119'
p1474
aa(lp1475
I6311
aS'131'
p1476
aS'234'
p1477
aasS'2ICI'
p1478
(lp1479
(lp1480
I1680
aS'14'
p1481
aS'94'
p1482
aa(lp1483
I6311
aS'103'
p1484
aS'222'
p1485
aasS'1YQ2'
p1486
(lp1487
(lp1488
I2127
aS'625'
p1489
aS'713'
p1490
aa(lp1491
I2202
aS'313'
p1492
aS'612'
p1493
aa(lp1494
I2203
aS'33'
p1495
aS'218'
p1496
aa(lp1497
I6027
aS'746'
p1498
aS'1014'
p1499
aasS'1W66'
p1500
(lp1501
(lp1502
I5194
aS'68'
p1503
aS'166'
p1504
aasS'3SEP'
p1505
(lp1506
(lp1507
I2127
aS'635'
p1508
aS'720'
p1509
aa(lp1510
I2202
aS'335'
p1511
aS'628'
p1512
aa(lp1513
I2203
aS'49'
p1514
aS'218'
p1515
aa(lp1516
I6027
aS'753'
p1517
aS'1018'
p1518
aa(lp1519
I7238
aS'221'
p1520
aS'333'
p1521
aasS'3D7D'
p1522
(lp1523
(lp1524
I1653
aS'171'
p1525
aS'257'
p1526
aa(lp1527
I4881
aS'627'
p1528
aS'747'
p1529
aa(lp1530
I6193
aS'357'
p1531
aS'481'
p1532
aasS'3DYO'
p1533
(lp1534
(lp1535
I2127
aS'635'
p1536
aS'720'
p1537
aa(lp1538
I2202
aS'335'
p1539
aS'628'
p1540
aa(lp1541
I2203
aS'49'
p1542
aS'218'
p1543
aa(lp1544
I6027
aS'753'
p1545
aS'1018'
p1546
aa(lp1547
I7238
aS'221'
p1548
aS'333'
p1549
aasS'3D7F'
p1550
(lp1551
(lp1552
I1653
aS'171'
p1553
aS'257'
p1554
aa(lp1555
I4881
aS'627'
p1556
aS'747'
p1557
aa(lp1558
I6193
aS'357'
p1559
aS'481'
p1560
aasS'3D7G'
p1561
(lp1562
(lp1563
I1653
aS'171'
p1564
aS'257'
p1565
aa(lp1566
I4881
aS'627'
p1567
aS'747'
p1568
aa(lp1569
I6193
aS'357'
p1570
aS'481'
p1571
aasS'2CGH'
p1572
(lp1573
(lp1574
I5194
aS'57'
p1575
aS'147'
p1576
aa(lp1577
I5243
aS'218'
p1578
aS'264'
p1579
aasS'2QHU'
p1580
(lp1581
(lp1582
I5194
aS'65'
p1583
aS'160'
p1584
aasS'3IWW'
p1585
(lp1586
(lp1587
I1653
aS'171'
p1588
aS'257'
p1589
aa(lp1590
I4881
aS'627'
p1591
aS'747'
p1592
aa(lp1593
I6193
aS'357'
p1594
aS'481'
p1595
aasS'4CU6'
p1596
(lp1597
(lp1598
I2126
aS'785'
p1599
aS'859'
p1600
aa(lp1601
I2202
aS'433'
p1602
aS'708'
p1603
aa(lp1604
I2203
aS'150'
p1605
aS'305'
p1606
aa(lp1607
I7238
aS'308'
p1608
aS'425'
p1609
aasS'2QHT'
p1610
(lp1611
(lp1612
I5194
aS'65'
p1613
aS'160'
p1614
aasS'4RLZ'
p1615
(lp1616
(lp1617
I5585
aS'303'
p1618
aS'527'
p1619
aa(lp1620
I7197
aS'222'
p1621
aS'274'
p1622
aasS'4OXV'
p1623
(lp1624
(lp1625
I1599
aS'295'
p1626
aS'402'
p1627
aa(lp1628
I7018
aS'46'
p1629
aS'268'
p1630
aasS'3SLD'
p1631
(lp1632
(lp1633
I5585
aS'305'
p1634
aS'531'
p1635
aasS'3SLN'
p1636
(lp1637
(lp1638
I5585
aS'305'
p1639
aS'531'
p1640
aasS'3DYP'
p1641
(lp1642
(lp1643
I2127
aS'635'
p1644
aS'720'
p1645
aa(lp1646
I2202
aS'335'
p1647
aS'628'
p1648
aa(lp1649
I2203
aS'49'
p1650
aS'218'
p1651
aa(lp1652
I6027
aS'753'
p1653
aS'1018'
p1654
aa(lp1655
I7238
aS'221'
p1656
aS'333'
p1657
aasS'2YNR'
p1658
(lp1659
(lp1660
I4134
aS'109'
p1661
aS'149'
p1662
aa(lp1663
I4134
aS'151'
p1664
aS'190'
p1665
aa(lp1666
I4134
aS'194'
p1667
aS'238'
p1668
aa(lp1669
I4134
aS'251'
p1670
aS'279'
p1671
aa(lp1672
I4134
aS'283'
p1673
aS'321'
p1674
aa(lp1675
I4134
aS'324'
p1676
aS'364'
p1677
aa(lp1678
I4134
aS'367'
p1679
aS'405'
p1680
aa(lp1681
I4134
aS'410'
p1682
aS'447'
p1683
aa(lp1684
I7514
aS'458'
p1685
aS'496'
p1686
aasS'1IDZ'
p1687
(lp1688
(lp1689
I514
aS'144'
p1690
aS'187'
p1691
aasS'1IDY'
p1692
(lp1693
(lp1694
I514
aS'144'
p1695
aS'187'
p1696
aasS'4QVA'
p1697
(lp1698
(lp1699
I5585
aS'336'
p1700
aS'565'
p1701
aasS'3OBA'
p1702
(lp1703
(lp1704
I2202
aS'333'
p1705
aS'648'
p1706
aa(lp1707
I2203
aS'32'
p1708
aS'204'
p1709
aa(lp1710
I6027
aS'754'
p1711
aS'1022'
p1712
aa(lp1713
I7238
aS'207'
p1714
aS'331'
p1715
aasS'4DOY'
p1716
(lp1717
(lp1718
I1737
aS'27'
p1719
aS'122'
p1720
aa(lp1721
I1738
aS'136'
p1722
aS'223'
p1723
aa(lp1724
I1742
aS'256'
p1725
aS'392'
p1726
aasS'3W0F'
p1727
(lp1728
(lp1729
I5039
aS'156'
p1730
aS'224'
p1731
aasS'3D9D'
p1732
(lp1733
(lp1734
I1737
aS'8'
aS'124'
p1735
aa(lp1736
I1737
aS'8'
aS'124'
p1737
aa(lp1738
I1743
aS'269'
p1739
aS'417'
p1740
aa(lp1741
I1743
aS'269'
p1742
aS'417'
p1743
aasS'3D9E'
p1744
(lp1745
(lp1746
I1737
aS'8'
aS'124'
p1747
aa(lp1748
I1743
aS'269'
p1749
aS'417'
p1750
aasS'3ZMZ'
p1751
(lp1752
(lp1753
I514
aS'382'
p1754
aS'425'
p1755
aa(lp1756
I5213
aS'177'
p1757
aS'264'
p1758
aa(lp1759
I6157
aS'288'
p1760
aS'825'
p1761
aasS'1XC5'
p1762
(lp1763
(lp1764
I514
aS'431'
p1765
aS'471'
p1766
aasS'4H5G'
p1767
(lp1768
(lp1769
I7018
aS'42'
p1770
aS'262'
p1771
aasS'4H5F'
p1772
(lp1773
(lp1774
I7018
aS'42'
p1775
aS'262'
p1776
aasS'1XC8'
p1777
(lp1778
(lp1779
I1525
aS'1'
aS'114'
p1780
aa(lp1781
I4043
aS'242'
p1782
aS'270'
p1783
aa(lp1784
I5039
aS'131'
p1785
aS'221'
p1786
aasS'3ZMS'
p1787
(lp1788
(lp1789
I514
aS'382'
p1790
aS'425'
p1791
aa(lp1792
I5213
aS'177'
p1793
aS'264'
p1794
aa(lp1795
I6157
aS'288'
p1796
aS'825'
p1797
aasS'3ZMT'
p1798
(lp1799
(lp1800
I514
aS'382'
p1801
aS'425'
p1802
aa(lp1803
I5213
aS'177'
p1804
aS'264'
p1805
aa(lp1806
I6157
aS'288'
p1807
aS'825'
p1808
aasS'3ZMU'
p1809
(lp1810
(lp1811
I514
aS'382'
p1812
aS'425'
p1813
aa(lp1814
I5213
aS'177'
p1815
aS'264'
p1816
aa(lp1817
I6157
aS'288'
p1818
aS'825'
p1819
aasS'3ZMV'
p1820
(lp1821
(lp1822
I514
aS'382'
p1823
aS'425'
p1824
aa(lp1825
I5213
aS'177'
p1826
aS'264'
p1827
aa(lp1828
I6157
aS'288'
p1829
aS'825'
p1830
aasS'4CUC'
p1831
(lp1832
(lp1833
I2126
aS'785'
p1834
aS'859'
p1835
aa(lp1836
I2202
aS'433'
p1837
aS'708'
p1838
aa(lp1839
I2203
aS'150'
p1840
aS'305'
p1841
aa(lp1842
I7238
aS'308'
p1843
aS'425'
p1844
aasS'5AHS'
p1845
(lp1846
(lp1847
I1737
aS'5'
aS'106'
p1848
aa(lp1849
I1738
aS'120'
p1850
aS'217'
p1851
aa(lp1852
I1743
aS'234'
p1853
aS'380'
p1854
aasS'1JWS'
p1855
(lp1856
(lp1857
I1680
aS'26'
p1858
aS'117'
p1859
aa(lp1860
I1690
aS'95'
p1861
aS'173'
p1862
aa(lp1863
I1690
aS'103'
p1864
aS'184'
p1865
aa(lp1866
I4221
aS'14'
p1867
aS'86'
p1868
aa(lp1869
I6311
aS'130'
p1870
aS'234'
p1871
aa(lp1872
I7398
aS'4'
aS'81'
p1873
aasS'2B51'
p1874
(lp1875
(lp1876
I6411
aS'366'
p1877
aS'425'
p1878
aa(lp1879
I6589
aS'66'
p1880
aS'121'
p1881
aasS'4CU7'
p1882
(lp1883
(lp1884
I2126
aS'785'
p1885
aS'859'
p1886
aa(lp1887
I2202
aS'433'
p1888
aS'708'
p1889
aa(lp1890
I2203
aS'150'
p1891
aS'305'
p1892
aa(lp1893
I7238
aS'308'
p1894
aS'425'
p1895
aasS'4UD4'
p1896
(lp1897
(lp1898
I6411
aS'267'
p1899
aS'336'
p1900
aa(lp1901
I6589
aS'70'
p1902
aS'127'
p1903
aasS'3V8K'
p1904
(lp1905
(lp1906
I1554
aS'5'
aS'56'
p1907
aa(lp1908
I5194
aS'90'
p1909
aS'211'
p1910
aasS'3V8J'
p1911
(lp1912
(lp1913
I1554
aS'5'
aS'56'
p1914
aa(lp1915
I5194
aS'90'
p1916
aS'211'
p1917
aasS'3CZJ'
p1918
(lp1919
(lp1920
I2127
aS'635'
p1921
aS'720'
p1922
aa(lp1923
I2202
aS'335'
p1924
aS'628'
p1925
aa(lp1926
I2203
aS'49'
p1927
aS'218'
p1928
aa(lp1929
I6027
aS'753'
p1930
aS'1018'
p1931
aa(lp1932
I7238
aS'221'
p1933
aS'333'
p1934
aasS'4EQ9'
p1935
(lp1936
(lp1937
I7018
aS'40'
p1938
aS'265'
p1939
aasS'3V8L'
p1940
(lp1941
(lp1942
I1554
aS'5'
aS'56'
p1943
aa(lp1944
I5194
aS'90'
p1945
aS'211'
p1946
aasS'2Q89'
p1947
(lp1948
(lp1949
I7018
aS'15'
p1950
aS'237'
p1951
aasS'2Q88'
p1952
(lp1953
(lp1954
I7018
aS'15'
p1955
aS'237'
p1956
aasS'4MZ5'
p1957
(lp1958
(lp1959
I4134
aS'109'
p1960
aS'149'
p1961
aa(lp1962
I4134
aS'151'
p1963
aS'190'
p1964
aa(lp1965
I4134
aS'194'
p1966
aS'238'
p1967
aa(lp1968
I4134
aS'251'
p1969
aS'279'
p1970
aa(lp1971
I4134
aS'283'
p1972
aS'321'
p1973
aa(lp1974
I4134
aS'324'
p1975
aS'364'
p1976
aa(lp1977
I4134
aS'367'
p1978
aS'405'
p1979
aa(lp1980
I4134
aS'410'
p1981
aS'447'
p1982
aa(lp1983
I7514
aS'458'
p1984
aS'497'
p1985
aasS'4PRS'
p1986
(lp1987
(lp1988
I7018
aS'12'
p1989
aS'226'
p1990
aasS'1UUP'
p1991
(lp1992
(lp1993
I1680
aS'1024'
p1994
aS'1105'
p1995
aa(lp1996
I6311
aS'1115'
p1997
aS'1218'
p1998
aasS'1GV2'
p1999
(lp2000
(lp2001
I514
aS'92'
p2002
aS'138'
p2003
aa(lp2004
I514
aS'144'
p2005
aS'187'
p2006
aasS'2LLK'
p2007
(lp2008
(lp2009
I514
aS'225'
p2010
aS'265'
p2011
aasS'1IRZ'
p2012
(lp2013
(lp2014
I514
aS'9'
aS'56'
p2015
aasS'1SE3'
p2016
(lp2017
(lp2018
I1680
aS'27'
p2019
aS'119'
p2020
aa(lp2021
I6311
aS'131'
p2022
aS'234'
p2023
aasS'2CU7'
p2024
(lp2025
(lp2026
I514
aS'10'
p2027
aS'53'
p2028
aasS'1GV5'
p2029
(lp2030
(lp2031
I514
aS'92'
p2032
aS'138'
p2033
aasS'4XZR'
p2034
(lp2035
(lp2036
I4134
aS'121'
p2037
aS'160'
p2038
aa(lp2039
I4134
aS'163'
p2040
aS'201'
p2041
aa(lp2042
I4134
aS'205'
p2043
aS'244'
p2044
aa(lp2045
I4134
aS'249'
p2046
aS'285'
p2047
aa(lp2048
I4134
aS'289'
p2049
aS'327'
p2050
aa(lp2051
I4134
aS'330'
p2052
aS'370'
p2053
aa(lp2054
I4134
aS'372'
p2055
aS'411'
p2056
aa(lp2057
I4134
aS'418'
p2058
aS'455'
p2059
aa(lp2060
I7514
aS'471'
p2061
aS'509'
p2062
aasS'1MSF'
p2063
(lp2064
(lp2065
I514
aS'92'
p2066
aS'138'
p2067
aa(lp2068
I514
aS'144'
p2069
aS'187'
p2070
aasS'1MSE'
p2071
(lp2072
(lp2073
I514
aS'92'
p2074
aS'138'
p2075
aa(lp2076
I514
aS'144'
p2077
aS'187'
p2078
aasS'2C8M'
p2079
(lp2080
(lp2081
I5194
aS'53'
p2082
aS'169'
p2083
aasS'4U83'
p2084
(lp2085
(lp2086
I1737
aS'4'
aS'116'
p2087
aa(lp2088
I1738
aS'120'
p2089
aS'214'
p2090
aa(lp2091
I1743
aS'227'
p2092
aS'375'
p2093
aasS'3OIB'
p2094
(lp2095
(lp2096
I1737
aS'27'
p2097
aS'140'
p2098
aa(lp2099
I1738
aS'144'
p2100
aS'238'
p2101
aa(lp2102
I1743
aS'250'
p2103
aS'398'
p2104
aasS'2C12'
p2105
(lp2106
(lp2107
I1737
aS'8'
aS'124'
p2108
aa(lp2109
I1743
aS'269'
p2110
aS'417'
p2111
aasS'2DTH'
p2112
(lp2113
(lp2114
I5194
aS'15'
p2115
aS'132'
p2116
aa(lp2117
I5243
aS'188'
p2118
aS'233'
p2119
aasS'2DTI'
p2120
(lp2121
(lp2122
I5194
aS'15'
p2123
aS'132'
p2124
aa(lp2125
I5243
aS'188'
p2126
aS'233'
p2127
aasS'2DTO'
p2128
(lp2129
(lp2130
I5194
aS'15'
p2131
aS'132'
p2132
aa(lp2133
I5243
aS'188'
p2134
aS'233'
p2135
aasS'3L1A'
p2136
(lp2137
(lp2138
I5194
aS'57'
p2139
aS'147'
p2140
aa(lp2141
I5243
aS'218'
p2142
aS'264'
p2143
aasS'3U33'
p2144
(lp2145
(lp2146
I1738
aS'181'
p2147
aS'275'
p2148
aa(lp2149
I1743
aS'285'
p2150
aS'439'
p2151
aasS'3LQ6'
p2152
(lp2153
(lp2154
I5585
aS'309'
p2155
aS'538'
p2156
aasS'4HZH'
p2157
(lp2158
(lp2159
I2879
aS'321'
p2160
aS'570'
p2161
aa(lp2162
I4359
aS'274'
p2163
aS'320'
p2164
aa(lp2165
I5155
aS'170'
p2166
aS'248'
p2167
aasS'4Q0C'
p2168
(lp2169
(lp2170
I7018
aS'72'
p2171
aS'278'
p2172
aa(lp2173
I7018
aS'309'
p2174
aS'527'
p2175
aasS'4DZ1'
p2176
(lp2177
(lp2178
I7018
aS'31'
p2179
aS'240'
p2180
aasS'1EJY'
p2181
(lp2182
(lp2183
I4134
aS'109'
p2184
aS'149'
p2185
aa(lp2186
I4134
aS'151'
p2187
aS'190'
p2188
aa(lp2189
I4134
aS'194'
p2190
aS'238'
p2191
aa(lp2192
I4134
aS'251'
p2193
aS'279'
p2194
aa(lp2195
I4134
aS'283'
p2196
aS'321'
p2197
aa(lp2198
I4134
aS'324'
p2199
aS'364'
p2200
aa(lp2201
I4134
aS'367'
p2202
aS'405'
p2203
aa(lp2204
I4134
aS'410'
p2205
aS'447'
p2206
aa(lp2207
I4134
aS'109'
p2208
aS'149'
p2209
aa(lp2210
I4134
aS'151'
p2211
aS'190'
p2212
aa(lp2213
I4134
aS'194'
p2214
aS'238'
p2215
aa(lp2216
I4134
aS'251'
p2217
aS'279'
p2218
aa(lp2219
I4134
aS'283'
p2220
aS'321'
p2221
aa(lp2222
I4134
aS'324'
p2223
aS'364'
p2224
aa(lp2225
I4134
aS'367'
p2226
aS'405'
p2227
aa(lp2228
I4134
aS'410'
p2229
aS'447'
p2230
aa(lp2231
I7514
aS'458'
p2232
aS'497'
p2233
aa(lp2234
I7514
aS'458'
p2235
aS'497'
p2236
aasS'3LQE'
p2237
(lp2238
(lp2239
I5585
aS'309'
p2240
aS'538'
p2241
aasS'1EJL'
p2242
(lp2243
(lp2244
I4134
aS'109'
p2245
aS'149'
p2246
aa(lp2247
I4134
aS'151'
p2248
aS'190'
p2249
aa(lp2250
I4134
aS'194'
p2251
aS'238'
p2252
aa(lp2253
I4134
aS'251'
p2254
aS'279'
p2255
aa(lp2256
I4134
aS'283'
p2257
aS'321'
p2258
aa(lp2259
I4134
aS'324'
p2260
aS'364'
p2261
aa(lp2262
I4134
aS'367'
p2263
aS'405'
p2264
aa(lp2265
I4134
aS'410'
p2266
aS'447'
p2267
aa(lp2268
I7514
aS'458'
p2269
aS'497'
p2270
aasS'1B2I'
p2271
(lp2272
(lp2273
I5155
aS'1'
aS'80'
p2274
aasS'3D9F'
p2275
(lp2276
(lp2277
I1737
aS'8'
aS'124'
p2278
aa(lp2279
I1743
aS'269'
p2280
aS'417'
p2281
aasS'4OC2'
p2282
(lp2283
(lp2284
I1653
aS'171'
p2285
aS'257'
p2286
aa(lp2287
I4881
aS'627'
p2288
aS'747'
p2289
aa(lp2290
I6193
aS'357'
p2291
aS'481'
p2292
aasS'4OC3'
p2293
(lp2294
(lp2295
I1653
aS'171'
p2296
aS'257'
p2297
aa(lp2298
I4881
aS'627'
p2299
aS'747'
p2300
aa(lp2301
I6193
aS'357'
p2302
aS'481'
p2303
aasS'4OC0'
p2304
(lp2305
(lp2306
I1653
aS'171'
p2307
aS'257'
p2308
aa(lp2309
I4881
aS'627'
p2310
aS'747'
p2311
aa(lp2312
I6193
aS'357'
p2313
aS'481'
p2314
aasS'4OC1'
p2315
(lp2316
(lp2317
I1653
aS'171'
p2318
aS'257'
p2319
aa(lp2320
I4881
aS'627'
p2321
aS'747'
p2322
aa(lp2323
I6193
aS'357'
p2324
aS'481'
p2325
aasS'4OC4'
p2326
(lp2327
(lp2328
I1653
aS'171'
p2329
aS'257'
p2330
aa(lp2331
I4881
aS'627'
p2332
aS'747'
p2333
aa(lp2334
I6193
aS'357'
p2335
aS'481'
p2336
aasS'4OC5'
p2337
(lp2338
(lp2339
I1653
aS'171'
p2340
aS'257'
p2341
aa(lp2342
I4881
aS'627'
p2343
aS'747'
p2344
aa(lp2345
I6193
aS'357'
p2346
aS'481'
p2347
aasS'1F4A'
p2348
(lp2349
(lp2350
I2127
aS'635'
p2351
aS'720'
p2352
aa(lp2353
I2202
aS'335'
p2354
aS'628'
p2355
aa(lp2356
I2203
aS'49'
p2357
aS'218'
p2358
aa(lp2359
I6027
aS'753'
p2360
aS'1018'
p2361
aa(lp2362
I7238
aS'221'
p2363
aS'333'
p2364
aasS'4Y9L'
p2365
(lp2366
(lp2367
I1738
aS'207'
p2368
aS'309'
p2369
aa(lp2370
I1743
aS'320'
p2371
aS'476'
p2372
aasS'3PVD'
p2373
(lp2374
(lp2375
I5585
aS'305'
p2376
aS'527'
p2377
aasS'4Y9J'
p2378
(lp2379
(lp2380
I1738
aS'207'
p2381
aS'309'
p2382
aa(lp2383
I1743
aS'320'
p2384
aS'476'
p2385
aasS'1F4H'
p2386
(lp2387
(lp2388
I2127
aS'635'
p2389
aS'720'
p2390
aa(lp2391
I2202
aS'335'
p2392
aS'628'
p2393
aa(lp2394
I2203
aS'49'
p2395
aS'218'
p2396
aa(lp2397
I6027
aS'753'
p2398
aS'1018'
p2399
aa(lp2400
I7238
aS'221'
p2401
aS'333'
p2402
aasS'2P0L'
p2403
(lp2404
(lp2405
I5194
aS'74'
p2406
aS'182'
p2407
aasS'3SJP'
p2408
(lp2409
(lp2410
I5585
aS'305'
p2411
aS'531'
p2412
aasS'4QVJ'
p2413
(lp2414
(lp2415
I5585
aS'336'
p2416
aS'565'
p2417
aasS'3ZIP'
p2418
(lp2419
(lp2420
I4134
aS'109'
p2421
aS'149'
p2422
aa(lp2423
I4134
aS'151'
p2424
aS'190'
p2425
aa(lp2426
I4134
aS'194'
p2427
aS'238'
p2428
aa(lp2429
I4134
aS'251'
p2430
aS'279'
p2431
aa(lp2432
I4134
aS'283'
p2433
aS'321'
p2434
aa(lp2435
I4134
aS'324'
p2436
aS'364'
p2437
aa(lp2438
I4134
aS'367'
p2439
aS'405'
p2440
aa(lp2441
I4134
aS'410'
p2442
aS'447'
p2443
aa(lp2444
I7514
aS'458'
p2445
aS'497'
p2446
aasS'4DQ2'
p2447
(lp2448
(lp2449
I1554
aS'6'
aS'57'
p2450
aa(lp2451
I5194
aS'91'
p2452
aS'212'
p2453
aasS'1GVD'
p2454
(lp2455
(lp2456
I514
aS'92'
p2457
aS'138'
p2458
aasS'3ZIQ'
p2459
(lp2460
(lp2461
I4134
aS'109'
p2462
aS'149'
p2463
aa(lp2464
I4134
aS'151'
p2465
aS'190'
p2466
aa(lp2467
I4134
aS'194'
p2468
aS'238'
p2469
aa(lp2470
I4134
aS'251'
p2471
aS'279'
p2472
aa(lp2473
I4134
aS'283'
p2474
aS'321'
p2475
aa(lp2476
I4134
aS'324'
p2477
aS'364'
p2478
aa(lp2479
I4134
aS'367'
p2480
aS'405'
p2481
aa(lp2482
I4134
aS'410'
p2483
aS'447'
p2484
aa(lp2485
I7514
aS'458'
p2486
aS'497'
p2487
aasS'4JHZ'
p2488
(lp2489
(lp2490
I2202
aS'274'
p2491
aS'593'
p2492
aa(lp2493
I2203
aS'10'
p2494
aS'180'
p2495
aa(lp2496
I7238
aS'184'
p2497
aS'272'
p2498
aasS'3GP1'
p2499
(lp2500
(lp2501
I1525
aS'2'
aS'117'
p2502
aa(lp2503
I4043
aS'246'
p2504
aS'273'
p2505
aa(lp2506
I5039
aS'134'
p2507
aS'216'
p2508
aasS'1CX8'
p2509
(lp2510
(lp2511
I1653
aS'227'
p2512
aS'345'
p2513
aa(lp2514
I4881
aS'637'
p2515
aS'749'
p2516
aa(lp2517
I6193
aS'388'
p2518
aS'576'
p2519
aasS'1IIT'
p2520
(lp2521
(lp2522
I7018
aS'6'
aS'226'
p2523
aasS'1IIW'
p2524
(lp2525
(lp2526
I7018
aS'6'
aS'226'
p2527
aasS'3KZG'
p2528
(lp2529
(lp2530
I7018
aS'21'
p2531
aS'245'
p2532
aasS'4C56'
p2533
(lp2534
(lp2535
I1208
aS'119'
p2536
aS'191'
p2537
aa(lp2538
I1680
aS'27'
p2539
aS'119'
p2540
aa(lp2541
I1690
aS'134'
p2542
aS'219'
p2543
aa(lp2544
I1690
aS'95'
p2545
aS'173'
p2546
aa(lp2547
I1690
aS'103'
p2548
aS'184'
p2549
aa(lp2550
I2388
aS'7'
aS'111'
p2551
aa(lp2552
I2388
aS'8'
aS'114'
p2553
aa(lp2554
I4221
aS'14'
p2555
aS'86'
p2556
aa(lp2557
I6311
aS'131'
p2558
aS'234'
p2559
aa(lp2560
I7398
aS'4'
aS'81'
p2561
aasS'3C58'
p2562
(lp2563
(lp2564
I1525
aS'1'
aS'114'
p2565
aa(lp2566
I4043
aS'242'
p2567
aS'270'
p2568
aa(lp2569
I5039
aS'131'
p2570
aS'220'
p2571
aasS'3E1F'
p2572
(lp2573
(lp2574
I2127
aS'635'
p2575
aS'720'
p2576
aa(lp2577
I2202
aS'335'
p2578
aS'628'
p2579
aa(lp2580
I2203
aS'49'
p2581
aS'218'
p2582
aa(lp2583
I6027
aS'753'
p2584
aS'1018'
p2585
aa(lp2586
I7238
aS'221'
p2587
aS'333'
p2588
aasS'1SJH'
p2589
(lp2590
(lp2591
I1680
aS'26'
p2592
aS'117'
p2593
aa(lp2594
I1690
aS'95'
p2595
aS'173'
p2596
aa(lp2597
I1690
aS'103'
p2598
aS'184'
p2599
aa(lp2600
I4221
aS'14'
p2601
aS'86'
p2602
aa(lp2603
I6311
aS'130'
p2604
aS'234'
p2605
aa(lp2606
I7398
aS'4'
aS'81'
p2607
aasS'3II9'
p2608
(lp2609
(lp2610
I1737
aS'20'
p2611
aS'131'
p2612
aa(lp2613
I1738
aS'135'
p2614
aS'228'
p2615
aa(lp2616
I1743
aS'242'
p2617
aS'387'
p2618
aasS'1D6E'
p2619
(lp2620
(lp2621
I1680
aS'27'
p2622
aS'119'
p2623
aa(lp2624
I1690
aS'95'
p2625
aS'173'
p2626
aa(lp2627
I1690
aS'103'
p2628
aS'184'
p2629
aa(lp2630
I4221
aS'14'
p2631
aS'86'
p2632
aa(lp2633
I6311
aS'131'
p2634
aS'234'
p2635
aa(lp2636
I7398
aS'4'
aS'81'
p2637
aasS'3HV1'
p2638
(lp2639
(lp2640
I7018
aS'46'
p2641
aS'272'
p2642
aasS'2LTP'
p2643
(lp2644
(lp2645
I514
aS'1'
aS'43'
p2646
aasS'1SJE'
p2647
(lp2648
(lp2649
I1680
aS'26'
p2650
aS'117'
p2651
aa(lp2652
I1690
aS'95'
p2653
aS'173'
p2654
aa(lp2655
I1690
aS'103'
p2656
aS'184'
p2657
aa(lp2658
I4221
aS'14'
p2659
aS'86'
p2660
aa(lp2661
I6311
aS'130'
p2662
aS'234'
p2663
aa(lp2664
I7398
aS'4'
aS'81'
p2665
aasS'2YJP'
p2666
(lp2667
(lp2668
I7018
aS'50'
p2669
aS'266'
p2670
aasS'2M2E'
p2671
(lp2672
(lp2673
I514
aS'553'
p2674
aS'599'
p2675
aasS'4PSH'
p2676
(lp2677
(lp2678
I7018
aS'12'
p2679
aS'226'
p2680
aasS'3DEC'
p2681
(lp2682
(lp2683
I2127
aS'627'
p2684
aS'713'
p2685
aa(lp2686
I2202
aS'335'
p2687
aS'617'
p2688
aa(lp2689
I2203
aS'42'
p2690
aS'220'
p2691
aa(lp2692
I6027
aS'730'
p2693
aS'994'
p2694
aa(lp2695
I7238
aS'223'
p2696
aS'332'
p2697
aasS'1BHG'
p2698
(lp2699
(lp2700
I2202
aS'329'
p2701
aS'630'
p2702
aa(lp2703
I2203
aS'35'
p2704
aS'224'
p2705
aa(lp2706
I7238
aS'226'
p2707
aS'327'
p2708
aasS'3SAS'
p2709
(lp2710
(lp2711
I1525
aS'2'
aS'117'
p2712
aa(lp2713
I4043
aS'246'
p2714
aS'273'
p2715
aa(lp2716
I5039
aS'134'
p2717
aS'217'
p2718
aasS'2Y48'
p2719
(lp2720
(lp2721
I514
aS'382'
p2722
aS'425'
p2723
aa(lp2724
I5213
aS'177'
p2725
aS'264'
p2726
aa(lp2727
I6157
aS'288'
p2728
aS'825'
p2729
aasS'4JZ0'
p2730
(lp2731
(lp2732
I1653
aS'171'
p2733
aS'257'
p2734
aa(lp2735
I4881
aS'627'
p2736
aS'747'
p2737
aa(lp2738
I6193
aS'357'
p2739
aS'481'
p2740
aasS'1Y2A'
p2741
(lp2742
(lp2743
I4134
aS'109'
p2744
aS'149'
p2745
aa(lp2746
I4134
aS'151'
p2747
aS'190'
p2748
aa(lp2749
I4134
aS'194'
p2750
aS'238'
p2751
aa(lp2752
I4134
aS'251'
p2753
aS'279'
p2754
aa(lp2755
I4134
aS'283'
p2756
aS'321'
p2757
aa(lp2758
I4134
aS'324'
p2759
aS'364'
p2760
aa(lp2761
I4134
aS'367'
p2762
aS'405'
p2763
aa(lp2764
I4134
aS'410'
p2765
aS'447'
p2766
aa(lp2767
I7514
aS'458'
p2768
aS'497'
p2769
aasS'4UXN'
p2770
(lp2771
(lp2772
I514
aS'382'
p2773
aS'425'
p2774
aa(lp2775
I5213
aS'177'
p2776
aS'264'
p2777
aa(lp2778
I6157
aS'288'
p2779
aS'825'
p2780
aasS'1XG1'
p2781
(lp2782
(lp2783
I514
aS'14'
p2784
aS'61'
p2785
aasS'1L2B'
p2786
(lp2787
(lp2788
I1525
aS'2'
aS'117'
p2789
aa(lp2790
I4043
aS'246'
p2791
aS'273'
p2792
aa(lp2793
I5039
aS'134'
p2794
aS'223'
p2795
aasS'4IRN'
p2796
(lp2797
(lp2798
I1737
aS'8'
aS'119'
p2799
aa(lp2800
I1738
aS'126'
p2801
aS'219'
p2802
aa(lp2803
I1743
aS'231'
p2804
aS'378'
p2805
aasS'1L2D'
p2806
(lp2807
(lp2808
I1525
aS'2'
aS'117'
p2809
aa(lp2810
I4043
aS'246'
p2811
aS'273'
p2812
aa(lp2813
I5039
aS'134'
p2814
aS'220'
p2815
aasS'4NZQ'
p2816
(lp2817
(lp2818
I2879
aS'321'
p2819
aS'570'
p2820
aa(lp2821
I4359
aS'274'
p2822
aS'320'
p2823
aa(lp2824
I5155
aS'65'
p2825
aS'143'
p2826
aa(lp2827
I5155
aS'170'
p2828
aS'248'
p2829
aa(lp2830
I6715
aS'34'
p2831
aS'45'
p2832
aasS'2OPF'
p2833
(lp2834
(lp2835
I1525
aS'1'
aS'85'
p2836
aa(lp2837
I4043
aS'234'
p2838
aS'262'
p2839
aa(lp2840
I5039
aS'126'
p2841
aS'204'
p2842
aasS'3PFD'
p2843
(lp2844
(lp2845
I1737
aS'18'
p2846
aS'127'
p2847
aa(lp2848
I1738
aS'131'
p2849
aS'226'
p2850
aa(lp2851
I1743
aS'238'
p2852
aS'387'
p2853
aasS'1SXT'
p2854
(lp2855
(lp2856
I1680
aS'37'
p2857
aS'113'
p2858
aa(lp2859
I6311
aS'123'
p2860
aS'230'
p2861
aasS'4LT6'
p2862
(lp2863
(lp2864
I3898
aS'20'
p2865
aS'363'
p2866
aa(lp2867
I5877
aS'365'
p2868
aS'422'
p2869
aa(lp2870
I5877
aS'431'
p2871
aS'501'
p2872
aa(lp2873
I6589
aS'93'
p2874
aS'173'
p2875
aasS'4FH3'
p2876
(lp2877
(lp2878
I6411
aS'267'
p2879
aS'336'
p2880
aa(lp2881
I6589
aS'70'
p2882
aS'144'
p2883
aasS'3EFR'
p2884
(lp2885
(lp2886
I5194
aS'11'
p2887
aS'125'
p2888
aa(lp2889
I5243
aS'187'
p2890
aS'231'
p2891
aasS'3EFS'
p2892
(lp2893
(lp2894
I5194
aS'11'
p2895
aS'125'
p2896
aa(lp2897
I5243
aS'187'
p2898
aS'231'
p2899
aasS'1II5'
p2900
(lp2901
(lp2902
I7018
aS'6'
aS'226'
p2903
aasS'1K82'
p2904
(lp2905
(lp2906
I1525
aS'1'
aS'113'
p2907
aa(lp2908
I4043
aS'240'
p2909
aS'268'
p2910
aa(lp2911
I5039
aS'128'
p2912
aS'216'
p2913
aasS'2QJ2'
p2914
(lp2915
(lp2916
I4426
aS'42'
p2917
aS'123'
p2918
aa(lp2919
I5155
aS'128'
p2920
aS'206'
p2921
aasS'4O03'
p2922
(lp2923
(lp2924
I2879
aS'321'
p2925
aS'570'
p2926
aa(lp2927
I4359
aS'274'
p2928
aS'320'
p2929
aa(lp2930
I5155
aS'65'
p2931
aS'143'
p2932
aa(lp2933
I5155
aS'170'
p2934
aS'248'
p2935
aa(lp2936
I6715
aS'5'
aS'45'
p2937
aasS'3IIB'
p2938
(lp2939
(lp2940
I1653
aS'144'
p2941
aS'232'
p2942
aa(lp2943
I6193
aS'260'
p2944
aS'449'
p2945
aasS'5HPG'
p2946
(lp2947
(lp2948
I5155
aS'1'
aS'80'
p2949
aasS'4B18'
p2950
(lp2951
(lp2952
I4134
aS'115'
p2953
aS'156'
p2954
aa(lp2955
I4134
aS'158'
p2956
aS'197'
p2957
aa(lp2958
I4134
aS'202'
p2959
aS'241'
p2960
aa(lp2961
I4134
aS'253'
p2962
aS'282'
p2963
aa(lp2964
I4134
aS'286'
p2965
aS'324'
p2966
aa(lp2967
I4134
aS'330'
p2968
aS'367'
p2969
aa(lp2970
I4134
aS'370'
p2971
aS'408'
p2972
aa(lp2973
I4134
aS'413'
p2974
aS'451'
p2975
aa(lp2976
I7514
aS'466'
p2977
aS'505'
p2978
aasS'5CSQ'
p2979
(lp2980
(lp2981
I4426
aS'42'
p2982
aS'123'
p2983
aa(lp2984
I5155
aS'128'
p2985
aS'206'
p2986
aasS'4DUR'
p2987
(lp2988
(lp2989
I2879
aS'563'
p2990
aS'784'
p2991
aa(lp2992
I4426
aS'6'
aS'77'
p2993
aa(lp2994
I5155
aS'84'
p2995
aS'162'
p2996
aa(lp2997
I5155
aS'166'
p2998
aS'243'
p2999
aa(lp3000
I5155
aS'256'
p3001
aS'333'
p3002
aa(lp3003
I5155
aS'358'
p3004
aS'435'
p3005
aa(lp3006
I5155
aS'462'
p3007
aS'541'
p3008
aasS'3NXP'
p3009
(lp3010
(lp3011
I2879
aS'416'
p3012
aS'638'
p3013
aa(lp3014
I4359
aS'274'
p3015
aS'320'
p3016
aa(lp3017
I5155
aS'170'
p3018
aS'248'
p3019
aasS'4DUW'
p3020
(lp3021
(lp3022
I2127
aS'635'
p3023
aS'720'
p3024
aa(lp3025
I2127
aS'635'
p3026
aS'720'
p3027
aa(lp3028
I2202
aS'335'
p3029
aS'628'
p3030
aa(lp3031
I2202
aS'335'
p3032
aS'628'
p3033
aa(lp3034
I2203
aS'49'
p3035
aS'218'
p3036
aa(lp3037
I2203
aS'49'
p3038
aS'218'
p3039
aa(lp3040
I6027
aS'753'
p3041
aS'1018'
p3042
aa(lp3043
I6027
aS'753'
p3044
aS'1018'
p3045
aa(lp3046
I7238
aS'221'
p3047
aS'333'
p3048
aa(lp3049
I7238
aS'221'
p3050
aS'333'
p3051
aasS'4DUV'
p3052
(lp3053
(lp3054
I2127
aS'635'
p3055
aS'720'
p3056
aa(lp3057
I2202
aS'335'
p3058
aS'628'
p3059
aa(lp3060
I2203
aS'49'
p3061
aS'218'
p3062
aa(lp3063
I6027
aS'753'
p3064
aS'1018'
p3065
aa(lp3066
I7238
aS'221'
p3067
aS'333'
p3068
aasS'4DUU'
p3069
(lp3070
(lp3071
I2879
aS'563'
p3072
aS'784'
p3073
aa(lp3074
I4426
aS'6'
aS'77'
p3075
aa(lp3076
I5155
aS'84'
p3077
aS'162'
p3078
aa(lp3079
I5155
aS'166'
p3080
aS'243'
p3081
aa(lp3082
I5155
aS'346'
p3083
aS'255'
p3084
aa(lp3085
I5155
aS'358'
p3086
aS'435'
p3087
aa(lp3088
I5155
aS'462'
p3089
aS'541'
p3090
aasS'4P3I'
p3091
(lp3092
(lp3093
I5585
aS'306'
p3094
aS'525'
p3095
aa(lp3096
I7197
aS'231'
p3097
aS'293'
p3098
aasS'3MC0'
p3099
(lp3100
(lp3101
I1680
aS'45'
p3102
aS'114'
p3103
aa(lp3104
I2388
aS'6'
aS'116'
p3105
aa(lp3106
I6311
aS'126'
p3107
aS'230'
p3108
aasS'3R6K'
p3109
(lp3110
(lp3111
I5585
aS'305'
p3112
aS'525'
p3113
aasS'4DUX'
p3114
(lp3115
(lp3116
I2127
aS'635'
p3117
aS'720'
p3118
aa(lp3119
I2202
aS'335'
p3120
aS'628'
p3121
aa(lp3122
I2203
aS'49'
p3123
aS'218'
p3124
aa(lp3125
I6027
aS'753'
p3126
aS'1018'
p3127
aa(lp3128
I7238
aS'221'
p3129
aS'333'
p3130
aasS'3ZSF'
p3131
(lp3132
(lp3133
I7018
aS'51'
p3134
aS'270'
p3135
aasS'1EGE'
p3136
(lp3137
(lp3138
I1737
aS'17'
p3139
aS'125'
p3140
aa(lp3141
I1738
aS'132'
p3142
aS'230'
p3143
aa(lp3144
I1743
aS'242'
p3145
aS'389'
p3146
aasS'1EGD'
p3147
(lp3148
(lp3149
I1737
aS'17'
p3150
aS'125'
p3151
aa(lp3152
I1738
aS'132'
p3153
aS'230'
p3154
aa(lp3155
I1743
aS'242'
p3156
aS'389'
p3157
aasS'4XVX'
p3158
(lp3159
(lp3160
I1737
aS'9'
aS'101'
p3161
aa(lp3162
I1738
aS'117'
p3163
aS'211'
p3164
aa(lp3165
I1743
aS'224'
p3166
aS'370'
p3167
aasS'1HQR'
p3168
(lp3169
(lp3170
I1680
aS'515'
p3171
aS'592'
p3172
aa(lp3173
I1690
aS'95'
p3174
aS'173'
p3175
aa(lp3176
I1690
aS'303'
p3177
aS'384'
p3178
aa(lp3179
I4221
aS'214'
p3180
aS'286'
p3181
aa(lp3182
I6311
aS'601'
p3183
aS'706'
p3184
aa(lp3185
I7398
aS'4'
aS'81'
p3186
aasS'2REH'
p3187
(lp3188
(lp3189
I1737
aS'8'
aS'124'
p3190
aa(lp3191
I1743
aS'269'
p3192
aS'417'
p3193
aasS'1L0Y'
p3194
(lp3195
(lp3196
I1680
aS'24'
p3197
aS'105'
p3198
aa(lp3199
I1690
aS'134'
p3200
aS'221'
p3201
aa(lp3202
I2388
aS'6'
aS'250'
p3203
aa(lp3204
I6311
aS'115'
p3205
aS'218'
p3206
aasS'2Q66'
p3207
(lp3208
(lp3209
I3898
aS'8'
aS'351'
p3210
aa(lp3211
I5877
aS'353'
p3212
aS'529'
p3213
aa(lp3214
I6589
aS'81'
p3215
aS'153'
p3216
aasS'2CQR'
p3217
(lp3218
(lp3219
I514
aS'19'
p3220
aS'64'
p3221
aasS'3GPP'
p3222
(lp3223
(lp3224
I1525
aS'2'
aS'117'
p3225
aa(lp3226
I4043
aS'246'
p3227
aS'273'
p3228
aa(lp3229
I5039
aS'134'
p3230
aS'216'
p3231
aasS'2IPK'
p3232
(lp3233
(lp3234
I1680
aS'26'
p3235
aS'117'
p3236
aa(lp3237
I1690
aS'95'
p3238
aS'173'
p3239
aa(lp3240
I1690
aS'103'
p3241
aS'184'
p3242
aa(lp3243
I4221
aS'14'
p3244
aS'86'
p3245
aa(lp3246
I6311
aS'130'
p3247
aS'234'
p3248
aa(lp3249
I7398
aS'4'
aS'81'
p3250
aasS'3MDE'
p3251
(lp3252
(lp3253
I1737
aS'17'
p3254
aS'125'
p3255
aa(lp3256
I1737
aS'17'
p3257
aS'125'
p3258
aa(lp3259
I1738
aS'132'
p3260
aS'230'
p3261
aa(lp3262
I1738
aS'132'
p3263
aS'230'
p3264
aa(lp3265
I1743
aS'242'
p3266
aS'389'
p3267
aa(lp3268
I1743
aS'242'
p3269
aS'389'
p3270
aasS'4E80'
p3271
(lp3272
(lp3273
I6411
aS'267'
p3274
aS'336'
p3275
aa(lp3276
I6589
aS'70'
p3277
aS'143'
p3278
aasS'4POX'
p3279
(lp3280
(lp3281
I7018
aS'31'
p3282
aS'276'
p3283
aasS'4P4D'
p3284
(lp3285
(lp3286
I1653
aS'171'
p3287
aS'257'
p3288
aa(lp3289
I4881
aS'627'
p3290
aS'747'
p3291
aa(lp3292
I6193
aS'357'
p3293
aS'481'
p3294
aasS'4P4E'
p3295
(lp3296
(lp3297
I1653
aS'171'
p3298
aS'257'
p3299
aa(lp3300
I4881
aS'627'
p3301
aS'747'
p3302
aa(lp3303
I6193
aS'357'
p3304
aS'481'
p3305
aasS'4P4F'
p3306
(lp3307
(lp3308
I1653
aS'171'
p3309
aS'257'
p3310
aa(lp3311
I4881
aS'627'
p3312
aS'747'
p3313
aa(lp3314
I6193
aS'357'
p3315
aS'481'
p3316
aasS'3K46'
p3317
(lp3318
(lp3319
I2202
aS'274'
p3320
aS'593'
p3321
aa(lp3322
I2203
aS'10'
p3323
aS'180'
p3324
aa(lp3325
I7238
aS'184'
p3326
aS'272'
p3327
aasS'1BUC'
p3328
(lp3329
(lp3330
I1737
aS'6'
aS'120'
p3331
aa(lp3332
I1738
aS'125'
p3333
aS'221'
p3334
aa(lp3335
I1743
aS'233'
p3336
aS'378'
p3337
aasS'4P4B'
p3338
(lp3339
(lp3340
I1653
aS'171'
p3341
aS'257'
p3342
aa(lp3343
I4881
aS'627'
p3344
aS'747'
p3345
aa(lp3346
I6193
aS'357'
p3347
aS'481'
p3348
aasS'3FEE'
p3349
(lp3350
(lp3351
I1653
aS'161'
p3352
aS'245'
p3353
aa(lp3354
I4881
aS'617'
p3355
aS'737'
p3356
aa(lp3357
I6193
aS'347'
p3358
aS'550'
p3359
aasS'4U54'
p3360
(lp3361
(lp3362
I4134
aS'109'
p3363
aS'149'
p3364
aa(lp3365
I4134
aS'151'
p3366
aS'190'
p3367
aa(lp3368
I4134
aS'194'
p3369
aS'238'
p3370
aa(lp3371
I4134
aS'251'
p3372
aS'279'
p3373
aa(lp3374
I4134
aS'283'
p3375
aS'321'
p3376
aa(lp3377
I4134
aS'324'
p3378
aS'364'
p3379
aa(lp3380
I4134
aS'367'
p3381
aS'405'
p3382
aa(lp3383
I4134
aS'410'
p3384
aS'447'
p3385
aa(lp3386
I7514
aS'458'
p3387
aS'497'
p3388
aasS'3BI0'
p3389
(lp3390
(lp3391
I1653
aS'171'
p3392
aS'257'
p3393
aa(lp3394
I4881
aS'627'
p3395
aS'747'
p3396
aa(lp3397
I6193
aS'357'
p3398
aS'481'
p3399
aasS'3BI1'
p3400
(lp3401
(lp3402
I1653
aS'171'
p3403
aS'257'
p3404
aa(lp3405
I4881
aS'627'
p3406
aS'747'
p3407
aa(lp3408
I6193
aS'357'
p3409
aS'481'
p3410
aasS'4P4J'
p3411
(lp3412
(lp3413
I1653
aS'171'
p3414
aS'257'
p3415
aa(lp3416
I4881
aS'627'
p3417
aS'747'
p3418
aa(lp3419
I6193
aS'357'
p3420
aS'481'
p3421
aasS'1X2H'
p3422
(lp3423
(lp3424
I1505
aS'249'
p3425
aS'331'
p3426
aa(lp3427
I5194
aS'51'
p3428
aS'157'
p3429
aasS'4U5N'
p3430
(lp3431
(lp3432
I4134
aS'109'
p3433
aS'149'
p3434
aa(lp3435
I4134
aS'151'
p3436
aS'190'
p3437
aa(lp3438
I4134
aS'194'
p3439
aS'238'
p3440
aa(lp3441
I4134
aS'251'
p3442
aS'279'
p3443
aa(lp3444
I4134
aS'283'
p3445
aS'321'
p3446
aa(lp3447
I4134
aS'324'
p3448
aS'364'
p3449
aa(lp3450
I4134
aS'367'
p3451
aS'405'
p3452
aa(lp3453
I4134
aS'410'
p3454
aS'447'
p3455
aa(lp3456
I7514
aS'458'
p3457
aS'497'
p3458
aasS'4P45'
p3459
(lp3460
(lp3461
I1653
aS'171'
p3462
aS'257'
p3463
aa(lp3464
I4881
aS'627'
p3465
aS'747'
p3466
aa(lp3467
I6193
aS'357'
p3468
aS'481'
p3469
aasS'4U5L'
p3470
(lp3471
(lp3472
I4134
aS'109'
p3473
aS'149'
p3474
aa(lp3475
I4134
aS'151'
p3476
aS'190'
p3477
aa(lp3478
I4134
aS'194'
p3479
aS'238'
p3480
aa(lp3481
I4134
aS'251'
p3482
aS'279'
p3483
aa(lp3484
I4134
aS'283'
p3485
aS'321'
p3486
aa(lp3487
I4134
aS'324'
p3488
aS'364'
p3489
aa(lp3490
I4134
aS'367'
p3491
aS'405'
p3492
aa(lp3493
I4134
aS'410'
p3494
aS'447'
p3495
aa(lp3496
I7514
aS'458'
p3497
aS'497'
p3498
aasS'3K4A'
p3499
(lp3500
(lp3501
I2202
aS'274'
p3502
aS'593'
p3503
aa(lp3504
I2203
aS'10'
p3505
aS'180'
p3506
aa(lp3507
I7238
aS'184'
p3508
aS'272'
p3509
aasS'5A1A'
p3510
(lp3511
(lp3512
I2127
aS'635'
p3513
aS'720'
p3514
aa(lp3515
I2202
aS'335'
p3516
aS'628'
p3517
aa(lp3518
I2203
aS'49'
p3519
aS'218'
p3520
aa(lp3521
I6027
aS'753'
p3522
aS'1018'
p3523
aa(lp3524
I7238
aS'221'
p3525
aS'333'
p3526
aasS'3K4D'
p3527
(lp3528
(lp3529
I2202
aS'274'
p3530
aS'593'
p3531
aa(lp3532
I2203
aS'10'
p3533
aS'180'
p3534
aa(lp3535
I7238
aS'184'
p3536
aS'272'
p3537
aasS'2CX9'
p3538
(lp3539
(lp3540
I1737
aS'10'
p3541
aS'120'
p3542
aa(lp3543
I1738
aS'125'
p3544
aS'222'
p3545
aa(lp3546
I1743
aS'235'
p3547
aS'384'
p3548
aasS'2CJJ'
p3549
(lp3550
(lp3551
I514
aS'10'
p3552
aS'53'
p3553
aasS'4IG8'
p3554
(lp3555
(lp3556
I3114
aS'164'
p3557
aS'344'
p3558
aa(lp3559
I6589
aS'37'
p3560
aS'120'
p3561
aasS'3T08'
p3562
(lp3563
(lp3564
I2127
aS'635'
p3565
aS'720'
p3566
aa(lp3567
I2202
aS'335'
p3568
aS'628'
p3569
aa(lp3570
I2203
aS'49'
p3571
aS'218'
p3572
aa(lp3573
I6027
aS'753'
p3574
aS'1018'
p3575
aa(lp3576
I7238
aS'221'
p3577
aS'333'
p3578
aasS'4U5V'
p3579
(lp3580
(lp3581
I4134
aS'109'
p3582
aS'149'
p3583
aa(lp3584
I4134
aS'151'
p3585
aS'190'
p3586
aa(lp3587
I4134
aS'194'
p3588
aS'238'
p3589
aa(lp3590
I4134
aS'251'
p3591
aS'279'
p3592
aa(lp3593
I4134
aS'283'
p3594
aS'321'
p3595
aa(lp3596
I4134
aS'324'
p3597
aS'364'
p3598
aa(lp3599
I4134
aS'367'
p3600
aS'405'
p3601
aa(lp3602
I4134
aS'410'
p3603
aS'447'
p3604
aa(lp3605
I7514
aS'458'
p3606
aS'497'
p3607
aasS'4U5U'
p3608
(lp3609
(lp3610
I4134
aS'109'
p3611
aS'149'
p3612
aa(lp3613
I4134
aS'151'
p3614
aS'190'
p3615
aa(lp3616
I4134
aS'194'
p3617
aS'238'
p3618
aa(lp3619
I4134
aS'251'
p3620
aS'279'
p3621
aa(lp3622
I4134
aS'283'
p3623
aS'321'
p3624
aa(lp3625
I4134
aS'324'
p3626
aS'364'
p3627
aa(lp3628
I4134
aS'367'
p3629
aS'405'
p3630
aa(lp3631
I4134
aS'410'
p3632
aS'447'
p3633
aa(lp3634
I7514
aS'458'
p3635
aS'497'
p3636
aasS'3Q6R'
p3637
(lp3638
(lp3639
I5585
aS'307'
p3640
aS'538'
p3641
aa(lp3642
I7197
aS'224'
p3643
aS'275'
p3644
aasS'4U5S'
p3645
(lp3646
(lp3647
I4134
aS'109'
p3648
aS'149'
p3649
aa(lp3650
I4134
aS'151'
p3651
aS'190'
p3652
aa(lp3653
I4134
aS'194'
p3654
aS'238'
p3655
aa(lp3656
I4134
aS'251'
p3657
aS'279'
p3658
aa(lp3659
I4134
aS'283'
p3660
aS'321'
p3661
aa(lp3662
I4134
aS'324'
p3663
aS'364'
p3664
aa(lp3665
I4134
aS'367'
p3666
aS'405'
p3667
aa(lp3668
I4134
aS'410'
p3669
aS'447'
p3670
aa(lp3671
I7514
aS'458'
p3672
aS'497'
p3673
aasS'3Q6Q'
p3674
(lp3675
(lp3676
I5585
aS'307'
p3677
aS'538'
p3678
aa(lp3679
I7197
aS'224'
p3680
aS'275'
p3681
aasS'5CS1'
p3682
(lp3683
(lp3684
I4426
aS'42'
p3685
aS'123'
p3686
aa(lp3687
I5155
aS'128'
p3688
aS'206'
p3689
aasS'5CS3'
p3690
(lp3691
(lp3692
I4426
aS'42'
p3693
aS'123'
p3694
aa(lp3695
I5155
aS'128'
p3696
aS'206'
p3697
aasS'1PYW'
p3698
(lp3699
(lp3700
I1680
aS'26'
p3701
aS'117'
p3702
aa(lp3703
I1690
aS'95'
p3704
aS'173'
p3705
aa(lp3706
I1690
aS'103'
p3707
aS'184'
p3708
aa(lp3709
I4221
aS'14'
p3710
aS'86'
p3711
aa(lp3712
I6311
aS'130'
p3713
aS'234'
p3714
aa(lp3715
I7398
aS'4'
aS'81'
p3716
aasS'5CS5'
p3717
(lp3718
(lp3719
I4426
aS'42'
p3720
aS'123'
p3721
aa(lp3722
I5155
aS'128'
p3723
aS'206'
p3724
aasS'5CZK'
p3725
(lp3726
(lp3727
I2202
aS'274'
p3728
aS'593'
p3729
aa(lp3730
I2203
aS'10'
p3731
aS'180'
p3732
aa(lp3733
I7238
aS'184'
p3734
aS'272'
p3735
aasS'1ENF'
p3736
(lp3737
(lp3738
I1680
aS'27'
p3739
aS'98'
p3740
aa(lp3741
I6311
aS'110'
p3742
aS'211'
p3743
aasS'5CS9'
p3744
(lp3745
(lp3746
I4426
aS'42'
p3747
aS'123'
p3748
aa(lp3749
I5155
aS'128'
p3750
aS'206'
p3751
aasS'1F77'
p3752
(lp3753
(lp3754
I1680
aS'27'
p3755
aS'98'
p3756
aa(lp3757
I6311
aS'110'
p3758
aS'211'
p3759
aasS'1JFN'
p3760
(lp3761
(lp3762
I5155
aS'25'
p3763
aS'102'
p3764
aasS'2EBA'
p3765
(lp3766
(lp3767
I1737
aS'12'
p3768
aS'124'
p3769
aa(lp3770
I1738
aS'128'
p3771
aS'220'
p3772
aa(lp3773
I1743
aS'233'
p3774
aS'379'
p3775
aasS'4TVY'
p3776
(lp3777
(lp3778
I1505
aS'249'
p3779
aS'331'
p3780
aa(lp3781
I5194
aS'51'
p3782
aS'157'
p3783
aasS'4TVW'
p3784
(lp3785
(lp3786
I1505
aS'249'
p3787
aS'331'
p3788
aa(lp3789
I5194
aS'51'
p3790
aS'157'
p3791
aasS'1T5X'
p3792
(lp3793
(lp3794
I1680
aS'26'
p3795
aS'117'
p3796
aa(lp3797
I1690
aS'95'
p3798
aS'173'
p3799
aa(lp3800
I1690
aS'103'
p3801
aS'184'
p3802
aa(lp3803
I4221
aS'14'
p3804
aS'86'
p3805
aa(lp3806
I6311
aS'130'
p3807
aS'234'
p3808
aa(lp3809
I7398
aS'4'
aS'81'
p3810
aasS'2NSU'
p3811
(lp3812
(lp3813
I1653
aS'227'
p3814
aS'345'
p3815
aa(lp3816
I4881
aS'637'
p3817
aS'749'
p3818
aa(lp3819
I6193
aS'388'
p3820
aS'576'
p3821
aasS'2XAG'
p3822
(lp3823
(lp3824
I514
aS'382'
p3825
aS'425'
p3826
aa(lp3827
I5213
aS'177'
p3828
aS'264'
p3829
aa(lp3830
I6157
aS'288'
p3831
aS'825'
p3832
aasS'2XAF'
p3833
(lp3834
(lp3835
I514
aS'382'
p3836
aS'425'
p3837
aa(lp3838
I5213
aS'177'
p3839
aS'264'
p3840
aa(lp3841
I6157
aS'288'
p3842
aS'825'
p3843
aasS'3SAR'
p3844
(lp3845
(lp3846
I1525
aS'2'
aS'117'
p3847
aa(lp3848
I4043
aS'246'
p3849
aS'273'
p3850
aa(lp3851
I5039
aS'134'
p3852
aS'217'
p3853
aasS'3MV0'
p3854
(lp3855
(lp3856
I2127
aS'635'
p3857
aS'720'
p3858
aa(lp3859
I2202
aS'335'
p3860
aS'628'
p3861
aa(lp3862
I2203
aS'49'
p3863
aS'218'
p3864
aa(lp3865
I6027
aS'753'
p3866
aS'1018'
p3867
aa(lp3868
I7238
aS'221'
p3869
aS'333'
p3870
aasS'3MV1'
p3871
(lp3872
(lp3873
I2127
aS'635'
p3874
aS'720'
p3875
aa(lp3876
I2202
aS'335'
p3877
aS'628'
p3878
aa(lp3879
I2203
aS'49'
p3880
aS'218'
p3881
aa(lp3882
I6027
aS'753'
p3883
aS'1018'
p3884
aa(lp3885
I7238
aS'221'
p3886
aS'333'
p3887
aasS'2XAH'
p3888
(lp3889
(lp3890
I514
aS'382'
p3891
aS'425'
p3892
aa(lp3893
I5213
aS'177'
p3894
aS'264'
p3895
aa(lp3896
I6157
aS'288'
p3897
aS'825'
p3898
aasS'1WNL'
p3899
(lp3900
(lp3901
I5194
aS'15'
p3902
aS'132'
p3903
aa(lp3904
I5243
aS'188'
p3905
aS'233'
p3906
aasS'2XAJ'
p3907
(lp3908
(lp3909
I514
aS'382'
p3910
aS'425'
p3911
aa(lp3912
I5213
aS'177'
p3913
aS'264'
p3914
aa(lp3915
I6157
aS'288'
p3916
aS'825'
p3917
aasS'3FJP'
p3918
(lp3919
(lp3920
I5194
aS'11'
p3921
aS'125'
p3922
aa(lp3923
I5243
aS'187'
p3924
aS'231'
p3925
aasS'2XAQ'
p3926
(lp3927
(lp3928
I514
aS'382'
p3929
aS'425'
p3930
aa(lp3931
I5213
aS'177'
p3932
aS'264'
p3933
aa(lp3934
I6157
aS'288'
p3935
aS'825'
p3936
aasS'2XAS'
p3937
(lp3938
(lp3939
I514
aS'382'
p3940
aS'425'
p3941
aa(lp3942
I5213
aS'177'
p3943
aS'264'
p3944
aa(lp3945
I6157
aS'288'
p3946
aS'825'
p3947
aasS'1GMN'
p3948
(lp3949
(lp3950
I4426
aS'42'
p3951
aS'123'
p3952
aa(lp3953
I5155
aS'128'
p3954
aS'206'
p3955
aasS'4RGN'
p3956
(lp3957
(lp3958
I1680
aS'27'
p3959
aS'119'
p3960
aa(lp3961
I1690
aS'141'
p3962
aS'212'
p3963
aa(lp3964
I1690
aS'120'
p3965
aS'205'
p3966
aa(lp3967
I1690
aS'140'
p3968
aS'211'
p3969
aa(lp3970
I1690
aS'126'
p3971
aS'211'
p3972
aa(lp3973
I2388
aS'12'
p3974
aS'116'
p3975
aa(lp3976
I2388
aS'6'
aS'106'
p3977
aa(lp3978
I2388
aS'5'
aS'117'
p3979
aa(lp3980
I2388
aS'6'
aS'111'
p3981
aa(lp3982
I6311
aS'131'
p3983
aS'234'
p3984
aasS'3HN4'
p3985
(lp3986
(lp3987
I4426
aS'42'
p3988
aS'123'
p3989
aa(lp3990
I5155
aS'128'
p3991
aS'206'
p3992
aa(lp3993
I5155
aS'211'
p3994
aS'288'
p3995
aasS'4OIH'
p3996
(lp3997
(lp3998
I4134
aS'109'
p3999
aS'149'
p4000
aa(lp4001
I4134
aS'151'
p4002
aS'190'
p4003
aa(lp4004
I4134
aS'194'
p4005
aS'238'
p4006
aa(lp4007
I4134
aS'251'
p4008
aS'279'
p4009
aa(lp4010
I4134
aS'283'
p4011
aS'321'
p4012
aa(lp4013
I4134
aS'324'
p4014
aS'364'
p4015
aa(lp4016
I4134
aS'367'
p4017
aS'405'
p4018
aa(lp4019
I4134
aS'410'
p4020
aS'447'
p4021
aa(lp4022
I7514
aS'458'
p4023
aS'497'
p4024
aasS'3DJL'
p4025
(lp4026
(lp4027
I1738
aS'181'
p4028
aS'275'
p4029
aa(lp4030
I1743
aS'285'
p4031
aS'439'
p4032
aasS'4OPO'
p4033
(lp4034
(lp4035
I5585
aS'304'
p4036
aS'530'
p4037
aasS'1KRN'
p4038
(lp4039
(lp4040
I5155
aS'66'
p4041
aS'143'
p4042
aasS'2XNA'
p4043
(lp4044
(lp4045
I1208
aS'117'
p4046
aS'189'
p4047
aa(lp4048
I1680
aS'27'
p4049
aS'98'
p4050
aa(lp4051
I1690
aS'134'
p4052
aS'219'
p4053
aa(lp4054
I2388
aS'6'
aS'108'
p4055
aa(lp4056
I2388
aS'8'
aS'114'
p4057
aa(lp4058
I6311
aS'110'
p4059
aS'211'
p4060
aasS'4OPS'
p4061
(lp4062
(lp4063
I5585
aS'305'
p4064
aS'530'
p4065
aasS'3RZX'
p4066
(lp4067
(lp4068
I4134
aS'109'
p4069
aS'149'
p4070
aa(lp4071
I4134
aS'151'
p4072
aS'190'
p4073
aa(lp4074
I4134
aS'194'
p4075
aS'238'
p4076
aa(lp4077
I4134
aS'251'
p4078
aS'279'
p4079
aa(lp4080
I4134
aS'283'
p4081
aS'321'
p4082
aa(lp4083
I4134
aS'324'
p4084
aS'364'
p4085
aa(lp4086
I4134
aS'367'
p4087
aS'405'
p4088
aa(lp4089
I4134
aS'410'
p4090
aS'447'
p4091
aa(lp4092
I7514
aS'458'
p4093
aS'497'
p4094
aasS'1PK2'
p4095
(lp4096
(lp4097
I5155
aS'7'
aS'88'
p4098
aasS'2DIM'
p4099
(lp4100
(lp4101
I514
aS'10'
p4102
aS'55'
p4103
aasS'5CT1'
p4104
(lp4105
(lp4106
I4426
aS'42'
p4107
aS'123'
p4108
aa(lp4109
I5155
aS'128'
p4110
aS'206'
p4111
aasS'5CT2'
p4112
(lp4113
(lp4114
I4426
aS'42'
p4115
aS'123'
p4116
aa(lp4117
I5155
aS'128'
p4118
aS'206'
p4119
aasS'5CT3'
p4120
(lp4121
(lp4122
I4426
aS'42'
p4123
aS'123'
p4124
aa(lp4125
I5155
aS'128'
p4126
aS'206'
p4127
aasS'3GM8'
p4128
(lp4129
(lp4130
I2126
aS'640'
p4131
aS'698'
p4132
aa(lp4133
I2202
aS'295'
p4134
aS'444'
p4135
aa(lp4136
I2203
aS'23'
p4137
aS'174'
p4138
aa(lp4139
I7238
aS'179'
p4140
aS'285'
p4141
aasS'1PK4'
p4142
(lp4143
(lp4144
I5155
aS'1'
aS'80'
p4145
aasS'4OP7'
p4146
(lp4147
(lp4148
I5585
aS'305'
p4149
aS'530'
p4150
aasS'2DIN'
p4151
(lp4152
(lp4153
I514
aS'9'
aS'50'
p4154
aasS'3RZ9'
p4155
(lp4156
(lp4157
I4134
aS'109'
p4158
aS'149'
p4159
aa(lp4160
I4134
aS'151'
p4161
aS'190'
p4162
aa(lp4163
I4134
aS'194'
p4164
aS'238'
p4165
aa(lp4166
I4134
aS'251'
p4167
aS'279'
p4168
aa(lp4169
I4134
aS'283'
p4170
aS'321'
p4171
aa(lp4172
I4134
aS'324'
p4173
aS'364'
p4174
aa(lp4175
I4134
aS'367'
p4176
aS'405'
p4177
aa(lp4178
I4134
aS'410'
p4179
aS'447'
p4180
aa(lp4181
I7514
aS'458'
p4182
aS'496'
p4183
aasS'4OP0'
p4184
(lp4185
(lp4186
I5194
aS'57'
p4187
aS'147'
p4188
aa(lp4189
I5243
aS'218'
p4190
aS'264'
p4191
aasS'1PKR'
p4192
(lp4193
(lp4194
I5155
aS'1'
aS'80'
p4195
aasS'2XN9'
p4196
(lp4197
(lp4198
I1208
aS'117'
p4199
aS'189'
p4200
aa(lp4201
I1680
aS'27'
p4202
aS'98'
p4203
aa(lp4204
I1690
aS'134'
p4205
aS'219'
p4206
aa(lp4207
I1690
aS'95'
p4208
aS'173'
p4209
aa(lp4210
I1690
aS'103'
p4211
aS'184'
p4212
aa(lp4213
I2388
aS'6'
aS'108'
p4214
aa(lp4215
I2388
aS'8'
aS'114'
p4216
aa(lp4217
I4221
aS'14'
p4218
aS'86'
p4219
aa(lp4220
I6311
aS'110'
p4221
aS'211'
p4222
aa(lp4223
I7398
aS'4'
aS'81'
p4224
aasS'2V1D'
p4225
(lp4226
(lp4227
I514
aS'382'
p4228
aS'425'
p4229
aa(lp4230
I5213
aS'177'
p4231
aS'264'
p4232
aa(lp4233
I6157
aS'288'
p4234
aS'825'
p4235
aasS'3FCJ'
p4236
(lp4237
(lp4238
I1737
aS'8'
aS'124'
p4239
aa(lp4240
I1743
aS'269'
p4241
aS'417'
p4242
aasS'3EIF'
p4243
(lp4244
(lp4245
I855
aS'121'
p4246
aS'573'
p4247
aa(lp4248
I1653
aS'370'
p4249
aS'447'
p4250
aa(lp4251
I5678
aS'597'
p4252
aS'707'
p4253
aa(lp4254
I6362
aS'819'
p4255
aS'917'
p4256
aasS'1W0T'
p4257
(lp4258
(lp4259
I514
aS'380'
p4260
aS'427'
p4261
aasS'3C66'
p4262
(lp4263
(lp4264
I3898
aS'8'
aS'351'
p4265
aa(lp4266
I5877
aS'353'
p4267
aS'531'
p4268
aa(lp4269
I6589
aS'81'
p4270
aS'154'
p4271
aasS'2RU5'
p4272
(lp4273
(lp4274
I4134
aS'117'
p4275
aS'156'
p4276
aa(lp4277
I7514
aS'163'
p4278
aS'194'
p4279
aasS'1K3W'
p4280
(lp4281
(lp4282
I1525
aS'1'
aS'85'
p4283
aa(lp4284
I4043
aS'234'
p4285
aS'262'
p4286
aa(lp4287
I5039
aS'126'
p4288
aS'204'
p4289
aasS'1K3X'
p4290
(lp4291
(lp4292
I1525
aS'1'
aS'85'
p4293
aa(lp4294
I4043
aS'234'
p4295
aS'262'
p4296
aa(lp4297
I5039
aS'126'
p4298
aS'204'
p4299
aasS'3KAS'
p4300
(lp4301
(lp4302
I1653
aS'227'
p4303
aS'345'
p4304
aa(lp4305
I4881
aS'637'
p4306
aS'749'
p4307
aa(lp4308
I6193
aS'388'
p4309
aS'576'
p4310
aasS'3D7H'
p4311
(lp4312
(lp4313
I1653
aS'171'
p4314
aS'257'
p4315
aa(lp4316
I4881
aS'627'
p4317
aS'747'
p4318
aa(lp4319
I6193
aS'357'
p4320
aS'481'
p4321
aasS'3PA2'
p4322
(lp4323
(lp4324
I5585
aS'307'
p4325
aS'538'
p4326
aa(lp4327
I7197
aS'224'
p4328
aS'275'
p4329
aasS'4IUA'
p4330
(lp4331
(lp4332
I4426
aS'43'
p4333
aS'122'
p4334
aa(lp4335
I5155
aS'129'
p4336
aS'207'
p4337
aa(lp4338
I5155
aS'212'
p4339
aS'289'
p4340
aasS'1JZ7'
p4341
(lp4342
(lp4343
I2127
aS'635'
p4344
aS'720'
p4345
aa(lp4346
I2202
aS'335'
p4347
aS'628'
p4348
aa(lp4349
I2203
aS'49'
p4350
aS'218'
p4351
aa(lp4352
I6027
aS'753'
p4353
aS'1018'
p4354
aa(lp4355
I7238
aS'221'
p4356
aS'333'
p4357
aasS'4RM0'
p4358
(lp4359
(lp4360
I5585
aS'303'
p4361
aS'527'
p4362
aa(lp4363
I7197
aS'221'
p4364
aS'274'
p4365
aasS'1JZ5'
p4366
(lp4367
(lp4368
I2127
aS'635'
p4369
aS'720'
p4370
aa(lp4371
I2202
aS'335'
p4372
aS'628'
p4373
aa(lp4374
I2203
aS'49'
p4375
aS'218'
p4376
aa(lp4377
I6027
aS'753'
p4378
aS'1018'
p4379
aa(lp4380
I7238
aS'221'
p4381
aS'333'
p4382
aasS'1JZ4'
p4383
(lp4384
(lp4385
I2127
aS'635'
p4386
aS'720'
p4387
aa(lp4388
I2202
aS'335'
p4389
aS'628'
p4390
aa(lp4391
I2203
aS'49'
p4392
aS'218'
p4393
aa(lp4394
I6027
aS'753'
p4395
aS'1018'
p4396
aa(lp4397
I7238
aS'221'
p4398
aS'333'
p4399
aasS'3Q3A'
p4400
(lp4401
(lp4402
I5585
aS'307'
p4403
aS'538'
p4404
aa(lp4405
I7197
aS'224'
p4406
aS'275'
p4407
aasS'1JZ2'
p4408
(lp4409
(lp4410
I2127
aS'635'
p4411
aS'720'
p4412
aa(lp4413
I2202
aS'335'
p4414
aS'628'
p4415
aa(lp4416
I2203
aS'49'
p4417
aS'218'
p4418
aa(lp4419
I6027
aS'753'
p4420
aS'1018'
p4421
aa(lp4422
I7238
aS'221'
p4423
aS'333'
p4424
aasS'4E8F'
p4425
(lp4426
(lp4427
I6411
aS'267'
p4428
aS'336'
p4429
aa(lp4430
I6589
aS'70'
p4431
aS'143'
p4432
aasS'1MBK'
p4433
(lp4434
(lp4435
I514
aS'144'
p4436
aS'187'
p4437
aasS'1MBE'
p4438
(lp4439
(lp4440
I514
aS'40'
p4441
aS'86'
p4442
aasS'1MBF'
p4443
(lp4444
(lp4445
I514
aS'40'
p4446
aS'86'
p4447
aasS'1MBG'
p4448
(lp4449
(lp4450
I514
aS'92'
p4451
aS'138'
p4452
aasS'3LPG'
p4453
(lp4454
(lp4455
I2202
aS'274'
p4456
aS'593'
p4457
aa(lp4458
I2203
aS'10'
p4459
aS'180'
p4460
aa(lp4461
I7238
aS'184'
p4462
aS'272'
p4463
aasS'3LPF'
p4464
(lp4465
(lp4466
I2202
aS'274'
p4467
aS'593'
p4468
aa(lp4469
I2203
aS'10'
p4470
aS'180'
p4471
aa(lp4472
I7238
aS'184'
p4473
aS'272'
p4474
aasS'3QAX'
p4475
(lp4476
(lp4477
I7018
aS'13'
p4478
aS'230'
p4479
aasS'1BK5'
p4480
(lp4481
(lp4482
I4134
aS'121'
p4483
aS'160'
p4484
aa(lp4485
I4134
aS'163'
p4486
aS'201'
p4487
aa(lp4488
I4134
aS'205'
p4489
aS'244'
p4490
aa(lp4491
I4134
aS'249'
p4492
aS'285'
p4493
aa(lp4494
I4134
aS'289'
p4495
aS'327'
p4496
aa(lp4497
I4134
aS'330'
p4498
aS'370'
p4499
aa(lp4500
I4134
aS'372'
p4501
aS'411'
p4502
aa(lp4503
I4134
aS'418'
p4504
aS'455'
p4505
aa(lp4506
I7514
aS'471'
p4507
aS'510'
p4508
aasS'1BK6'
p4509
(lp4510
(lp4511
I4134
aS'121'
p4512
aS'160'
p4513
aa(lp4514
I4134
aS'163'
p4515
aS'201'
p4516
aa(lp4517
I4134
aS'205'
p4518
aS'244'
p4519
aa(lp4520
I4134
aS'249'
p4521
aS'285'
p4522
aa(lp4523
I4134
aS'289'
p4524
aS'327'
p4525
aa(lp4526
I4134
aS'330'
p4527
aS'370'
p4528
aa(lp4529
I4134
aS'372'
p4530
aS'411'
p4531
aa(lp4532
I4134
aS'418'
p4533
aS'455'
p4534
aa(lp4535
I7514
aS'471'
p4536
aS'510'
p4537
aasS'4E4V'
p4538
(lp4539
(lp4540
I4134
aS'109'
p4541
aS'149'
p4542
aa(lp4543
I4134
aS'151'
p4544
aS'190'
p4545
aa(lp4546
I4134
aS'194'
p4547
aS'238'
p4548
aa(lp4549
I4134
aS'249'
p4550
aS'279'
p4551
aa(lp4552
I4134
aS'283'
p4553
aS'321'
p4554
aa(lp4555
I4134
aS'324'
p4556
aS'364'
p4557
aa(lp4558
I4134
aS'367'
p4559
aS'405'
p4560
aa(lp4561
I4134
aS'410'
p4562
aS'447'
p4563
aa(lp4564
I7514
aS'458'
p4565
aS'497'
p4566
aasS'4GVO'
p4567
(lp4568
(lp4569
I7018
aS'37'
p4570
aS'261'
p4571
aasS'4EP7'
p4572
(lp4573
(lp4574
I6411
aS'267'
p4575
aS'336'
p4576
aa(lp4577
I6589
aS'70'
p4578
aS'144'
p4579
aasS'3IAP'
p4580
(lp4581
(lp4582
I2127
aS'635'
p4583
aS'720'
p4584
aa(lp4585
I2202
aS'335'
p4586
aS'628'
p4587
aa(lp4588
I2203
aS'49'
p4589
aS'218'
p4590
aa(lp4591
I6027
aS'753'
p4592
aS'1018'
p4593
aa(lp4594
I7238
aS'221'
p4595
aS'333'
p4596
aasS'4PP0'
p4597
(lp4598
(lp4599
I7018
aS'31'
p4600
aS'276'
p4601
aasS'3OQS'
p4602
(lp4603
(lp4604
I4134
aS'109'
p4605
aS'149'
p4606
aa(lp4607
I4134
aS'151'
p4608
aS'190'
p4609
aa(lp4610
I4134
aS'194'
p4611
aS'238'
p4612
aa(lp4613
I4134
aS'251'
p4614
aS'279'
p4615
aa(lp4616
I4134
aS'283'
p4617
aS'321'
p4618
aa(lp4619
I4134
aS'324'
p4620
aS'364'
p4621
aa(lp4622
I4134
aS'367'
p4623
aS'405'
p4624
aa(lp4625
I4134
aS'410'
p4626
aS'447'
p4627
aa(lp4628
I7514
aS'458'
p4629
aS'496'
p4630
aasS'4P0I'
p4631
(lp4632
(lp4633
I7018
aS'31'
p4634
aS'276'
p4635
aasS'1EU3'
p4636
(lp4637
(lp4638
I1680
aS'11'
p4639
aS'93'
p4640
aa(lp4641
I6311
aS'101'
p4642
aS'207'
p4643
aasS'2EAY'
p4644
(lp4645
(lp4646
I5194
aS'11'
p4647
aS'125'
p4648
aa(lp4649
I5243
aS'187'
p4650
aS'231'
p4651
aasS'1SEB'
p4652
(lp4653
(lp4654
I1680
aS'27'
p4655
aS'119'
p4656
aa(lp4657
I1690
aS'95'
p4658
aS'173'
p4659
aa(lp4660
I1690
aS'103'
p4661
aS'184'
p4662
aa(lp4663
I4221
aS'14'
p4664
aS'86'
p4665
aa(lp4666
I6311
aS'131'
p4667
aS'234'
p4668
aa(lp4669
I7398
aS'4'
aS'81'
p4670
aasS'2C0U'
p4671
(lp4672
(lp4673
I1737
aS'8'
aS'124'
p4674
aa(lp4675
I1743
aS'269'
p4676
aS'417'
p4677
aasS'4P0G'
p4678
(lp4679
(lp4680
I1599
aS'295'
p4681
aS'402'
p4682
aa(lp4683
I7018
aS'46'
p4684
aS'268'
p4685
aasS'3RUX'
p4686
(lp4687
(lp4688
I5194
aS'57'
p4689
aS'147'
p4690
aa(lp4691
I5243
aS'218'
p4692
aS'264'
p4693
aasS'4P4I'
p4694
(lp4695
(lp4696
I1653
aS'171'
p4697
aS'257'
p4698
aa(lp4699
I4881
aS'627'
p4700
aS'747'
p4701
aa(lp4702
I6193
aS'357'
p4703
aS'481'
p4704
aasS'4RDL'
p4705
(lp4706
(lp4707
I5585
aS'306'
p4708
aS'526'
p4709
aa(lp4710
I7197
aS'230'
p4711
aS'288'
p4712
aasS'2PG0'
p4713
(lp4714
(lp4715
I1737
aS'12'
p4716
aS'122'
p4717
aa(lp4718
I1738
aS'126'
p4719
aS'222'
p4720
aa(lp4721
I1743
aS'235'
p4722
aS'383'
p4723
aasS'4RDJ'
p4724
(lp4725
(lp4726
I5585
aS'306'
p4727
aS'526'
p4728
aa(lp4729
I7197
aS'230'
p4730
aS'288'
p4731
aasS'4RDK'
p4732
(lp4733
(lp4734
I5585
aS'306'
p4735
aS'526'
p4736
aa(lp4737
I7197
aS'230'
p4738
aS'288'
p4739
aasS'3ASS'
p4740
(lp4741
(lp4742
I5585
aS'304'
p4743
aS'534'
p4744
aa(lp4745
I7197
aS'224'
p4746
aS'281'
p4747
aasS'3ASR'
p4748
(lp4749
(lp4750
I5585
aS'304'
p4751
aS'534'
p4752
aa(lp4753
I7197
aS'224'
p4754
aS'281'
p4755
aasS'1LO5'
p4756
(lp4757
(lp4758
I1680
aS'37'
p4759
aS'113'
p4760
aa(lp4761
I1690
aS'95'
p4762
aS'173'
p4763
aa(lp4764
I1690
aS'103'
p4765
aS'184'
p4766
aa(lp4767
I4221
aS'14'
p4768
aS'86'
p4769
aa(lp4770
I6311
aS'123'
p4771
aS'230'
p4772
aa(lp4773
I7398
aS'4'
aS'81'
p4774
aasS'1D5X'
p4775
(lp4776
(lp4777
I1680
aS'27'
p4778
aS'119'
p4779
aa(lp4780
I1690
aS'95'
p4781
aS'173'
p4782
aa(lp4783
I1690
aS'103'
p4784
aS'184'
p4785
aa(lp4786
I4221
aS'14'
p4787
aS'86'
p4788
aa(lp4789
I6311
aS'131'
p4790
aS'234'
p4791
aa(lp4792
I7398
aS'4'
aS'81'
p4793
aasS'1D5Z'
p4794
(lp4795
(lp4796
I1680
aS'27'
p4797
aS'119'
p4798
aa(lp4799
I1690
aS'95'
p4800
aS'173'
p4801
aa(lp4802
I1690
aS'103'
p4803
aS'184'
p4804
aa(lp4805
I4221
aS'14'
p4806
aS'86'
p4807
aa(lp4808
I6311
aS'131'
p4809
aS'234'
p4810
aa(lp4811
I7398
aS'4'
aS'81'
p4812
aasS'2ARS'
p4813
(lp4814
(lp4815
I5194
aS'53'
p4816
aS'169'
p4817
aasS'3RKY'
p4818
(lp4819
(lp4820
I1554
aS'6'
aS'57'
p4821
aa(lp4822
I5194
aS'91'
p4823
aS'212'
p4824
aasS'2ARU'
p4825
(lp4826
(lp4827
I5194
aS'53'
p4828
aS'169'
p4829
aasS'2ART'
p4830
(lp4831
(lp4832
I5194
aS'53'
p4833
aS'169'
p4834
aasS'2F5S'
p4835
(lp4836
(lp4837
I1525
aS'2'
aS'117'
p4838
aa(lp4839
I4043
aS'246'
p4840
aS'273'
p4841
aa(lp4842
I5039
aS'134'
p4843
aS'224'
p4844
aasS'1D5M'
p4845
(lp4846
(lp4847
I1680
aS'27'
p4848
aS'119'
p4849
aa(lp4850
I1690
aS'95'
p4851
aS'173'
p4852
aa(lp4853
I1690
aS'103'
p4854
aS'184'
p4855
aa(lp4856
I4221
aS'14'
p4857
aS'86'
p4858
aa(lp4859
I6311
aS'131'
p4860
aS'234'
p4861
aa(lp4862
I7398
aS'4'
aS'81'
p4863
aasS'2F5Q'
p4864
(lp4865
(lp4866
I1525
aS'2'
aS'117'
p4867
aa(lp4868
I4043
aS'246'
p4869
aS'273'
p4870
aa(lp4871
I5039
aS'134'
p4872
aS'224'
p4873
aasS'2F5P'
p4874
(lp4875
(lp4876
I1525
aS'2'
aS'117'
p4877
aa(lp4878
I4043
aS'246'
p4879
aS'273'
p4880
aa(lp4881
I5039
aS'134'
p4882
aS'216'
p4883
aasS'2EA0'
p4884
(lp4885
(lp4886
I1525
aS'1'
aS'85'
p4887
aa(lp4888
I4043
aS'234'
p4889
aS'262'
p4890
aa(lp4891
I5039
aS'126'
p4892
aS'204'
p4893
aasS'3P4T'
p4894
(lp4895
(lp4896
I1737
aS'27'
p4897
aS'140'
p4898
aa(lp4899
I1738
aS'144'
p4900
aS'238'
p4901
aa(lp4902
I1743
aS'250'
p4903
aS'398'
p4904
aasS'4LQG'
p4905
(lp4906
(lp4907
I1653
aS'171'
p4908
aS'257'
p4909
aa(lp4910
I4881
aS'627'
p4911
aS'747'
p4912
aa(lp4913
I6193
aS'357'
p4914
aS'481'
p4915
aasS'2F5N'
p4916
(lp4917
(lp4918
I1525
aS'2'
aS'117'
p4919
aa(lp4920
I4043
aS'246'
p4921
aS'273'
p4922
aa(lp4923
I5039
aS'134'
p4924
aS'216'
p4925
aasS'3K4U'
p4926
(lp4927
(lp4928
I7018
aS'5'
aS'226'
p4929
aasS'4FHV'
p4930
(lp4931
(lp4932
I6411
aS'267'
p4933
aS'336'
p4934
aa(lp4935
I6589
aS'70'
p4936
aS'144'
p4937
aasS'3T2Q'
p4938
(lp4939
(lp4940
I2127
aS'635'
p4941
aS'720'
p4942
aa(lp4943
I2202
aS'335'
p4944
aS'628'
p4945
aa(lp4946
I2203
aS'49'
p4947
aS'218'
p4948
aa(lp4949
I6027
aS'753'
p4950
aS'1018'
p4951
aa(lp4952
I7238
aS'221'
p4953
aS'333'
p4954
aasS'3T2P'
p4955
(lp4956
(lp4957
I2127
aS'635'
p4958
aS'720'
p4959
aa(lp4960
I2202
aS'335'
p4961
aS'628'
p4962
aa(lp4963
I2203
aS'49'
p4964
aS'218'
p4965
aa(lp4966
I6027
aS'753'
p4967
aS'1018'
p4968
aa(lp4969
I7238
aS'221'
p4970
aS'333'
p4971
aasS'2Q2A'
p4972
(lp4973
(lp4974
I7018
aS'23'
p4975
aS'242'
p4976
aasS'2Q2C'
p4977
(lp4978
(lp4979
I7018
aS'23'
p4980
aS'242'
p4981
aasS'3T2O'
p4982
(lp4983
(lp4984
I2127
aS'635'
p4985
aS'720'
p4986
aa(lp4987
I2202
aS'335'
p4988
aS'628'
p4989
aa(lp4990
I2203
aS'49'
p4991
aS'218'
p4992
aa(lp4993
I6027
aS'753'
p4994
aS'1018'
p4995
aa(lp4996
I7238
aS'221'
p4997
aS'333'
p4998
aasS'3Q39'
p4999
(lp5000
(lp5001
I5585
aS'307'
p5002
aS'538'
p5003
aa(lp5004
I7197
aS'224'
p5005
aS'275'
p5006
aasS'3Q38'
p5007
(lp5008
(lp5009
I5585
aS'307'
p5010
aS'538'
p5011
aa(lp5012
I7197
aS'224'
p5013
aS'275'
p5014
aasS'2XEI'
p5015
(lp5016
(lp5017
I1653
aS'171'
p5018
aS'257'
p5019
aa(lp5020
I4881
aS'627'
p5021
aS'747'
p5022
aa(lp5023
I6193
aS'357'
p5024
aS'481'
p5025
aasS'4FHW'
p5026
(lp5027
(lp5028
I6411
aS'267'
p5029
aS'336'
p5030
aa(lp5031
I6589
aS'70'
p5032
aS'144'
p5033
aasS'2Y7I'
p5034
(lp5035
(lp5036
I7018
aS'25'
p5037
aS'245'
p5038
aasS'4FHP'
p5039
(lp5040
(lp5041
I6411
aS'267'
p5042
aS'336'
p5043
aa(lp5044
I6589
aS'70'
p5045
aS'144'
p5046
aasS'4TWE'
p5047
(lp5048
(lp5049
I1653
aS'160'
p5050
aS'246'
p5051
aa(lp5052
I4881
aS'616'
p5053
aS'735'
p5054
aa(lp5055
I6193
aS'348'
p5056
aS'556'
p5057
aasS'3KBR'
p5058
(lp5059
(lp5060
I7018
aS'39'
p5061
aS'258'
p5062
aasS'4FHX'
p5063
(lp5064
(lp5065
I6411
aS'267'
p5066
aS'336'
p5067
aa(lp5068
I6589
aS'70'
p5069
aS'144'
p5070
aasS'4FHY'
p5071
(lp5072
(lp5073
I6411
aS'267'
p5074
aS'336'
p5075
aa(lp5076
I6589
aS'70'
p5077
aS'144'
p5078
aasS'5BSX'
p5079
(lp5080
(lp5081
I5585
aS'307'
p5082
aS'538'
p5083
aasS'5BSY'
p5084
(lp5085
(lp5086
I5585
aS'307'
p5087
aS'538'
p5088
aasS'2JIF'
p5089
(lp5090
(lp5091
I1737
aS'58'
p5092
aS'168'
p5093
aa(lp5094
I1738
aS'173'
p5095
aS'268'
p5096
aa(lp5097
I1743
aS'280'
p5098
aS'428'
p5099
aasS'3FN9'
p5100
(lp5101
(lp5102
I2202
aS'305'
p5103
aS'588'
p5104
aa(lp5105
I2203
aS'24'
p5106
aS'179'
p5107
aa(lp5108
I7238
aS'194'
p5109
aS'299'
p5110
aasS'1KTK'
p5111
(lp5112
(lp5113
I1680
aS'15'
p5114
aS'92'
p5115
aa(lp5116
I1690
aS'136'
p5117
aS'221'
p5118
aa(lp5119
I2388
aS'6'
aS'117'
p5120
aa(lp5121
I6311
aS'101'
p5122
aS'206'
p5123
aasS'4OME'
p5124
(lp5125
(lp5126
I1653
aS'171'
p5127
aS'257'
p5128
aa(lp5129
I4881
aS'627'
p5130
aS'747'
p5131
aa(lp5132
I6193
aS'357'
p5133
aS'481'
p5134
aasS'1I71'
p5135
(lp5136
(lp5137
I5155
aS'1'
aS'78'
p5138
aasS'1IS2'
p5139
(lp5140
(lp5141
I1738
aS'136'
p5142
aS'244'
p5143
aa(lp5144
I2251
aS'15'
p5145
aS'132'
p5146
aa(lp5147
I6099
aS'480'
p5148
aS'655'
p5149
aasS'4M9A'
p5150
(lp5151
(lp5152
I1737
aS'6'
aS'118'
p5153
aa(lp5154
I1738
aS'122'
p5155
aS'217'
p5156
aa(lp5157
I1743
aS'229'
p5158
aS'377'
p5159
aasS'1IAL'
p5160
(lp5161
(lp5162
I2855
aS'44'
p5163
aS'98'
p5164
aa(lp5165
I4134
aS'109'
p5166
aS'149'
p5167
aa(lp5168
I4134
aS'151'
p5169
aS'190'
p5170
aa(lp5171
I4134
aS'194'
p5172
aS'238'
p5173
aa(lp5174
I4134
aS'251'
p5175
aS'279'
p5176
aa(lp5177
I4134
aS'283'
p5178
aS'321'
p5179
aa(lp5180
I4134
aS'324'
p5181
aS'364'
p5182
aa(lp5183
I4134
aS'367'
p5184
aS'405'
p5185
aa(lp5186
I4134
aS'410'
p5187
aS'447'
p5188
aa(lp5189
I7514
aS'458'
p5190
aS'496'
p5191
aasS'3J7H'
p5192
(lp5193
(lp5194
I2127
aS'635'
p5195
aS'720'
p5196
aa(lp5197
I2202
aS'335'
p5198
aS'628'
p5199
aa(lp5200
I2203
aS'49'
p5201
aS'218'
p5202
aa(lp5203
I6027
aS'753'
p5204
aS'1018'
p5205
aa(lp5206
I7238
aS'221'
p5207
aS'333'
p5208
aasS'2IW5'
p5209
(lp5210
(lp5211
I514
aS'382'
p5212
aS'425'
p5213
aa(lp5214
I5213
aS'177'
p5215
aS'264'
p5216
aa(lp5217
I6157
aS'288'
p5218
aS'825'
p5219
aasS'5CP9'
p5220
(lp5221
(lp5222
I4426
aS'42'
p5223
aS'123'
p5224
aa(lp5225
I5155
aS'128'
p5226
aS'206'
p5227
aasS'1I4H'
p5228
(lp5229
(lp5230
I1680
aS'37'
p5231
aS'113'
p5232
aa(lp5233
I6311
aS'123'
p5234
aS'230'
p5235
aasS'4HR3'
p5236
(lp5237
(lp5238
I1737
aS'10'
p5239
aS'137'
p5240
aa(lp5241
I1738
aS'141'
p5242
aS'241'
p5243
aa(lp5244
I1743
aS'254'
p5245
aS'402'
p5246
aasS'4L1F'
p5247
(lp5248
(lp5249
I1737
aS'6'
aS'117'
p5250
aa(lp5251
I1738
aS'122'
p5252
aS'217'
p5253
aa(lp5254
I1743
aS'229'
p5255
aS'377'
p5256
aasS'3BVZ'
p5257
(lp5258
(lp5259
I1680
aS'26'
p5260
aS'117'
p5261
aa(lp5262
I6311
aS'130'
p5263
aS'234'
p5264
aasS'4ZXV'
p5265
(lp5266
(lp5267
I1737
aS'34'
p5268
aS'106'
p5269
aa(lp5270
I1738
aS'149'
p5271
aS'233'
p5272
aa(lp5273
I1743
aS'263'
p5274
aS'383'
p5275
aasS'2C7I'
p5276
(lp5277
(lp5278
I5194
aS'53'
p5279
aS'169'
p5280
aasS'3BVG'
p5281
(lp5282
(lp5283
I1680
aS'26'
p5284
aS'117'
p5285
aa(lp5286
I6311
aS'130'
p5287
aS'234'
p5288
aasS'2C6P'
p5289
(lp5290
(lp5291
I1653
aS'171'
p5292
aS'257'
p5293
aa(lp5294
I4881
aS'627'
p5295
aS'747'
p5296
aa(lp5297
I6193
aS'357'
p5298
aS'481'
p5299
aasS'3BVM'
p5300
(lp5301
(lp5302
I1680
aS'26'
p5303
aS'117'
p5304
aa(lp5305
I6311
aS'130'
p5306
aS'234'
p5307
aasS'4Z4V'
p5308
(lp5309
(lp5310
I5585
aS'307'
p5311
aS'538'
p5312
aasS'4Z4W'
p5313
(lp5314
(lp5315
I5585
aS'307'
p5316
aS'538'
p5317
aasS'4Z4T'
p5318
(lp5319
(lp5320
I5585
aS'307'
p5321
aS'538'
p5322
aasS'4Z4U'
p5323
(lp5324
(lp5325
I5585
aS'307'
p5326
aS'538'
p5327
aasS'4Z4R'
p5328
(lp5329
(lp5330
I5585
aS'307'
p5331
aS'538'
p5332
aasS'4Z4S'
p5333
(lp5334
(lp5335
I5585
aS'307'
p5336
aS'538'
p5337
aasS'3FF3'
p5338
(lp5339
(lp5340
I1653
aS'161'
p5341
aS'245'
p5342
aa(lp5343
I4881
aS'617'
p5344
aS'737'
p5345
aa(lp5346
I6193
aS'347'
p5347
aS'550'
p5348
aasS'4CIS'
p5349
(lp5350
(lp5351
I1525
aS'1'
aS'114'
p5352
aa(lp5353
I4043
aS'242'
p5354
aS'270'
p5355
aa(lp5356
I5039
aS'131'
p5357
aS'219'
p5358
aasS'4Z4Z'
p5359
(lp5360
(lp5361
I5585
aS'307'
p5362
aS'538'
p5363
aasS'1STE'
p5364
(lp5365
(lp5366
I1680
aS'26'
p5367
aS'117'
p5368
aa(lp5369
I6311
aS'130'
p5370
aS'234'
p5371
aasS'4CIK'
p5372
(lp5373
(lp5374
I5155
aS'2'
aS'80'
p5375
aasS'2FYK'
p5376
(lp5377
(lp5378
I5194
aS'15'
p5379
aS'132'
p5380
aa(lp5381
I5243
aS'188'
p5382
aS'233'
p5383
aasS'4OOX'
p5384
(lp5385
(lp5386
I5585
aS'304'
p5387
aS'530'
p5388
aasS'4KIV'
p5389
(lp5390
(lp5391
I5155
aS'1'
aS'80'
p5392
aasS'3ONY'
p5393
(lp5394
(lp5395
I5585
aS'307'
p5396
aS'538'
p5397
aasS'3GNC'
p5398
(lp5399
(lp5400
I1737
aS'20'
p5401
aS'131'
p5402
aa(lp5403
I1738
aS'135'
p5404
aS'228'
p5405
aa(lp5406
I1743
aS'242'
p5407
aS'387'
p5408
aasS'4W9Y'
p5409
(lp5410
(lp5411
I1653
aS'171'
p5412
aS'257'
p5413
aa(lp5414
I4881
aS'627'
p5415
aS'747'
p5416
aa(lp5417
I6193
aS'357'
p5418
aS'481'
p5419
aasS'1TPK'
p5420
(lp5421
(lp5422
I5155
aS'1'
aS'80'
p5423
aasS'1FA0'
p5424
(lp5425
(lp5426
I3898
aS'8'
aS'351'
p5427
aa(lp5428
I5877
aS'353'
p5429
aS'523'
p5430
aa(lp5431
I6589
aS'81'
p5432
aS'154'
p5433
aasS'4TNM'
p5434
(lp5435
(lp5436
I2855
aS'78'
p5437
aS'96'
p5438
aa(lp5439
I4134
aS'108'
p5440
aS'148'
p5441
aa(lp5442
I4134
aS'150'
p5443
aS'189'
p5444
aa(lp5445
I4134
aS'192'
p5446
aS'233'
p5447
aa(lp5448
I4134
aS'246'
p5449
aS'273'
p5450
aa(lp5451
I4134
aS'276'
p5452
aS'315'
p5453
aa(lp5454
I4134
aS'319'
p5455
aS'359'
p5456
aa(lp5457
I4134
aS'364'
p5458
aS'400'
p5459
aa(lp5460
I4134
aS'405'
p5461
aS'442'
p5462
aa(lp5463
I7514
aS'459'
p5464
aS'498'
p5465
aasS'2SPT'
p5466
(lp5467
(lp5468
I5155
aS'66'
p5469
aS'144'
p5470
aa(lp5471
I6715
aS'6'
aS'46'
p5472
aasS'1SUV'
p5473
(lp5474
(lp5475
I1653
aS'227'
p5476
aS'345'
p5477
aa(lp5478
I4529
aS'6'
aS'328'
p5479
aa(lp5480
I4529
aS'342'
p5481
aS'661'
p5482
aa(lp5483
I4881
aS'637'
p5484
aS'749'
p5485
aa(lp5486
I6193
aS'388'
p5487
aS'576'
p5488
aasS'1TY0'
p5489
(lp5490
(lp5491
I1680
aS'16'
p5492
aS'93'
p5493
aa(lp5494
I6311
aS'103'
p5495
aS'209'
p5496
aasS'1B1Z'
p5497
(lp5498
(lp5499
I1680
aS'24'
p5500
aS'105'
p5501
aa(lp5502
I6311
aS'115'
p5503
aS'218'
p5504
aasS'1TY2'
p5505
(lp5506
(lp5507
I1680
aS'16'
p5508
aS'93'
p5509
aa(lp5510
I6311
aS'103'
p5511
aS'209'
p5512
aasS'4WF2'
p5513
(lp5514
(lp5515
I1554
aS'9'
aS'58'
p5516
aa(lp5517
I5194
aS'84'
p5518
aS'208'
p5519
aa(lp5520
I5243
aS'271'
p5521
aS'317'
p5522
aasS'3RY8'
p5523
(lp5524
(lp5525
I5585
aS'307'
p5526
aS'538'
p5527
aa(lp5528
I7197
aS'225'
p5529
aS'275'
p5530
aasS'3BHX'
p5531
(lp5532
(lp5533
I1653
aS'171'
p5534
aS'257'
p5535
aa(lp5536
I4881
aS'627'
p5537
aS'747'
p5538
aa(lp5539
I6193
aS'357'
p5540
aS'481'
p5541
aasS'1UKW'
p5542
(lp5543
(lp5544
I1737
aS'37'
p5545
aS'145'
p5546
aa(lp5547
I1738
aS'152'
p5548
aS'247'
p5549
aa(lp5550
I1743
aS'259'
p5551
aS'408'
p5552
aasS'4YMX'
p5553
(lp5554
(lp5555
I7018
aS'39'
p5556
aS'259'
p5557
aasS'3D26'
p5558
(lp5559
(lp5560
I5585
aS'301'
p5561
aS'516'
p5562
aa(lp5563
I7197
aS'231'
p5564
aS'293'
p5565
aasS'3RKX'
p5566
(lp5567
(lp5568
I1554
aS'6'
aS'57'
p5569
aa(lp5570
I5194
aS'91'
p5571
aS'212'
p5572
aasS'4BVC'
p5573
(lp5574
(lp5575
I5155
aS'1'
aS'80'
p5576
aasS'4BVD'
p5577
(lp5578
(lp5579
I5155
aS'1'
aS'80'
p5580
aasS'2ZL6'
p5581
(lp5582
(lp5583
I5585
aS'301'
p5584
aS'516'
p5585
aa(lp5586
I7197
aS'231'
p5587
aS'293'
p5588
aasS'2YLN'
p5589
(lp5590
(lp5591
I7018
aS'51'
p5592
aS'270'
p5593
aasS'2CIJ'
p5594
(lp5595
(lp5596
I1653
aS'171'
p5597
aS'257'
p5598
aa(lp5599
I4881
aS'627'
p5600
aS'747'
p5601
aa(lp5602
I6193
aS'357'
p5603
aS'481'
p5604
aasS'3RKW'
p5605
(lp5606
(lp5607
I1554
aS'6'
aS'57'
p5608
aa(lp5609
I5194
aS'91'
p5610
aS'212'
p5611
aasS'1Q1S'
p5612
(lp5613
(lp5614
I4134
aS'109'
p5615
aS'149'
p5616
aa(lp5617
I4134
aS'151'
p5618
aS'190'
p5619
aa(lp5620
I4134
aS'194'
p5621
aS'238'
p5622
aa(lp5623
I4134
aS'251'
p5624
aS'279'
p5625
aa(lp5626
I4134
aS'283'
p5627
aS'321'
p5628
aa(lp5629
I4134
aS'324'
p5630
aS'364'
p5631
aa(lp5632
I4134
aS'367'
p5633
aS'405'
p5634
aa(lp5635
I4134
aS'410'
p5636
aS'447'
p5637
aa(lp5638
I7514
aS'458'
p5639
aS'497'
p5640
aasS'1Q1T'
p5641
(lp5642
(lp5643
I4134
aS'109'
p5644
aS'149'
p5645
aa(lp5646
I4134
aS'151'
p5647
aS'190'
p5648
aa(lp5649
I4134
aS'194'
p5650
aS'238'
p5651
aa(lp5652
I4134
aS'251'
p5653
aS'279'
p5654
aa(lp5655
I4134
aS'283'
p5656
aS'321'
p5657
aa(lp5658
I4134
aS'324'
p5659
aS'364'
p5660
aa(lp5661
I4134
aS'367'
p5662
aS'405'
p5663
aa(lp5664
I4134
aS'410'
p5665
aS'447'
p5666
aa(lp5667
I7514
aS'458'
p5668
aS'496'
p5669
aasS'4BVV'
p5670
(lp5671
(lp5672
I5155
aS'1'
aS'80'
p5673
aasS'2KNF'
p5674
(lp5675
(lp5676
I5155
aS'1'
aS'80'
p5677
aasS'2P5I'
p5678
(lp5679
(lp5680
I5194
aS'84'
p5681
aS'184'
p5682
aasS'2PK4'
p5683
(lp5684
(lp5685
I5155
aS'1'
aS'80'
p5686
aasS'2PYY'
p5687
(lp5688
(lp5689
I7018
aS'7'
aS'220'
p5690
aasS'1PX5'
p5691
(lp5692
(lp5693
I3114
aS'163'
p5694
aS'345'
p5695
aa(lp5696
I6589
aS'36'
p5697
aS'111'
p5698
aasS'1PX4'
p5699
(lp5700
(lp5701
I2127
aS'635'
p5702
aS'720'
p5703
aa(lp5704
I2202
aS'335'
p5705
aS'628'
p5706
aa(lp5707
I2203
aS'49'
p5708
aS'218'
p5709
aa(lp5710
I6027
aS'753'
p5711
aS'1018'
p5712
aa(lp5713
I7238
aS'221'
p5714
aS'333'
p5715
aasS'1PX3'
p5716
(lp5717
(lp5718
I2127
aS'635'
p5719
aS'720'
p5720
aa(lp5721
I2202
aS'335'
p5722
aS'628'
p5723
aa(lp5724
I2203
aS'49'
p5725
aS'218'
p5726
aa(lp5727
I6027
aS'753'
p5728
aS'1018'
p5729
aa(lp5730
I7238
aS'221'
p5731
aS'333'
p5732
aasS'1JWU'
p5733
(lp5734
(lp5735
I1680
aS'26'
p5736
aS'117'
p5737
aa(lp5738
I1690
aS'95'
p5739
aS'173'
p5740
aa(lp5741
I1690
aS'103'
p5742
aS'184'
p5743
aa(lp5744
I4221
aS'14'
p5745
aS'86'
p5746
aa(lp5747
I6311
aS'130'
p5748
aS'234'
p5749
aa(lp5750
I7398
aS'4'
aS'81'
p5751
aasS'4X28'
p5752
(lp5753
(lp5754
I1737
aS'6'
aS'122'
p5755
aa(lp5756
I1737
aS'9'
aS'117'
p5757
aa(lp5758
I1738
aS'127'
p5759
aS'217'
p5760
aa(lp5761
I1743
aS'234'
p5762
aS'392'
p5763
aa(lp5764
I1743
aS'215'
p5765
aS'368'
p5766
aasS'1BHT'
p5767
(lp5768
(lp5769
I4426
aS'42'
p5770
aS'123'
p5771
aa(lp5772
I5155
aS'128'
p5773
aS'206'
p5774
aasS'3V7C'
p5775
(lp5776
(lp5777
I1554
aS'6'
aS'57'
p5778
aa(lp5779
I5194
aS'91'
p5780
aS'212'
p5781
aasS'3V7A'
p5782
(lp5783
(lp5784
I1690
aS'135'
p5785
aS'212'
p5786
aa(lp5787
I1690
aS'121'
p5788
aS'206'
p5789
aa(lp5790
I2388
aS'5'
aS'118'
p5791
aa(lp5792
I2388
aS'6'
aS'107'
p5793
aa(lp5794
I5585
aS'307'
p5795
aS'538'
p5796
aasS'2JBJ'
p5797
(lp5798
(lp5799
I1653
aS'171'
p5800
aS'257'
p5801
aa(lp5802
I4881
aS'627'
p5803
aS'747'
p5804
aa(lp5805
I6193
aS'357'
p5806
aS'481'
p5807
aasS'2JBK'
p5808
(lp5809
(lp5810
I1653
aS'171'
p5811
aS'257'
p5812
aa(lp5813
I4881
aS'627'
p5814
aS'747'
p5815
aa(lp5816
I6193
aS'357'
p5817
aS'481'
p5818
aasS'3EA6'
p5819
(lp5820
(lp5821
I1680
aS'13'
p5822
aS'83'
p5823
aa(lp5824
I6311
aS'94'
p5825
aS'213'
p5826
aasS'3OWA'
p5827
(lp5828
(lp5829
I1737
aS'32'
p5830
aS'143'
p5831
aa(lp5832
I1738
aS'147'
p5833
aS'239'
p5834
aa(lp5835
I1743
aS'252'
p5836
aS'415'
p5837
aasS'4BV5'
p5838
(lp5839
(lp5840
I5155
aS'1'
aS'80'
p5841
aasS'3N26'
p5842
(lp5843
(lp5844
I7018
aS'34'
p5845
aS'251'
p5846
aasS'3V7R'
p5847
(lp5848
(lp5849
I1554
aS'6'
aS'57'
p5850
aa(lp5851
I5194
aS'91'
p5852
aS'212'
p5853
aasS'3V7S'
p5854
(lp5855
(lp5856
I1554
aS'6'
aS'57'
p5857
aa(lp5858
I5194
aS'91'
p5859
aS'212'
p5860
aasS'1JWM'
p5861
(lp5862
(lp5863
I1680
aS'26'
p5864
aS'117'
p5865
aa(lp5866
I1690
aS'95'
p5867
aS'173'
p5868
aa(lp5869
I1690
aS'103'
p5870
aS'184'
p5871
aa(lp5872
I4221
aS'14'
p5873
aS'86'
p5874
aa(lp5875
I6311
aS'130'
p5876
aS'234'
p5877
aa(lp5878
I7398
aS'4'
aS'81'
p5879
aasS'4A69'
p5880
(lp5881
(lp5882
I514
aS'431'
p5883
aS'471'
p5884
aa(lp5885
I3355
aS'18'
p5886
aS'314'
p5887
aasS'1WS9'
p5888
(lp5889
(lp5890
I1737
aS'10'
p5891
aS'120'
p5892
aa(lp5893
I1738
aS'125'
p5894
aS'222'
p5895
aa(lp5896
I1743
aS'235'
p5897
aS'384'
p5898
aasS'2IA4'
p5899
(lp5900
(lp5901
I7018
aS'19'
p5902
aS'248'
p5903
aasS'4MCS'
p5904
(lp5905
(lp5906
I1653
aS'171'
p5907
aS'257'
p5908
aa(lp5909
I4881
aS'627'
p5910
aS'747'
p5911
aa(lp5912
I6193
aS'357'
p5913
aS'481'
p5914
aasS'2DJZ'
p5915
(lp5916
(lp5917
I5194
aS'15'
p5918
aS'132'
p5919
aa(lp5920
I5243
aS'188'
p5921
aS'233'
p5922
aasS'3NYB'
p5923
(lp5924
(lp5925
I1630
aS'163'
p5926
aS'179'
p5927
aa(lp5928
I6411
aS'371'
p5929
aS'431'
p5930
aa(lp5931
I6589
aS'204'
p5932
aS'316'
p5933
aasS'4U58'
p5934
(lp5935
(lp5936
I4134
aS'109'
p5937
aS'149'
p5938
aa(lp5939
I4134
aS'151'
p5940
aS'190'
p5941
aa(lp5942
I4134
aS'194'
p5943
aS'238'
p5944
aa(lp5945
I4134
aS'251'
p5946
aS'279'
p5947
aa(lp5948
I4134
aS'283'
p5949
aS'321'
p5950
aa(lp5951
I4134
aS'324'
p5952
aS'364'
p5953
aa(lp5954
I4134
aS'367'
p5955
aS'405'
p5956
aa(lp5957
I4134
aS'410'
p5958
aS'447'
p5959
aa(lp5960
I7514
aS'458'
p5961
aS'497'
p5962
aasS'1KFV'
p5963
(lp5964
(lp5965
I1525
aS'2'
aS'114'
p5966
aa(lp5967
I4043
aS'242'
p5968
aS'270'
p5969
aa(lp5970
I5039
aS'131'
p5971
aS'219'
p5972
aasS'4HTV'
p5973
(lp5974
(lp5975
I4134
aS'109'
p5976
aS'149'
p5977
aa(lp5978
I4134
aS'151'
p5979
aS'190'
p5980
aa(lp5981
I4134
aS'194'
p5982
aS'238'
p5983
aa(lp5984
I4134
aS'251'
p5985
aS'279'
p5986
aa(lp5987
I4134
aS'283'
p5988
aS'321'
p5989
aa(lp5990
I4134
aS'324'
p5991
aS'364'
p5992
aa(lp5993
I4134
aS'367'
p5994
aS'405'
p5995
aa(lp5996
I4134
aS'410'
p5997
aS'447'
p5998
aa(lp5999
I7514
aS'458'
p6000
aS'497'
p6001
aasS'2EWN'
p6002
(lp6003
(lp6004
I1554
aS'9'
aS'58'
p6005
aa(lp6006
I5194
aS'84'
p6007
aS'208'
p6008
aa(lp6009
I5243
aS'271'
p6010
aS'317'
p6011
aasS'4NGT'
p6012
(lp6013
(lp6014
I1653
aS'171'
p6015
aS'257'
p6016
aa(lp6017
I4881
aS'627'
p6018
aS'747'
p6019
aa(lp6020
I6193
aS'357'
p6021
aS'481'
p6022
aasS'1CK1'
p6023
(lp6024
(lp6025
I1680
aS'26'
p6026
aS'117'
p6027
aa(lp6028
I6311
aS'130'
p6029
aS'234'
p6030
aasS'4NGR'
p6031
(lp6032
(lp6033
I1653
aS'171'
p6034
aS'257'
p6035
aa(lp6036
I4881
aS'627'
p6037
aS'747'
p6038
aa(lp6039
I6193
aS'357'
p6040
aS'481'
p6041
aasS'4NGQ'
p6042
(lp6043
(lp6044
I1653
aS'171'
p6045
aS'257'
p6046
aa(lp6047
I4881
aS'627'
p6048
aS'747'
p6049
aa(lp6050
I6193
aS'357'
p6051
aS'481'
p6052
aasS'4NGP'
p6053
(lp6054
(lp6055
I1653
aS'171'
p6056
aS'257'
p6057
aa(lp6058
I4881
aS'627'
p6059
aS'747'
p6060
aa(lp6061
I6193
aS'357'
p6062
aS'481'
p6063
aasS'1TDZ'
p6064
(lp6065
(lp6066
I1525
aS'2'
aS'114'
p6067
aa(lp6068
I4043
aS'242'
p6069
aS'270'
p6070
aa(lp6071
I5039
aS'131'
p6072
aS'219'
p6073
aasS'2B4V'
p6074
(lp6075
(lp6076
I6411
aS'366'
p6077
aS'425'
p6078
aa(lp6079
I6589
aS'66'
p6080
aS'121'
p6081
aasS'4BV7'
p6082
(lp6083
(lp6084
I5155
aS'1'
aS'80'
p6085
aasS'4PDI'
p6086
(lp6087
(lp6088
I1525
aS'1'
aS'114'
p6089
aa(lp6090
I4043
aS'242'
p6091
aS'270'
p6092
aa(lp6093
I5039
aS'131'
p6094
aS'220'
p6095
aasS'1ITY'
p6096
(lp6097
(lp6098
I514
aS'380'
p6099
aS'427'
p6100
aasS'4NGN'
p6101
(lp6102
(lp6103
I1653
aS'171'
p6104
aS'257'
p6105
aa(lp6106
I4881
aS'627'
p6107
aS'747'
p6108
aa(lp6109
I6193
aS'357'
p6110
aS'481'
p6111
aasS'4NGM'
p6112
(lp6113
(lp6114
I1653
aS'171'
p6115
aS'257'
p6116
aa(lp6117
I4881
aS'627'
p6118
aS'747'
p6119
aa(lp6120
I6193
aS'357'
p6121
aS'481'
p6122
aasS'2DVE'
p6123
(lp6124
(lp6125
I5194
aS'15'
p6126
aS'132'
p6127
aa(lp6128
I5243
aS'188'
p6129
aS'233'
p6130
aasS'4RWQ'
p6131
(lp6132
(lp6133
I3114
aS'163'
p6134
aS'345'
p6135
aa(lp6136
I6589
aS'36'
p6137
aS'111'
p6138
aasS'4RWP'
p6139
(lp6140
(lp6141
I3114
aS'163'
p6142
aS'345'
p6143
aa(lp6144
I6589
aS'36'
p6145
aS'111'
p6146
aasS'1X01'
p6147
(lp6148
(lp6149
I5194
aS'15'
p6150
aS'132'
p6151
aa(lp6152
I5243
aS'188'
p6153
aS'233'
p6154
aasS'3VVD'
p6155
(lp6156
(lp6157
I7018
aS'14'
p6158
aS'231'
p6159
aasS'1XXG'
p6160
(lp6161
(lp6162
I1680
aS'45'
p6163
aS'114'
p6164
aa(lp6165
I6311
aS'126'
p6166
aS'230'
p6167
aasS'2FD6'
p6168
(lp6169
(lp6170
I1690
aS'119'
p6171
aS'204'
p6172
aa(lp6173
I1690
aS'128'
p6174
aS'200'
p6175
aa(lp6176
I2388
aS'7'
aS'106'
p6177
aa(lp6178
I2388
aS'5'
aS'111'
p6179
aa(lp6180
I5155
aS'50'
p6181
aS'131'
p6182
aa(lp6183
I7091
aS'3'
aS'77'
p6184
aa(lp6185
I7091
aS'95'
p6186
aS'177'
p6187
aa(lp6188
I7091
aS'194'
p6189
aS'272'
p6190
aasS'2HNI'
p6191
(lp6192
(lp6193
I5194
aS'15'
p6194
aS'132'
p6195
aa(lp6196
I5243
aS'188'
p6197
aS'233'
p6198
aasS'4KR5'
p6199
(lp6200
(lp6201
I7018
aS'263'
p6202
aS'481'
p6203
aasS'3ONU'
p6204
(lp6205
(lp6206
I5585
aS'307'
p6207
aS'538'
p6208
aasS'1LST'
p6209
(lp6210
(lp6211
I7018
aS'6'
aS'232'
p6212
aasS'4RWO'
p6213
(lp6214
(lp6215
I3114
aS'163'
p6216
aS'345'
p6217
aa(lp6218
I6589
aS'36'
p6219
aS'111'
p6220
aasS'4RWN'
p6221
(lp6222
(lp6223
I3114
aS'163'
p6224
aS'345'
p6225
aa(lp6226
I6589
aS'36'
p6227
aS'111'
p6228
aasS'4IO4'
p6229
(lp6230
(lp6231
I7018
aS'11'
p6232
aS'243'
p6233
aasS'1HPB'
p6234
(lp6235
(lp6236
I7018
aS'6'
aS'232'
p6237
aasS'4IO5'
p6238
(lp6239
(lp6240
I7018
aS'11'
p6241
aS'243'
p6242
aasS'1HPK'
p6243
(lp6244
(lp6245
I5155
aS'1'
aS'79'
p6246
aasS'4IO6'
p6247
(lp6248
(lp6249
I7018
aS'11'
p6250
aS'243'
p6251
aasS'2JUH'
p6252
(lp6253
(lp6254
I514
aS'577'
p6255
aS'626'
p6256
aasS'3SWO'
p6257
(lp6258
(lp6259
I1737
aS'26'
p6260
aS'136'
p6261
aa(lp6262
I1738
aS'140'
p6263
aS'230'
p6264
aa(lp6265
I1743
aS'242'
p6266
aS'389'
p6267
aasS'1LAF'
p6268
(lp6269
(lp6270
I7018
aS'6'
aS'232'
p6271
aasS'1LAG'
p6272
(lp6273
(lp6274
I7018
aS'6'
aS'232'
p6275
aasS'1LAH'
p6276
(lp6277
(lp6278
I7018
aS'6'
aS'232'
p6279
aasS'2DXT'
p6280
(lp6281
(lp6282
I5194
aS'15'
p6283
aS'132'
p6284
aa(lp6285
I5243
aS'188'
p6286
aS'233'
p6287
aasS'1JZ8'
p6288
(lp6289
(lp6290
I2127
aS'635'
p6291
aS'720'
p6292
aa(lp6293
I2202
aS'335'
p6294
aS'628'
p6295
aa(lp6296
I2203
aS'49'
p6297
aS'218'
p6298
aa(lp6299
I6027
aS'753'
p6300
aS'1018'
p6301
aa(lp6302
I7238
aS'221'
p6303
aS'333'
p6304
aasS'2PVU'
p6305
(lp6306
(lp6307
I7018
aS'23'
p6308
aS'242'
p6309
aasS'2PVV'
p6310
(lp6311
(lp6312
I1653
aS'171'
p6313
aS'257'
p6314
aa(lp6315
I4881
aS'627'
p6316
aS'747'
p6317
aa(lp6318
I6193
aS'357'
p6319
aS'481'
p6320
aasS'2PVW'
p6321
(lp6322
(lp6323
I1653
aS'171'
p6324
aS'257'
p6325
aa(lp6326
I4881
aS'627'
p6327
aS'747'
p6328
aa(lp6329
I6193
aS'357'
p6330
aS'481'
p6331
aasS'3BZD'
p6332
(lp6333
(lp6334
I1680
aS'26'
p6335
aS'115'
p6336
aa(lp6337
I2388
aS'6'
aS'117'
p6338
aa(lp6339
I6311
aS'128'
p6340
aS'232'
p6341
aasS'1L0X'
p6342
(lp6343
(lp6344
I1680
aS'24'
p6345
aS'105'
p6346
aa(lp6347
I1690
aS'134'
p6348
aS'221'
p6349
aa(lp6350
I2388
aS'6'
aS'250'
p6351
aa(lp6352
I6311
aS'115'
p6353
aS'218'
p6354
aasS'1NL1'
p6355
(lp6356
(lp6357
I5155
aS'66'
p6358
aS'144'
p6359
aa(lp6360
I6715
aS'6'
aS'46'
p6361
aasS'1PJI'
p6362
(lp6363
(lp6364
I1525
aS'1'
aS'114'
p6365
aa(lp6366
I4043
aS'242'
p6367
aS'270'
p6368
aa(lp6369
I5039
aS'131'
p6370
aS'218'
p6371
aasS'2V25'
p6372
(lp6373
(lp6374
I7018
aS'14'
p6375
aS'232'
p6376
aasS'3KIV'
p6377
(lp6378
(lp6379
I5155
aS'1'
aS'80'
p6380
aasS'3JR5'
p6381
(lp6382
(lp6383
I1525
aS'2'
aS'117'
p6384
aa(lp6385
I4043
aS'246'
p6386
aS'273'
p6387
aa(lp6388
I5039
aS'134'
p6389
aS'224'
p6390
aasS'3JR4'
p6391
(lp6392
(lp6393
I1525
aS'2'
aS'117'
p6394
aa(lp6395
I4043
aS'246'
p6396
aS'273'
p6397
aa(lp6398
I5039
aS'134'
p6399
aS'221'
p6400
aasS'3RBU'
p6401
(lp6402
(lp6403
I1653
aS'171'
p6404
aS'257'
p6405
aa(lp6406
I4881
aS'627'
p6407
aS'747'
p6408
aa(lp6409
I6193
aS'357'
p6410
aS'481'
p6411
aasS'4KUM'
p6412
(lp6413
(lp6414
I514
aS'382'
p6415
aS'425'
p6416
aa(lp6417
I5213
aS'177'
p6418
aS'264'
p6419
aa(lp6420
I6157
aS'288'
p6421
aS'825'
p6422
aasS'2XZU'
p6423
(lp6424
(lp6425
I1525
aS'1'
aS'114'
p6426
aa(lp6427
I4043
aS'242'
p6428
aS'270'
p6429
aa(lp6430
I5039
aS'131'
p6431
aS'218'
p6432
aasS'2Z1Q'
p6433
(lp6434
(lp6435
I1737
aS'30'
p6436
aS'141'
p6437
aa(lp6438
I1738
aS'145'
p6439
aS'238'
p6440
aa(lp6441
I1743
aS'250'
p6442
aS'408'
p6443
aasS'2QHS'
p6444
(lp6445
(lp6446
I5194
aS'65'
p6447
aS'160'
p6448
aasS'3I6V'
p6449
(lp6450
(lp6451
I7018
aS'53'
p6452
aS'264'
p6453
aasS'4MCP'
p6454
(lp6455
(lp6456
I1653
aS'171'
p6457
aS'257'
p6458
aa(lp6459
I4881
aS'627'
p6460
aS'747'
p6461
aa(lp6462
I6193
aS'357'
p6463
aS'481'
p6464
aasS'2QHV'
p6465
(lp6466
(lp6467
I5194
aS'65'
p6468
aS'160'
p6469
aasS'3VD9'
p6470
(lp6471
(lp6472
I2127
aS'635'
p6473
aS'720'
p6474
aa(lp6475
I2202
aS'335'
p6476
aS'628'
p6477
aa(lp6478
I2203
aS'49'
p6479
aS'218'
p6480
aa(lp6481
I6027
aS'753'
p6482
aS'1018'
p6483
aa(lp6484
I7238
aS'221'
p6485
aS'333'
p6486
aasS'1W07'
p6487
(lp6488
(lp6489
I1738
aS'134'
p6490
aS'247'
p6491
aa(lp6492
I2251
aS'17'
p6493
aS'132'
p6494
aa(lp6495
I6099
aS'479'
p6496
aS'656'
p6497
aasS'3VD7'
p6498
(lp6499
(lp6500
I2127
aS'635'
p6501
aS'720'
p6502
aa(lp6503
I2202
aS'335'
p6504
aS'628'
p6505
aa(lp6506
I2203
aS'49'
p6507
aS'218'
p6508
aa(lp6509
I6027
aS'753'
p6510
aS'1018'
p6511
aa(lp6512
I7238
aS'221'
p6513
aS'333'
p6514
aasS'3VD5'
p6515
(lp6516
(lp6517
I2127
aS'635'
p6518
aS'720'
p6519
aa(lp6520
I2202
aS'335'
p6521
aS'628'
p6522
aa(lp6523
I2203
aS'49'
p6524
aS'218'
p6525
aa(lp6526
I6027
aS'753'
p6527
aS'1018'
p6528
aa(lp6529
I7238
aS'221'
p6530
aS'333'
p6531
aasS'3VD4'
p6532
(lp6533
(lp6534
I2127
aS'635'
p6535
aS'720'
p6536
aa(lp6537
I2202
aS'335'
p6538
aS'628'
p6539
aa(lp6540
I2203
aS'49'
p6541
aS'218'
p6542
aa(lp6543
I6027
aS'753'
p6544
aS'1018'
p6545
aa(lp6546
I7238
aS'221'
p6547
aS'333'
p6548
aasS'3VD3'
p6549
(lp6550
(lp6551
I2127
aS'635'
p6552
aS'720'
p6553
aa(lp6554
I2202
aS'335'
p6555
aS'628'
p6556
aa(lp6557
I2203
aS'49'
p6558
aS'218'
p6559
aa(lp6560
I6027
aS'753'
p6561
aS'1018'
p6562
aa(lp6563
I7238
aS'221'
p6564
aS'333'
p6565
aasS'2QHB'
p6566
(lp6567
(lp6568
I514
aS'577'
p6569
aS'626'
p6570
aasS'2K51'
p6571
(lp6572
(lp6573
I5155
aS'11'
p6574
aS'74'
p6575
aasS'3SEB'
p6576
(lp6577
(lp6578
I1680
aS'27'
p6579
aS'119'
p6580
aa(lp6581
I6311
aS'131'
p6582
aS'234'
p6583
aasS'1MBH'
p6584
(lp6585
(lp6586
I514
aS'92'
p6587
aS'138'
p6588
aasS'3SP8'
p6589
(lp6590
(lp6591
I4426
aS'42'
p6592
aS'123'
p6593
aa(lp6594
I5155
aS'128'
p6595
aS'206'
p6596
aa(lp6597
I5155
aS'211'
p6598
aS'288'
p6599
aasS'4OYV'
p6600
(lp6601
(lp6602
I1599
aS'295'
p6603
aS'402'
p6604
aa(lp6605
I7018
aS'46'
p6606
aS'268'
p6607
aasS'3A42'
p6608
(lp6609
(lp6610
I1525
aS'2'
aS'118'
p6611
aa(lp6612
I5039
aS'136'
p6613
aS'207'
p6614
aasS'3SEJ'
p6615
(lp6616
(lp6617
I5585
aS'305'
p6618
aS'531'
p6619
aasS'3SJX'
p6620
(lp6621
(lp6622
I1653
aS'171'
p6623
aS'257'
p6624
aa(lp6625
I4881
aS'627'
p6626
aS'747'
p6627
aa(lp6628
I6193
aS'357'
p6629
aS'481'
p6630
aasS'1JYV'
p6631
(lp6632
(lp6633
I2127
aS'635'
p6634
aS'720'
p6635
aa(lp6636
I2202
aS'335'
p6637
aS'628'
p6638
aa(lp6639
I2203
aS'49'
p6640
aS'218'
p6641
aa(lp6642
I6027
aS'753'
p6643
aS'1018'
p6644
aa(lp6645
I7238
aS'221'
p6646
aS'333'
p6647
aasS'1JYW'
p6648
(lp6649
(lp6650
I2127
aS'635'
p6651
aS'720'
p6652
aa(lp6653
I2202
aS'335'
p6654
aS'628'
p6655
aa(lp6656
I2203
aS'49'
p6657
aS'218'
p6658
aa(lp6659
I6027
aS'753'
p6660
aS'1018'
p6661
aa(lp6662
I7238
aS'221'
p6663
aS'333'
p6664
aasS'2DOI'
p6665
(lp6666
(lp6667
I3395
aS'306'
p6668
aS'322'
p6669
aa(lp6670
I3395
aS'306'
p6671
aS'322'
p6672
aa(lp6673
I5155
aS'84'
p6674
aS'162'
p6675
aa(lp6676
I5155
aS'166'
p6677
aS'243'
p6678
aa(lp6679
I5155
aS'84'
p6680
aS'162'
p6681
aa(lp6682
I5155
aS'166'
p6683
aS'243'
p6684
aasS'2DOH'
p6685
(lp6686
(lp6687
I3395
aS'306'
p6688
aS'322'
p6689
aa(lp6690
I5155
aS'84'
p6691
aS'162'
p6692
aa(lp6693
I5155
aS'166'
p6694
aS'243'
p6695
aasS'4B8J'
p6696
(lp6697
(lp6698
I2855
aS'25'
p6699
aS'94'
p6700
aa(lp6701
I4134
aS'105'
p6702
aS'145'
p6703
aa(lp6704
I4134
aS'147'
p6705
aS'186'
p6706
aa(lp6707
I4134
aS'189'
p6708
aS'230'
p6709
aa(lp6710
I4134
aS'243'
p6711
aS'270'
p6712
aa(lp6713
I4134
aS'274'
p6714
aS'312'
p6715
aa(lp6716
I4134
aS'315'
p6717
aS'356'
p6718
aa(lp6719
I4134
aS'358'
p6720
aS'397'
p6721
aa(lp6722
I4134
aS'402'
p6723
aS'439'
p6724
aa(lp6725
I7514
aS'455'
p6726
aS'494'
p6727
aasS'1JZ6'
p6728
(lp6729
(lp6730
I2127
aS'635'
p6731
aS'720'
p6732
aa(lp6733
I2202
aS'335'
p6734
aS'628'
p6735
aa(lp6736
I2203
aS'49'
p6737
aS'218'
p6738
aa(lp6739
I6027
aS'753'
p6740
aS'1018'
p6741
aa(lp6742
I7238
aS'221'
p6743
aS'333'
p6744
aasS'1JYX'
p6745
(lp6746
(lp6747
I2127
aS'635'
p6748
aS'720'
p6749
aa(lp6750
I2202
aS'335'
p6751
aS'628'
p6752
aa(lp6753
I2203
aS'49'
p6754
aS'218'
p6755
aa(lp6756
I6027
aS'753'
p6757
aS'1018'
p6758
aa(lp6759
I7238
aS'221'
p6760
aS'333'
p6761
aasS'3BGA'
p6762
(lp6763
(lp6764
I2127
aS'652'
p6765
aS'737'
p6766
aa(lp6767
I2202
aS'359'
p6768
aS'641'
p6769
aa(lp6770
I2203
aS'66'
p6771
aS'244'
p6772
aa(lp6773
I6027
aS'754'
p6774
aS'1018'
p6775
aa(lp6776
I7238
aS'247'
p6777
aS'356'
p6778
aasS'3GP7'
p6779
(lp6780
(lp6781
I1680
aS'27'
p6782
aS'119'
p6783
aa(lp6784
I6311
aS'131'
p6785
aS'234'
p6786
aasS'1ESF'
p6787
(lp6788
(lp6789
I1680
aS'37'
p6790
aS'113'
p6791
aa(lp6792
I6311
aS'123'
p6793
aS'230'
p6794
aasS'4B8P'
p6795
(lp6796
(lp6797
I4134
aS'105'
p6798
aS'145'
p6799
aa(lp6800
I4134
aS'147'
p6801
aS'186'
p6802
aa(lp6803
I4134
aS'189'
p6804
aS'230'
p6805
aa(lp6806
I4134
aS'243'
p6807
aS'270'
p6808
aa(lp6809
I4134
aS'274'
p6810
aS'312'
p6811
aa(lp6812
I4134
aS'315'
p6813
aS'356'
p6814
aa(lp6815
I4134
aS'358'
p6816
aS'397'
p6817
aa(lp6818
I4134
aS'402'
p6819
aS'439'
p6820
aa(lp6821
I7514
aS'455'
p6822
aS'494'
p6823
aasS'3SJM'
p6824
(lp6825
(lp6826
I514
aS'447'
p6827
aS'494'
p6828
aasS'2FON'
p6829
(lp6830
(lp6831
I1738
aS'134'
p6832
aS'246'
p6833
aa(lp6834
I2251
aS'17'
p6835
aS'132'
p6836
aa(lp6837
I6099
aS'480'
p6838
aS'656'
p6839
aasS'2OR4'
p6840
(lp6841
(lp6842
I1653
aS'171'
p6843
aS'257'
p6844
aa(lp6845
I4881
aS'627'
p6846
aS'747'
p6847
aa(lp6848
I6193
aS'357'
p6849
aS'481'
p6850
aasS'1JYN'
p6851
(lp6852
(lp6853
I2127
aS'635'
p6854
aS'720'
p6855
aa(lp6856
I2202
aS'335'
p6857
aS'628'
p6858
aa(lp6859
I2203
aS'49'
p6860
aS'218'
p6861
aa(lp6862
I6027
aS'753'
p6863
aS'1018'
p6864
aa(lp6865
I7238
aS'221'
p6866
aS'333'
p6867
aasS'3SJE'
p6868
(lp6869
(lp6870
I1653
aS'171'
p6871
aS'257'
p6872
aa(lp6873
I4881
aS'627'
p6874
aS'747'
p6875
aa(lp6876
I6193
aS'357'
p6877
aS'481'
p6878
aasS'3SJF'
p6879
(lp6880
(lp6881
I1653
aS'171'
p6882
aS'257'
p6883
aa(lp6884
I4881
aS'627'
p6885
aS'747'
p6886
aa(lp6887
I6193
aS'357'
p6888
aS'481'
p6889
aasS'3SJG'
p6890
(lp6891
(lp6892
I1653
aS'171'
p6893
aS'257'
p6894
aa(lp6895
I4881
aS'627'
p6896
aS'747'
p6897
aa(lp6898
I6193
aS'357'
p6899
aS'481'
p6900
aasS'3GPX'
p6901
(lp6902
(lp6903
I1525
aS'2'
aS'117'
p6904
aa(lp6905
I4043
aS'246'
p6906
aS'273'
p6907
aa(lp6908
I5039
aS'134'
p6909
aS'216'
p6910
aasS'3GPY'
p6911
(lp6912
(lp6913
I1525
aS'2'
aS'117'
p6914
aa(lp6915
I4043
aS'246'
p6916
aS'273'
p6917
aa(lp6918
I5039
aS'134'
p6919
aS'224'
p6920
aasS'3T0A'
p6921
(lp6922
(lp6923
I2127
aS'635'
p6924
aS'720'
p6925
aa(lp6926
I2202
aS'335'
p6927
aS'628'
p6928
aa(lp6929
I2203
aS'49'
p6930
aS'218'
p6931
aa(lp6932
I6027
aS'753'
p6933
aS'1018'
p6934
aa(lp6935
I7238
aS'221'
p6936
aS'333'
p6937
aasS'3FED'
p6938
(lp6939
(lp6940
I1653
aS'161'
p6941
aS'245'
p6942
aa(lp6943
I4881
aS'617'
p6944
aS'737'
p6945
aa(lp6946
I6193
aS'347'
p6947
aS'550'
p6948
aasS'4MZ6'
p6949
(lp6950
(lp6951
I4134
aS'109'
p6952
aS'149'
p6953
aa(lp6954
I4134
aS'151'
p6955
aS'190'
p6956
aa(lp6957
I4134
aS'194'
p6958
aS'238'
p6959
aa(lp6960
I4134
aS'251'
p6961
aS'279'
p6962
aa(lp6963
I4134
aS'283'
p6964
aS'321'
p6965
aa(lp6966
I4134
aS'324'
p6967
aS'364'
p6968
aa(lp6969
I4134
aS'367'
p6970
aS'405'
p6971
aa(lp6972
I4134
aS'410'
p6973
aS'447'
p6974
aa(lp6975
I7514
aS'458'
p6976
aS'497'
p6977
aasS'3B96'
p6978
(lp6979
(lp6980
I1737
aS'56'
p6981
aS'169'
p6982
aa(lp6983
I1738
aS'173'
p6984
aS'275'
p6985
aa(lp6986
I1743
aS'287'
p6987
aS'433'
p6988
aasS'4HA8'
p6989
(lp6990
(lp6991
I1554
aS'6'
aS'57'
p6992
aa(lp6993
I5194
aS'91'
p6994
aS'212'
p6995
aasS'3GPU'
p6996
(lp6997
(lp6998
I1525
aS'2'
aS'117'
p6999
aa(lp7000
I4043
aS'246'
p7001
aS'273'
p7002
aa(lp7003
I5039
aS'134'
p7004
aS'216'
p7005
aasS'4C0R'
p7006
(lp7007
(lp7008
I7018
aS'6'
aS'229'
p7009
aasS'2G9H'
p7010
(lp7011
(lp7012
I1680
aS'54'
p7013
aS'83'
p7014
aa(lp7015
I1690
aS'95'
p7016
aS'173'
p7017
aa(lp7018
I1690
aS'103'
p7019
aS'184'
p7020
aa(lp7021
I4221
aS'14'
p7022
aS'86'
p7023
aa(lp7024
I6311
aS'94'
p7025
aS'212'
p7026
aa(lp7027
I7398
aS'4'
aS'81'
p7028
aasS'3FEX'
p7029
(lp7030
(lp7031
I27
aS'327'
p7032
aS'470'
p7033
aa(lp7034
I1773
aS'42'
p7035
aS'112'
p7036
aa(lp7037
I2599
aS'485'
p7038
aS'754'
p7039
aa(lp7040
I4134
aS'109'
p7041
aS'149'
p7042
aa(lp7043
I4134
aS'151'
p7044
aS'190'
p7045
aa(lp7046
I4134
aS'194'
p7047
aS'238'
p7048
aa(lp7049
I4134
aS'249'
p7050
aS'279'
p7051
aa(lp7052
I4134
aS'283'
p7053
aS'321'
p7054
aa(lp7055
I4134
aS'324'
p7056
aS'364'
p7057
aa(lp7058
I4134
aS'367'
p7059
aS'405'
p7060
aa(lp7061
I4134
aS'410'
p7062
aS'447'
p7063
aa(lp7064
I4496
aS'31'
p7065
aS'240'
p7066
aa(lp7067
I7514
aS'458'
p7068
aS'496'
p7069
aasS'3FEY'
p7070
(lp7071
(lp7072
I27
aS'327'
p7073
aS'470'
p7074
aa(lp7075
I1773
aS'42'
p7076
aS'112'
p7077
aa(lp7078
I2599
aS'485'
p7079
aS'754'
p7080
aa(lp7081
I4134
aS'109'
p7082
aS'149'
p7083
aa(lp7084
I4134
aS'151'
p7085
aS'190'
p7086
aa(lp7087
I4134
aS'194'
p7088
aS'238'
p7089
aa(lp7090
I4134
aS'249'
p7091
aS'279'
p7092
aa(lp7093
I4134
aS'283'
p7094
aS'321'
p7095
aa(lp7096
I4134
aS'324'
p7097
aS'364'
p7098
aa(lp7099
I4134
aS'367'
p7100
aS'405'
p7101
aa(lp7102
I4134
aS'410'
p7103
aS'447'
p7104
aa(lp7105
I4496
aS'31'
p7106
aS'240'
p7107
aa(lp7108
I7514
aS'458'
p7109
aS'499'
p7110
aasS'1MBJ'
p7111
(lp7112
(lp7113
I514
aS'144'
p7114
aS'187'
p7115
aasS'4OHN'
p7116
(lp7117
(lp7118
I7018
aS'41'
p7119
aS'267'
p7120
aasS'2VHA'
p7121
(lp7122
(lp7123
I7018
aS'19'
p7124
aS'248'
p7125
aasS'3MXL'
p7126
(lp7127
(lp7128
I1737
aS'28'
p7129
aS'127'
p7130
aa(lp7131
I1738
aS'135'
p7132
aS'221'
p7133
aa(lp7134
I1743
aS'251'
p7135
aS'372'
p7136
aasS'1W0U'
p7137
(lp7138
(lp7139
I514
aS'447'
p7140
aS'494'
p7141
aasS'3TQL'
p7142
(lp7143
(lp7144
I7018
aS'43'
p7145
aS'266'
p7146
aasS'3A7R'
p7147
(lp7148
(lp7149
I1505
aS'249'
p7150
aS'331'
p7151
aa(lp7152
I5194
aS'51'
p7153
aS'157'
p7154
aasS'1V6C'
p7155
(lp7156
(lp7157
I855
aS'25'
p7158
aS'278'
p7159
aa(lp7160
I855
aS'282'
p7161
aS'417'
p7162
aa(lp7163
I1653
aS'257'
p7164
aS'346'
p7165
aasS'3LAQ'
p7166
(lp7167
(lp7168
I5155
aS'51'
p7169
aS'132'
p7170
aa(lp7171
I7091
aS'3'
aS'77'
p7172
aa(lp7173
I7091
aS'96'
p7174
aS'175'
p7175
aa(lp7176
I7091
aS'192'
p7177
aS'271'
p7178
aasS'2IEE'
p7179
(lp7180
(lp7181
I7018
aS'23'
p7182
aS'246'
p7183
aasS'1I5K'
p7184
(lp7185
(lp7186
I3395
aS'306'
p7187
aS'322'
p7188
aa(lp7189
I5155
aS'1'
aS'78'
p7190
aasS'4RGO'
p7191
(lp7192
(lp7193
I1680
aS'27'
p7194
aS'119'
p7195
aa(lp7196
I1690
aS'141'
p7197
aS'212'
p7198
aa(lp7199
I1690
aS'120'
p7200
aS'205'
p7201
aa(lp7202
I2388
aS'12'
p7203
aS'116'
p7204
aa(lp7205
I2388
aS'6'
aS'106'
p7206
aa(lp7207
I6311
aS'131'
p7208
aS'234'
p7209
aasS'3VDC'
p7210
(lp7211
(lp7212
I2127
aS'635'
p7213
aS'720'
p7214
aa(lp7215
I2202
aS'335'
p7216
aS'628'
p7217
aa(lp7218
I2203
aS'49'
p7219
aS'218'
p7220
aa(lp7221
I6027
aS'753'
p7222
aS'1018'
p7223
aa(lp7224
I7238
aS'221'
p7225
aS'333'
p7226
aasS'3VDB'
p7227
(lp7228
(lp7229
I2127
aS'635'
p7230
aS'720'
p7231
aa(lp7232
I2202
aS'335'
p7233
aS'628'
p7234
aa(lp7235
I2203
aS'49'
p7236
aS'218'
p7237
aa(lp7238
I6027
aS'753'
p7239
aS'1018'
p7240
aa(lp7241
I7238
aS'221'
p7242
aS'333'
p7243
aasS'3VDA'
p7244
(lp7245
(lp7246
I2127
aS'635'
p7247
aS'720'
p7248
aa(lp7249
I2202
aS'335'
p7250
aS'628'
p7251
aa(lp7252
I2203
aS'49'
p7253
aS'218'
p7254
aa(lp7255
I6027
aS'753'
p7256
aS'1018'
p7257
aa(lp7258
I7238
aS'221'
p7259
aS'333'
p7260
aasS'1PJM'
p7261
(lp7262
(lp7263
I4134
aS'109'
p7264
aS'149'
p7265
aa(lp7266
I4134
aS'151'
p7267
aS'190'
p7268
aa(lp7269
I4134
aS'194'
p7270
aS'238'
p7271
aa(lp7272
I4134
aS'251'
p7273
aS'279'
p7274
aa(lp7275
I4134
aS'283'
p7276
aS'321'
p7277
aa(lp7278
I4134
aS'324'
p7279
aS'364'
p7280
aa(lp7281
I4134
aS'367'
p7282
aS'405'
p7283
aa(lp7284
I4134
aS'410'
p7285
aS'447'
p7286
aa(lp7287
I7514
aS'458'
p7288
aS'497'
p7289
aasS'3BYY'
p7290
(lp7291
(lp7292
I1680
aS'26'
p7293
aS'115'
p7294
aa(lp7295
I2388
aS'6'
aS'117'
p7296
aa(lp7297
I6311
aS'128'
p7298
aS'232'
p7299
aasS'3BYT'
p7300
(lp7301
(lp7302
I1680
aS'26'
p7303
aS'115'
p7304
aa(lp7305
I2388
aS'6'
aS'110'
p7306
aa(lp7307
I6311
aS'128'
p7308
aS'232'
p7309
aasS'3ZQC'
p7310
(lp7311
(lp7312
I514
aS'53'
p7313
aS'99'
p7314
aa(lp7315
I514
aS'107'
p7316
aS'148'
p7317
aasS'3WPT'
p7318
(lp7319
(lp7320
I4134
aS'109'
p7321
aS'149'
p7322
aa(lp7323
I4134
aS'151'
p7324
aS'190'
p7325
aa(lp7326
I4134
aS'194'
p7327
aS'238'
p7328
aa(lp7329
I4134
aS'249'
p7330
aS'279'
p7331
aa(lp7332
I4134
aS'283'
p7333
aS'321'
p7334
aa(lp7335
I4134
aS'324'
p7336
aS'364'
p7337
aa(lp7338
I4134
aS'367'
p7339
aS'405'
p7340
aa(lp7341
I4134
aS'410'
p7342
aS'447'
p7343
aa(lp7344
I7514
aS'458'
p7345
aS'496'
p7346
aasS'1BXT'
p7347
(lp7348
(lp7349
I1680
aS'27'
p7350
aS'114'
p7351
aa(lp7352
I6311
aS'127'
p7353
aS'231'
p7354
aasS'4YPJ'
p7355
(lp7356
(lp7357
I2126
aS'653'
p7358
aS'728'
p7359
aa(lp7360
I2202
aS'327'
p7361
aS'571'
p7362
aa(lp7363
I2203
aS'45'
p7364
aS'202'
p7365
aa(lp7366
I7238
aS'212'
p7367
aS'320'
p7368
aasS'4XTX'
p7369
(lp7370
(lp7371
I5194
aS'57'
p7372
aS'147'
p7373
aa(lp7374
I5243
aS'218'
p7375
aS'264'
p7376
aasS'4XTY'
p7377
(lp7378
(lp7379
I5194
aS'57'
p7380
aS'147'
p7381
aa(lp7382
I5243
aS'218'
p7383
aS'264'
p7384
aasS'4XTZ'
p7385
(lp7386
(lp7387
I5194
aS'57'
p7388
aS'147'
p7389
aa(lp7390
I5243
aS'218'
p7391
aS'264'
p7392
aasS'2C6G'
p7393
(lp7394
(lp7395
I1653
aS'171'
p7396
aS'257'
p7397
aa(lp7398
I4881
aS'627'
p7399
aS'747'
p7400
aa(lp7401
I6193
aS'357'
p7402
aS'481'
p7403
aasS'4NGS'
p7404
(lp7405
(lp7406
I1653
aS'171'
p7407
aS'257'
p7408
aa(lp7409
I4881
aS'627'
p7410
aS'747'
p7411
aa(lp7412
I6193
aS'357'
p7413
aS'481'
p7414
aasS'4XTV'
p7415
(lp7416
(lp7417
I5194
aS'57'
p7418
aS'147'
p7419
aa(lp7420
I5243
aS'218'
p7421
aS'264'
p7422
aasS'4XTW'
p7423
(lp7424
(lp7425
I5194
aS'57'
p7426
aS'147'
p7427
aa(lp7428
I5243
aS'218'
p7429
aS'264'
p7430
aasS'2C6C'
p7431
(lp7432
(lp7433
I1653
aS'171'
p7434
aS'257'
p7435
aa(lp7436
I4881
aS'627'
p7437
aS'747'
p7438
aa(lp7439
I6193
aS'357'
p7440
aS'481'
p7441
aasS'2ROH'
p7442
(lp7443
(lp7444
I514
aS'31'
p7445
aS'80'
p7446
aasS'1WOT'
p7447
(lp7448
(lp7449
I6589
aS'11'
p7450
aS'92'
p7451
aasS'4PDG'
p7452
(lp7453
(lp7454
I1525
aS'1'
aS'114'
p7455
aa(lp7456
I4043
aS'242'
p7457
aS'270'
p7458
aa(lp7459
I5039
aS'131'
p7460
aS'218'
p7461
aasS'1RX0'
p7462
(lp7463
(lp7464
I1737
aS'20'
p7465
aS'131'
p7466
aa(lp7467
I1738
aS'135'
p7468
aS'229'
p7469
aa(lp7470
I1743
aS'241'
p7471
aS'390'
p7472
aasS'1BA5'
p7473
(lp7474
(lp7475
I514
aS'3'
aS'50'
p7476
aasS'2OOT'
p7477
(lp7478
(lp7479
I1653
aS'171'
p7480
aS'257'
p7481
aa(lp7482
I4881
aS'627'
p7483
aS'747'
p7484
aa(lp7485
I6193
aS'357'
p7486
aS'481'
p7487
aasS'1XF1'
p7488
(lp7489
(lp7490
I855
aS'121'
p7491
aS'573'
p7492
aa(lp7493
I1653
aS'369'
p7494
aS'447'
p7495
aa(lp7496
I5678
aS'597'
p7497
aS'707'
p7498
aa(lp7499
I6362
aS'819'
p7500
aS'917'
p7501
aasS'1PJJ'
p7502
(lp7503
(lp7504
I1525
aS'2'
aS'114'
p7505
aa(lp7506
I4043
aS'242'
p7507
aS'270'
p7508
aa(lp7509
I5039
aS'131'
p7510
aS'221'
p7511
aasS'1I4G'
p7512
(lp7513
(lp7514
I1680
aS'37'
p7515
aS'113'
p7516
aa(lp7517
I6311
aS'123'
p7518
aS'230'
p7519
aasS'4QUZ'
p7520
(lp7521
(lp7522
I5585
aS'336'
p7523
aS'565'
p7524
aasS'4ZYJ'
p7525
(lp7526
(lp7527
I1737
aS'34'
p7528
aS'106'
p7529
aa(lp7530
I1738
aS'149'
p7531
aS'233'
p7532
aa(lp7533
I1743
aS'263'
p7534
aS'383'
p7535
aasS'3VVE'
p7536
(lp7537
(lp7538
I7018
aS'14'
p7539
aS'231'
p7540
aasS'3K65'
p7541
(lp7542
(lp7543
I2879
aS'321'
p7544
aS'570'
p7545
aa(lp7546
I4359
aS'279'
p7547
aS'320'
p7548
aa(lp7549
I5155
aS'170'
p7550
aS'248'
p7551
aasS'1I4X'
p7552
(lp7553
(lp7554
I1680
aS'26'
p7555
aS'117'
p7556
aa(lp7557
I6311
aS'130'
p7558
aS'234'
p7559
aasS'3VVF'
p7560
(lp7561
(lp7562
I7018
aS'14'
p7563
aS'231'
p7564
aasS'1A0H'
p7565
(lp7566
(lp7567
I2879
aS'321'
p7568
aS'570'
p7569
aa(lp7570
I4359
aS'274'
p7571
aS'320'
p7572
aa(lp7573
I5155
aS'170'
p7574
aS'248'
p7575
aasS'1I4R'
p7576
(lp7577
(lp7578
I1680
aS'26'
p7579
aS'117'
p7580
aa(lp7581
I6311
aS'130'
p7582
aS'234'
p7583
aasS'4U5O'
p7584
(lp7585
(lp7586
I4134
aS'109'
p7587
aS'149'
p7588
aa(lp7589
I4134
aS'151'
p7590
aS'190'
p7591
aa(lp7592
I4134
aS'194'
p7593
aS'238'
p7594
aa(lp7595
I4134
aS'251'
p7596
aS'279'
p7597
aa(lp7598
I4134
aS'283'
p7599
aS'321'
p7600
aa(lp7601
I4134
aS'324'
p7602
aS'364'
p7603
aa(lp7604
I4134
aS'367'
p7605
aS'405'
p7606
aa(lp7607
I4134
aS'410'
p7608
aS'447'
p7609
aa(lp7610
I7514
aS'458'
p7611
aS'497'
p7612
aasS'1I4Q'
p7613
(lp7614
(lp7615
I1680
aS'26'
p7616
aS'117'
p7617
aa(lp7618
I6311
aS'130'
p7619
aS'234'
p7620
aasS'4OEN'
p7621
(lp7622
(lp7623
I7018
aS'270'
p7624
aS'486'
p7625
aasS'1EU4'
p7626
(lp7627
(lp7628
I1680
aS'13'
p7629
aS'92'
p7630
aa(lp7631
I6311
aS'101'
p7632
aS'203'
p7633
aasS'3VV5'
p7634
(lp7635
(lp7636
I7018
aS'14'
p7637
aS'231'
p7638
aasS'3GO8'
p7639
(lp7640
(lp7641
I1525
aS'2'
aS'117'
p7642
aa(lp7643
I4043
aS'246'
p7644
aS'273'
p7645
aa(lp7646
I5039
aS'134'
p7647
aS'216'
p7648
aasS'1GOZ'
p7649
(lp7650
(lp7651
I1680
aS'1027'
p7652
aS'1119'
p7653
aa(lp7654
I6311
aS'1131'
p7655
aS'1234'
p7656
aasS'1ET6'
p7657
(lp7658
(lp7659
I1680
aS'11'
p7660
aS'93'
p7661
aa(lp7662
I6311
aS'101'
p7663
aS'207'
p7664
aasS'1WPY'
p7665
(lp7666
(lp7667
I5194
aS'15'
p7668
aS'132'
p7669
aa(lp7670
I5243
aS'188'
p7671
aS'233'
p7672
aasS'4N5F'
p7673
(lp7674
(lp7675
I1737
aS'6'
aS'117'
p7676
aa(lp7677
I1738
aS'122'
p7678
aS'217'
p7679
aa(lp7680
I1743
aS'229'
p7681
aS'377'
p7682
aasS'2WBI'
p7683
(lp7684
(lp7685
I1737
aS'29'
p7686
aS'146'
p7687
aa(lp7688
I1738
aS'151'
p7689
aS'242'
p7690
aa(lp7691
I1743
aS'266'
p7692
aS'414'
p7693
aasS'1KLG'
p7694
(lp7695
(lp7696
I1680
aS'26'
p7697
aS'117'
p7698
aa(lp7699
I1690
aS'95'
p7700
aS'173'
p7701
aa(lp7702
I1690
aS'103'
p7703
aS'184'
p7704
aa(lp7705
I4221
aS'14'
p7706
aS'86'
p7707
aa(lp7708
I6311
aS'130'
p7709
aS'234'
p7710
aa(lp7711
I7398
aS'4'
aS'81'
p7712
aasS'3R7K'
p7713
(lp7714
(lp7715
I1737
aS'26'
p7716
aS'138'
p7717
aa(lp7718
I1738
aS'143'
p7719
aS'237'
p7720
aa(lp7721
I1743
aS'249'
p7722
aS'397'
p7723
aasS'4PD2'
p7724
(lp7725
(lp7726
I1525
aS'1'
aS'114'
p7727
aa(lp7728
I4043
aS'242'
p7729
aS'271'
p7730
aa(lp7731
I5039
aS'131'
p7732
aS'221'
p7733
aasS'2DDH'
p7734
(lp7735
(lp7736
I1738
aS'136'
p7737
aS'244'
p7738
aa(lp7739
I2251
aS'15'
p7740
aS'132'
p7741
aa(lp7742
I6099
aS'480'
p7743
aS'655'
p7744
aasS'2E65'
p7745
(lp7746
(lp7747
I5194
aS'15'
p7748
aS'132'
p7749
aa(lp7750
I5243
aS'188'
p7751
aS'233'
p7752
aasS'1KLU'
p7753
(lp7754
(lp7755
I1680
aS'26'
p7756
aS'117'
p7757
aa(lp7758
I1690
aS'95'
p7759
aS'173'
p7760
aa(lp7761
I1690
aS'103'
p7762
aS'184'
p7763
aa(lp7764
I4221
aS'14'
p7765
aS'86'
p7766
aa(lp7767
I6311
aS'130'
p7768
aS'234'
p7769
aa(lp7770
I7398
aS'4'
aS'81'
p7771
aasS'1UDY'
p7772
(lp7773
(lp7774
I1737
aS'17'
p7775
aS'125'
p7776
aa(lp7777
I1738
aS'132'
p7778
aS'230'
p7779
aa(lp7780
I1743
aS'242'
p7781
aS'389'
p7782
aasS'3U6S'
p7783
(lp7784
(lp7785
I1525
aS'2'
aS'117'
p7786
aa(lp7787
I4043
aS'246'
p7788
aS'273'
p7789
aa(lp7790
I5039
aS'134'
p7791
aS'216'
p7792
aasS'3U6P'
p7793
(lp7794
(lp7795
I1525
aS'2'
aS'117'
p7796
aa(lp7797
I4043
aS'246'
p7798
aS'273'
p7799
aa(lp7800
I5039
aS'134'
p7801
aS'216'
p7802
aasS'3U6Q'
p7803
(lp7804
(lp7805
I1525
aS'2'
aS'117'
p7806
aa(lp7807
I4043
aS'246'
p7808
aS'273'
p7809
aa(lp7810
I5039
aS'134'
p7811
aS'216'
p7812
aasS'4TTG'
p7813
(lp7814
(lp7815
I2127
aS'635'
p7816
aS'720'
p7817
aa(lp7818
I2202
aS'335'
p7819
aS'628'
p7820
aa(lp7821
I2203
aS'49'
p7822
aS'218'
p7823
aa(lp7824
I6027
aS'753'
p7825
aS'1018'
p7826
aa(lp7827
I7238
aS'221'
p7828
aS'333'
p7829
aasS'4KQP'
p7830
(lp7831
(lp7832
I7018
aS'263'
p7833
aS'481'
p7834
aasS'2EK8'
p7835
(lp7836
(lp7837
I1653
aS'93'
p7838
aS'179'
p7839
aa(lp7840
I6193
aS'205'
p7841
aS'395'
p7842
aasS'2EK9'
p7843
(lp7844
(lp7845
I1653
aS'93'
p7846
aS'179'
p7847
aa(lp7848
I6193
aS'205'
p7849
aS'395'
p7850
aasS'4P1V'
p7851
(lp7852
(lp7853
I5585
aS'306'
p7854
aS'525'
p7855
aa(lp7856
I7197
aS'232'
p7857
aS'293'
p7858
aasS'3BY2'
p7859
(lp7860
(lp7861
I5585
aS'301'
p7862
aS'516'
p7863
aa(lp7864
I7197
aS'230'
p7865
aS'293'
p7866
aasS'4WZE'
p7867
(lp7868
(lp7869
I5585
aS'304'
p7870
aS'530'
p7871
aasS'4EEF'
p7872
(lp7873
(lp7874
I514
aS'31'
p7875
aS'53'
p7876
aa(lp7877
I3276
aS'13'
p7878
aS'326'
p7879
aa(lp7880
I3276
aS'1'
aS'173'
p7881
aasS'3U6D'
p7882
(lp7883
(lp7884
I1525
aS'2'
aS'117'
p7885
aa(lp7886
I4043
aS'246'
p7887
aS'273'
p7888
aa(lp7889
I5039
aS'134'
p7890
aS'216'
p7891
aasS'3U6E'
p7892
(lp7893
(lp7894
I1525
aS'2'
aS'117'
p7895
aa(lp7896
I4043
aS'246'
p7897
aS'273'
p7898
aa(lp7899
I5039
aS'134'
p7900
aS'216'
p7901
aasS'4CKD'
p7902
(lp7903
(lp7904
I2127
aS'635'
p7905
aS'720'
p7906
aa(lp7907
I2202
aS'335'
p7908
aS'628'
p7909
aa(lp7910
I2203
aS'49'
p7911
aS'218'
p7912
aa(lp7913
I2388
aS'5'
aS'111'
p7914
aa(lp7915
I2388
aS'6'
aS'106'
p7916
aa(lp7917
I6027
aS'753'
p7918
aS'1018'
p7919
aa(lp7920
I7238
aS'221'
p7921
aS'333'
p7922
aasS'4WZL'
p7923
(lp7924
(lp7925
I5585
aS'304'
p7926
aS'530'
p7927
aasS'4NRW'
p7928
(lp7929
(lp7930
I1525
aS'2'
aS'118'
p7931
aa(lp7932
I5039
aS'136'
p7933
aS'207'
p7934
aasS'3U6O'
p7935
(lp7936
(lp7937
I1525
aS'2'
aS'117'
p7938
aa(lp7939
I4043
aS'246'
p7940
aS'273'
p7941
aa(lp7942
I5039
aS'134'
p7943
aS'216'
p7944
aasS'4WZK'
p7945
(lp7946
(lp7947
I5585
aS'304'
p7948
aS'530'
p7949
aasS'3U6M'
p7950
(lp7951
(lp7952
I1525
aS'2'
aS'117'
p7953
aa(lp7954
I4043
aS'246'
p7955
aS'273'
p7956
aa(lp7957
I5039
aS'134'
p7958
aS'216'
p7959
aasS'1FNW'
p7960
(lp7961
(lp7962
I1680
aS'24'
p7963
aS'105'
p7964
aa(lp7965
I6311
aS'115'
p7966
aS'218'
p7967
aasS'1FNV'
p7968
(lp7969
(lp7970
I1680
aS'24'
p7971
aS'105'
p7972
aa(lp7973
I6311
aS'115'
p7974
aS'218'
p7975
aasS'1FNU'
p7976
(lp7977
(lp7978
I1680
aS'24'
p7979
aS'105'
p7980
aa(lp7981
I6311
aS'115'
p7982
aS'218'
p7983
aasS'4PCZ'
p7984
(lp7985
(lp7986
I1525
aS'1'
aS'114'
p7987
aa(lp7988
I4043
aS'242'
p7989
aS'270'
p7990
aa(lp7991
I5039
aS'131'
p7992
aS'221'
p7993
aasS'1H89'
p7994
(lp7995
(lp7996
I514
aS'77'
p7997
aS'86'
p7998
aa(lp7999
I514
aS'92'
p8000
aS'138'
p8001
aa(lp8002
I514
aS'144'
p8003
aS'187'
p8004
aa(lp8005
I2976
aS'273'
p8006
aS'323'
p8007
aasS'3AST'
p8008
(lp8009
(lp8010
I5585
aS'304'
p8011
aS'534'
p8012
aa(lp8013
I7197
aS'224'
p8014
aS'281'
p8015
aasS'2HPP'
p8016
(lp8017
(lp8018
I2879
aS'16'
p8019
aS'238'
p8020
aa(lp8021
I4359
aS'1D'
p8022
aS'14L'
p8023
aa(lp8024
I5155
aS'301'
p8025
aS'379'
p8026
aasS'4CZZ'
p8027
(lp8028
(lp8029
I514
aS'347'
p8030
aS'390'
p8031
aa(lp8032
I5213
aS'177'
p8033
aS'264'
p8034
aa(lp8035
I6157
aS'288'
p8036
aS'825'
p8037
aasS'3SAU'
p8038
(lp8039
(lp8040
I1525
aS'2'
aS'117'
p8041
aa(lp8042
I4043
aS'246'
p8043
aS'273'
p8044
aa(lp8045
I5039
aS'134'
p8046
aS'216'
p8047
aasS'3SAT'
p8048
(lp8049
(lp8050
I1525
aS'2'
aS'117'
p8051
aa(lp8052
I4043
aS'246'
p8053
aS'273'
p8054
aa(lp8055
I5039
aS'134'
p8056
aS'216'
p8057
aasS'3SAW'
p8058
(lp8059
(lp8060
I1525
aS'2'
aS'117'
p8061
aa(lp8062
I4043
aS'246'
p8063
aS'273'
p8064
aa(lp8065
I5039
aS'134'
p8066
aS'216'
p8067
aasS'3SAV'
p8068
(lp8069
(lp8070
I1525
aS'2'
aS'117'
p8071
aa(lp8072
I4043
aS'246'
p8073
aS'273'
p8074
aa(lp8075
I5039
aS'134'
p8076
aS'216'
p8077
aasS'4W9U'
p8078
(lp8079
(lp8080
I1737
aS'19'
p8081
aS'131'
p8082
aa(lp8083
I1738
aS'135'
p8084
aS'228'
p8085
aa(lp8086
I1743
aS'243'
p8087
aS'386'
p8088
aasS'1UNS'
p8089
(lp8090
(lp8091
I1680
aS'26'
p8092
aS'117'
p8093
aa(lp8094
I6311
aS'130'
p8095
aS'234'
p8096
aasS'3KND'
p8097
(lp8098
(lp8099
I4134
aS'109'
p8100
aS'149'
p8101
aa(lp8102
I4134
aS'151'
p8103
aS'190'
p8104
aa(lp8105
I4134
aS'194'
p8106
aS'238'
p8107
aa(lp8108
I4134
aS'251'
p8109
aS'279'
p8110
aa(lp8111
I4134
aS'283'
p8112
aS'321'
p8113
aa(lp8114
I4134
aS'324'
p8115
aS'364'
p8116
aa(lp8117
I4134
aS'367'
p8118
aS'405'
p8119
aa(lp8120
I4134
aS'410'
p8121
aS'447'
p8122
aa(lp8123
I7514
aS'458'
p8124
aS'497'
p8125
aasS'3ASQ'
p8126
(lp8127
(lp8128
I5585
aS'304'
p8129
aS'534'
p8130
aa(lp8131
I7197
aS'224'
p8132
aS'281'
p8133
aasS'1JZ3'
p8134
(lp8135
(lp8136
I2127
aS'635'
p8137
aS'720'
p8138
aa(lp8139
I2202
aS'335'
p8140
aS'628'
p8141
aa(lp8142
I2203
aS'49'
p8143
aS'218'
p8144
aa(lp8145
I6027
aS'753'
p8146
aS'1018'
p8147
aa(lp8148
I7238
aS'221'
p8149
aS'333'
p8150
aasS'3M9V'
p8151
(lp8152
(lp8153
I1737
aS'36'
p8154
aS'120'
p8155
aa(lp8156
I1738
aS'149'
p8157
aS'230'
p8158
aa(lp8159
I1743
aS'259'
p8160
aS'384'
p8161
aasS'2QJ4'
p8162
(lp8163
(lp8164
I4426
aS'43'
p8165
aS'122'
p8166
aa(lp8167
I5155
aS'129'
p8168
aS'207'
p8169
aasS'1Z8L'
p8170
(lp8171
(lp8172
I1653
aS'171'
p8173
aS'257'
p8174
aa(lp8175
I4881
aS'627'
p8176
aS'747'
p8177
aa(lp8178
I6193
aS'357'
p8179
aS'481'
p8180
aasS'3U6C'
p8181
(lp8182
(lp8183
I1525
aS'2'
aS'117'
p8184
aa(lp8185
I4043
aS'246'
p8186
aS'273'
p8187
aa(lp8188
I5039
aS'134'
p8189
aS'216'
p8190
aasS'2XEF'
p8191
(lp8192
(lp8193
I1653
aS'171'
p8194
aS'257'
p8195
aa(lp8196
I4881
aS'627'
p8197
aS'747'
p8198
aa(lp8199
I6193
aS'357'
p8200
aS'481'
p8201
aasS'2AJE'
p8202
(lp8203
(lp8204
I514
aS'13'
p8205
aS'62'
p8206
aasS'1EWC'
p8207
(lp8208
(lp8209
I1680
aS'27'
p8210
aS'98'
p8211
aa(lp8212
I6311
aS'110'
p8213
aS'211'
p8214
aasS'1NO5'
p8215
(lp8216
(lp8217
I6589
aS'16'
p8218
aS'105'
p8219
aasS'2R0M'
p8220
(lp8221
(lp8222
I1737
aS'18'
p8223
aS'128'
p8224
aa(lp8225
I1738
aS'132'
p8226
aS'225'
p8227
aa(lp8228
I1743
aS'245'
p8229
aS'384'
p8230
aasS'2R0N'
p8231
(lp8232
(lp8233
I1737
aS'18'
p8234
aS'128'
p8235
aa(lp8236
I1738
aS'132'
p8237
aS'225'
p8238
aa(lp8239
I1743
aS'245'
p8240
aS'384'
p8241
aasS'4B8O'
p8242
(lp8243
(lp8244
I4134
aS'105'
p8245
aS'145'
p8246
aa(lp8247
I4134
aS'147'
p8248
aS'186'
p8249
aa(lp8250
I4134
aS'189'
p8251
aS'230'
p8252
aa(lp8253
I4134
aS'243'
p8254
aS'270'
p8255
aa(lp8256
I4134
aS'274'
p8257
aS'312'
p8258
aa(lp8259
I4134
aS'315'
p8260
aS'356'
p8261
aa(lp8262
I4134
aS'358'
p8263
aS'397'
p8264
aa(lp8265
I4134
aS'402'
p8266
aS'439'
p8267
aa(lp8268
I7514
aS'455'
p8269
aS'494'
p8270
aasS'3VK7'
p8271
(lp8272
(lp8273
I1525
aS'2'
aS'118'
p8274
aa(lp8275
I5039
aS'136'
p8276
aS'207'
p8277
aasS'4NXL'
p8278
(lp8279
(lp8280
I1737
aS'27'
p8281
aS'122'
p8282
aa(lp8283
I1738
aS'136'
p8284
aS'223'
p8285
aa(lp8286
I1742
aS'256'
p8287
aS'392'
p8288
aasS'1NL2'
p8289
(lp8290
(lp8291
I5155
aS'66'
p8292
aS'144'
p8293
aa(lp8294
I6715
aS'6'
aS'46'
p8295
aasS'3X0Y'
p8296
(lp8297
(lp8298
I1737
aS'27'
p8299
aS'122'
p8300
aa(lp8301
I1738
aS'136'
p8302
aS'223'
p8303
aa(lp8304
I1742
aS'256'
p8305
aS'392'
p8306
aasS'3X0X'
p8307
(lp8308
(lp8309
I1737
aS'27'
p8310
aS'122'
p8311
aa(lp8312
I1738
aS'136'
p8313
aS'223'
p8314
aa(lp8315
I1742
aS'256'
p8316
aS'392'
p8317
aasS'3A46'
p8318
(lp8319
(lp8320
I1525
aS'2'
aS'118'
p8321
aa(lp8322
I5039
aS'136'
p8323
aS'207'
p8324
aasS'2ZL5'
p8325
(lp8326
(lp8327
I5585
aS'301'
p8328
aS'518'
p8329
aa(lp8330
I7197
aS'231'
p8331
aS'293'
p8332
aasS'3BQJ'
p8333
(lp8334
(lp8335
I5585
aS'305'
p8336
aS'529'
p8337
aasS'2ZL7'
p8338
(lp8339
(lp8340
I5585
aS'301'
p8341
aS'515'
p8342
aa(lp8343
I7197
aS'231'
p8344
aS'293'
p8345
aasS'3VK8'
p8346
(lp8347
(lp8348
I1525
aS'2'
aS'118'
p8349
aa(lp8350
I5039
aS'136'
p8351
aS'207'
p8352
aasS'4KCF'
p8353
(lp8354
(lp8355
I1737
aS'36'
p8356
aS'120'
p8357
aa(lp8358
I1738
aS'149'
p8359
aS'230'
p8360
aa(lp8361
I1743
aS'259'
p8362
aS'384'
p8363
aasS'2XZF'
p8364
(lp8365
(lp8366
I1525
aS'1'
aS'114'
p8367
aa(lp8368
I4043
aS'242'
p8369
aS'270'
p8370
aa(lp8371
I5039
aS'131'
p8372
aS'218'
p8373
aasS'3DYM'
p8374
(lp8375
(lp8376
I2127
aS'635'
p8377
aS'720'
p8378
aa(lp8379
I2202
aS'335'
p8380
aS'628'
p8381
aa(lp8382
I2203
aS'49'
p8383
aS'218'
p8384
aa(lp8385
I6027
aS'753'
p8386
aS'1018'
p8387
aa(lp8388
I7238
aS'221'
p8389
aS'333'
p8390
aasS'2E1H'
p8391
(lp8392
(lp8393
I5194
aS'15'
p8394
aS'132'
p8395
aa(lp8396
I5243
aS'188'
p8397
aS'233'
p8398
aasS'1GP9'
p8399
(lp8400
(lp8401
I4426
aS'42'
p8402
aS'123'
p8403
aa(lp8404
I5155
aS'128'
p8405
aS'206'
p8406
aasS'3EOM'
p8407
(lp8408
(lp8409
I1737
aS'20'
p8410
aS'131'
p8411
aa(lp8412
I1738
aS'135'
p8413
aS'228'
p8414
aa(lp8415
I1743
aS'242'
p8416
aS'387'
p8417
aasS'4CU8'
p8418
(lp8419
(lp8420
I2126
aS'785'
p8421
aS'859'
p8422
aa(lp8423
I2202
aS'433'
p8424
aS'708'
p8425
aa(lp8426
I2203
aS'150'
p8427
aS'305'
p8428
aa(lp8429
I7238
aS'308'
p8430
aS'425'
p8431
aasS'3EON'
p8432
(lp8433
(lp8434
I1737
aS'20'
p8435
aS'131'
p8436
aa(lp8437
I1738
aS'135'
p8438
aS'228'
p8439
aa(lp8440
I1743
aS'242'
p8441
aS'387'
p8442
aasS'4QV2'
p8443
(lp8444
(lp8445
I5585
aS'336'
p8446
aS'565'
p8447
aasS'4OZ9'
p8448
(lp8449
(lp8450
I1599
aS'295'
p8451
aS'402'
p8452
aa(lp8453
I7018
aS'46'
p8454
aS'268'
p8455
aasS'4BA3'
p8456
(lp8457
(lp8458
I4134
aS'109'
p8459
aS'149'
p8460
aa(lp8461
I4134
aS'151'
p8462
aS'190'
p8463
aa(lp8464
I4134
aS'194'
p8465
aS'238'
p8466
aa(lp8467
I4134
aS'251'
p8468
aS'279'
p8469
aa(lp8470
I4134
aS'283'
p8471
aS'321'
p8472
aa(lp8473
I4134
aS'324'
p8474
aS'364'
p8475
aa(lp8476
I4134
aS'367'
p8477
aS'405'
p8478
aa(lp8479
I4134
aS'410'
p8480
aS'447'
p8481
aa(lp8482
I7514
aS'458'
p8483
aS'497'
p8484
aasS'1Y9Z'
p8485
(lp8486
(lp8487
I855
aS'25'
p8488
aS'278'
p8489
aa(lp8490
I855
aS'282'
p8491
aS'417'
p8492
aa(lp8493
I1653
aS'257'
p8494
aS'346'
p8495
aasS'2DVL'
p8496
(lp8497
(lp8498
I1737
aS'4'
aS'116'
p8499
aa(lp8500
I1738
aS'120'
p8501
aS'210'
p8502
aa(lp8503
I1743
aS'222'
p8504
aS'370'
p8505
aasS'3U6L'
p8506
(lp8507
(lp8508
I1525
aS'2'
aS'117'
p8509
aa(lp8510
I4043
aS'246'
p8511
aS'273'
p8512
aa(lp8513
I5039
aS'134'
p8514
aS'216'
p8515
aasS'1AN8'
p8516
(lp8517
(lp8518
I1680
aS'15'
p8519
aS'92'
p8520
aa(lp8521
I6311
aS'101'
p8522
aS'206'
p8523
aasS'1H8A'
p8524
(lp8525
(lp8526
I514
aS'92'
p8527
aS'138'
p8528
aa(lp8529
I514
aS'144'
p8530
aS'187'
p8531
aa(lp8532
I2976
aS'270'
p8533
aS'323'
p8534
aasS'1I4P'
p8535
(lp8536
(lp8537
I1680
aS'26'
p8538
aS'117'
p8539
aa(lp8540
I6311
aS'130'
p8541
aS'234'
p8542
aasS'3UVU'
p8543
(lp8544
(lp8545
I4134
aS'109'
p8546
aS'149'
p8547
aa(lp8548
I4134
aS'151'
p8549
aS'190'
p8550
aa(lp8551
I4134
aS'194'
p8552
aS'238'
p8553
aa(lp8554
I4134
aS'251'
p8555
aS'279'
p8556
aa(lp8557
I4134
aS'283'
p8558
aS'321'
p8559
aa(lp8560
I4134
aS'324'
p8561
aS'364'
p8562
aa(lp8563
I4134
aS'367'
p8564
aS'405'
p8565
aa(lp8566
I4134
aS'410'
p8567
aS'447'
p8568
aa(lp8569
I7514
aS'458'
p8570
aS'496'
p8571
aasS'3I3E'
p8572
(lp8573
(lp8574
I2127
aS'635'
p8575
aS'720'
p8576
aa(lp8577
I2202
aS'335'
p8578
aS'628'
p8579
aa(lp8580
I2203
aS'49'
p8581
aS'218'
p8582
aa(lp8583
I6027
aS'753'
p8584
aS'1018'
p8585
aa(lp8586
I7238
aS'221'
p8587
aS'333'
p8588
aasS'3I3D'
p8589
(lp8590
(lp8591
I2127
aS'635'
p8592
aS'720'
p8593
aa(lp8594
I2202
aS'335'
p8595
aS'628'
p8596
aa(lp8597
I2203
aS'49'
p8598
aS'218'
p8599
aa(lp8600
I6027
aS'753'
p8601
aS'1018'
p8602
aa(lp8603
I7238
aS'221'
p8604
aS'333'
p8605
aasS'1L2C'
p8606
(lp8607
(lp8608
I1525
aS'2'
aS'117'
p8609
aa(lp8610
I4043
aS'246'
p8611
aS'273'
p8612
aa(lp8613
I5039
aS'134'
p8614
aS'220'
p8615
aasS'1DP0'
p8616
(lp8617
(lp8618
I2127
aS'635'
p8619
aS'720'
p8620
aa(lp8621
I2202
aS'335'
p8622
aS'628'
p8623
aa(lp8624
I2203
aS'49'
p8625
aS'218'
p8626
aa(lp8627
I6027
aS'753'
p8628
aS'1018'
p8629
aa(lp8630
I7238
aS'221'
p8631
aS'333'
p8632
aasS'3R8B'
p8633
(lp8634
(lp8635
I1680
aS'27'
p8636
aS'119'
p8637
aa(lp8638
I2388
aS'6'
aS'110'
p8639
aa(lp8640
I6311
aS'131'
p8641
aS'234'
p8642
aasS'1HSL'
p8643
(lp8644
(lp8645
I7018
aS'6'
aS'232'
p8646
aasS'3I3B'
p8647
(lp8648
(lp8649
I2127
aS'635'
p8650
aS'720'
p8651
aa(lp8652
I2202
aS'335'
p8653
aS'628'
p8654
aa(lp8655
I2203
aS'49'
p8656
aS'218'
p8657
aa(lp8658
I6027
aS'753'
p8659
aS'1018'
p8660
aa(lp8661
I7238
aS'221'
p8662
aS'333'
p8663
aasS'1KIV'
p8664
(lp8665
(lp8666
I5155
aS'1'
aS'80'
p8667
aasS'4POW'
p8668
(lp8669
(lp8670
I7018
aS'31'
p8671
aS'276'
p8672
aasS'4ZDU'
p8673
(lp8674
(lp8675
I4134
aS'111'
p8676
aS'149'
p8677
aa(lp8678
I4134
aS'151'
p8679
aS'190'
p8680
aa(lp8681
I4134
aS'194'
p8682
aS'238'
p8683
aa(lp8684
I4134
aS'251'
p8685
aS'279'
p8686
aa(lp8687
I4134
aS'283'
p8688
aS'321'
p8689
aa(lp8690
I4134
aS'324'
p8691
aS'364'
p8692
aa(lp8693
I4134
aS'367'
p8694
aS'405'
p8695
aa(lp8696
I4134
aS'410'
p8697
aS'447'
p8698
aa(lp8699
I7514
aS'458'
p8700
aS'496'
p8701
aasS'1CQV'
p8702
(lp8703
(lp8704
I1680
aS'26'
p8705
aS'117'
p8706
aa(lp8707
I6311
aS'130'
p8708
aS'234'
p8709
aasS'1JCK'
p8710
(lp8711
(lp8712
I1680
aS'26'
p8713
aS'117'
p8714
aa(lp8715
I1690
aS'134'
p8716
aS'221'
p8717
aa(lp8718
I2388
aS'6'
aS'116A'
p8719
aa(lp8720
I6311
aS'130'
p8721
aS'234'
p8722
aasS'2FEB'
p8723
(lp8724
(lp8725
I5155
aS'18'
p8726
aS'95'
p8727
aasS'1F5A'
p8728
(lp8729
(lp8730
I3898
aS'21'
p8731
aS'363'
p8732
aa(lp8733
I5877
aS'366'
p8734
aS'433'
p8735
aa(lp8736
I6589
aS'87'
p8737
aS'174'
p8738
aasS'4JEK'
p8739
(lp8740
(lp8741
I1737
aS'27'
p8742
aS'122'
p8743
aa(lp8744
I1738
aS'136'
p8745
aS'223'
p8746
aa(lp8747
I1742
aS'256'
p8748
aS'392'
p8749
aasS'1TDH'
p8750
(lp8751
(lp8752
I1525
aS'2'
aS'123'
p8753
aa(lp8754
I5039
aS'145'
p8755
aS'199'
p8756
aa(lp8757
I5656
aS'252'
p8758
aS'290'
p8759
aasS'3L3Q'
p8760
(lp8761
(lp8762
I4134
aS'109'
p8763
aS'149'
p8764
aa(lp8765
I4134
aS'151'
p8766
aS'190'
p8767
aa(lp8768
I4134
aS'194'
p8769
aS'238'
p8770
aa(lp8771
I4134
aS'251'
p8772
aS'279'
p8773
aa(lp8774
I4134
aS'283'
p8775
aS'321'
p8776
aa(lp8777
I4134
aS'324'
p8778
aS'364'
p8779
aa(lp8780
I4134
aS'367'
p8781
aS'405'
p8782
aa(lp8783
I4134
aS'410'
p8784
aS'447'
p8785
aa(lp8786
I7514
aS'458'
p8787
aS'497'
p8788
aasS'1GUU'
p8789
(lp8790
(lp8791
I514
aS'40'
p8792
aS'86'
p8793
aasS'1H88'
p8794
(lp8795
(lp8796
I514
aS'40'
p8797
aS'86'
p8798
aa(lp8799
I514
aS'92'
p8800
aS'138'
p8801
aa(lp8802
I514
aS'144'
p8803
aS'187'
p8804
aa(lp8805
I2976
aS'270'
p8806
aS'323'
p8807
aasS'1EGC'
p8808
(lp8809
(lp8810
I1737
aS'17'
p8811
aS'125'
p8812
aa(lp8813
I1738
aS'132'
p8814
aS'230'
p8815
aa(lp8816
I1743
aS'242'
p8817
aS'389'
p8818
aasS'4KTO'
p8819
(lp8820
(lp8821
I1737
aS'12'
p8822
aS'123'
p8823
aa(lp8824
I1738
aS'127'
p8825
aS'222'
p8826
aa(lp8827
I1743
aS'234'
p8828
aS'382'
p8829
aasS'1SE2'
p8830
(lp8831
(lp8832
I1680
aS'26'
p8833
aS'117'
p8834
aa(lp8835
I6311
aS'130'
p8836
aS'234'
p8837
aasS'3SF6'
p8838
(lp8839
(lp8840
I1737
aS'28'
p8841
aS'138'
p8842
aa(lp8843
I1738
aS'143'
p8844
aS'233'
p8845
aa(lp8846
I1743
aS'252'
p8847
aS'392'
p8848
aasS'2RU4'
p8849
(lp8850
(lp8851
I4134
aS'33'
p8852
aS'72'
p8853
aa(lp8854
I4134
aS'75'
p8855
aS'114'
p8856
aa(lp8857
I4134
aS'117'
p8858
aS'156'
p8859
aa(lp8860
I7514
aS'163'
p8861
aS'194'
p8862
aasS'4OWD'
p8863
(lp8864
(lp8865
I1599
aS'295'
p8866
aS'402'
p8867
aa(lp8868
I7018
aS'46'
p8869
aS'268'
p8870
aasS'1SE4'
p8871
(lp8872
(lp8873
I1680
aS'27'
p8874
aS'119'
p8875
aa(lp8876
I6311
aS'131'
p8877
aS'234'
p8878
aasS'1DYQ'
p8879
(lp8880
(lp8881
I1680
aS'69'
p8882
aS'113'
p8883
aa(lp8884
I6311
aS'123'
p8885
aS'230'
p8886
aasS'3R6J'
p8887
(lp8888
(lp8889
I5585
aS'305'
p8890
aS'525'
p8891
aasS'1HXY'
p8892
(lp8893
(lp8894
I1680
aS'27'
p8895
aS'98'
p8896
aa(lp8897
I1690
aS'95'
p8898
aS'173'
p8899
aa(lp8900
I1690
aS'103'
p8901
aS'184'
p8902
aa(lp8903
I4221
aS'14'
p8904
aS'86'
p8905
aa(lp8906
I6311
aS'110'
p8907
aS'211'
p8908
aa(lp8909
I7398
aS'4'
aS'81'
p8910
aasS'4PVZ'
p8911
(lp8912
(lp8913
I4134
aS'121'
p8914
aS'160'
p8915
aa(lp8916
I4134
aS'163'
p8917
aS'201'
p8918
aa(lp8919
I4134
aS'205'
p8920
aS'244'
p8921
aa(lp8922
I4134
aS'249'
p8923
aS'285'
p8924
aa(lp8925
I4134
aS'289'
p8926
aS'327'
p8927
aa(lp8928
I4134
aS'330'
p8929
aS'370'
p8930
aa(lp8931
I4134
aS'372'
p8932
aS'411'
p8933
aa(lp8934
I4134
aS'418'
p8935
aS'455'
p8936
aa(lp8937
I7514
aS'471'
p8938
aS'509'
p8939
aasS'4BAY'
p8940
(lp8941
(lp8942
I514
aS'382'
p8943
aS'425'
p8944
aa(lp8945
I5213
aS'177'
p8946
aS'264'
p8947
aa(lp8948
I6157
aS'288'
p8949
aS'825'
p8950
aasS'1HXD'
p8951
(lp8952
(lp8953
I1554
aS'9'
aS'58'
p8954
aa(lp8955
I5194
aS'84'
p8956
aS'208'
p8957
aa(lp8958
I5243
aS'271'
p8959
aS'317'
p8960
aasS'3D6B'
p8961
(lp8962
(lp8963
I1737
aS'20'
p8964
aS'131'
p8965
aa(lp8966
I1738
aS'135'
p8967
aS'228'
p8968
aa(lp8969
I1743
aS'242'
p8970
aS'387'
p8971
aasS'1EE5'
p8972
(lp8973
(lp8974
I4134
aS'121'
p8975
aS'160'
p8976
aa(lp8977
I4134
aS'163'
p8978
aS'201'
p8979
aa(lp8980
I4134
aS'205'
p8981
aS'244'
p8982
aa(lp8983
I4134
aS'249'
p8984
aS'285'
p8985
aa(lp8986
I4134
aS'289'
p8987
aS'327'
p8988
aa(lp8989
I4134
aS'330'
p8990
aS'370'
p8991
aa(lp8992
I4134
aS'372'
p8993
aS'411'
p8994
aa(lp8995
I4134
aS'418'
p8996
aS'455'
p8997
aa(lp8998
I7514
aS'471'
p8999
aS'510'
p9000
aasS'1EE4'
p9001
(lp9002
(lp9003
I4134
aS'121'
p9004
aS'160'
p9005
aa(lp9006
I4134
aS'163'
p9007
aS'201'
p9008
aa(lp9009
I4134
aS'205'
p9010
aS'244'
p9011
aa(lp9012
I4134
aS'249'
p9013
aS'285'
p9014
aa(lp9015
I4134
aS'289'
p9016
aS'327'
p9017
aa(lp9018
I4134
aS'330'
p9019
aS'370'
p9020
aa(lp9021
I4134
aS'372'
p9022
aS'411'
p9023
aa(lp9024
I4134
aS'418'
p9025
aS'455'
p9026
aa(lp9027
I7514
aS'471'
p9028
aS'509'
p9029
aasS'2LAO'
p9030
(lp9031
(lp9032
I7018
aS'6'
aS'232'
p9033
aasS'4U2X'
p9034
(lp9035
(lp9036
I4134
aS'335'
p9037
aS'368'
p9038
aa(lp9039
I4134
aS'371'
p9040
aS'409'
p9041
aa(lp9042
I4134
aS'413'
p9043
aS'452'
p9044
aa(lp9045
I5933
aS'16'
p9046
aS'231'
p9047
aa(lp9048
I7514
aS'467'
p9049
aS'506'
p9050
aasS'1EE8'
p9051
(lp9052
(lp9053
I1525
aS'1'
aS'103'
p9054
aa(lp9055
I4043
aS'235'
p9056
aS'262'
p9057
aa(lp9058
I5039
aS'121'
p9059
aS'210'
p9060
aasS'4X3R'
p9061
(lp9062
(lp9063
I1653
aS'214'
p9064
aS'300'
p9065
aa(lp9066
I4881
aS'670'
p9067
aS'790'
p9068
aa(lp9069
I6193
aS'400'
p9070
aS'524'
p9071
aasS'1Q79'
p9072
(lp9073
(lp9074
I3898
aS'21'
p9075
aS'363'
p9076
aa(lp9077
I5877
aS'366'
p9078
aS'433'
p9079
aa(lp9080
I6589
aS'87'
p9081
aS'174'
p9082
aasS'1Q78'
p9083
(lp9084
(lp9085
I3898
aS'21'
p9086
aS'363'
p9087
aa(lp9088
I5877
aS'366'
p9089
aS'433'
p9090
aa(lp9091
I6589
aS'87'
p9092
aS'174'
p9093
aasS'3E6P'
p9094
(lp9095
(lp9096
I2879
aS'16'
p9097
aS'238'
p9098
aa(lp9099
I4359
aS'274'
p9100
aS'414L'
p9101
aa(lp9102
I5155
aS'170'
p9103
aS'248'
p9104
aasS'2YNS'
p9105
(lp9106
(lp9107
I4134
aS'105'
p9108
aS'145'
p9109
aa(lp9110
I4134
aS'147'
p9111
aS'186'
p9112
aa(lp9113
I4134
aS'189'
p9114
aS'230'
p9115
aa(lp9116
I4134
aS'243'
p9117
aS'270'
p9118
aa(lp9119
I4134
aS'274'
p9120
aS'312'
p9121
aa(lp9122
I4134
aS'315'
p9123
aS'356'
p9124
aa(lp9125
I4134
aS'358'
p9126
aS'397'
p9127
aa(lp9128
I4134
aS'402'
p9129
aS'439'
p9130
aa(lp9131
I7514
aS'455'
p9132
aS'494'
p9133
aasS'4A5T'
p9134
(lp9135
(lp9136
I2879
aS'563'
p9137
aS'784'
p9138
aa(lp9139
I4426
aS'6'
aS'77'
p9140
aa(lp9141
I5155
aS'84'
p9142
aS'162'
p9143
aa(lp9144
I5155
aS'166'
p9145
aS'243'
p9146
aa(lp9147
I5155
aS'256'
p9148
aS'333'
p9149
aa(lp9150
I5155
aS'358'
p9151
aS'435'
p9152
aa(lp9153
I5155
aS'462'
p9154
aS'541'
p9155
aasS'1KI0'
p9156
(lp9157
(lp9158
I5155
aS'84'
p9159
aS'162'
p9160
aa(lp9161
I5155
aS'166'
p9162
aS'243'
p9163
aa(lp9164
I5155
aS'256'
p9165
aS'333'
p9166
aasS'3ZN1'
p9167
(lp9168
(lp9169
I514
aS'382'
p9170
aS'425'
p9171
aa(lp9172
I5213
aS'177'
p9173
aS'264'
p9174
aa(lp9175
I6157
aS'288'
p9176
aS'825'
p9177
aasS'4FH5'
p9178
(lp9179
(lp9180
I6411
aS'267'
p9181
aS'336'
p9182
aa(lp9183
I6589
aS'70'
p9184
aS'144'
p9185
aasS'1VQZ'
p9186
(lp9187
(lp9188
I1505
aS'243'
p9189
aS'325'
p9190
aa(lp9191
I5194
aS'48'
p9192
aS'154'
p9193
aasS'4MCQ'
p9194
(lp9195
(lp9196
I1653
aS'171'
p9197
aS'257'
p9198
aa(lp9199
I4881
aS'627'
p9200
aS'747'
p9201
aa(lp9202
I6193
aS'357'
p9203
aS'481'
p9204
aasS'3MPI'
p9205
(lp9206
(lp9207
I1737
aS'7'
aS'121'
p9208
aa(lp9209
I1738
aS'125'
p9210
aS'220'
p9211
aa(lp9212
I1743
aS'232'
p9213
aS'378'
p9214
aasS'3MPJ'
p9215
(lp9216
(lp9217
I1737
aS'7'
aS'121'
p9218
aa(lp9219
I1738
aS'125'
p9220
aS'220'
p9221
aa(lp9222
I1743
aS'232'
p9223
aS'378'
p9224
aasS'3MPK'
p9225
(lp9226
(lp9227
I7018
aS'309'
p9228
aS'526'
p9229
aa(lp9230
I7018
aS'309'
p9231
aS'526'
p9232
aasS'3MPL'
p9233
(lp9234
(lp9235
I7018
aS'309'
p9236
aS'526'
p9237
aasS'2EQR'
p9238
(lp9239
(lp9240
I514
aS'13'
p9241
aS'54'
p9242
aasS'3OB8'
p9243
(lp9244
(lp9245
I2202
aS'333'
p9246
aS'648'
p9247
aa(lp9248
I2203
aS'32'
p9249
aS'204'
p9250
aa(lp9251
I6027
aS'754'
p9252
aS'1022'
p9253
aa(lp9254
I7238
aS'207'
p9255
aS'331'
p9256
aasS'2VIG'
p9257
(lp9258
(lp9259
I1737
aS'36'
p9260
aS'147'
p9261
aa(lp9262
I1738
aS'151'
p9263
aS'246'
p9264
aa(lp9265
I1743
aS'258'
p9266
aS'406'
p9267
aasS'4DBA'
p9268
(lp9269
(lp9270
I4134
aS'43'
p9271
aS'82'
p9272
aa(lp9273
I4134
aS'85'
p9274
aS'124'
p9275
aa(lp9276
I4134
aS'127'
p9277
aS'166'
p9278
aa(lp9279
I7514
aS'173'
p9280
aS'204'
p9281
aasS'2E64'
p9282
(lp9283
(lp9284
I5194
aS'15'
p9285
aS'132'
p9286
aa(lp9287
I5243
aS'188'
p9288
aS'233'
p9289
aasS'4F3S'
p9290
(lp9291
(lp9292
I7018
aS'11'
p9293
aS'219'
p9294
aasS'1NK1'
p9295
(lp9296
(lp9297
I4426
aS'42'
p9298
aS'123'
p9299
aa(lp9300
I5155
aS'128'
p9301
aS'206'
p9302
aasS'4F3P'
p9303
(lp9304
(lp9305
I7018
aS'28'
p9306
aS'244'
p9307
aasS'4MCR'
p9308
(lp9309
(lp9310
I1653
aS'171'
p9311
aS'257'
p9312
aa(lp9313
I4881
aS'627'
p9314
aS'747'
p9315
aa(lp9316
I6193
aS'357'
p9317
aS'481'
p9318
aasS'1URK'
p9319
(lp9320
(lp9321
I5155
aS'50'
p9322
aS'131'
p9323
aasS'2B56'
p9324
(lp9325
(lp9326
I6411
aS'366'
p9327
aS'425'
p9328
aa(lp9329
I6589
aS'66'
p9330
aS'121'
p9331
aasS'3TPM'
p9332
(lp9333
(lp9334
I1330
aS'118'
p9335
aS'121'
p9336
aa(lp9337
I4134
aS'109'
p9338
aS'149'
p9339
aa(lp9340
I4134
aS'151'
p9341
aS'190'
p9342
aa(lp9343
I4134
aS'194'
p9344
aS'238'
p9345
aa(lp9346
I4134
aS'251'
p9347
aS'279'
p9348
aa(lp9349
I4134
aS'283'
p9350
aS'321'
p9351
aa(lp9352
I4134
aS'324'
p9353
aS'364'
p9354
aa(lp9355
I4134
aS'367'
p9356
aS'405'
p9357
aa(lp9358
I4134
aS'410'
p9359
aS'447'
p9360
aa(lp9361
I7514
aS'458'
p9362
aS'496'
p9363
aasS'4OPV'
p9364
(lp9365
(lp9366
I5585
aS'305'
p9367
aS'530'
p9368
aasS'3TPO'
p9369
(lp9370
(lp9371
I2855
aS'44'
p9372
aS'98'
p9373
aa(lp9374
I4134
aS'109'
p9375
aS'149'
p9376
aa(lp9377
I4134
aS'151'
p9378
aS'190'
p9379
aa(lp9380
I4134
aS'194'
p9381
aS'238'
p9382
aa(lp9383
I4134
aS'251'
p9384
aS'279'
p9385
aa(lp9386
I4134
aS'283'
p9387
aS'321'
p9388
aa(lp9389
I4134
aS'324'
p9390
aS'364'
p9391
aa(lp9392
I4134
aS'367'
p9393
aS'405'
p9394
aa(lp9395
I4134
aS'410'
p9396
aS'447'
p9397
aa(lp9398
I7514
aS'458'
p9399
aS'496'
p9400
aasS'3GQT'
p9401
(lp9402
(lp9403
I1737
aS'20'
p9404
aS'131'
p9405
aa(lp9406
I1738
aS'135'
p9407
aS'228'
p9408
aa(lp9409
I1743
aS'242'
p9410
aS'387'
p9411
aasS'3D9G'
p9412
(lp9413
(lp9414
I1737
aS'8'
aS'124'
p9415
aa(lp9416
I1743
aS'269'
p9417
aS'417'
p9418
aasS'2M8C'
p9419
(lp9420
(lp9421
I7018
aS'9'
aS'235'
p9422
aasS'1PM5'
p9423
(lp9424
(lp9425
I1525
aS'1'
aS'114'
p9426
aa(lp9427
I4043
aS'242'
p9428
aS'270'
p9429
aa(lp9430
I5039
aS'131'
p9431
aS'221'
p9432
aasS'4NRV'
p9433
(lp9434
(lp9435
I1525
aS'2'
aS'123'
p9436
aa(lp9437
I5039
aS'145'
p9438
aS'199'
p9439
aa(lp9440
I5656
aS'252'
p9441
aS'290'
p9442
aasS'2K4R'
p9443
(lp9444
(lp9445
I5155
aS'11'
p9446
aS'74'
p9447
aasS'1PMK'
p9448
(lp9449
(lp9450
I5155
aS'1'
aS'80'
p9451
aasS'1PML'
p9452
(lp9453
(lp9454
I5155
aS'1'
aS'80'
p9455
aasS'3CMG'
p9456
(lp9457
(lp9458
I2126
aS'628'
p9459
aS'668'
p9460
aa(lp9461
I2202
aS'307'
p9462
aS'601'
p9463
aa(lp9464
I2203
aS'40'
p9465
aS'182'
p9466
aa(lp9467
I7238
aS'198'
p9468
aS'300'
p9469
aasS'4Z9N'
p9470
(lp9471
(lp9472
I7018
aS'14'
p9473
aS'228'
p9474
aasS'1HPJ'
p9475
(lp9476
(lp9477
I5155
aS'1'
aS'79'
p9478
aasS'3GQ5'
p9479
(lp9480
(lp9481
I1525
aS'2'
aS'117'
p9482
aa(lp9483
I4043
aS'246'
p9484
aS'273'
p9485
aa(lp9486
I5039
aS'134'
p9487
aS'216'
p9488
aasS'3GQ4'
p9489
(lp9490
(lp9491
I1525
aS'2'
aS'117'
p9492
aa(lp9493
I4043
aS'246'
p9494
aS'273'
p9495
aa(lp9496
I5039
aS'134'
p9497
aS'224'
p9498
aasS'3GQ3'
p9499
(lp9500
(lp9501
I1525
aS'2'
aS'117'
p9502
aa(lp9503
I4043
aS'246'
p9504
aS'273'
p9505
aa(lp9506
I5039
aS'134'
p9507
aS'214'
p9508
aasS'4WZT'
p9509
(lp9510
(lp9511
I5585
aS'305'
p9512
aS'530'
p9513
aa(lp9514
I5585
aS'305'
p9515
aS'530'
p9516
aasS'1CEB'
p9517
(lp9518
(lp9519
I5155
aS'1'
aS'79'
p9520
aasS'1CEA'
p9521
(lp9522
(lp9523
I5155
aS'1'
aS'79'
p9524
aasS'2HPQ'
p9525
(lp9526
(lp9527
I2879
aS'16'
p9528
aS'238'
p9529
aa(lp9530
I4359
aS'1D'
p9531
aS'14L'
p9532
aa(lp9533
I5155
aS'301'
p9534
aS'379'
p9535
aasS'2UXW'
p9536
(lp9537
(lp9538
I1737
aS'96'
p9539
aS'209'
p9540
aa(lp9541
I1738
aS'213'
p9542
aS'315'
p9543
aa(lp9544
I1743
aS'327'
p9545
aS'473'
p9546
aasS'3ZN0'
p9547
(lp9548
(lp9549
I514
aS'382'
p9550
aS'425'
p9551
aa(lp9552
I5213
aS'177'
p9553
aS'264'
p9554
aa(lp9555
I6157
aS'288'
p9556
aS'825'
p9557
aasS'4DB8'
p9558
(lp9559
(lp9560
I4134
aS'43'
p9561
aS'82'
p9562
aa(lp9563
I4134
aS'85'
p9564
aS'124'
p9565
aa(lp9566
I4134
aS'127'
p9567
aS'166'
p9568
aa(lp9569
I4134
aS'169'
p9570
aS'208'
p9571
aa(lp9572
I7514
aS'215'
p9573
aS'246'
p9574
aasS'5AF7'
p9575
(lp9576
(lp9577
I1737
aS'5'
aS'106'
p9578
aa(lp9579
I1738
aS'120'
p9580
aS'217'
p9581
aa(lp9582
I1743
aS'234'
p9583
aS'380'
p9584
aasS'2D9A'
p9585
(lp9586
(lp9587
I514
aS'8'
aS'54'
p9588
aasS'2I9A'
p9589
(lp9590
(lp9591
I5155
aS'50'
p9592
aS'131'
p9593
aasS'2I9B'
p9594
(lp9595
(lp9596
I5155
aS'50'
p9597
aS'131'
p9598
aa(lp9599
I7091
aS'3'
aS'77'
p9600
aa(lp9601
I7091
aS'95'
p9602
aS'177'
p9603
aa(lp9604
I7091
aS'194'
p9605
aS'272'
p9606
aasS'3U73'
p9607
(lp9608
(lp9609
I5155
aS'50'
p9610
aS'131'
p9611
aa(lp9612
I7091
aS'3'
aS'77'
p9613
aa(lp9614
I7091
aS'95'
p9615
aS'177'
p9616
aa(lp9617
I7091
aS'194'
p9618
aS'272'
p9619
aasS'4I62'
p9620
(lp9621
(lp9622
I7018
aS'40'
p9623
aS'262'
p9624
aasS'4LA9'
p9625
(lp9626
(lp9627
I7018
aS'30'
p9628
aS'248'
p9629
aasS'2UXX'
p9630
(lp9631
(lp9632
I514
aS'382'
p9633
aS'425'
p9634
aa(lp9635
I5213
aS'177'
p9636
aS'264'
p9637
aa(lp9638
I6157
aS'288'
p9639
aS'825'
p9640
aasS'1DE4'
p9641
(lp9642
(lp9643
I1653
aS'227'
p9644
aS'345'
p9645
aa(lp9646
I1690
aS'196'
p9647
aS'271'
p9648
aa(lp9649
I1690
aS'12'
p9650
aS'91'
p9651
aa(lp9652
I3760
aS'5'
aS'178'
p9653
aa(lp9654
I4881
aS'637'
p9655
aS'749'
p9656
aa(lp9657
I6193
aS'388'
p9658
aS'576'
p9659
aasS'3MDD'
p9660
(lp9661
(lp9662
I1737
aS'17'
p9663
aS'125'
p9664
aa(lp9665
I1738
aS'132'
p9666
aS'230'
p9667
aa(lp9668
I1743
aS'242'
p9669
aS'389'
p9670
aasS'3FEC'
p9671
(lp9672
(lp9673
I1653
aS'161'
p9674
aS'245'
p9675
aa(lp9676
I4881
aS'617'
p9677
aS'737'
p9678
aa(lp9679
I6193
aS'347'
p9680
aS'550'
p9681
aasS'3L2Z'
p9682
(lp9683
(lp9684
I5194
aS'57'
p9685
aS'147'
p9686
aa(lp9687
I5243
aS'218'
p9688
aS'264'
p9689
aasS'2OQ4'
p9690
(lp9691
(lp9692
I1525
aS'1'
aS'85'
p9693
aa(lp9694
I4043
aS'234'
p9695
aS'262'
p9696
aa(lp9697
I5039
aS'126'
p9698
aS'204'
p9699
aasS'1GMO'
p9700
(lp9701
(lp9702
I4426
aS'42'
p9703
aS'123'
p9704
aa(lp9705
I5155
aS'128'
p9706
aS'206'
p9707
aas.