(dp1
S'2B8K'
p2
(lp3
(lp4
I1
aI816
aI962
aa(lp5
I2
aI396
aI543
aa(lp6
I3
aI113
aI540
aa(lp7
I4
aI817
aI1212
aasS'3S1M'
p8
(lp9
(lp10
I1
aI816
aI962
aa(lp11
I2
aI396
aI543
aa(lp12
I3
aI113
aI540
aa(lp13
I4
aI817
aI1212
aasS'3K7A'
p14
(lp15
(lp16
I1
aI816
aI962
aa(lp17
I2
aI396
aI543
aa(lp18
I3
aI113
aI540
aa(lp19
I4
aI817
aI1212
aasS'3S1N'
p20
(lp21
(lp22
I1
aI816
aI962
aa(lp23
I2
aI396
aI543
aa(lp24
I3
aI113
aI540
aa(lp25
I4
aI817
aI1212
aasS'2JA7'
p26
(lp27
(lp28
I1
aI816
aI962
aa(lp29
I2
aI396
aI543
aa(lp30
I3
aI113
aI540
aa(lp31
I4
aI817
aI1212
aasS'2JA6'
p32
(lp33
(lp34
I1
aI816
aI962
aa(lp35
I2
aI396
aI543
aa(lp36
I3
aI113
aI540
aa(lp37
I4
aI817
aI1212
aasS'2JA5'
p38
(lp39
(lp40
I1
aI816
aI962
aa(lp41
I2
aI396
aI543
aa(lp42
I3
aI113
aI540
aa(lp43
I4
aI817
aI1212
aasS'5C44'
p44
(lp45
(lp46
I1
aI816
aI962
aa(lp47
I2
aI396
aI543
aa(lp48
I3
aI113
aI540
aa(lp49
I4
aI817
aI1212
aasS'2JA8'
p50
(lp51
(lp52
I1
aI816
aI962
aa(lp53
I2
aI396
aI543
aa(lp54
I3
aI113
aI540
aa(lp55
I4
aI817
aI1212
aasS'3AOI'
p56
(lp57
(lp58
I5
aI4
aI207
aa(lp59
I6
aI234
aI832
aa(lp60
I3
aI78
aI461
aa(lp61
I4
aI666
aI1104
aasS'3AOH'
p62
(lp63
(lp64
I5
aI4
aI207
aa(lp65
I6
aI234
aI832
aa(lp66
I3
aI78
aI461
aa(lp67
I4
aI666
aI1104
aasS'4BXX'
p68
(lp69
(lp70
I1
aI816
aI962
aa(lp71
I2
aI396
aI543
aa(lp72
I3
aI113
aI540
aa(lp73
I4
aI817
aI1212
aasS'4MQ9'
p74
(lp75
(lp76
I5
aI4
aI207
aa(lp77
I6
aI234
aI832
aa(lp78
I3
aI78
aI461
aa(lp79
I4
aI666
aI1104
aasS'3S1Q'
p80
(lp81
(lp82
I1
aI816
aI962
aa(lp83
I2
aI396
aI543
aa(lp84
I3
aI113
aI540
aa(lp85
I4
aI817
aI1212
aasS'4Q4Z'
p86
(lp87
(lp88
I5
aI4
aI207
aa(lp89
I6
aI234
aI832
aa(lp90
I3
aI78
aI461
aa(lp91
I4
aI666
aI1104
aasS'4JK2'
p92
(lp93
(lp94
I5
aI13
aI221
aa(lp95
I6
aI362
aI958
aa(lp96
I4
aI1033
aI1342
aasS'4JK1'
p97
(lp98
(lp99
I5
aI13
aI221
aa(lp100
I6
aI362
aI958
aa(lp101
I4
aI1033
aI1342
aasS'1L9Z'
p102
(lp103
(lp104
I7
aI92
aI129
aa(lp105
I8
aI171
aI438
aasS'2WB1'
p106
(lp107
(lp108
I9
aI14
aI83
aasS'1L9U'
p109
(lp110
(lp111
I7
aI92
aI129
aa(lp112
I8
aI171
aI438
aasS'4XSY'
p113
(lp114
(lp115
I5
aI13
aI221
aa(lp116
I6
aI362
aI958
aa(lp117
I4
aI1033
aI1342
aasS'4XSX'
p118
(lp119
(lp120
I5
aI13
aI221
aa(lp121
I6
aI362
aI958
aa(lp122
I4
aI1033
aI1342
aasS'4XSZ'
p123
(lp124
(lp125
I5
aI13
aI221
aa(lp126
I6
aI362
aI958
aa(lp127
I4
aI1033
aI1342
aasS'4LK1'
p128
(lp129
(lp130
I7
aI94
aI131
aa(lp131
I8
aI347
aI612
aasS'4LK0'
p132
(lp133
(lp134
I7
aI94
aI131
aa(lp135
I8
aI347
aI612
aasS'4XLN'
p136
(lp137
(lp138
I7
aI92
aI129
aa(lp139
I8
aI171
aI438
aasS'4JKR'
p140
(lp141
(lp142
I7
aI94
aI131
aa(lp143
I8
aI347
aI612
aasS'4XLP'
p144
(lp145
(lp146
I7
aI92
aI129
aa(lp147
I8
aI171
aI438
aasS'4XLQ'
p148
(lp149
(lp150
I7
aI92
aI129
aa(lp151
I8
aI171
aI438
aasS'4XLR'
p152
(lp153
(lp154
I7
aI92
aI129
aa(lp155
I8
aI171
aI438
aasS'4BBR'
p156
(lp157
(lp158
I1
aI816
aI962
aa(lp159
I2
aI396
aI543
aa(lp160
I3
aI113
aI540
aa(lp161
I4
aI817
aI1212
aasS'4BBS'
p162
(lp163
(lp164
I1
aI816
aI962
aa(lp165
I2
aI396
aI543
aa(lp166
I3
aI113
aI540
aa(lp167
I4
aI817
aI1212
aasS'4Q5S'
p168
(lp169
(lp170
I5
aI4
aI207
aa(lp171
I6
aI234
aI832
aa(lp172
I3
aI78
aI461
aa(lp173
I4
aI666
aI1104
aasS'4Y7N'
p174
(lp175
(lp176
I1
aI816
aI962
aa(lp177
I2
aI396
aI543
aa(lp178
I3
aI113
aI540
aa(lp179
I4
aI817
aI1212
aasS'1TWH'
p180
(lp181
(lp182
I1
aI816
aI962
aa(lp183
I2
aI396
aI543
aa(lp184
I3
aI113
aI540
aa(lp185
I4
aI817
aI1212
aasS'5C4A'
p186
(lp187
(lp188
I1
aI816
aI962
aa(lp189
I2
aI396
aI543
aa(lp190
I3
aI113
aI540
aa(lp191
I4
aI817
aI1212
aasS'3HOV'
p192
(lp193
(lp194
I1
aI816
aI962
aa(lp195
I2
aI396
aI543
aa(lp196
I3
aI113
aI540
aa(lp197
I4
aI817
aI1212
aasS'3HOW'
p198
(lp199
(lp200
I1
aI816
aI962
aa(lp201
I2
aI396
aI543
aa(lp202
I3
aI113
aI540
aa(lp203
I4
aI817
aI1212
aasS'3HOX'
p204
(lp205
(lp206
I1
aI816
aI962
aa(lp207
I2
aI396
aI543
aa(lp208
I3
aI113
aI540
aa(lp209
I4
aI817
aI1212
aasS'4BY1'
p210
(lp211
(lp212
I1
aI816
aI962
aa(lp213
I2
aI396
aI543
aa(lp214
I3
aI113
aI540
aa(lp215
I4
aI817
aI1212
aasS'3HOZ'
p216
(lp217
(lp218
I1
aI816
aI962
aa(lp219
I2
aI396
aI543
aa(lp220
I3
aI113
aI540
aa(lp221
I4
aI817
aI1212
aasS'4YG2'
p222
(lp223
(lp224
I5
aI13
aI221
aa(lp225
I6
aI362
aI958
aa(lp226
I4
aI1033
aI1342
aasS'4LJZ'
p227
(lp228
(lp229
I7
aI94
aI131
aa(lp230
I8
aI347
aI612
aasS'3HOY'
p231
(lp232
(lp233
I1
aI816
aI962
aa(lp234
I2
aI396
aI543
aa(lp235
I3
aI113
aI540
aa(lp236
I4
aI817
aI1212
aasS'4ZH2'
p237
(lp238
(lp239
I5
aI13
aI221
aa(lp240
I6
aI362
aI958
aa(lp241
I4
aI1033
aI1342
aasS'4ZH3'
p242
(lp243
(lp244
I5
aI13
aI221
aa(lp245
I6
aI362
aI958
aa(lp246
I4
aI1033
aI1342
aasS'3S15'
p247
(lp248
(lp249
I1
aI816
aI962
aa(lp250
I2
aI396
aI543
aa(lp251
I3
aI113
aI540
aa(lp252
I4
aI817
aI1212
aasS'3S14'
p253
(lp254
(lp255
I1
aI816
aI962
aa(lp256
I2
aI396
aI543
aa(lp257
I3
aI113
aI540
aa(lp258
I4
aI817
aI1212
aasS'3S17'
p259
(lp260
(lp261
I1
aI816
aI962
aa(lp262
I2
aI396
aI543
aa(lp263
I3
aI113
aI540
aa(lp264
I4
aI817
aI1212
aasS'3S16'
p265
(lp266
(lp267
I1
aI816
aI962
aa(lp268
I2
aI396
aI543
aa(lp269
I3
aI113
aI540
aa(lp270
I4
aI817
aI1212
aasS'1I50'
p271
(lp272
(lp273
I1
aI816
aI962
aa(lp274
I2
aI396
aI543
aa(lp275
I3
aI113
aI540
aa(lp276
I4
aI817
aI1212
aasS'3EQL'
p277
(lp278
(lp279
I5
aI4
aI207
aa(lp280
I6
aI234
aI832
aa(lp281
I3
aI78
aI461
aa(lp282
I4
aI666
aI1104
aasS'1HQM'
p283
(lp284
(lp285
I5
aI4
aI208
aa(lp286
I6
aI234
aI801
aa(lp287
I3
aI82
aI461
aa(lp288
I4
aI666
aI1104
aasS'3HOU'
p289
(lp290
(lp291
I1
aI816
aI962
aa(lp292
I2
aI396
aI543
aa(lp293
I3
aI113
aI540
aa(lp294
I4
aI817
aI1212
aasS'1Y1Y'
p295
(lp296
(lp297
I1
aI816
aI962
aa(lp298
I2
aI396
aI543
aa(lp299
I3
aI113
aI540
aa(lp300
I4
aI817
aI1212
aasS'4BXZ'
p301
(lp302
(lp303
I1
aI816
aI962
aa(lp304
I2
aI396
aI543
aa(lp305
I3
aI113
aI540
aa(lp306
I4
aI817
aI1212
aasS'3J1N'
p307
(lp308
(lp309
I1
aI816
aI962
aa(lp310
I2
aI396
aI543
aa(lp311
I3
aI113
aI540
aa(lp312
I4
aI817
aI1212
aasS'5C4J'
p313
(lp314
(lp315
I1
aI816
aI962
aa(lp316
I2
aI396
aI543
aa(lp317
I3
aI113
aI540
aa(lp318
I4
aI817
aI1212
aasS'4QIW'
p319
(lp320
(lp321
I9
aI12
aI81
aasS'4Y52'
p322
(lp323
(lp324
I1
aI816
aI962
aa(lp325
I2
aI396
aI543
aa(lp326
I3
aI113
aI540
aa(lp327
I4
aI817
aI1212
aasS'3S2D'
p328
(lp329
(lp330
I1
aI816
aI962
aa(lp331
I2
aI396
aI543
aa(lp332
I3
aI113
aI540
aa(lp333
I4
aI817
aI1212
aasS'1PQV'
p334
(lp335
(lp336
I1
aI816
aI962
aa(lp337
I2
aI396
aI543
aa(lp338
I3
aI113
aI540
aa(lp339
I4
aI817
aI1212
aasS'1Y1W'
p340
(lp341
(lp342
I1
aI816
aI962
aa(lp343
I2
aI396
aI543
aa(lp344
I3
aI113
aI540
aa(lp345
I4
aI817
aI1212
aasS'1Y1V'
p346
(lp347
(lp348
I1
aI816
aI962
aa(lp349
I2
aI396
aI543
aa(lp350
I3
aI113
aI540
aa(lp351
I4
aI817
aI1212
aasS'3S1R'
p352
(lp353
(lp354
I1
aI816
aI962
aa(lp355
I2
aI396
aI543
aa(lp356
I3
aI113
aI540
aa(lp357
I4
aI817
aI1212
aasS'3I4N'
p358
(lp359
(lp360
I1
aI816
aI962
aa(lp361
I2
aI396
aI543
aa(lp362
I3
aI113
aI540
aa(lp363
I4
aI817
aI1212
aasS'5BYH'
p364
(lp365
(lp366
I5
aI13
aI221
aa(lp367
I6
aI362
aI958
aa(lp368
I4
aI1033
aI1342
aasS'3GTJ'
p369
(lp370
(lp371
I1
aI816
aI962
aa(lp372
I2
aI396
aI543
aa(lp373
I3
aI113
aI540
aa(lp374
I4
aI817
aI1212
aasS'1R9S'
p375
(lp376
(lp377
I1
aI816
aI962
aa(lp378
I2
aI396
aI543
aa(lp379
I3
aI113
aI540
aa(lp380
I4
aI817
aI1212
aasS'4BY7'
p381
(lp382
(lp383
I1
aI816
aI962
aa(lp384
I2
aI396
aI543
aa(lp385
I3
aI113
aI540
aa(lp386
I4
aI817
aI1212
aasS'4GZY'
p387
(lp388
(lp389
I5
aI4
aI207
aa(lp390
I6
aI234
aI832
aa(lp391
I3
aI78
aI461
aa(lp392
I4
aI666
aI1104
aasS'1R9T'
p393
(lp394
(lp395
I1
aI816
aI962
aa(lp396
I2
aI396
aI543
aa(lp397
I3
aI113
aI540
aa(lp398
I4
aI817
aI1212
aasS'4GZZ'
p399
(lp400
(lp401
I5
aI4
aI207
aa(lp402
I6
aI234
aI832
aa(lp403
I3
aI78
aI461
aa(lp404
I4
aI666
aI1104
aasS'2PPB'
p405
(lp406
(lp407
I5
aI4
aI207
aa(lp408
I6
aI234
aI832
aa(lp409
I3
aI78
aI461
aa(lp410
I4
aI666
aI1104
aasS'2YU9'
p411
(lp412
(lp413
I1
aI816
aI962
aa(lp414
I2
aI396
aI543
aa(lp415
I3
aI113
aI540
aa(lp416
I4
aI817
aI1212
aasS'2GHO'
p417
(lp418
(lp419
I5
aI4
aI208
aa(lp420
I6
aI234
aI801
aa(lp421
I3
aI82
aI461
aa(lp422
I4
aI666
aI1104
aasS'3GTO'
p423
(lp424
(lp425
I1
aI816
aI962
aa(lp426
I2
aI396
aI543
aa(lp427
I3
aI113
aI540
aa(lp428
I4
aI817
aI1212
aasS'3GTL'
p429
(lp430
(lp431
I1
aI816
aI962
aa(lp432
I2
aI396
aI543
aa(lp433
I3
aI113
aI540
aa(lp434
I4
aI817
aI1212
aasS'3GTM'
p435
(lp436
(lp437
I1
aI816
aI962
aa(lp438
I2
aI396
aI543
aa(lp439
I3
aI113
aI540
aa(lp440
I4
aI817
aI1212
aasS'1WCM'
p441
(lp442
(lp443
I1
aI816
aI962
aa(lp444
I2
aI396
aI543
aa(lp445
I3
aI113
aI540
aa(lp446
I4
aI817
aI1212
aasS'3GTK'
p447
(lp448
(lp449
I1
aI816
aI962
aa(lp450
I2
aI396
aI543
aa(lp451
I3
aI113
aI540
aa(lp452
I4
aI817
aI1212
aasS'5C4X'
p453
(lp454
(lp455
I1
aI816
aI962
aa(lp456
I2
aI396
aI543
aa(lp457
I3
aI113
aI540
aa(lp458
I4
aI817
aI1212
aasS'4G7Z'
p459
(lp460
(lp461
I5
aI4
aI207
aa(lp462
I6
aI234
aI832
aa(lp463
I3
aI78
aI461
aa(lp464
I4
aI666
aI1104
aasS'2R7Z'
p465
(lp466
(lp467
I1
aI816
aI962
aa(lp468
I2
aI396
aI543
aa(lp469
I3
aI113
aI540
aa(lp470
I4
aI817
aI1212
aasS'4ZH4'
p471
(lp472
(lp473
I5
aI13
aI221
aa(lp474
I6
aI362
aI958
aa(lp475
I4
aI1033
aI1342
aasS'4LLG'
p476
(lp477
(lp478
I7
aI94
aI131
aa(lp479
I8
aI347
aI612
aasS'4G7O'
p480
(lp481
(lp482
I5
aI4
aI207
aa(lp483
I6
aI234
aI832
aa(lp484
I3
aI78
aI461
aa(lp485
I4
aI666
aI1104
aasS'4G7H'
p486
(lp487
(lp488
I5
aI4
aI207
aa(lp489
I6
aI234
aI832
aa(lp490
I3
aI78
aI461
aa(lp491
I4
aI666
aI1104
aasS'3GTQ'
p492
(lp493
(lp494
I1
aI816
aI962
aa(lp495
I2
aI396
aI543
aa(lp496
I3
aI113
aI540
aa(lp497
I4
aI817
aI1212
aasS'4WQT'
p498
(lp499
(lp500
I5
aI4
aI207
aa(lp501
I6
aI234
aI832
aa(lp502
I3
aI78
aI461
aa(lp503
I4
aI666
aI1104
aasS'4OIP'
p504
(lp505
(lp506
I5
aI4
aI207
aa(lp507
I6
aI234
aI832
aa(lp508
I3
aI78
aI461
aa(lp509
I4
aI666
aI1104
aasS'4OIQ'
p510
(lp511
(lp512
I5
aI4
aI207
aa(lp513
I6
aI234
aI832
aa(lp514
I3
aI78
aI461
aa(lp515
I4
aI666
aI1104
aasS'4OIR'
p516
(lp517
(lp518
I5
aI4
aI207
aa(lp519
I6
aI234
aI832
aa(lp520
I3
aI78
aI461
aa(lp521
I4
aI666
aI1104
aasS'4WQS'
p522
(lp523
(lp524
I5
aI4
aI207
aa(lp525
I6
aI234
aI832
aa(lp526
I3
aI78
aI461
aa(lp527
I4
aI666
aI1104
aasS'1Y77'
p528
(lp529
(lp530
I1
aI816
aI962
aa(lp531
I2
aI396
aI543
aa(lp532
I3
aI113
aI540
aa(lp533
I4
aI817
aI1212
aasS'2CW0'
p534
(lp535
(lp536
I5
aI4
aI207
aa(lp537
I6
aI234
aI832
aa(lp538
I3
aI78
aI461
aa(lp539
I4
aI666
aI1104
aasS'3H3V'
p540
(lp541
(lp542
I1
aI816
aI962
aa(lp543
I2
aI396
aI543
aa(lp544
I3
aI113
aI540
aa(lp545
I4
aI817
aI1212
aasS'1SFO'
p546
(lp547
(lp548
I1
aI816
aI962
aa(lp549
I2
aI396
aI543
aa(lp550
I3
aI113
aI540
aa(lp551
I4
aI817
aI1212
aasS'4OIN'
p552
(lp553
(lp554
I5
aI4
aI207
aa(lp555
I6
aI234
aI832
aa(lp556
I3
aI78
aI461
aa(lp557
I4
aI666
aI1104
aasS'4OIO'
p558
(lp559
(lp560
I5
aI4
aI207
aa(lp561
I6
aI234
aI832
aa(lp562
I3
aI78
aI461
aa(lp563
I4
aI666
aI1104
aasS'2R93'
p564
(lp565
(lp566
I1
aI816
aI962
aa(lp567
I2
aI396
aI543
aa(lp568
I3
aI113
aI540
aa(lp569
I4
aI817
aI1212
aasS'4S20'
p570
(lp571
(lp572
I5
aI13
aI221
aa(lp573
I6
aI362
aI958
aa(lp574
I4
aI1033
aI1342
aasS'3RZO'
p575
(lp576
(lp577
I1
aI816
aI962
aa(lp578
I2
aI396
aI543
aa(lp579
I3
aI113
aI540
aa(lp580
I4
aI817
aI1212
aasS'2E2I'
p581
(lp582
(lp583
I1
aI816
aI962
aa(lp584
I2
aI396
aI543
aa(lp585
I3
aI113
aI540
aa(lp586
I4
aI817
aI1212
aasS'2E2H'
p587
(lp588
(lp589
I1
aI816
aI962
aa(lp590
I2
aI396
aI543
aa(lp591
I3
aI113
aI540
aa(lp592
I4
aI817
aI1212
aasS'3WOD'
p593
(lp594
(lp595
I5
aI4
aI207
aa(lp596
I6
aI234
aI832
aa(lp597
I3
aI78
aI461
aa(lp598
I4
aI666
aI1104
aasS'3M3Y'
p599
(lp600
(lp601
I1
aI816
aI962
aa(lp602
I2
aI396
aI543
aa(lp603
I3
aI113
aI540
aa(lp604
I4
aI817
aI1212
aasS'3RZD'
p605
(lp606
(lp607
I1
aI816
aI962
aa(lp608
I2
aI396
aI543
aa(lp609
I3
aI113
aI540
aa(lp610
I4
aI817
aI1212
aasS'1NT9'
p611
(lp612
(lp613
I1
aI816
aI962
aa(lp614
I2
aI396
aI543
aa(lp615
I3
aI113
aI540
aa(lp616
I4
aI817
aI1212
aasS'1IW7'
p617
(lp618
(lp619
I5
aI4
aI207
aa(lp620
I6
aI234
aI832
aa(lp621
I3
aI78
aI461
aa(lp622
I4
aI666
aI1104
aasS'1YNN'
p623
(lp624
(lp625
I5
aI4
aI208
aa(lp626
I6
aI234
aI801
aa(lp627
I3
aI82
aI461
aa(lp628
I4
aI666
aI1104
aasS'4MEX'
p629
(lp630
(lp631
I5
aI13
aI221
aa(lp632
I6
aI362
aI958
aa(lp633
I4
aI1033
aI1342
aasS'4MEY'
p634
(lp635
(lp636
I5
aI13
aI221
aa(lp637
I6
aI362
aI958
aa(lp638
I4
aI1033
aI1342
aasS'2Y0S'
p639
(lp640
(lp641
I9
aI14
aI83
aasS'4YLO'
p642
(lp643
(lp644
I5
aI13
aI221
aa(lp645
I6
aI362
aI958
aa(lp646
I4
aI1033
aI1342
aasS'4YLN'
p647
(lp648
(lp649
I5
aI13
aI221
aa(lp650
I6
aI362
aI958
aa(lp651
I4
aI1033
aI1342
aasS'4KMU'
p652
(lp653
(lp654
I5
aI13
aI221
aa(lp655
I6
aI362
aI958
aa(lp656
I4
aI1033
aI1342
aasS'3FKI'
p657
(lp658
(lp659
I1
aI816
aI962
aa(lp660
I2
aI396
aI543
aa(lp661
I3
aI113
aI540
aa(lp662
I4
aI817
aI1212
aasS'3DXJ'
p663
(lp664
(lp665
I5
aI4
aI207
aa(lp666
I6
aI234
aI832
aa(lp667
I3
aI78
aI461
aa(lp668
I4
aI666
aI1104
aasS'3J0K'
p669
(lp670
(lp671
I1
aI816
aI962
aa(lp672
I2
aI396
aI543
aa(lp673
I3
aI113
aI540
aa(lp674
I4
aI817
aI1212
aasS'4A3L'
p675
(lp676
(lp677
I1
aI816
aI962
aa(lp678
I2
aI396
aI543
aa(lp679
I3
aI113
aI540
aa(lp680
I4
aI817
aI1212
aasS'2BE5'
p681
(lp682
(lp683
I5
aI4
aI207
aa(lp684
I6
aI234
aI832
aa(lp685
I3
aI78
aI461
aa(lp686
I4
aI666
aI1104
aasS'4V1M'
p687
(lp688
(lp689
I1
aI816
aI962
aa(lp690
I2
aI396
aI543
aa(lp691
I3
aI113
aI540
aa(lp692
I4
aI817
aI1212
aasS'4YLP'
p693
(lp694
(lp695
I5
aI13
aI221
aa(lp696
I6
aI362
aI958
aa(lp697
I4
aI1033
aI1342
aasS'1I3Q'
p698
(lp699
(lp700
I1
aI816
aI962
aa(lp701
I2
aI396
aI543
aa(lp702
I3
aI113
aI540
aa(lp703
I4
aI817
aI1212
aasS'1YNJ'
p704
(lp705
(lp706
I5
aI4
aI208
aa(lp707
I6
aI234
aI801
aa(lp708
I3
aI82
aI461
aa(lp709
I4
aI666
aI1104
aasS'3GTG'
p710
(lp711
(lp712
I1
aI816
aI962
aa(lp713
I2
aI396
aI543
aa(lp714
I3
aI113
aI540
aa(lp715
I4
aI817
aI1212
aasS'1SMY'
p716
(lp717
(lp718
I5
aI4
aI207
aa(lp719
I6
aI234
aI832
aa(lp720
I3
aI78
aI461
aa(lp721
I4
aI666
aI1104
aasS'1TWC'
p722
(lp723
(lp724
I1
aI816
aI962
aa(lp725
I2
aI396
aI543
aa(lp726
I3
aI113
aI540
aa(lp727
I4
aI817
aI1212
aasS'3PO2'
p728
(lp729
(lp730
I1
aI816
aI962
aa(lp731
I2
aI396
aI543
aa(lp732
I3
aI113
aI540
aa(lp733
I4
aI817
aI1212
aasS'3PO3'
p734
(lp735
(lp736
I1
aI816
aI962
aa(lp737
I2
aI396
aI543
aa(lp738
I3
aI113
aI540
aa(lp739
I4
aI817
aI1212
aasS'2R92'
p740
(lp741
(lp742
I1
aI816
aI962
aa(lp743
I2
aI396
aI543
aa(lp744
I3
aI113
aI540
aa(lp745
I4
aI817
aI1212
aasS'1TWA'
p746
(lp747
(lp748
I1
aI816
aI962
aa(lp749
I2
aI396
aI543
aa(lp750
I3
aI113
aI540
aa(lp751
I4
aI817
aI1212
aasS'3K1F'
p752
(lp753
(lp754
I1
aI816
aI962
aa(lp755
I2
aI396
aI543
aa(lp756
I3
aI113
aI540
aa(lp757
I4
aI817
aI1212
aasS'1TWF'
p758
(lp759
(lp760
I1
aI816
aI962
aa(lp761
I2
aI396
aI543
aa(lp762
I3
aI113
aI540
aa(lp763
I4
aI817
aI1212
aasS'1TWG'
p764
(lp765
(lp766
I1
aI816
aI962
aa(lp767
I2
aI396
aI543
aa(lp768
I3
aI113
aI540
aa(lp769
I4
aI817
aI1212
aasS'4A93'
p770
(lp771
(lp772
I1
aI816
aI962
aa(lp773
I2
aI396
aI543
aa(lp774
I3
aI113
aI540
aa(lp775
I4
aI817
aI1212
aasS'2A69'
p776
(lp777
(lp778
I5
aI4
aI207
aa(lp779
I6
aI234
aI832
aa(lp780
I3
aI78
aI461
aa(lp781
I4
aI666
aI1104
aasS'2A68'
p782
(lp783
(lp784
I5
aI4
aI207
aa(lp785
I6
aI234
aI832
aa(lp786
I3
aI78
aI461
aa(lp787
I4
aI666
aI1104
aasS'4X6A'
p788
(lp789
(lp790
I1
aI816
aI962
aa(lp791
I2
aI396
aI543
aa(lp792
I3
aI113
aI540
aa(lp793
I4
aI817
aI1212
aasS'1R5U'
p794
(lp795
(lp796
I1
aI816
aI962
aa(lp797
I2
aI396
aI543
aa(lp798
I3
aI113
aI540
aa(lp799
I4
aI817
aI1212
aasS'2O5J'
p800
(lp801
(lp802
I5
aI4
aI207
aa(lp803
I6
aI234
aI832
aa(lp804
I3
aI78
aI461
aa(lp805
I4
aI666
aI1104
aasS'2O5I'
p806
(lp807
(lp808
I5
aI4
aI207
aa(lp809
I6
aI234
aI832
aa(lp810
I3
aI78
aI461
aa(lp811
I4
aI666
aI1104
aasS'1I6V'
p812
(lp813
(lp814
I5
aI4
aI208
aa(lp815
I6
aI234
aI801
aa(lp816
I3
aI82
aI461
aa(lp817
I4
aI666
aI1104
aasS'3LU0'
p818
(lp819
(lp820
I5
aI13
aI221
aa(lp821
I6
aI362
aI958
aa(lp822
I4
aI1033
aI1342
aasS'2NVZ'
p823
(lp824
(lp825
I1
aI816
aI962
aa(lp826
I2
aI396
aI543
aa(lp827
I3
aI113
aI540
aa(lp828
I4
aI817
aI1212
aasS'3I4M'
p829
(lp830
(lp831
I1
aI816
aI962
aa(lp832
I2
aI396
aI543
aa(lp833
I3
aI113
aI540
aa(lp834
I4
aI817
aI1212
aasS'2NVX'
p835
(lp836
(lp837
I1
aI816
aI962
aa(lp838
I2
aI396
aI543
aa(lp839
I3
aI113
aI540
aa(lp840
I4
aI817
aI1212
aasS'2NVY'
p841
(lp842
(lp843
I1
aI816
aI962
aa(lp844
I2
aI396
aI543
aa(lp845
I3
aI113
aI540
aa(lp846
I4
aI817
aI1212
aasS'3S2H'
p847
(lp848
(lp849
I1
aI816
aI962
aa(lp850
I2
aI396
aI543
aa(lp851
I3
aI113
aI540
aa(lp852
I4
aI817
aI1212
aasS'2NVT'
p853
(lp854
(lp855
I1
aI816
aI962
aa(lp856
I2
aI396
aI543
aa(lp857
I3
aI113
aI540
aa(lp858
I4
aI817
aI1212
aasS'2NVQ'
p859
(lp860
(lp861
I1
aI816
aI962
aa(lp862
I2
aI396
aI543
aa(lp863
I3
aI113
aI540
aa(lp864
I4
aI817
aI1212
aasS'1ZYR'
p865
(lp866
(lp867
I5
aI4
aI207
aa(lp868
I6
aI234
aI832
aa(lp869
I3
aI78
aI461
aa(lp870
I4
aI666
aI1104
aasS'4KN4'
p871
(lp872
(lp873
I5
aI13
aI221
aa(lp874
I6
aI362
aI958
aa(lp875
I4
aI1033
aI1342
aasS'4KN7'
p876
(lp877
(lp878
I5
aI13
aI221
aa(lp879
I6
aI362
aI958
aa(lp880
I4
aI1033
aI1342
aasS'3M4O'
p881
(lp882
(lp883
I1
aI816
aI962
aa(lp884
I2
aI396
aI543
aa(lp885
I3
aI113
aI540
aa(lp886
I4
aI817
aI1212
aasS'2A6H'
p887
(lp888
(lp889
I5
aI4
aI207
aa(lp890
I6
aI234
aI832
aa(lp891
I3
aI78
aI461
aa(lp892
I4
aI666
aI1104
aasS'2A6E'
p893
(lp894
(lp895
I5
aI4
aI207
aa(lp896
I6
aI234
aI832
aa(lp897
I3
aI78
aI461
aa(lp898
I4
aI666
aI1104
aasS'1I6H'
p899
(lp900
(lp901
I1
aI816
aI962
aa(lp902
I2
aI396
aI543
aa(lp903
I3
aI113
aI540
aa(lp904
I4
aI817
aI1212
aasS'4X67'
p905
(lp906
(lp907
I1
aI816
aI962
aa(lp908
I2
aI396
aI543
aa(lp909
I3
aI113
aI540
aa(lp910
I4
aI817
aI1212
aasS'4A3I'
p911
(lp912
(lp913
I1
aI816
aI962
aa(lp914
I2
aI396
aI543
aa(lp915
I3
aI113
aI540
aa(lp916
I4
aI817
aI1212
aasS'4A3J'
p917
(lp918
(lp919
I1
aI816
aI962
aa(lp920
I2
aI396
aI543
aa(lp921
I3
aI113
aI540
aa(lp922
I4
aI817
aI1212
aasS'4A3K'
p923
(lp924
(lp925
I1
aI816
aI962
aa(lp926
I2
aI396
aI543
aa(lp927
I3
aI113
aI540
aa(lp928
I4
aI817
aI1212
aasS'3H0G'
p929
(lp930
(lp931
I1
aI805
aI906
aa(lp932
I3
aI100
aI531
aa(lp933
I4
aI806
aI1151
aasS'4A3M'
p934
(lp935
(lp936
I1
aI816
aI962
aa(lp937
I2
aI396
aI543
aa(lp938
I3
aI113
aI540
aa(lp939
I4
aI817
aI1212
aasS'2B63'
p940
(lp941
(lp942
I1
aI816
aI962
aa(lp943
I2
aI396
aI543
aa(lp944
I3
aI113
aI540
aa(lp945
I4
aI817
aI1212
aasS'4A3B'
p946
(lp947
(lp948
I1
aI816
aI962
aa(lp949
I2
aI396
aI543
aa(lp950
I3
aI113
aI540
aa(lp951
I4
aI817
aI1212
aasS'4A3C'
p952
(lp953
(lp954
I1
aI816
aI962
aa(lp955
I2
aI396
aI543
aa(lp956
I3
aI113
aI540
aa(lp957
I4
aI817
aI1212
aasS'4A3D'
p958
(lp959
(lp960
I1
aI816
aI962
aa(lp961
I2
aI396
aI543
aa(lp962
I3
aI113
aI540
aa(lp963
I4
aI817
aI1212
aasS'4A3E'
p964
(lp965
(lp966
I1
aI816
aI962
aa(lp967
I2
aI396
aI543
aa(lp968
I3
aI113
aI540
aa(lp969
I4
aI817
aI1212
aasS'4A3F'
p970
(lp971
(lp972
I1
aI816
aI962
aa(lp973
I2
aI396
aI543
aa(lp974
I3
aI113
aI540
aa(lp975
I4
aI817
aI1212
aasS'4A3G'
p976
(lp977
(lp978
I1
aI816
aI962
aa(lp979
I2
aI396
aI543
aa(lp980
I3
aI113
aI540
aa(lp981
I4
aI817
aI1212
aasS'2E2J'
p982
(lp983
(lp984
I1
aI816
aI962
aa(lp985
I2
aI396
aI543
aa(lp986
I3
aI113
aI540
aa(lp987
I4
aI817
aI1212
aasS'3GTP'
p988
(lp989
(lp990
I1
aI816
aI962
aa(lp991
I2
aI396
aI543
aa(lp992
I3
aI113
aI540
aa(lp993
I4
aI817
aI1212
aasS'1NIK'
p994
(lp995
(lp996
I1
aI816
aI962
aa(lp997
I2
aI396
aI543
aa(lp998
I3
aI113
aI540
aa(lp999
I4
aI817
aI1212
aas.