(dp1
S'3RNM'
p2
(lp3
(lp4
I1
aI27
aI509
aasS'3FYN'
p5
(lp6
(lp7
I2
aI11
aI165
aasS'2CKJ'
p8
(lp9
(lp10
I3
aI240
aI525
aa(lp11
I4
aI539
aI1309
aa(lp12
I5
aI1
aI165
aasS'3CGE'
p13
(lp14
(lp15
I1
aI2
aI480
aasS'3CGD'
p16
(lp17
(lp18
I1
aI2
aI480
aasS'3CGC'
p19
(lp20
(lp21
I1
aI3
aI459
aasS'3CGB'
p22
(lp23
(lp24
I1
aI8
aI480
aasS'1IH7'
p25
(lp26
(lp27
I6
aI104
aI234
aa(lp28
I7
aI107
aI766
aasS'1DWU'
p29
(lp30
(lp31
I8
aI20
aI212
aasS'4KPR'
p32
(lp33
(lp34
I1
aI1
aI499
aasS'1PUT'
p35
(lp36
(lp37
I9
aI2
aI103
aasS'4TUH'
p38
(lp39
(lp40
I10
aI1
aI233
aasS'1PFD'
p41
(lp42
(lp43
I9
aI1
aI96
aasS'3T90'
p44
(lp45
(lp46
I2
aI1
aI148
aasS'2LPC'
p47
(lp48
(lp49
I10
aI1
aI233
aasS'1B9R'
p50
(lp51
(lp52
I9
aI1
aI105
aasS'3SPZ'
p53
(lp54
(lp55
I6
aI104
aI234
aa(lp56
I7
aI107
aI766
aasS'3SPY'
p57
(lp58
(lp59
I6
aI104
aI234
aa(lp60
I7
aI107
aI766
aasS'1JQ4'
p61
(lp62
(lp63
I11
aI18
aI215
aa(lp64
I12
aI142
aI342
aa(lp65
I9
aI2
aI103
aasS'1YSW'
p66
(lp67
(lp68
I10
aI11
aI239
aasS'3T9Y'
p69
(lp70
(lp71
I2
aI80
aI140
aasS'1NPX'
p72
(lp73
(lp74
I1
aI2
aI447
aasS'4EVY'
p75
(lp76
(lp77
I2
aI1
aI144
aasS'3IAY'
p78
(lp79
(lp80
I7
aI131
aI982
aasS'2VBQ'
p81
(lp82
(lp83
I2
aI20
aI165
aasS'1SIJ'
p84
(lp85
(lp86
I4
aI146
aI906
aa(lp87
I5
aI1
aI158
aasS'3TE4'
p88
(lp89
(lp90
I13
aI60
aI266
aasS'1F16'
p91
(lp92
(lp93
I14
aI106
aI191
aa(lp94
I10
aI6
aI190
aasS'2B48'
p95
(lp96
(lp97
I10
aI1
aI233
aasS'4M41'
p98
(lp99
(lp100
I6
aI104
aI234
aa(lp101
I7
aI107
aI766
aasS'4A1W'
p102
(lp103
(lp104
I10
aI1
aI233
aasS'1XDI'
p105
(lp106
(lp107
I1
aI1
aI474
aasS'4M42'
p108
(lp109
(lp110
I6
aI104
aI234
aa(lp111
I7
aI107
aI766
aasS'4M45'
p112
(lp113
(lp114
I6
aI104
aI234
aa(lp115
I7
aI107
aI766
aasS'1T3Q'
p116
(lp117
(lp118
I3
aI7
aI281
aasS'3N9Y'
p119
(lp120
(lp121
I9
aI6
aI176
aasS'3N9Z'
p122
(lp123
(lp124
I9
aI6
aI176
aasS'4E2A'
p125
(lp126
(lp127
I2
aI38
aI206
aasS'1FXA'
p128
(lp129
(lp130
I9
aI1
aI99
aasS'1SB3'
p131
(lp132
(lp133
I5
aI5
aI152
aasS'3RWU'
p134
(lp135
(lp136
I6
aI104
aI234
aa(lp137
I7
aI107
aI766
aasS'3P1M'
p138
(lp139
(lp140
I9
aI6
aI176
aasS'1FXI'
p141
(lp142
(lp143
I9
aI1
aI97
aasS'3S9H'
p144
(lp145
(lp146
I6
aI104
aI234
aa(lp147
I7
aI107
aI766
aasS'1TIQ'
p148
(lp149
(lp150
I2
aI1
aI171
aasS'1ZMD'
p151
(lp152
(lp153
I1
aI27
aI509
aasS'2CY2'
p154
(lp155
(lp156
I2
aI1
aI149
aasS'1ZMC'
p157
(lp158
(lp159
I1
aI27
aI509
aasS'2NLA'
p160
(lp161
(lp162
I10
aI161
aI320
aasS'2ZZ0'
p163
(lp164
(lp165
I1
aI151
aI649
aasS'2OUM'
p166
(lp167
(lp168
I15
aI1
aI67
aa(lp169
I16
aI57
aI137
aasS'1RM6'
p170
(lp171
(lp172
I5
aI5
aI152
aasS'3MK8'
p173
(lp174
(lp175
I10
aI161
aI320
aasS'2KCW'
p176
(lp177
(lp178
I2
aI3
aI135
aasS'2GAN'
p179
(lp180
(lp181
I2
aI66
aI167
aasS'2BCP'
p182
(lp183
(lp184
I1
aI1
aI456
aasS'2FTC'
p185
(lp186
(lp187
I8
aI88
aI309
aasS'3ILB'
p188
(lp189
(lp190
I10
aI1
aI233
aasS'2K7W'
p191
(lp192
(lp193
I14
aI106
aI191
aa(lp194
I10
aI6
aI190
aasS'3EAO'
p195
(lp196
(lp197
I1
aI1
aI499
aasS'3EAN'
p198
(lp199
(lp200
I1
aI1
aI499
aasS'1FFV'
p201
(lp202
(lp203
I5
aI1
aI156
aasS'1QHT'
p204
(lp205
(lp206
I7
aI1
aI773
aasS'4FX9'
p207
(lp208
(lp209
I1
aI6
aI445
aasS'4DTP'
p210
(lp211
(lp212
I6
aI104
aI234
aa(lp213
I7
aI107
aI766
aasS'4FXD'
p214
(lp215
(lp216
I7
aI348
aI1399
aasS'4DTS'
p217
(lp218
(lp219
I6
aI104
aI234
aa(lp220
I7
aI107
aI766
aasS'4DTU'
p221
(lp222
(lp223
I6
aI104
aI234
aa(lp224
I7
aI107
aI766
aasS'1F8W'
p225
(lp226
(lp227
I1
aI2
aI447
aasS'2BZW'
p228
(lp229
(lp230
I10
aI1
aI233
aasS'4DTX'
p231
(lp232
(lp233
I6
aI104
aI234
aa(lp234
I7
aI107
aI766
aasS'2BC0'
p235
(lp236
(lp237
I1
aI1
aI456
aasS'3NT6'
p238
(lp239
(lp240
I1
aI2
aI561
aasS'4M3T'
p241
(lp242
(lp243
I6
aI104
aI234
aa(lp244
I7
aI107
aI766
aasS'4M3U'
p245
(lp246
(lp247
I6
aI104
aI234
aa(lp248
I7
aI107
aI766
aasS'1R2E'
p249
(lp250
(lp251
I10
aI1
aI233
aasS'4M3W'
p252
(lp253
(lp254
I6
aI104
aI234
aa(lp255
I7
aI107
aI766
aasS'2VM6'
p256
(lp257
(lp258
I10
aI10
aI173
aasS'4M3R'
p259
(lp260
(lp261
I6
aI104
aI234
aa(lp262
I7
aI107
aI766
aasS'4M3S'
p263
(lp264
(lp265
I2
aI1
aI162
aasS'2AAQ'
p266
(lp267
(lp268
I1
aI51
aI522
aasS'4DTJ'
p269
(lp270
(lp271
I6
aI104
aI234
aa(lp272
I7
aI107
aI766
aasS'4M3X'
p273
(lp274
(lp275
I6
aI104
aI234
aa(lp276
I7
aI107
aI766
aasS'4DTM'
p277
(lp278
(lp279
I6
aI104
aI234
aa(lp280
I7
aI107
aI766
aasS'4DTN'
p281
(lp282
(lp283
I6
aI104
aI234
aa(lp284
I7
aI107
aI766
aasS'4DTO'
p285
(lp286
(lp287
I6
aI104
aI234
aa(lp288
I7
aI107
aI766
aasS'3KKW'
p289
(lp290
(lp291
I2
aI11
aI182
aasS'1DNC'
p292
(lp293
(lp294
I1
aI7
aI478
aasS'2X50'
p295
(lp296
(lp297
I1
aI2
aI484
aasS'4E8O'
p298
(lp299
(lp300
I2
aI1
aI143
aasS'2JK6'
p301
(lp302
(lp303
I1
aI2
aI484
aasS'2NL9'
p304
(lp305
(lp306
I10
aI161
aI320
aasS'1QSO'
p307
(lp308
(lp309
I2
aI25
aI146
aasS'1QSM'
p310
(lp311
(lp312
I2
aI25
aI146
aasS'2ZZB'
p313
(lp314
(lp315
I1
aI151
aI649
aasS'2ZZC'
p316
(lp317
(lp318
I1
aI151
aI649
aasS'4JDR'
p319
(lp320
(lp321
I1
aI4
aI466
aasS'1TYT'
p322
(lp323
(lp324
I1
aI3
aI481
aasS'1E0Z'
p325
(lp326
(lp327
I9
aI20
aI121
aasS'4OQ5'
p328
(lp329
(lp330
I10
aI161
aI320
aasS'4OQ6'
p331
(lp332
(lp333
I10
aI161
aI320
aasS'4EQX'
p334
(lp335
(lp336
I1
aI1
aI438
aasS'2FIA'
p337
(lp338
(lp339
I2
aI77
aI134
aasS'1YVK'
p340
(lp341
(lp342
I2
aI15
aI155
aasS'4EQR'
p343
(lp344
(lp345
I1
aI1
aI438
aasS'4EQS'
p346
(lp347
(lp348
I1
aI1
aI438
aasS'4EQW'
p349
(lp350
(lp351
I1
aI1
aI438
aasS'1DXL'
p352
(lp353
(lp354
I1
aI22
aI501
aasS'4R3K'
p355
(lp356
(lp357
I2
aI8
aI167
aasS'3DK4'
p358
(lp359
(lp360
I1
aI51
aI522
aasS'2LP8'
p361
(lp362
(lp363
I10
aI17
aI211
aasS'3DK8'
p364
(lp365
(lp366
I1
aI51
aI522
aasS'3DK9'
p367
(lp368
(lp369
I1
aI51
aI522
aasS'4M8O'
p370
(lp371
(lp372
I7
aI779
aI1165
aa(lp373
I7
aI121
aI581
aasS'3URH'
p374
(lp375
(lp376
I1
aI2
aI466
aasS'3TAF'
p377
(lp378
(lp379
I6
aI104
aI234
aa(lp380
I7
aI107
aI766
aasS'3TAG'
p381
(lp382
(lp383
I6
aI104
aI234
aa(lp384
I7
aI107
aI766
aasS'3D7V'
p385
(lp386
(lp387
I10
aI161
aI320
aasS'3TAE'
p388
(lp389
(lp390
I6
aI104
aI234
aa(lp391
I7
aI107
aI766
aasS'3TAB'
p392
(lp393
(lp394
I6
aI104
aI234
aa(lp395
I7
aI107
aI766
aasS'2PDO'
p396
(lp397
(lp398
I2
aI1
aI141
aasS'2QAE'
p399
(lp400
(lp401
I1
aI11
aI477
aasS'4I9Q'
p402
(lp403
(lp404
I6
aI104
aI234
aa(lp405
I7
aI107
aI766
aasS'3GRT'
p406
(lp407
(lp408
I1
aI1
aI461
aasS'1B6B'
p409
(lp410
(lp411
I2
aI34
aI177
aasS'2QEC'
p412
(lp413
(lp414
I2
aI112
aI184
aasS'3W5U'
p415
(lp416
(lp417
I9
aI2
aI148
aasS'3J0Q'
p418
(lp419
(lp420
I17
aI9
aI129
aasS'3J0P'
p421
(lp422
(lp423
I8
aI11
aI216
aasS'4M85'
p424
(lp425
(lp426
I2
aI115
aI167
aasS'2PIA'
p427
(lp428
(lp429
I12
aI12
aI227
aa(lp430
I9
aI233
aI320
aasS'2EUI'
p431
(lp432
(lp433
I2
aI11
aI146
aasS'4I9L'
p434
(lp435
(lp436
I6
aI104
aI234
aa(lp437
I7
aI107
aI766
aasS'3PP9'
p438
(lp439
(lp440
I2
aI6
aI168
aasS'4B4S'
p441
(lp442
(lp443
I14
aI83
aI193
aa(lp444
I10
aI1
aI161
aasS'2AJ6'
p445
(lp446
(lp447
I2
aI86
aI148
aasS'3A2F'
p448
(lp449
(lp450
I7
aI1
aI775
aasS'2JEV'
p451
(lp452
(lp453
I2
aI6
aI156
aasS'3BJ7'
p454
(lp455
(lp456
I2
aI5
aI156
aasS'3HRD'
p457
(lp458
(lp459
I5
aI5
aI149
aasS'1IG9'
p460
(lp461
(lp462
I6
aI104
aI234
aa(lp463
I7
aI107
aI766
aasS'2HQM'
p464
(lp465
(lp466
I1
aI14
aI483
aasS'4C5D'
p467
(lp468
(lp469
I10
aI1
aI233
aasS'3BJ8'
p470
(lp471
(lp472
I2
aI5
aI156
aasS'2OB0'
p473
(lp474
(lp475
I2
aI2
aI154
aasS'3V8I'
p476
(lp477
(lp478
I13
aI60
aI266
aasS'1YQZ'
p479
(lp480
(lp481
I1
aI1
aI438
aasS'1H6V'
p482
(lp483
(lp484
I1
aI1
aI499
aasS'1LVL'
p485
(lp486
(lp487
I1
aI1
aI458
aasS'1UWM'
p488
(lp489
(lp490
I9
aI1
aI107
aasS'2R1I'
p491
(lp492
(lp493
I2
aI89
aI171
aasS'2YAU'
p494
(lp495
(lp496
I1
aI16
aI504
aasS'4YRW'
p497
(lp498
(lp499
I3
aI239
aI514
aa(lp500
I4
aI538
aI1307
aa(lp501
I5
aI1
aI164
aasS'4NEV'
p502
(lp503
(lp504
I1
aI5
aI486
aasS'2KAJ'
p505
(lp506
(lp507
I9
aI1
aI97
aasS'3AMZ'
p508
(lp509
(lp510
I4
aI538
aI1308
aa(lp511
I5
aI1
aI165
aasS'4G35'
p512
(lp513
(lp514
I10
aI178
aI306
aasS'2YQU'
p515
(lp516
(lp517
I1
aI6
aI482
aasS'2C3D'
p518
(lp519
(lp520
I1
aI26
aI523
aasS'4OCG'
p521
(lp522
(lp523
I1
aI1
aI561
aasS'1ZHO'
p524
(lp525
(lp526
I15
aI2
aI68
aa(lp527
I16
aI160
aI229
aa(lp528
I8
aI12
aI227
aasS'2DTU'
p529
(lp530
(lp531
I6
aI104
aI234
aa(lp532
I7
aI107
aI766
aasS'2FXF'
p533
(lp534
(lp535
I2
aI6
aI156
aasS'3RMA'
p536
(lp537
(lp538
I6
aI104
aI234
aa(lp539
I7
aI107
aI766
aasS'3RMB'
p540
(lp541
(lp542
I6
aI104
aI234
aa(lp543
I7
aI107
aI766
aasS'3RMC'
p544
(lp545
(lp546
I6
aI104
aI234
aa(lp547
I7
aI107
aI766
aasS'3RMD'
p548
(lp549
(lp550
I6
aI104
aI234
aa(lp551
I7
aI107
aI766
aasS'2YQ6'
p552
(lp553
(lp554
I10
aI1
aI233
aasS'2YQ7'
p555
(lp556
(lp557
I10
aI1
aI233
aasS'1QT9'
p558
(lp559
(lp560
I9
aI1
aI99
aasS'4ZEQ'
p561
(lp562
(lp563
I10
aI10
aI173
aasS'3ETR'
p564
(lp565
(lp566
I4
aI538
aI1308
aa(lp567
I5
aI1
aI165
aasS'3SQP'
p568
(lp569
(lp570
I1
aI51
aI522
aasS'2IMT'
p571
(lp572
(lp573
I10
aI17
aI211
aasS'1IUE'
p574
(lp575
(lp576
I9
aI37
aI192
aasS'4BD8'
p577
(lp578
(lp579
I14
aI106
aI191
aa(lp580
I10
aI6
aI190
aasS'2IMS'
p581
(lp582
(lp583
I10
aI17
aI211
aasS'3SUO'
p584
(lp585
(lp586
I6
aI104
aI234
aa(lp587
I7
aI107
aI766
aasS'3SUN'
p588
(lp589
(lp590
I6
aI104
aI234
aa(lp591
I7
aI107
aI766
aasS'4ZBF'
p592
(lp593
(lp594
I10
aI161
aI320
aasS'4UJD'
p595
(lp596
(lp597
I18
aI1
aI76
aasS'3SUQ'
p598
(lp599
(lp600
I6
aI104
aI234
aa(lp601
I7
aI107
aI766
aasS'3SUP'
p602
(lp603
(lp604
I6
aI104
aI234
aa(lp605
I7
aI107
aI766
aasS'3LXF'
p606
(lp607
(lp608
I9
aI3
aI103
aasS'3U4M'
p609
(lp610
(lp611
I15
aI2
aI68
aa(lp612
I16
aI160
aI229
aa(lp613
I8
aI12
aI227
aasS'4ZBI'
p614
(lp615
(lp616
I10
aI161
aI320
aasS'1NHP'
p617
(lp618
(lp619
I1
aI2
aI447
aasS'4B1B'
p620
(lp621
(lp622
I1
aI1
aI541
aasS'3SCX'
p623
(lp624
(lp625
I6
aI104
aI234
aa(lp626
I7
aI107
aI766
aasS'1XLO'
p627
(lp628
(lp629
I9
aI1
aI104
aasS'3NAE'
p630
(lp631
(lp632
I6
aI104
aI234
aa(lp633
I7
aI107
aI766
aasS'4C52'
p634
(lp635
(lp636
I10
aI1
aI233
aasS'1XLQ'
p637
(lp638
(lp639
I9
aI1
aI104
aasS'1XLP'
p640
(lp641
(lp642
I9
aI1
aI104
aasS'1N63'
p643
(lp644
(lp645
I5
aI1
aI158
aasS'1N62'
p646
(lp647
(lp648
I5
aI1
aI158
aasS'1N61'
p649
(lp650
(lp651
I5
aI1
aI158
aasS'1N60'
p652
(lp653
(lp654
I5
aI1
aI158
aasS'3II4'
p655
(lp656
(lp657
I1
aI4
aI454
aasS'4MAN'
p658
(lp659
(lp660
I10
aI11
aI239
aasS'5AUI'
p661
(lp662
(lp663
I9
aI1
aI98
aasS'3CQ8'
p664
(lp665
(lp666
I6
aI104
aI234
aa(lp667
I7
aI107
aI766
aasS'5AUK'
p668
(lp669
(lp670
I9
aI1
aI97
aasS'1BHY'
p671
(lp672
(lp673
I1
aI3
aI472
aasS'2GRT'
p674
(lp675
(lp676
I1
aI1
aI461
aasS'4F9T'
p677
(lp678
(lp679
I15
aI2
aI68
aa(lp680
I16
aI160
aI229
aa(lp681
I8
aI12
aI227
aasS'4PSW'
p682
(lp683
(lp684
I19
aI1
aI320
aasS'4FK2'
p685
(lp686
(lp687
I6
aI104
aI234
aa(lp688
I7
aI107
aI766
aasS'4FK0'
p689
(lp690
(lp691
I6
aI104
aI234
aa(lp692
I7
aI107
aI766
aasS'4LTU'
p693
(lp694
(lp695
I9
aI1
aI105
aasS'4FK4'
p696
(lp697
(lp698
I6
aI104
aI234
aa(lp699
I7
aI107
aI766
aasS'2YJ1'
p700
(lp701
(lp702
I10
aI1
aI233
aasS'2CDU'
p703
(lp704
(lp705
I1
aI2
aI448
aasS'5AGW'
p706
(lp707
(lp708
I10
aI11
aI239
aasS'5AGX'
p709
(lp710
(lp711
I10
aI11
aI239
aasS'2YXJ'
p712
(lp713
(lp714
I10
aI1
aI233
aasS'3L8B'
p715
(lp716
(lp717
I6
aI104
aI234
aa(lp718
I7
aI107
aI766
aasS'3L8K'
p719
(lp720
(lp721
I1
aI2
aI463
aasS'1ROE'
p722
(lp723
(lp724
I9
aI1
aI97
aasS'3F8K'
p725
(lp726
(lp727
I2
aI3
aI140
aasS'2F5Z'
p728
(lp729
(lp730
I1
aI27
aI509
aasS'1O0L'
p731
(lp732
(lp733
I10
aI5
aI193
aasS'3AV8'
p734
(lp735
(lp736
I9
aI1
aI97
aasS'4F0Y'
p737
(lp738
(lp739
I2
aI1
aI144
aasS'3IIG'
p740
(lp741
(lp742
I10
aI1
aI233
aasS'3DGH'
p743
(lp744
(lp745
I1
aI88
aI596
aasS'1P0H'
p746
(lp747
(lp748
I2
aI216
aI308
aasS'3KZ0'
p749
(lp750
(lp751
I10
aI161
aI320
aasS'2HUZ'
p752
(lp753
(lp754
I2
aI22
aI182
aasS'1FIQ'
p755
(lp756
(lp757
I4
aI538
aI1308
aa(lp758
I5
aI1
aI165
aasS'3NA0'
p759
(lp760
(lp761
I9
aI6
aI176
aasS'3NA1'
p762
(lp763
(lp764
I9
aI6
aI176
aasS'2EQ8'
p765
(lp766
(lp767
I20
aI2
aI38
aasS'4E3S'
p768
(lp769
(lp770
I6
aI104
aI234
aa(lp771
I7
aI107
aI766
aasS'1TGO'
p772
(lp773
(lp774
I7
aI1
aI772
aasS'2J3N'
p775
(lp776
(lp777
I1
aI151
aI649
aasS'1L0C'
p778
(lp779
(lp780
I2
aI34
aI177
aasS'3AX7'
p781
(lp782
(lp783
I4
aI538
aI1308
aa(lp784
I5
aI1
aI165
aasS'4FYD'
p785
(lp786
(lp787
I7
aI348
aI1399
aasS'2PQK'
p788
(lp789
(lp790
I10
aI161
aI320
aasS'1GRF'
p791
(lp792
(lp793
I1
aI7
aI478
aasS'1GRG'
p794
(lp795
(lp796
I1
aI7
aI478
aasS'3DSB'
p797
(lp798
(lp799
I2
aI19
aI151
aasS'1GRE'
p800
(lp801
(lp802
I1
aI7
aI478
aasS'1GRB'
p803
(lp804
(lp805
I1
aI7
aI478
aasS'3AX9'
p806
(lp807
(lp808
I4
aI538
aI1308
aa(lp809
I5
aI1
aI165
aasS'1VLB'
p810
(lp811
(lp812
I4
aI146
aI906
aa(lp813
I5
aI1
aI158
aasS'1S5K'
p814
(lp815
(lp816
I2
aI1
aI145
aasS'1S5J'
p817
(lp818
(lp819
I7
aI52
aI858
aasS'2CNT'
p820
(lp821
(lp822
I2
aI27
aI147
aasS'2TPR'
p823
(lp824
(lp825
I1
aI3
aI481
aasS'1OQR'
p826
(lp827
(lp828
I9
aI1
aI104
aasS'3SQ1'
p829
(lp830
(lp831
I6
aI104
aI234
aa(lp832
I7
aI107
aI766
aasS'3SQ0'
p833
(lp834
(lp835
I6
aI104
aI234
aa(lp836
I7
aI107
aI766
aasS'1GRT'
p837
(lp838
(lp839
I1
aI7
aI478
aasS'3SQ2'
p840
(lp841
(lp842
I6
aI104
aI234
aa(lp843
I7
aI107
aI766
aasS'3SQ4'
p844
(lp845
(lp846
I6
aI104
aI234
aa(lp847
I7
aI107
aI766
aasS'5GRT'
p848
(lp849
(lp850
I1
aI1
aI461
aasS'1FEB'
p851
(lp852
(lp853
I1
aI3
aI481
aasS'3UMY'
p854
(lp855
(lp856
I15
aI2
aI68
aa(lp857
I16
aI160
aI229
aa(lp858
I8
aI12
aI227
aasS'4QNQ'
p859
(lp860
(lp861
I10
aI1
aI233
aasS'1CJE'
p862
(lp863
(lp864
I9
aI35
aI174
aasS'1I2A'
p865
(lp866
(lp867
I8
aI8
aI211
aasS'3WIY'
p868
(lp869
(lp870
I10
aI161
aI320
aasS'3WIX'
p871
(lp872
(lp873
I10
aI161
aI320
aasS'3WIZ'
p874
(lp875
(lp876
I10
aI1
aI233
aasS'1CJS'
p877
(lp878
(lp879
I8
aI8
aI211
aasS'1CJW'
p880
(lp881
(lp882
I2
aI34
aI177
aasS'1I21'
p883
(lp884
(lp885
I2
aI2
aI159
aasS'3Q6J'
p886
(lp887
(lp888
I1
aI26
aI523
aasS'1MAZ'
p889
(lp890
(lp891
I10
aI4
aI214
aasS'4ZIE'
p892
(lp893
(lp894
I14
aI106
aI191
aa(lp895
I10
aI6
aI190
aasS'4ZIG'
p896
(lp897
(lp898
I14
aI106
aI191
aa(lp899
I10
aI6
aI190
aasS'4ZIF'
p900
(lp901
(lp902
I14
aI106
aI191
aa(lp903
I10
aI6
aI190
aasS'2CJO'
p904
(lp905
(lp906
I9
aI1
aI97
aasS'2CJN'
p907
(lp908
(lp909
I9
aI1
aI97
aasS'1WRI'
p910
(lp911
(lp912
I9
aI1
aI93
aasS'2O2N'
p913
(lp914
(lp915
I10
aI1
aI233
aasS'4ZII'
p916
(lp917
(lp918
I14
aI106
aI191
aa(lp919
I10
aI6
aI190
aasS'4ZIH'
p920
(lp921
(lp922
I14
aI106
aI191
aa(lp923
I10
aI6
aI190
aasS'4DU3'
p924
(lp925
(lp926
I6
aI104
aI234
aa(lp927
I7
aI107
aI766
aasS'4DU1'
p928
(lp929
(lp930
I6
aI104
aI234
aa(lp931
I7
aI107
aI766
aasS'4DU4'
p932
(lp933
(lp934
I6
aI104
aI234
aa(lp935
I7
aI107
aI766
aasS'3B2G'
p936
(lp937
(lp938
I9
aI1
aI99
aasS'3B2F'
p939
(lp940
(lp941
I9
aI2
aI148
aasS'1UFH'
p942
(lp943
(lp944
I2
aI8
aI180
aasS'3DJG'
p945
(lp946
(lp947
I1
aI51
aI522
aasS'2M03'
p948
(lp949
(lp950
I10
aI1
aI233
aasS'1ON0'
p951
(lp952
(lp953
I2
aI1
aI156
aasS'4GR1'
p954
(lp955
(lp956
I1
aI7
aI478
aasS'3K5M'
p957
(lp958
(lp959
I7
aI71
aI782
aasS'1ZK7'
p960
(lp961
(lp962
I1
aI92
aI560
aasS'3ZLO'
p963
(lp964
(lp965
I10
aI1
aI233
aasS'3ZLN'
p966
(lp967
(lp968
I10
aI1
aI233
aasS'3QER'
p969
(lp970
(lp971
I6
aI104
aI234
aa(lp972
I7
aI107
aI766
aasS'1WNS'
p973
(lp974
(lp975
I21
aI686
aI853
aa(lp976
I7
aI1381
aI1671
aa(lp977
I7
aI1
aI410
aasS'3K5N'
p978
(lp979
(lp980
I7
aI71
aI782
aasS'4FLV'
p981
(lp982
(lp983
I7
aI1
aI770
aasS'4FLW'
p984
(lp985
(lp986
I7
aI1
aI770
aasS'4FLT'
p987
(lp988
(lp989
I7
aI1
aI770
aasS'4FLU'
p990
(lp991
(lp992
I7
aI1
aI770
aasS'4FLZ'
p993
(lp994
(lp995
I7
aI1
aI770
aasS'1BO4'
p996
(lp997
(lp998
I2
aI77
aI164
aasS'4FLX'
p999
(lp1000
(lp1001
I7
aI1
aI770
aasS'4FLY'
p1002
(lp1003
(lp1004
I7
aI1
aI770
aasS'3QEV'
p1005
(lp1006
(lp1007
I6
aI104
aI234
aa(lp1008
I7
aI107
aI766
aasS'2OZS'
p1009
(lp1010
(lp1011
I6
aI104
aI234
aa(lp1012
I7
aI107
aI766
aasS'2BEI'
p1013
(lp1014
(lp1015
I2
aI4
aI168
aasS'3FC4'
p1016
(lp1017
(lp1018
I4
aI146
aI906
aa(lp1019
I5
aI1
aI158
aasS'3IWA'
p1020
(lp1021
(lp1022
I1
aI3
aI469
aasS'2X8C'
p1023
(lp1024
(lp1025
I1
aI100
aI598
aasS'2X8G'
p1026
(lp1027
(lp1028
I1
aI100
aI598
aasS'3NS1'
p1029
(lp1030
(lp1031
I4
aI538
aI1308
aa(lp1032
I5
aI1
aI165
aasS'2MH7'
p1033
(lp1034
(lp1035
I9
aI8
aI126
aasS'2OZM'
p1036
(lp1037
(lp1038
I6
aI104
aI234
aa(lp1039
I7
aI107
aI766
aasS'4LX9'
p1040
(lp1041
(lp1042
I2
aI8
aI167
aasS'3LB8'
p1043
(lp1044
(lp1045
I9
aI1
aI104
aasS'2E3T'
p1046
(lp1047
(lp1048
I3
aI239
aI514
aa(lp1049
I4
aI538
aI1307
aa(lp1050
I5
aI1
aI164
aasS'4LXD'
p1051
(lp1052
(lp1053
I10
aI11
aI239
aasS'2GV9'
p1054
(lp1055
(lp1056
I7
aI178
aI1078
aasS'4C80'
p1057
(lp1058
(lp1059
I4
aI146
aI906
aa(lp1060
I5
aI1
aI158
aasS'2MHS'
p1061
(lp1062
(lp1063
I10
aI161
aI320
aasS'2X8H'
p1064
(lp1065
(lp1066
I1
aI100
aI598
aasS'1LPF'
p1067
(lp1068
(lp1069
I1
aI2
aI466
aasS'4JWS'
p1070
(lp1071
(lp1072
I9
aI1
aI104
aasS'1FEC'
p1073
(lp1074
(lp1075
I1
aI3
aI481
aasS'1AF3'
p1076
(lp1077
(lp1078
I10
aI1
aI196
aasS'4JWU'
p1079
(lp1080
(lp1081
I9
aI1
aI104
aasS'3OC4'
p1082
(lp1083
(lp1084
I1
aI2
aI438
aasS'1WN7'
p1085
(lp1086
(lp1087
I21
aI686
aI853
aa(lp1088
I7
aI1381
aI1671
aa(lp1089
I7
aI1
aI410
aasS'2JM6'
p1090
(lp1091
(lp1092
I10
aI178
aI306
aasS'1NDA'
p1093
(lp1094
(lp1095
I1
aI5
aI483
aasS'1K3K'
p1096
(lp1097
(lp1098
I22
aI42
aI103
aa(lp1099
I10
aI79
aI135
aasS'1GSN'
p1100
(lp1101
(lp1102
I1
aI7
aI478
aasS'3EUB'
p1103
(lp1104
(lp1105
I4
aI538
aI1308
aa(lp1106
I5
aI1
aI165
aasS'1OJT'
p1107
(lp1108
(lp1109
I1
aI3
aI472
aasS'3DJJ'
p1110
(lp1111
(lp1112
I1
aI51
aI522
aasS'2X99'
p1113
(lp1114
(lp1115
I1
aI100
aI598
aasS'1WWZ'
p1116
(lp1117
(lp1118
I2
aI22
aI144
aasS'4LQ4'
p1119
(lp1120
(lp1121
I8
aI8
aI211
aasS'3K5L'
p1122
(lp1123
(lp1124
I7
aI71
aI782
aasS'4L8A'
p1125
(lp1126
(lp1127
I2
aI1
aI162
aasS'2RAB'
p1128
(lp1129
(lp1130
I1
aI2
aI463
aasS'4KVX'
p1131
(lp1132
(lp1133
I2
aI3
aI150
aasS'3WCQ'
p1134
(lp1135
(lp1136
I9
aI1
aI96
aasS'3AM9'
p1137
(lp1138
(lp1139
I4
aI538
aI1308
aa(lp1140
I5
aI1
aI165
aasS'3INQ'
p1141
(lp1142
(lp1143
I10
aI1
aI233
aasS'4KVM'
p1144
(lp1145
(lp1146
I2
aI3
aI150
aasS'1ZY3'
p1147
(lp1148
(lp1149
I10
aI5
aI193
aasS'4KVO'
p1150
(lp1151
(lp1152
I2
aI3
aI150
aasS'1BZL'
p1153
(lp1154
(lp1155
I1
aI6
aI484
aasS'4UJC'
p1156
(lp1157
(lp1158
I18
aI1
aI76
aasS'1ZY8'
p1159
(lp1160
(lp1161
I1
aI27
aI509
aasS'1PDX'
p1162
(lp1163
(lp1164
I9
aI1
aI104
aasS'2EQ9'
p1165
(lp1166
(lp1167
I20
aI3
aI39
aasS'3U56'
p1168
(lp1169
(lp1170
I15
aI2
aI68
aa(lp1171
I16
aI160
aI229
aa(lp1172
I8
aI12
aI227
aasS'2F5I'
p1173
(lp1174
(lp1175
I2
aI6
aI156
aasS'1MK4'
p1176
(lp1177
(lp1178
I2
aI1
aI127
aasS'1MK3'
p1179
(lp1180
(lp1181
I10
aI5
aI193
aasS'3NE7'
p1182
(lp1183
(lp1184
I2
aI2
aI159
aasS'3NDK'
p1185
(lp1186
(lp1187
I6
aI104
aI234
aa(lp1188
I7
aI107
aI766
aasS'4PPI'
p1189
(lp1190
(lp1191
I10
aI1
aI233
aasS'1D5A'
p1192
(lp1193
(lp1194
I7
aI1
aI772
aasS'3SR6'
p1195
(lp1196
(lp1197
I4
aI538
aI1308
aa(lp1198
I5
aI1
aI165
aasS'3TG8'
p1199
(lp1200
(lp1201
I15
aI2
aI68
aa(lp1202
I16
aI160
aI229
aa(lp1203
I8
aI12
aI227
aasS'1Q8I'
p1204
(lp1205
(lp1206
I7
aI71
aI782
aasS'4L89'
p1207
(lp1208
(lp1209
I2
aI1
aI162
aasS'4K8Z'
p1210
(lp1211
(lp1212
I7
aI1
aI774
aasS'4V6V'
p1213
(lp1214
(lp1215
I23
aI6
aI411
aa(lp1216
I24
aI4
aI131
aasS'4K8X'
p1217
(lp1218
(lp1219
I7
aI1
aI773
aasS'1I1D'
p1220
(lp1221
(lp1222
I2
aI2
aI159
aasS'4V6L'
p1223
(lp1224
(lp1225
I24
aI13
aI155
aasS'3BDJ'
p1226
(lp1227
(lp1228
I4
aI538
aI1308
aa(lp1229
I5
aI1
aI165
aasS'2CFY'
p1230
(lp1231
(lp1232
I1
aI151
aI649
aasS'4V6K'
p1233
(lp1234
(lp1235
I24
aI13
aI155
aasS'4PTF'
p1236
(lp1237
(lp1238
I7
aI121
aI581
aa(lp1239
I7
aI779
aI1165
aasS'1GEU'
p1240
(lp1241
(lp1242
I1
aI2
aI450
aasS'1GET'
p1243
(lp1244
(lp1245
I1
aI2
aI450
aasS'1GES'
p1246
(lp1247
(lp1248
I1
aI2
aI450
aasS'1GER'
p1249
(lp1250
(lp1251
I1
aI2
aI450
aasS'1RFK'
p1252
(lp1253
(lp1254
I9
aI1
aI99
aasS'3F0A'
p1255
(lp1256
(lp1257
I2
aI1
aI162
aasS'1DGJ'
p1258
(lp1259
(lp1260
I4
aI158
aI907
aa(lp1261
I5
aI3
aI158
aasS'3PGP'
p1262
(lp1263
(lp1264
I2
aI1
aI162
aasS'2X7B'
p1265
(lp1266
(lp1267
I2
aI8
aI167
aasS'4WMR'
p1268
(lp1269
(lp1270
I10
aI161
aI320
aasS'4KI4'
p1271
(lp1272
(lp1273
I6
aI104
aI234
aa(lp1274
I7
aI107
aI766
aasS'4KI6'
p1275
(lp1276
(lp1277
I6
aI104
aI234
aa(lp1278
I7
aI107
aI766
aasS'4K8D'
p1279
(lp1280
(lp1281
I1
aI92
aI560
aasS'3FIX'
p1282
(lp1283
(lp1284
I2
aI8
aI183
aasS'4EM4'
p1285
(lp1286
(lp1287
I1
aI1
aI438
aasS'4EM3'
p1288
(lp1289
(lp1290
I1
aI1
aI438
aasS'3AN1'
p1291
(lp1292
(lp1293
I3
aI239
aI514
aa(lp1294
I4
aI538
aI1307
aa(lp1295
I5
aI1
aI164
aasS'4ADW'
p1296
(lp1297
(lp1298
I1
aI16
aI504
aasS'4DNA'
p1299
(lp1300
(lp1301
I1
aI2
aI462
aasS'1YJI'
p1302
(lp1303
(lp1304
I9
aI1
aI104
aasS'1YJJ'
p1305
(lp1306
(lp1307
I9
aI1
aI104
aasS'3ILC'
p1308
(lp1309
(lp1310
I10
aI1
aI233
aasS'1N5W'
p1311
(lp1312
(lp1313
I5
aI1
aI158
aasS'1JOA'
p1314
(lp1315
(lp1316
I1
aI2
aI447
aasS'1N5X'
p1317
(lp1318
(lp1319
I4
aI538
aI1308
aa(lp1320
I5
aI1
aI165
aasS'3HUI'
p1321
(lp1322
(lp1323
I9
aI1
aI104
aasS'4EMW'
p1324
(lp1325
(lp1326
I1
aI1
aI438
aasS'3PL7'
p1327
(lp1328
(lp1329
I14
aI106
aI191
aa(lp1330
I10
aI6
aI190
aasS'3C26'
p1331
(lp1332
(lp1333
I2
aI84
aI156
aasS'1XLN'
p1334
(lp1335
(lp1336
I9
aI1
aI104
aasS'3UIQ'
p1337
(lp1338
(lp1339
I6
aI104
aI234
aa(lp1340
I7
aI107
aI766
aasS'2XA0'
p1341
(lp1342
(lp1343
I10
aI11
aI239
aasS'1FFU'
p1344
(lp1345
(lp1346
I5
aI1
aI156
aasS'1ZKQ'
p1347
(lp1348
(lp1349
I1
aI32
aI524
aasS'1L6U'
p1350
(lp1351
(lp1352
I9
aI35
aI174
aasS'3ZYV'
p1353
(lp1354
(lp1355
I3
aI242
aI499
aa(lp1356
I4
aI563
aI1310
aa(lp1357
I5
aI11
aI166
aasS'3NVY'
p1358
(lp1359
(lp1360
I4
aI538
aI1308
aa(lp1361
I5
aI1
aI165
aasS'1WAF'
p1362
(lp1363
(lp1364
I6
aI104
aI234
aa(lp1365
I7
aI107
aI766
aasS'3NVZ'
p1366
(lp1367
(lp1368
I4
aI538
aI1308
aa(lp1369
I5
aI1
aI165
aasS'1WAJ'
p1370
(lp1371
(lp1372
I6
aI104
aI234
aa(lp1373
I7
aI107
aI766
aasS'3NVW'
p1374
(lp1375
(lp1376
I4
aI538
aI1308
aa(lp1377
I5
aI1
aI165
aasS'3NVV'
p1378
(lp1379
(lp1380
I4
aI538
aI1308
aa(lp1381
I5
aI1
aI165
aasS'3ZYY'
p1382
(lp1383
(lp1384
I9
aI1
aI100
aasS'1GXF'
p1385
(lp1386
(lp1387
I1
aI6
aI484
aasS'1J7A'
p1388
(lp1389
(lp1390
I9
aI1
aI99
aasS'1J7B'
p1391
(lp1392
(lp1393
I9
aI1
aI99
aasS'1J7C'
p1394
(lp1395
(lp1396
I9
aI1
aI99
aasS'4CIM'
p1397
(lp1398
(lp1399
I10
aI5
aI193
aasS'4CIN'
p1400
(lp1401
(lp1402
I10
aI1
aI233
aasS'4LVT'
p1403
(lp1404
(lp1405
I10
aI11
aI239
aasS'2W0H'
p1406
(lp1407
(lp1408
I1
aI2
aI484
aasS'3QES'
p1409
(lp1410
(lp1411
I6
aI104
aI234
aa(lp1412
I7
aI107
aI766
aasS'1WSX'
p1413
(lp1414
(lp1415
I10
aI178
aI306
aasS'3K5O'
p1416
(lp1417
(lp1418
I7
aI71
aI782
aasS'3QEP'
p1419
(lp1420
(lp1421
I6
aI104
aI234
aa(lp1422
I7
aI107
aI766
aasS'3QEW'
p1423
(lp1424
(lp1425
I6
aI104
aI234
aa(lp1426
I7
aI107
aI766
aasS'3PK1'
p1427
(lp1428
(lp1429
I14
aI106
aI191
aa(lp1430
I10
aI6
aI190
aasS'3QET'
p1431
(lp1432
(lp1433
I6
aI104
aI234
aa(lp1434
I7
aI107
aI766
aasS'3QEX'
p1435
(lp1436
(lp1437
I6
aI104
aI234
aa(lp1438
I7
aI107
aI766
aasS'3I9S'
p1439
(lp1440
(lp1441
I2
aI11
aI181
aasS'4DTR'
p1442
(lp1443
(lp1444
I6
aI104
aI234
aa(lp1445
I7
aI107
aI766
aasS'1TY4'
p1446
(lp1447
(lp1448
I10
aI79
aI280
aasS'3QEI'
p1449
(lp1450
(lp1451
I6
aI104
aI234
aa(lp1452
I7
aI107
aI766
aasS'3CVA'
p1453
(lp1454
(lp1455
I10
aI1
aI233
aasS'2M56'
p1456
(lp1457
(lp1458
I9
aI1
aI104
aasS'4FXC'
p1459
(lp1460
(lp1461
I9
aI1
aI98
aasS'1FO4'
p1462
(lp1463
(lp1464
I4
aI538
aI1308
aa(lp1465
I5
aI1
aI165
aasS'2LR1'
p1466
(lp1467
(lp1468
I14
aI106
aI191
aa(lp1469
I10
aI6
aI190
aasS'3IC9'
p1470
(lp1471
(lp1472
I1
aI1
aI472
aasS'1U6M'
p1473
(lp1474
(lp1475
I2
aI102
aI186
aasS'1JEH'
p1476
(lp1477
(lp1478
I1
aI14
aI493
aasS'1XAN'
p1479
(lp1480
(lp1481
I1
aI1
aI461
aasS'1GJH'
p1482
(lp1483
(lp1484
I10
aI11
aI239
aasS'1MOK'
p1485
(lp1486
(lp1487
I1
aI26
aI523
aasS'2BC1'
p1488
(lp1489
(lp1490
I1
aI1
aI456
aasS'1VDV'
p1491
(lp1492
(lp1493
I4
aI538
aI1308
aa(lp1494
I5
aI1
aI165
aasS'3ZK6'
p1495
(lp1496
(lp1497
I10
aI1
aI233
aasS'2P5G'
p1498
(lp1499
(lp1500
I6
aI104
aI234
aa(lp1501
I7
aI107
aI766
aasS'3SNN'
p1502
(lp1503
(lp1504
I6
aI104
aI234
aa(lp1505
I7
aI107
aI766
aasS'2P5O'
p1506
(lp1507
(lp1508
I6
aI104
aI234
aa(lp1509
I7
aI107
aI766
aasS'3L4P'
p1510
(lp1511
(lp1512
I4
aI146
aI906
aa(lp1513
I5
aI1
aI158
aasS'1MO9'
p1514
(lp1515
(lp1516
I1
aI26
aI523
aasS'3ICT'
p1517
(lp1518
(lp1519
I1
aI2
aI578
aasS'2BT6'
p1520
(lp1521
(lp1522
I9
aI35
aI174
aasS'3ICS'
p1523
(lp1524
(lp1525
I1
aI2
aI578
aasS'3ICR'
p1526
(lp1527
(lp1528
I1
aI2
aI578
aasS'2ME8'
p1529
(lp1530
(lp1531
I10
aI1
aI233
aasS'4YFJ'
p1532
(lp1533
(lp1534
I2
aI62
aI170
aasS'1U63'
p1535
(lp1536
(lp1537
I8
aI8
aI211
aasS'1R2G'
p1538
(lp1539
(lp1540
I10
aI1
aI233
aasS'1GAQ'
p1541
(lp1542
(lp1543
I9
aI2
aI148
aasS'1YSG'
p1544
(lp1545
(lp1546
I10
aI1
aI233
aasS'1YX0'
p1547
(lp1548
(lp1549
I2
aI18
aI151
aasS'1YSI'
p1550
(lp1551
(lp1552
I10
aI1
aI233
aasS'4F6A'
p1553
(lp1554
(lp1555
I2
aI51
aI150
aasS'1L6V'
p1556
(lp1557
(lp1558
I9
aI35
aI174
aasS'1BOB'
p1559
(lp1560
(lp1561
I19
aI1
aI320
aasS'1R2D'
p1562
(lp1563
(lp1564
I10
aI1
aI233
aasS'4E0A'
p1565
(lp1566
(lp1567
I2
aI12
aI150
aasS'3K58'
p1568
(lp1569
(lp1570
I7
aI71
aI782
aasS'3SI6'
p1571
(lp1572
(lp1573
I6
aI104
aI234
aa(lp1574
I7
aI107
aI766
aasS'3K57'
p1575
(lp1576
(lp1577
I7
aI71
aI782
aasS'1PQ0'
p1578
(lp1579
(lp1580
I10
aI1
aI233
aasS'2R7H'
p1581
(lp1582
(lp1583
I2
aI67
aI177
aasS'3FDM'
p1584
(lp1585
(lp1586
I10
aI1
aI233
aasS'2GH5'
p1587
(lp1588
(lp1589
I1
aI51
aI522
aasS'3IO9'
p1590
(lp1591
(lp1592
I10
aI161
aI320
aasS'1QQC'
p1593
(lp1594
(lp1595
I7
aI1
aI772
aasS'2I79'
p1596
(lp1597
(lp1598
I2
aI5
aI171
aasS'2O1Y'
p1599
(lp1600
(lp1601
I10
aI1
aI233
aasS'3IO8'
p1602
(lp1603
(lp1604
I10
aI1
aI233
aasS'4KLW'
p1605
(lp1606
(lp1607
I2
aI1
aI162
aasS'2ROD'
p1608
(lp1609
(lp1610
I10
aI178
aI306
aasS'4YTY'
p1611
(lp1612
(lp1613
I3
aI239
aI514
aa(lp1614
I4
aI538
aI1307
aa(lp1615
I5
aI1
aI164
aasS'1KRH'
p1616
(lp1617
(lp1618
I12
aI34
aI347
aa(lp1619
I9
aI6
aI132
aasS'2ROC'
p1620
(lp1621
(lp1622
I10
aI178
aI306
aasS'4YTZ'
p1623
(lp1624
(lp1625
I3
aI239
aI514
aa(lp1626
I4
aI538
aI1307
aa(lp1627
I5
aI1
aI164
aasS'1FEA'
p1628
(lp1629
(lp1630
I1
aI3
aI481
aasS'4AIL'
p1631
(lp1632
(lp1633
I7
aI1
aI775
aasS'2W55'
p1634
(lp1635
(lp1636
I4
aI2
aI772
aasS'1S60'
p1637
(lp1638
(lp1639
I2
aI1
aI145
aasS'2B4D'
p1640
(lp1641
(lp1642
I2
aI6
aI156
aasS'4WQM'
p1643
(lp1644
(lp1645
I12
aI19
aI325
aa(lp1646
I9
aI4
aI94
aasS'3NRZ'
p1647
(lp1648
(lp1649
I4
aI538
aI1308
aa(lp1650
I5
aI1
aI165
aasS'3FDL'
p1651
(lp1652
(lp1653
I10
aI1
aI233
aasS'4USA'
p1654
(lp1655
(lp1656
I4
aI146
aI906
aa(lp1657
I5
aI1
aI158
aasS'2B4B'
p1658
(lp1659
(lp1660
I2
aI6
aI156
aasS'4V69'
p1661
(lp1662
(lp1663
I24
aI13
aI155
aasS'2VOH'
p1664
(lp1665
(lp1666
I10
aI1
aI151
aasS'4OAD'
p1667
(lp1668
(lp1669
I2
aI1
aI162
aasS'4OAE'
p1670
(lp1671
(lp1672
I2
aI1
aI162
aasS'4KHQ'
p1673
(lp1674
(lp1675
I6
aI104
aI234
aa(lp1676
I7
aI107
aI766
aasS'4M3Y'
p1677
(lp1678
(lp1679
I6
aI104
aI234
aa(lp1680
I7
aI107
aI766
aasS'4M3Z'
p1681
(lp1682
(lp1683
I6
aI104
aI234
aa(lp1684
I7
aI107
aI766
aasS'4KHW'
p1685
(lp1686
(lp1687
I6
aI104
aI234
aa(lp1688
I7
aI107
aI766
aasS'1R2H'
p1689
(lp1690
(lp1691
I10
aI1
aI233
aasS'4FVM'
p1692
(lp1693
(lp1694
I7
aI348
aI1399
aasS'4QVT'
p1695
(lp1696
(lp1697
I2
aI1
aI141
aasS'2PVO'
p1698
(lp1699
(lp1700
I9
aI1
aI97
aasS'3QNN'
p1701
(lp1702
(lp1703
I6
aI104
aI234
aa(lp1704
I7
aI107
aI766
aasS'3QNO'
p1705
(lp1706
(lp1707
I6
aI104
aI234
aa(lp1708
I7
aI107
aI766
aasS'1VKC'
p1709
(lp1710
(lp1711
I2
aI20
aI158
aasS'2PVG'
p1712
(lp1713
(lp1714
I9
aI1
aI97
aasS'4QVF'
p1715
(lp1716
(lp1717
I10
aI1
aI233
aasS'4QVE'
p1718
(lp1719
(lp1720
I10
aI1
aI233
aasS'1ZDL'
p1721
(lp1722
(lp1723
I1
aI32
aI524
aasS'2NVK'
p1724
(lp1725
(lp1726
I1
aI88
aI596
aasS'2Y5C'
p1727
(lp1728
(lp1729
I9
aI29
aI176
aasS'4QVI'
p1730
(lp1731
(lp1732
I15
aI2
aI68
aa(lp1733
I16
aI160
aI229
aa(lp1734
I8
aI12
aI227
aasS'2DXQ'
p1735
(lp1736
(lp1737
I2
aI6
aI150
aasS'3LZJ'
p1738
(lp1739
(lp1740
I6
aI104
aI234
aa(lp1741
I7
aI107
aI766
aasS'3LZI'
p1742
(lp1743
(lp1744
I6
aI104
aI234
aa(lp1745
I7
aI107
aI766
aasS'2C3C'
p1746
(lp1747
(lp1748
I1
aI26
aI523
aasS'4US8'
p1749
(lp1750
(lp1751
I4
aI146
aI906
aa(lp1752
I5
aI1
aI158
aasS'4US9'
p1753
(lp1754
(lp1755
I4
aI146
aI906
aa(lp1756
I5
aI1
aI158
aasS'2ME9'
p1757
(lp1758
(lp1759
I10
aI1
aI233
aasS'3FB3'
p1760
(lp1761
(lp1762
I2
aI8
aI161
aasS'4FD6'
p1763
(lp1764
(lp1765
I13
aI10
aI222
aasS'4FD7'
p1766
(lp1767
(lp1768
I13
aI32
aI212
aasS'4FD4'
p1769
(lp1770
(lp1771
I13
aI18
aI217
aasS'4FD5'
p1772
(lp1773
(lp1774
I13
aI10
aI222
aasS'4HW4'
p1775
(lp1776
(lp1777
I10
aI161
aI320
aasS'2XPX'
p1778
(lp1779
(lp1780
I10
aI17
aI211
aasS'3UNI'
p1781
(lp1782
(lp1783
I4
aI538
aI1308
aa(lp1784
I5
aI1
aI165
aasS'4KUA'
p1785
(lp1786
(lp1787
I2
aI1
aI162
aasS'4HW3'
p1788
(lp1789
(lp1790
I10
aI161
aI320
aasS'4HW2'
p1791
(lp1792
(lp1793
I10
aI161
aI320
aasS'3UNC'
p1794
(lp1795
(lp1796
I4
aI538
aI1308
aa(lp1797
I5
aI1
aI165
aasS'3UNA'
p1798
(lp1799
(lp1800
I4
aI538
aI1308
aa(lp1801
I5
aI1
aI165
aasS'2B3U'
p1802
(lp1803
(lp1804
I2
aI6
aI156
aasS'2M5B'
p1805
(lp1806
(lp1807
I10
aI17
aI211
aasS'2B3V'
p1808
(lp1809
(lp1810
I2
aI6
aI156
aasS'1JRO'
p1811
(lp1812
(lp1813
I4
aI2
aI772
aasS'4AG7'
p1814
(lp1815
(lp1816
I2
aI6
aI165
aasS'1ZXI'
p1817
(lp1818
(lp1819
I5
aI1
aI158
aasS'4REO'
p1820
(lp1821
(lp1822
I15
aI2
aI68
aa(lp1823
I16
aI160
aI229
aa(lp1824
I8
aI12
aI227
aasS'1FRD'
p1825
(lp1826
(lp1827
I9
aI1
aI97
aasS'4BMH'
p1828
(lp1829
(lp1830
I25
aI74
aI243
aa(lp1831
I2
aI181
aI244
aasS'3NGI'
p1832
(lp1833
(lp1834
I6
aI104
aI234
aa(lp1835
I7
aI107
aI766
aasS'4AG9'
p1836
(lp1837
(lp1838
I2
aI6
aI165
aasS'1YSN'
p1839
(lp1840
(lp1841
I10
aI1
aI233
aasS'1FRR'
p1842
(lp1843
(lp1844
I9
aI1
aI95
aasS'3CXS'
p1845
(lp1846
(lp1847
I2
aI22
aI182
aasS'3CXP'
p1848
(lp1849
(lp1850
I2
aI22
aI182
aasS'3CXQ'
p1851
(lp1852
(lp1853
I2
aI22
aI182
aasS'2HW8'
p1854
(lp1855
(lp1856
I15
aI2
aI68
aa(lp1857
I16
aI160
aI229
aa(lp1858
I8
aI12
aI227
aasS'1E6E'
p1859
(lp1860
(lp1861
I9
aI35
aI174
aasS'1JRP'
p1862
(lp1863
(lp1864
I4
aI2
aI772
aasS'1TYP'
p1865
(lp1866
(lp1867
I1
aI3
aI481
aasS'2ATQ'
p1868
(lp1869
(lp1870
I6
aI104
aI234
aa(lp1871
I7
aI107
aI766
aasS'4BD6'
p1872
(lp1873
(lp1874
I14
aI106
aI191
aa(lp1875
I10
aI6
aI190
aasS'4BD7'
p1876
(lp1877
(lp1878
I14
aI106
aI191
aa(lp1879
I10
aI6
aI190
aasS'4BD2'
p1880
(lp1881
(lp1882
I14
aI106
aI191
aa(lp1883
I10
aI6
aI190
aasS'3DGZ'
p1884
(lp1885
(lp1886
I1
aI32
aI524
aasS'3SJJ'
p1887
(lp1888
(lp1889
I6
aI104
aI234
aa(lp1890
I7
aI107
aI766
aasS'3B9J'
p1891
(lp1892
(lp1893
I4
aI538
aI1308
aa(lp1894
I5
aI1
aI165
aasS'1OFF'
p1895
(lp1896
(lp1897
I9
aI1
aI97
aasS'4FM1'
p1898
(lp1899
(lp1900
I7
aI1
aI770
aasS'4FM0'
p1901
(lp1902
(lp1903
I7
aI1
aI770
aasS'3W9C'
p1904
(lp1905
(lp1906
I9
aI1
aI104
aasS'4FM2'
p1907
(lp1908
(lp1909
I7
aI1
aI770
aasS'1OQQ'
p1910
(lp1911
(lp1912
I9
aI1
aI104
aasS'4BDU'
p1913
(lp1914
(lp1915
I14
aI106
aI191
aa(lp1916
I10
aI6
aI190
aasS'3ZLR'
p1917
(lp1918
(lp1919
I10
aI1
aI233
aasS'4EHR'
p1920
(lp1921
(lp1922
I10
aI1
aI233
aasS'4ITK'
p1923
(lp1924
(lp1925
I9
aI1
aI94
aasS'1MZP'
p1926
(lp1927
(lp1928
I8
aI10
aI218
aasS'1QOG'
p1929
(lp1930
(lp1931
I9
aI1
aI99
aasS'1QOF'
p1932
(lp1933
(lp1934
I9
aI1
aI99
aasS'1QOB'
p1935
(lp1936
(lp1937
I9
aI1
aI99
aasS'1QOA'
p1938
(lp1939
(lp1940
I9
aI1
aI99
aasS'2OYQ'
p1941
(lp1942
(lp1943
I6
aI104
aI234
aa(lp1944
I7
aI107
aI766
aasS'2JGU'
p1945
(lp1946
(lp1947
I7
aI1
aI775
aasS'2WLB'
p1948
(lp1949
(lp1950
I9
aI494
aI614
aasS'4H89'
p1951
(lp1952
(lp1953
I2
aI7
aI173
aasS'3MQP'
p1954
(lp1955
(lp1956
I10
aI10
aI173
aasS'1ZX9'
p1957
(lp1958
(lp1959
I1
aI92
aI560
aasS'3SP7'
p1960
(lp1961
(lp1962
I10
aI1
aI233
aasS'1E9M'
p1963
(lp1964
(lp1965
I9
aI1
aI107
aasS'3LAD'
p1966
(lp1967
(lp1968
I1
aI2
aI466
aasS'2N0S'
p1969
(lp1970
(lp1971
I9
aI8
aI126
aasS'1DOX'
p1972
(lp1973
(lp1974
I9
aI1
aI96
aasS'1DOY'
p1975
(lp1976
(lp1977
I9
aI1
aI96
aasS'1S3Z'
p1978
(lp1979
(lp1980
I2
aI1
aI145
aasS'1NHQ'
p1981
(lp1982
(lp1983
I1
aI2
aI447
aasS'1BXL'
p1984
(lp1985
(lp1986
I10
aI17
aI211
aasS'1NHS'
p1987
(lp1988
(lp1989
I1
aI2
aI447
aasS'1NHR'
p1990
(lp1991
(lp1992
I1
aI2
aI447
aasS'2CNS'
p1993
(lp1994
(lp1995
I2
aI27
aI147
aasS'1E10'
p1996
(lp1997
(lp1998
I9
aI20
aI121
aasS'2PSW'
p1999
(lp2000
(lp2001
I2
aI2
aI154
aasS'1G5M'
p2002
(lp2003
(lp2004
I10
aI11
aI239
aasS'1DOI'
p2005
(lp2006
(lp2007
I9
aI39
aI122
aasS'4K5A'
p2008
(lp2009
(lp2010
I10
aI5
aI193
aasS'4K5B'
p2011
(lp2012
(lp2013
I10
aI5
aI193
aasS'1GPX'
p2014
(lp2015
(lp2016
I9
aI2
aI103
aasS'4M52'
p2017
(lp2018
(lp2019
I1
aI4
aI454
aasS'2V6O'
p2020
(lp2021
(lp2022
I1
aI100
aI596
aasS'1BWC'
p2023
(lp2024
(lp2025
I1
aI51
aI522
aasS'4KHN'
p2026
(lp2027
(lp2028
I6
aI104
aI234
aa(lp2029
I7
aI107
aI766
aasS'4KHS'
p2030
(lp2031
(lp2032
I6
aI104
aI234
aa(lp2033
I7
aI107
aI766
aasS'3QB8'
p2034
(lp2035
(lp2036
I26
aI110
aI197
aasS'4N59'
p2037
(lp2038
(lp2039
I11
aI14
aI206
aa(lp2040
I9
aI1
aI115
aasS'4N58'
p2041
(lp2042
(lp2043
I11
aI14
aI206
aa(lp2044
I9
aI1
aI115
aasS'4KHU'
p2045
(lp2046
(lp2047
I6
aI104
aI234
aa(lp2048
I7
aI107
aI766
aasS'4KLV'
p2049
(lp2050
(lp2051
I2
aI1
aI162
aasS'4UA3'
p2052
(lp2053
(lp2054
I27
aI33
aI178
aasS'4KHY'
p2055
(lp2056
(lp2057
I6
aI104
aI234
aa(lp2058
I7
aI107
aI766
aasS'1I7H'
p2059
(lp2060
(lp2061
I9
aI15
aI110
aasS'3KJ0'
p2062
(lp2063
(lp2064
I10
aI161
aI320
aasS'3KJ1'
p2065
(lp2066
(lp2067
I10
aI161
aI320
aasS'3KJ2'
p2068
(lp2069
(lp2070
I10
aI161
aI320
aasS'2WBA'
p2071
(lp2072
(lp2073
I1
aI5
aI484
aasS'3CFP'
p2074
(lp2075
(lp2076
I6
aI104
aI234
aa(lp2077
I7
aI107
aI766
aasS'3CFR'
p2078
(lp2079
(lp2080
I6
aI104
aI234
aa(lp2081
I7
aI107
aI766
aasS'3LOD'
p2082
(lp2083
(lp2084
I2
aI35
aI153
aasS'3CFO'
p2085
(lp2086
(lp2087
I6
aI104
aI234
aa(lp2088
I7
aI107
aI766
aasS'2NPX'
p2089
(lp2090
(lp2091
I1
aI2
aI447
aasS'3QBR'
p2092
(lp2093
(lp2094
I10
aI17
aI211
aasS'1AD2'
p2095
(lp2096
(lp2097
I15
aI1
aI67
aa(lp2098
I16
aI159
aI228
aa(lp2099
I8
aI11
aI226
aasS'3GRS'
p2100
(lp2101
(lp2102
I1
aI7
aI478
aasS'3MAQ'
p2103
(lp2104
(lp2105
I7
aI71
aI782
aasS'4Q5V'
p2106
(lp2107
(lp2108
I7
aI337
aI1402
aasS'4UHX'
p2109
(lp2110
(lp2111
I3
aI243
aI445
aa(lp2112
I4
aI580
aI1314
aa(lp2113
I5
aI7
aI160
aasS'1AOG'
p2114
(lp2115
(lp2116
I1
aI6
aI484
aasS'4UHW'
p2117
(lp2118
(lp2119
I3
aI243
aI445
aa(lp2120
I4
aI580
aI1314
aa(lp2121
I5
aI7
aI160
aasS'3IIH'
p2122
(lp2123
(lp2124
I10
aI1
aI233
aasS'2W54'
p2125
(lp2126
(lp2127
I4
aI2
aI772
aasS'4UJE'
p2128
(lp2129
(lp2130
I18
aI1
aI76
aasS'3QKD'
p2131
(lp2132
(lp2133
I10
aI1
aI233
aasS'1WYG'
p2134
(lp2135
(lp2136
I3
aI239
aI514
aa(lp2137
I4
aI538
aI1307
aa(lp2138
I5
aI1
aI164
aasS'3TFY'
p2139
(lp2140
(lp2141
I2
aI2
aI154
aasS'1EBD'
p2142
(lp2143
(lp2144
I1
aI2
aI467
aasS'2A8X'
p2145
(lp2146
(lp2147
I1
aI4
aI454
aasS'4JQ9'
p2148
(lp2149
(lp2150
I1
aI4
aI466
aasS'2WP5'
p2151
(lp2152
(lp2153
I1
aI5
aI486
aasS'2WP6'
p2154
(lp2155
(lp2156
I1
aI5
aI486
aasS'4KOX'
p2157
(lp2158
(lp2159
I2
aI1
aI162
aasS'2JCN'
p2160
(lp2161
(lp2162
I10
aI17
aI211
aasS'4QG3'
p2163
(lp2164
(lp2165
I15
aI2
aI68
aa(lp2166
I16
aI160
aI229
aa(lp2167
I8
aI12
aI227
aasS'2O22'
p2168
(lp2169
(lp2170
I10
aI11
aI239
aasS'2O21'
p2171
(lp2172
(lp2173
I10
aI11
aI239
aasS'3NCI'
p2174
(lp2175
(lp2176
I6
aI104
aI234
aa(lp2177
I7
aI107
aI766
aasS'2XHB'
p2178
(lp2179
(lp2180
I7
aI1
aI772
aasS'1Q9X'
p2181
(lp2182
(lp2183
I6
aI104
aI234
aa(lp2184
I7
aI107
aI766
aasS'1EWY'
p2185
(lp2186
(lp2187
I9
aI1
aI99
aasS'2OV7'
p2188
(lp2189
(lp2190
I15
aI1
aI67
aa(lp2191
I16
aI57
aI137
aasS'1WK4'
p2192
(lp2193
(lp2194
I2
aI1
aI149
aasS'3LDS'
p2195
(lp2196
(lp2197
I6
aI104
aI234
aa(lp2198
I7
aI107
aI766
aasS'2Q4V'
p2199
(lp2200
(lp2201
I2
aI4
aI168
aasS'2WOI'
p2202
(lp2203
(lp2204
I1
aI5
aI486
aasS'4YSW'
p2205
(lp2206
(lp2207
I3
aI239
aI514
aa(lp2208
I4
aI538
aI1307
aa(lp2209
I5
aI1
aI164
aasS'3AH7'
p2210
(lp2211
(lp2212
I9
aI1
aI112
aasS'2WOV'
p2213
(lp2214
(lp2215
I1
aI5
aI486
aasS'2WOW'
p2216
(lp2217
(lp2218
I1
aI5
aI486
aasS'4JX1'
p2219
(lp2220
(lp2221
I9
aI1
aI104
aasS'2O28'
p2222
(lp2223
(lp2224
I2
aI22
aI182
aasS'2Y6W'
p2225
(lp2226
(lp2227
I10
aI5
aI193
aasS'4YWO'
p2228
(lp2229
(lp2230
I1
aI9
aI461
aasS'1KUV'
p2231
(lp2232
(lp2233
I2
aI34
aI177
aasS'1K4Q'
p2234
(lp2235
(lp2236
I1
aI51
aI522
aasS'1KUY'
p2237
(lp2238
(lp2239
I2
aI34
aI177
aasS'1KUX'
p2240
(lp2241
(lp2242
I2
aI34
aI177
aasS'2E1Q'
p2243
(lp2244
(lp2245
I3
aI240
aI525
aa(lp2246
I4
aI539
aI1309
aa(lp2247
I5
aI1
aI165
aasS'1GRH'
p2248
(lp2249
(lp2250
I1
aI7
aI478
aasS'1V97'
p2251
(lp2252
(lp2253
I4
aI538
aI1308
aa(lp2254
I5
aI1
aI165
aasS'1NOY'
p2255
(lp2256
(lp2257
I7
aI104
aI867
aasS'1NOZ'
p2258
(lp2259
(lp2260
I7
aI104
aI867
aasS'4NXY'
p2261
(lp2262
(lp2263
I2
aI37
aI187
aasS'3FAH'
p2264
(lp2265
(lp2266
I4
aI146
aI906
aa(lp2267
I5
aI1
aI158
aasS'1AYF'
p2268
(lp2269
(lp2270
I9
aI35
aI174
aasS'2YV6'
p2271
(lp2272
(lp2273
I10
aI17
aI211
aasS'4C7Z'
p2274
(lp2275
(lp2276
I4
aI146
aI906
aa(lp2277
I5
aI1
aI158
aasS'2MJE'
p2278
(lp2279
(lp2280
I9
aI18
aI167
aasS'2O2M'
p2281
(lp2282
(lp2283
I10
aI1
aI233
aasS'4C7Y'
p2284
(lp2285
(lp2286
I4
aI146
aI906
aa(lp2287
I5
aI1
aI158
aasS'3NHG'
p2288
(lp2289
(lp2290
I6
aI104
aI234
aa(lp2291
I7
aI107
aI766
aasS'4QGB'
p2292
(lp2293
(lp2294
I15
aI2
aI68
aa(lp2295
I16
aI160
aI229
aa(lp2296
I8
aI12
aI227
aasS'2MJD'
p2297
(lp2298
(lp2299
I9
aI18
aI167
aasS'2O2F'
p2300
(lp2301
(lp2302
I10
aI11
aI239
aasS'1CZP'
p2303
(lp2304
(lp2305
I9
aI1
aI99
aasS'3TT2'
p2306
(lp2307
(lp2308
I2
aI199
aI303
aasS'1A70'
p2309
(lp2310
(lp2311
I9
aI2
aI96
aasS'2WPE'
p2312
(lp2313
(lp2314
I1
aI5
aI486
aasS'1Y9K'
p2315
(lp2316
(lp2317
I2
aI18
aI153
aasS'2WPF'
p2318
(lp2319
(lp2320
I1
aI5
aI486
aasS'3ZJ0'
p2321
(lp2322
(lp2323
I25
aI21
aI191
aa(lp2324
I2
aI123
aI206
aasS'2WPC'
p2325
(lp2326
(lp2327
I1
aI5
aI486
aasS'1N71'
p2328
(lp2329
(lp2330
I2
aI46
aI112
aasS'4QUS'
p2331
(lp2332
(lp2333
I2
aI1
aI141
aasS'2FL4'
p2334
(lp2335
(lp2336
I2
aI41
aI141
aasS'1OHU'
p2337
(lp2338
(lp2339
I10
aI79
aI280
aasS'3K59'
p2340
(lp2341
(lp2342
I7
aI71
aI782
aasS'3I3G'
p2343
(lp2344
(lp2345
I2
aI8
aI161
aasS'1R7S'
p2346
(lp2347
(lp2348
I9
aI1
aI104
aasS'2W3L'
p2349
(lp2350
(lp2351
I10
aI11
aI239
aasS'3QOY'
p2352
(lp2353
(lp2354
I15
aI3
aI71
aa(lp2355
I8
aI21
aI229
aasS'3AB5'
p2356
(lp2357
(lp2358
I9
aI1
aI97
aasS'1CLQ'
p2359
(lp2360
(lp2361
I6
aI104
aI234
aa(lp2362
I7
aI107
aI766
aasS'4IEH'
p2363
(lp2364
(lp2365
I10
aI11
aI239
aasS'4PV6'
p2366
(lp2367
(lp2368
I2
aI10
aI152
aasS'4AQ3'
p2369
(lp2370
(lp2371
I10
aI11
aI239
aasS'2KBW'
p2372
(lp2373
(lp2374
I10
aI161
aI320
aasS'3P63'
p2375
(lp2376
(lp2377
I9
aI1
aI99
aasS'4K7Z'
p2378
(lp2379
(lp2380
I1
aI92
aI560
aasS'4U9V'
p2381
(lp2382
(lp2383
I27
aI54
aI199
aasS'2R9Z'
p2384
(lp2385
(lp2386
I1
aI2
aI463
aasS'4KUB'
p2387
(lp2388
(lp2389
I2
aI1
aI162
aasS'1ONF'
p2390
(lp2391
(lp2392
I1
aI1
aI496
aasS'2G3T'
p2393
(lp2394
(lp2395
I2
aI6
aI156
aasS'4J57'
p2396
(lp2397
(lp2398
I1
aI77
aI617
aasS'4J56'
p2399
(lp2400
(lp2401
I1
aI77
aI617
aasS'2A4N'
p2402
(lp2403
(lp2404
I2
aI46
aI112
aasS'3H4K'
p2405
(lp2406
(lp2407
I1
aI100
aI598
aasS'3I1H'
p2408
(lp2409
(lp2410
I10
aI10
aI173
aasS'3QFB'
p2411
(lp2412
(lp2413
I1
aI151
aI649
aasS'3QFA'
p2414
(lp2415
(lp2416
I1
aI151
aI649
aasS'1R2I'
p2417
(lp2418
(lp2419
I10
aI1
aI233
aasS'4U2V'
p2420
(lp2421
(lp2422
I10
aI17
aI211
aasS'4U2U'
p2423
(lp2424
(lp2425
I10
aI17
aI211
aasS'2FE7'
p2426
(lp2427
(lp2428
I2
aI11
aI158
aasS'4V8O'
p2429
(lp2430
(lp2431
I23
aI16
aI461
aasS'4V8M'
p2432
(lp2433
(lp2434
I18
aI1
aI76
aasS'2DY4'
p2435
(lp2436
(lp2437
I6
aI104
aI234
aa(lp2438
I7
aI107
aI766
aasS'4FJH'
p2439
(lp2440
(lp2441
I6
aI104
aI234
aa(lp2442
I7
aI107
aI766
aasS'4FJI'
p2443
(lp2444
(lp2445
I6
aI104
aI234
aa(lp2446
I7
aI107
aI766
aasS'4FJJ'
p2447
(lp2448
(lp2449
I6
aI104
aI234
aa(lp2450
I7
aI107
aI766
aasS'4FJK'
p2451
(lp2452
(lp2453
I6
aI104
aI234
aa(lp2454
I7
aI107
aI766
aasS'4FJL'
p2455
(lp2456
(lp2457
I6
aI104
aI234
aa(lp2458
I7
aI107
aI766
aasS'4FJM'
p2459
(lp2460
(lp2461
I6
aI104
aI234
aa(lp2462
I7
aI107
aI766
aasS'4FJN'
p2463
(lp2464
(lp2465
I6
aI104
aI234
aa(lp2466
I7
aI107
aI766
aasS'2EQ6'
p2467
(lp2468
(lp2469
I1
aI5
aI457
aasS'2EQ7'
p2470
(lp2471
(lp2472
I20
aI2
aI36
aasS'4FJG'
p2473
(lp2474
(lp2475
I6
aI104
aI234
aa(lp2476
I7
aI107
aI766
aasS'4FJX'
p2477
(lp2478
(lp2479
I6
aI104
aI234
aa(lp2480
I7
aI107
aI766
aasS'4GRT'
p2481
(lp2482
(lp2483
I1
aI1
aI461
aasS'3O0H'
p2484
(lp2485
(lp2486
I1
aI2
aI453
aasS'1AWD'
p2487
(lp2488
(lp2489
I9
aI1
aI94
aasS'2MJ3'
p2490
(lp2491
(lp2492
I9
aI1
aI111
aasS'2B58'
p2493
(lp2494
(lp2495
I2
aI6
aI156
aasS'3IHD'
p2496
(lp2497
(lp2498
I10
aI1
aI233
aasS'3IHE'
p2499
(lp2500
(lp2501
I10
aI1
aI233
aasS'3IHF'
p2502
(lp2503
(lp2504
I10
aI1
aI233
aasS'1LXL'
p2505
(lp2506
(lp2507
I10
aI4
aI214
aasS'3IHC'
p2508
(lp2509
(lp2510
I10
aI1
aI233
aasS'2AE6'
p2511
(lp2512
(lp2513
I2
aI9
aI164
aasS'3J5S'
p2514
(lp2515
(lp2516
I17
aI26
aI156
aasS'3K9U'
p2517
(lp2518
(lp2519
I2
aI1
aI159
aasS'2NOQ'
p2520
(lp2521
(lp2522
I17
aI9
aI129
aasS'1Q9Y'
p2523
(lp2524
(lp2525
I6
aI104
aI234
aa(lp2526
I7
aI107
aI766
aasS'4B08'
p2527
(lp2528
(lp2529
I7
aI348
aI1399
aasS'4KOY'
p2530
(lp2531
(lp2532
I2
aI1
aI162
aasS'2W3R'
p2533
(lp2534
(lp2535
I4
aI2
aI772
aasS'2W3S'
p2536
(lp2537
(lp2538
I4
aI2
aI772
aasS'4KOR'
p2539
(lp2540
(lp2541
I2
aI1
aI162
aasS'4KOS'
p2542
(lp2543
(lp2544
I2
aI1
aI162
aasS'2VWK'
p2545
(lp2546
(lp2547
I7
aI1
aI772
aasS'2VWJ'
p2548
(lp2549
(lp2550
I7
aI1
aI772
aasS'4KOV'
p2551
(lp2552
(lp2553
I2
aI1
aI162
aasS'4KOW'
p2554
(lp2555
(lp2556
I2
aI1
aI162
aasS'4KOT'
p2557
(lp2558
(lp2559
I2
aI1
aI162
aasS'4KOU'
p2560
(lp2561
(lp2562
I2
aI1
aI162
aasS'4J2D'
p2563
(lp2564
(lp2565
I6
aI104
aI234
aa(lp2566
I7
aI107
aI766
aasS'4J2E'
p2567
(lp2568
(lp2569
I6
aI104
aI234
aa(lp2570
I7
aI107
aI766
aasS'1V59'
p2571
(lp2572
(lp2573
I1
aI14
aI493
aasS'4J2A'
p2574
(lp2575
(lp2576
I6
aI104
aI234
aa(lp2577
I7
aI107
aI766
aasS'4J2B'
p2578
(lp2579
(lp2580
I6
aI104
aI234
aa(lp2581
I7
aI107
aI766
aasS'2B5G'
p2582
(lp2583
(lp2584
I2
aI6
aI156
aasS'4AHC'
p2585
(lp2586
(lp2587
I7
aI1
aI775
aasS'3W5V'
p2588
(lp2589
(lp2590
I9
aI2
aI148
aasS'1GRA'
p2591
(lp2592
(lp2593
I1
aI7
aI478
aasS'4A1U'
p2594
(lp2595
(lp2596
I10
aI1
aI233
aasS'3DH9'
p2597
(lp2598
(lp2599
I1
aI88
aI596
aasS'3KD1'
p2600
(lp2601
(lp2602
I6
aI104
aI234
aa(lp2603
I7
aI107
aI766
aasS'4QCL'
p2604
(lp2605
(lp2606
I7
aI337
aI1402
aasS'4LA1'
p2607
(lp2608
(lp2609
I1
aI106
aI602
aasS'3KD5'
p2610
(lp2611
(lp2612
I6
aI104
aI234
aa(lp2613
I7
aI107
aI766
aasS'3KD9'
p2614
(lp2615
(lp2616
I1
aI6
aI445
aasS'4FJ8'
p2617
(lp2618
(lp2619
I6
aI104
aI234
aa(lp2620
I7
aI107
aI766
aasS'4FJ9'
p2621
(lp2622
(lp2623
I6
aI104
aI234
aa(lp2624
I7
aI107
aI766
aasS'3NTD'
p2625
(lp2626
(lp2627
I1
aI1
aI394
aasS'3NTA'
p2628
(lp2629
(lp2630
I1
aI2
aI561
aasS'2VPL'
p2631
(lp2632
(lp2633
I15
aI1
aI67
aa(lp2634
I16
aI57
aI137
aasS'4FJ5'
p2635
(lp2636
(lp2637
I6
aI104
aI234
aa(lp2638
I7
aI107
aI766
aasS'1OZP'
p2639
(lp2640
(lp2641
I2
aI216
aI308
aasS'4FJ7'
p2642
(lp2643
(lp2644
I6
aI104
aI234
aa(lp2645
I7
aI107
aI766
aas.