(dp1
S'1EP2'
p2
(lp3
(lp4
I1010
aS'116'
p5
aS'207'
p6
aa(lp7
I1685
aS'221'
p8
aS'260'
p9
aa(lp10
I4812
aS'7'
aS'291'
p11
aasS'1EP3'
p12
(lp13
(lp14
I1010
aS'116'
p15
aS'207'
p16
aa(lp17
I1685
aS'221'
p18
aS'260'
p19
aa(lp20
I4812
aS'7'
aS'291'
p21
aasS'3WZV'
p22
(lp23
(lp24
I4044
aS'15'
p25
aS'366'
p26
aasS'3WZW'
p27
(lp28
(lp29
I4044
aS'15'
p30
aS'366'
p31
aasS'3T0E'
p32
(lp33
(lp34
I749
aS'181'
p35
aS'291'
p36
aa(lp37
I1208
aS'116'
p38
aS'188'
p39
aa(lp40
I1690
aS'95'
p41
aS'173'
p42
aa(lp43
I1690
aS'132'
p44
aS'213'
p45
aa(lp46
I1690
aS'134'
p47
aS'219'
p48
aa(lp49
I2388
aS'5'
aS'107'
p50
aa(lp51
I2388
aS'4'
aS'114'
p52
aa(lp53
I4082
aS'3'
aS'97'
p54
aa(lp55
I4221
aS'43'
p56
aS'115'
p57
aa(lp58
I6254
aS'101'
p59
aS'177'
p60
aa(lp61
I6254
aS'292'
p62
aS'363'
p63
aa(lp64
I7398
aS'4'
aS'81'
p65
aasS'6ICD'
p66
(lp67
(lp68
I4044
aS'29'
p69
aS'412'
p70
aasS'4BPR'
p71
(lp72
(lp73
I1010
aS'152'
p74
aS'270'
p75
aasS'3WZX'
p76
(lp77
(lp78
I4044
aS'15'
p79
aS'366'
p80
aasS'3WZY'
p81
(lp82
(lp83
I4044
aS'15'
p84
aS'366'
p85
aasS'1TVC'
p86
(lp87
(lp88
I1010
aS'123'
p89
aS'227'
p90
aa(lp91
I3635
aS'16'
p92
aS'111'
p93
aasS'2JLC'
p94
(lp95
(lp96
I5925
aS'9'
aS'141'
p97
aa(lp98
I5932
aS'414'
p99
aS'535'
p100
aa(lp101
I6972
aS'184'
p102
aS'388'
p103
aasS'1EP1'
p104
(lp105
(lp106
I1010
aS'116'
p107
aS'207'
p108
aa(lp109
I1685
aS'221'
p110
aS'260'
p111
aa(lp112
I4812
aS'7'
aS'291'
p113
aasS'4MPJ'
p114
(lp115
(lp116
I5925
aS'9'
aS'169'
p117
aa(lp118
I5928
aS'193'
p119
aS'325'
p120
aa(lp121
I5932
aS'380'
p122
aS'521'
p123
aasS'1YHZ'
p124
(lp125
(lp126
I5925
aS'98'
p127
aS'261'
p128
aa(lp129
I5928
aS'290'
p130
aS'420'
p131
aa(lp132
I5932
aS'484'
p133
aS'639'
p134
aasS'1N0H'
p135
(lp136
(lp137
I5925
aS'93'
p138
aS'256'
p139
aa(lp140
I5928
aS'289'
p141
aS'431'
p142
aa(lp143
I5932
aS'496'
p144
aS'643'
p145
aasS'1YHY'
p146
(lp147
(lp148
I5925
aS'98'
p149
aS'261'
p150
aa(lp151
I5928
aS'290'
p152
aS'420'
p153
aa(lp154
I5932
aS'484'
p155
aS'639'
p156
aasS'4MPP'
p157
(lp158
(lp159
I5925
aS'9'
aS'169'
p160
aa(lp161
I5928
aS'193'
p162
aS'325'
p163
aa(lp164
I5932
aS'382'
p165
aS'521'
p166
aasS'4MPR'
p167
(lp168
(lp169
I5925
aS'9'
aS'169'
p170
aa(lp171
I5928
aS'193'
p172
aS'325'
p173
aa(lp174
I5932
aS'380'
p175
aS'521'
p176
aasS'4MBS'
p177
(lp178
(lp179
I404
aS'1003'
p180
aS'1049'
p181
aa(lp182
I5342
aS'47'
p183
aS'297'
p184
aasS'2PED'
p185
(lp186
(lp187
I4446
aS'2'
aS'37'
p188
aa(lp189
I5342
aS'55'
p190
aS'306'
p191
aasS'1OD8'
p192
(lp193
(lp194
I6618
aS'6'
aS'299'
p195
aasS'2VBI'
p196
(lp197
(lp198
I5925
aS'4'
aS'175'
p199
aa(lp200
I5928
aS'199'
p201
aS'315'
p202
aa(lp203
I5932
aS'405'
p204
aS'529'
p205
aasS'2DEP'
p206
(lp207
(lp208
I6618
aS'46'
p209
aS'381'
p210
aasS'3IAF'
p211
(lp212
(lp213
I5925
aS'5'
aS'173'
p214
aa(lp215
I5928
aS'194'
p216
aS'329'
p217
aa(lp218
I5932
aS'397'
p219
aS'542'
p220
aasS'3IAE'
p221
(lp222
(lp223
I5925
aS'5'
aS'173'
p224
aa(lp225
I5928
aS'194'
p226
aS'329'
p227
aa(lp228
I5932
aS'397'
p229
aS'542'
p230
aasS'1B2R'
p231
(lp232
(lp233
I1010
aS'152'
p234
aS'270'
p235
aa(lp236
I3635
aS'49'
p237
aS'138'
p238
aasS'3E9Y'
p239
(lp240
(lp241
I5925
aS'98'
p242
aS'261'
p243
aa(lp244
I5928
aS'290'
p245
aS'420'
p246
aa(lp247
I5932
aS'484'
p248
aS'639'
p249
aasS'2RC5'
p250
(lp251
(lp252
I1010
aS'170'
p253
aS'282'
p254
aasS'4QQ8'
p255
(lp256
(lp257
I5925
aS'5'
aS'173'
p258
aa(lp259
I5928
aS'194'
p260
aS'329'
p261
aa(lp262
I5932
aS'392'
p263
aS'542'
p264
aasS'2RC6'
p265
(lp266
(lp267
I1010
aS'170'
p268
aS'282'
p269
aasS'4PRW'
p270
(lp271
(lp272
I6618
aS'20'
p273
aS'377'
p274
aasS'4F8X'
p275
(lp276
(lp277
I6618
aS'30'
p278
aS'351'
p279
aasS'1RDQ'
p280
(lp281
(lp282
I252
aS'44'
p283
aS'297'
p284
aa(lp285
I3438
aS'505'
p286
aS'524'
p287
aasS'1UPC'
p288
(lp289
(lp290
I5925
aS'13'
p291
aS'174'
p292
aa(lp293
I5928
aS'207'
p294
aS'344'
p295
aa(lp296
I5932
aS'410'
p297
aS'557'
p298
aasS'1UPA'
p299
(lp300
(lp301
I5925
aS'13'
p302
aS'174'
p303
aa(lp304
I5928
aS'207'
p305
aS'344'
p306
aa(lp307
I5932
aS'410'
p308
aS'557'
p309
aasS'4HU8'
p310
(lp311
(lp312
I4350
aS'23'
p313
aS'103'
p314
aa(lp315
I6618
aS'119'
p316
aS'462'
p317
aasS'1LN6'
p318
(lp319
(lp320
I5342
aS'55'
p321
aS'306'
p322
aasS'2VT4'
p323
(lp324
(lp325
I5342
aS'58'
p326
aS'343'
p327
aasS'2E0C'
p328
(lp329
(lp330
I4044
aS'27'
p331
aS'401'
p332
aasS'1F88'
p333
(lp334
(lp335
I4446
aS'2'
aS'37'
p336
aa(lp337
I5342
aS'55'
p338
aS'306'
p339
aasS'1T9D'
p340
(lp341
(lp342
I5925
aS'93'
p343
aS'256'
p344
aa(lp345
I5928
aS'289'
p346
aS'431'
p347
aa(lp348
I5932
aS'496'
p349
aS'643'
p350
aasS'1K2D'
p351
(lp352
(lp353
I1690
aS'93'
p354
aS'174'
p355
aa(lp356
I1690
aS'105'
p357
aS'184'
p358
aa(lp359
I4221
aS'15'
p360
aS'84A'
p361
aa(lp362
I7398
aS'4'
aS'83'
p363
aasS'3ZBU'
p364
(lp365
(lp366
I1010
aS'152'
p367
aS'270'
p368
aasS'3ZBT'
p369
(lp370
(lp371
I1010
aS'152'
p372
aS'270'
p373
aa(lp374
I3635
aS'49'
p375
aS'138'
p376
aasS'4P23'
p377
(lp378
(lp379
I1208
aS'118'
p380
aS'190'
p381
aa(lp382
I1690
aS'130'
p383
aS'215'
p384
aa(lp385
I1690
aS'93'
p386
aS'174'
p387
aa(lp388
I1690
aS'106'
p389
aS'185'
p390
aa(lp391
I2388
aS'5'
aS'109'
p392
aa(lp393
I2388
aS'4'
aS'110'
p394
aa(lp395
I4221
aS'14'
p396
aS'84'
p397
aa(lp398
I7398
aS'3'
aS'83'
p399
aasS'3MUI'
p400
(lp401
(lp402
I6618
aS'7'
aS'329'
p403
aasS'3MUA'
p404
(lp405
(lp406
I6618
aS'7'
aS'329'
p407
aasS'4W8L'
p408
(lp409
(lp410
I6618
aS'349'
p411
aS'682'
p412
aasS'3S4S'
p413
(lp414
(lp415
I1690
aS'95'
p416
aS'173'
p417
aa(lp418
I1690
aS'103'
p419
aS'184'
p420
aa(lp421
I4082
aS'1'
aS'97'
p422
aa(lp423
I4221
aS'14'
p424
aS'86'
p425
aa(lp426
I6254
aS'101'
p427
aS'177'
p428
aa(lp429
I7398
aS'4'
aS'81'
p430
aasS'2BC4'
p431
(lp432
(lp433
I1690
aS'110'
p434
aS'181'
p435
aa(lp436
I1690
aS'107'
p437
aS'185'
p438
aa(lp439
I4221
aS'9'
aS'87'
p440
aa(lp441
I7398
aS'15'
p442
aS'88'
p443
aasS'3EA4'
p444
(lp445
(lp446
I5925
aS'98'
p447
aS'261'
p448
aa(lp449
I5928
aS'290'
p450
aS'420'
p451
aa(lp452
I5932
aS'484'
p453
aS'639'
p454
aasS'4P2R'
p455
(lp456
(lp457
I1208
aS'115'
p458
aS'187'
p459
aa(lp460
I1690
aS'94'
p461
aS'174'
p462
aa(lp463
I1690
aS'103'
p464
aS'184'
p465
aa(lp466
I1690
aS'134'
p467
aS'219'
p468
aa(lp469
I2388
aS'5'
aS'107'
p470
aa(lp471
I2388
aS'6'
aS'113'
p472
aa(lp473
I4221
aS'13'
p474
aS'86'
p475
aa(lp476
I7398
aS'4'
aS'82'
p477
aasS'4XUY'
p478
(lp479
(lp480
I6618
aS'31'
p481
aS'325'
p482
aasS'4P2Q'
p483
(lp484
(lp485
I1208
aS'115'
p486
aS'187'
p487
aa(lp488
I1690
aS'94'
p489
aS'174'
p490
aa(lp491
I1690
aS'103'
p492
aS'184'
p493
aa(lp494
I1690
aS'134'
p495
aS'219'
p496
aa(lp497
I2388
aS'5'
aS'107'
p498
aa(lp499
I2388
aS'6'
aS'113'
p500
aa(lp501
I4221
aS'13'
p502
aS'86'
p503
aa(lp504
I7398
aS'4'
aS'82'
p505
aasS'3ZPR'
p506
(lp507
(lp508
I5342
aS'58'
p509
aS'343'
p510
aasS'3ZPQ'
p511
(lp512
(lp513
I5342
aS'58'
p514
aS'343'
p515
aasS'3OE1'
p516
(lp517
(lp518
I5925
aS'4'
aS'178'
p519
aa(lp520
I5928
aS'199'
p521
aS'305'
p522
aa(lp523
I5932
aS'409'
p524
aS'537'
p525
aasS'3KKV'
p526
(lp527
(lp528
I252
aS'43'
p529
aS'297'
p530
aa(lp531
I3438
aS'5'
aS'24'
p532
aasS'1LNU'
p533
(lp534
(lp535
I1690
aS'94'
p536
aS'175'
p537
aa(lp538
I1690
aS'132'
p539
aS'211'
p540
aa(lp541
I4221
aS'40'
p542
aS'110'
p543
aa(lp544
I7398
aS'4'
aS'84'
p545
aasS'4P5K'
p546
(lp547
(lp548
I1690
aS'93'
p549
aS'174'
p550
aa(lp551
I1690
aS'101'
p552
aS'182'
p553
aa(lp554
I4221
aS'13'
p555
aS'83'
p556
aa(lp557
I7398
aS'4'
aS'82'
p558
aasS'1GZM'
p559
(lp560
(lp561
I4446
aS'2'
aS'37'
p562
aa(lp563
I4446
aS'2'
aS'37'
p564
aa(lp565
I5342
aS'55'
p566
aS'306'
p567
aa(lp568
I5342
aS'55'
p569
aS'306'
p570
aasS'4WW3'
p571
(lp572
(lp573
I5342
aS'51'
p574
aS'315'
p575
aasS'2BMW'
p576
(lp577
(lp578
I1010
aS'152'
p579
aS'270'
p580
aa(lp581
I3635
aS'49'
p582
aS'138'
p583
aasS'1GC8'
p584
(lp585
(lp586
I4044
aS'1002'
p587
aS'1337'
p588
aasS'1E0V'
p589
(lp590
(lp591
I6618
aS'6'
aS'299'
p592
aasS'1E0W'
p593
(lp594
(lp595
I6618
aS'6'
aS'299'
p596
aasS'2ICW'
p597
(lp598
(lp599
I1690
aS'95'
p600
aS'173'
p601
aa(lp602
I1690
aS'103'
p603
aS'184'
p604
aa(lp605
I2388
aS'7'
aS'110'
p606
aa(lp607
I2388
aS'6'
aS'110'
p608
aa(lp609
I4221
aS'14'
p610
aS'86'
p611
aa(lp612
I4487
aS'1'
aS'212'
p613
aa(lp614
I7398
aS'4'
aS'81'
p615
aasS'1E0X'
p616
(lp617
(lp618
I6618
aS'6'
aS'299'
p619
aasS'3W2G'
p620
(lp621
(lp622
I1010
aS'148'
p623
aS'255'
p624
aa(lp625
I3635
aS'16'
p626
aS'122'
p627
aasS'1QFJ'
p628
(lp629
(lp630
I1010
aS'107'
p631
aS'210'
p632
aa(lp633
I3635
aS'5'
aS'94'
p634
aasS'1YBH'
p635
(lp636
(lp637
I5925
aS'98'
p638
aS'261'
p639
aa(lp640
I5928
aS'290'
p641
aS'420'
p642
aa(lp643
I5932
aS'484'
p644
aS'639'
p645
aasS'2WYS'
p646
(lp647
(lp648
I1421
aS'37'
p649
aS'164'
p650
aa(lp651
I6618
aS'195'
p652
aS'537'
p653
aasS'1CM7'
p654
(lp655
(lp656
I4044
aS'6'
aS'355'
p657
aasS'4Q9D'
p658
(lp659
(lp660
I5925
aS'6'
aS'170'
p661
aa(lp662
I5928
aS'191'
p663
aS'325'
p664
aa(lp665
I5932
aS'390'
p666
aS'527'
p667
aasS'2Q8X'
p668
(lp669
(lp670
I6618
aS'7'
aS'329'
p671
aasS'1QFY'
p672
(lp673
(lp674
I1010
aS'161'
p675
aS'276'
p676
aasS'1QFZ'
p677
(lp678
(lp679
I1010
aS'161'
p680
aS'276'
p681
aasS'4A4M'
p682
(lp683
(lp684
I4446
aS'3'
aS'37'
p685
aa(lp686
I5342
aS'55'
p687
aS'306'
p688
aasS'4K9Q'
p689
(lp690
(lp691
I5925
aS'3'
aS'168'
p692
aa(lp693
I5928
aS'187'
p694
aS'319'
p695
aa(lp696
I5932
aS'380'
p697
aS'522'
p698
aasS'3VML'
p699
(lp700
(lp701
I4044
aS'4'
aS'355'
p702
aasS'3VMJ'
p703
(lp704
(lp705
I4044
aS'4'
aS'355'
p706
aasS'3D7K'
p707
(lp708
(lp709
I5925
aS'5'
aS'173'
p710
aa(lp711
I5928
aS'194'
p712
aS'329'
p713
aa(lp714
I5932
aS'397'
p715
aS'542'
p716
aasS'1VBR'
p717
(lp718
(lp719
I6618
aS'518'
p720
aS'831'
p721
aasS'1VBU'
p722
(lp723
(lp724
I6618
aS'518'
p725
aS'831'
p726
aasS'4K9K'
p727
(lp728
(lp729
I5925
aS'9'
aS'169'
p730
aa(lp731
I5928
aS'193'
p732
aS'325'
p733
aa(lp734
I5932
aS'380'
p735
aS'521'
p736
aasS'4OV5'
p737
(lp738
(lp739
I1690
aS'95'
p740
aS'173'
p741
aa(lp742
I1690
aS'103'
p743
aS'184'
p744
aa(lp745
I4221
aS'14'
p746
aS'86'
p747
aa(lp748
I7398
aS'4'
aS'81'
p749
aasS'4K9M'
p750
(lp751
(lp752
I5925
aS'9'
aS'169'
p753
aa(lp754
I5928
aS'193'
p755
aS'325'
p756
aa(lp757
I5932
aS'380'
p758
aS'521'
p759
aasS'4K9N'
p760
(lp761
(lp762
I5925
aS'9'
aS'169'
p763
aa(lp764
I5928
aS'193'
p765
aS'325'
p766
aa(lp767
I5932
aS'380'
p768
aS'521'
p769
aasS'4K9O'
p770
(lp771
(lp772
I5925
aS'9'
aS'169'
p773
aa(lp774
I5928
aS'193'
p775
aS'325'
p776
aa(lp777
I5932
aS'380'
p778
aS'521'
p779
aasS'2ZTW'
p780
(lp781
(lp782
I4044
aS'2'
aS'337'
p783
aasS'4B4D'
p784
(lp785
(lp786
I1010
aS'113'
p787
aS'229'
p788
aa(lp789
I3635
aS'19'
p790
aS'99'
p791
aasS'4U16'
p792
(lp793
(lp794
I4357
aS'1017'
p795
aS'1104'
p796
aa(lp797
I5342
aS'84'
p798
aS'543'
p799
aasS'2JLA'
p800
(lp801
(lp802
I5925
aS'9'
aS'141'
p803
aa(lp804
I5932
aS'414'
p805
aS'535'
p806
aa(lp807
I6972
aS'184'
p808
aS'388'
p809
aasS'4U15'
p810
(lp811
(lp812
I4357
aS'1018'
p813
aS'1105'
p814
aa(lp815
I5342
aS'84'
p816
aS'543'
p817
aasS'3W5H'
p818
(lp819
(lp820
I1010
aS'1148'
p821
aS'1255'
p822
aa(lp823
I3635
aS'1016'
p824
aS'1122'
p825
aasS'3CUG'
p826
(lp827
(lp828
I6618
aS'4'
aS'310'
p829
aasS'3CUF'
p830
(lp831
(lp832
I6618
aS'4'
aS'310'
p833
aasS'2PIA'
p834
(lp835
(lp836
I1010
aS'116'
p837
aS'209'
p838
aa(lp839
I3635
aS'11'
p840
aS'104'
p841
aa(lp842
I4293
aS'244'
p843
aS'312'
p844
aasS'1HIZ'
p845
(lp846
(lp847
I6618
aS'21'
p848
aS'378'
p849
aasS'1IDM'
p850
(lp851
(lp852
I4044
aS'2'
aS'335'
p853
aasS'1IDC'
p854
(lp855
(lp856
I4044
aS'29'
p857
aS'412'
p858
aasS'3CUI'
p859
(lp860
(lp861
I6618
aS'4'
aS'310'
p862
aasS'3CUH'
p863
(lp864
(lp865
I6618
aS'4'
aS'310'
p866
aasS'1IDD'
p867
(lp868
(lp869
I4044
aS'29'
p870
aS'412'
p871
aasS'3CUJ'
p872
(lp873
(lp874
I6618
aS'4'
aS'310'
p875
aasS'4JD5'
p876
(lp877
(lp878
I5925
aS'9'
aS'169'
p879
aa(lp880
I5928
aS'193'
p881
aS'325'
p882
aa(lp883
I5932
aS'380'
p884
aS'521'
p885
aasS'3ES9'
p886
(lp887
(lp888
I390
aS'82'
p889
aS'219'
p890
aa(lp891
I1010
aS'530'
p892
aS'641'
p893
aa(lp894
I7371
aS'274'
p895
aS'493'
p896
aasS'2DHT'
p897
(lp898
(lp899
I4044
aS'27'
p900
aS'401'
p901
aasS'3C9M'
p902
(lp903
(lp904
I4446
aS'3'
aS'37'
p905
aa(lp906
I4446
aS'3'
aS'37'
p907
aa(lp908
I5342
aS'55'
p909
aS'306'
p910
aa(lp911
I5342
aS'55'
p912
aS'306'
p913
aasS'3C9L'
p914
(lp915
(lp916
I4446
aS'2'
aS'37'
p917
aa(lp918
I5342
aS'55'
p919
aS'306'
p920
aasS'2Z31'
p921
(lp922
(lp923
I1690
aS'93'
p924
aS'174'
p925
aa(lp926
I1690
aS'105'
p927
aS'184'
p928
aa(lp929
I2388
aS'10'
p930
aS'114'
p931
aa(lp932
I2388
aS'6'
aS'117'
p933
aa(lp934
I4221
aS'15'
p935
aS'84A'
p936
aa(lp937
I7398
aS'4'
aS'83'
p938
aasS'3W28'
p939
(lp940
(lp941
I6618
aS'9'
aS'324'
p942
aasS'3W29'
p943
(lp944
(lp945
I6618
aS'9'
aS'324'
p946
aasS'3W24'
p947
(lp948
(lp949
I6618
aS'9'
aS'324'
p950
aasS'3W26'
p951
(lp952
(lp953
I6618
aS'9'
aS'324'
p954
aasS'3W27'
p955
(lp956
(lp957
I6618
aS'9'
aS'324'
p958
aasS'4DQL'
p959
(lp960
(lp961
I1010
aS'901'
p962
aS'1011'
p963
aa(lp964
I7371
aS'661'
p965
aS'868'
p966
aasS'4DQK'
p967
(lp968
(lp969
I1010
aS'901'
p970
aS'1011'
p971
aa(lp972
I7371
aS'660'
p973
aS'868'
p974
aasS'4YRY'
p975
(lp976
(lp977
I1010
aS'108'
p978
aS'199'
p979
aa(lp980
I1417
aS'16'
p981
aS'127'
p982
aa(lp983
I1685
aS'216'
p984
aS'252'
p985
aa(lp986
I3635
aS'9'
aS'96'
p987
aa(lp988
I7341
aS'142'
p989
aS'448'
p990
aasS'2EIX'
p991
(lp992
(lp993
I1010
aS'159'
p994
aS'265'
p995
aa(lp996
I3635
aS'52'
p997
aS'149'
p998
aasS'2VBF'
p999
(lp1000
(lp1001
I5925
aS'3'
aS'176'
p1002
aa(lp1003
I5928
aS'197'
p1004
aS'314'
p1005
aa(lp1006
I5932
aS'389'
p1007
aS'515'
p1008
aasS'2VBG'
p1009
(lp1010
(lp1011
I5925
aS'3'
aS'176'
p1012
aa(lp1013
I5928
aS'197'
p1014
aS'314'
p1015
aa(lp1016
I5932
aS'389'
p1017
aS'515'
p1018
aasS'1JB9'
p1019
(lp1020
(lp1021
I1010
aS'170'
p1022
aS'284'
p1023
aasS'1BQE'
p1024
(lp1025
(lp1026
I1010
aS'152'
p1027
aS'270'
p1028
aa(lp1029
I3635
aS'49'
p1030
aS'138'
p1031
aasS'2BF4'
p1032
(lp1033
(lp1034
I390
aS'63'
p1035
aS'199'
p1036
aa(lp1037
I1010
aS'538'
p1038
aS'655'
p1039
aa(lp1040
I7371
aS'262'
p1041
aS'480'
p1042
aasS'1K6A'
p1043
(lp1044
(lp1045
I6618
aS'6'
aS'299'
p1046
aasS'1ISX'
p1047
(lp1048
(lp1049
I6578
aS'313'
p1050
aS'433'
p1051
aa(lp1052
I6618
aS'6'
aS'298'
p1053
aasS'1J01'
p1054
(lp1055
(lp1056
I6618
aS'4'
aS'310'
p1057
aasS'1W35'
p1058
(lp1059
(lp1060
I1010
aS'152'
p1061
aS'270'
p1062
aa(lp1063
I3635
aS'49'
p1064
aS'138'
p1065
aasS'2CND'
p1066
(lp1067
(lp1068
I1010
aS'141'
p1069
aS'251'
p1070
aa(lp1071
I3635
aS'15'
p1072
aS'121'
p1073
aasS'2CNC'
p1074
(lp1075
(lp1076
I6618
aS'36'
p1077
aS'376'
p1078
aasS'4OZI'
p1079
(lp1080
(lp1081
I1208
aS'135'
p1082
aS'207'
p1083
aa(lp1084
I1690
aS'94'
p1085
aS'173'
p1086
aa(lp1087
I1690
aS'103'
p1088
aS'184'
p1089
aa(lp1090
I1690
aS'145'
p1091
aS'230'
p1092
aa(lp1093
I2388
aS'6'
aS'127'
p1094
aa(lp1095
I2388
aS'6'
aS'125'
p1096
aa(lp1097
I4221
aS'14'
p1098
aS'85'
p1099
aa(lp1100
I7398
aS'4'
aS'82'
p1101
aasS'1TUX'
p1102
(lp1103
(lp1104
I6618
aS'8'
aS'299'
p1105
aasS'1AMO'
p1106
(lp1107
(lp1108
I390
aS'82'
p1109
aS'219'
p1110
aa(lp1111
I1010
aS'530'
p1112
aS'641'
p1113
aa(lp1114
I7371
aS'274'
p1115
aS'493'
p1116
aasS'3RDK'
p1117
(lp1118
(lp1119
I6618
aS'7'
aS'337'
p1120
aasS'1I1X'
p1121
(lp1122
(lp1123
I6618
aS'6'
aS'299'
p1124
aa(lp1125
I6618
aS'6'
aS'299'
p1126
aasS'3QIU'
p1127
(lp1128
(lp1129
I1208
aS'115'
p1130
aS'186'
p1131
aa(lp1132
I1690
aS'94'
p1133
aS'174'
p1134
aa(lp1135
I1690
aS'103'
p1136
aS'184'
p1137
aa(lp1138
I1690
aS'134'
p1139
aS'218'
p1140
aa(lp1141
I2388
aS'5'
aS'106'
p1142
aa(lp1143
I2388
aS'6'
aS'113'
p1144
aa(lp1145
I4221
aS'13'
p1146
aS'86'
p1147
aa(lp1148
I7398
aS'4'
aS'82'
p1149
aasS'4PMD'
p1150
(lp1151
(lp1152
I6618
aS'12'
p1153
aS'336'
p1154
aasS'1T0L'
p1155
(lp1156
(lp1157
I4044
aS'11'
p1158
aS'399'
p1159
aasS'1I1W'
p1160
(lp1161
(lp1162
I6618
aS'6'
aS'299'
p1163
aasS'4L04'
p1164
(lp1165
(lp1166
I4044
aS'11'
p1167
aS'399'
p1168
aasS'4L06'
p1169
(lp1170
(lp1171
I4044
aS'11'
p1172
aS'399'
p1173
aasS'3QIB'
p1174
(lp1175
(lp1176
I1208
aS'117'
p1177
aS'189'
p1178
aa(lp1179
I1690
aS'94'
p1180
aS'174'
p1181
aa(lp1182
I1690
aS'103'
p1183
aS'184'
p1184
aa(lp1185
I1690
aS'134'
p1186
aS'219'
p1187
aa(lp1188
I2388
aS'5'
aS'108'
p1189
aa(lp1190
I2388
aS'6'
aS'114'
p1191
aa(lp1192
I4221
aS'13'
p1193
aS'86'
p1194
aa(lp1195
I7398
aS'4'
aS'82'
p1196
aasS'4L03'
p1197
(lp1198
(lp1199
I4044
aS'11'
p1200
aS'399'
p1201
aasS'2EZ9'
p1202
(lp1203
(lp1204
I5925
aS'14'
p1205
aS'180'
p1206
aa(lp1207
I5928
aS'203'
p1208
aS'332'
p1209
aa(lp1210
I5932
aS'393'
p1211
aS'542'
p1212
aasS'1N82'
p1213
(lp1214
(lp1215
I6618
aS'7'
aS'329'
p1216
aasS'3RDT'
p1217
(lp1218
(lp1219
I1208
aS'118'
p1220
aS'190'
p1221
aa(lp1222
I1690
aS'93'
p1223
aS'174'
p1224
aa(lp1225
I1690
aS'106'
p1226
aS'185'
p1227
aa(lp1228
I1690
aS'130'
p1229
aS'215'
p1230
aa(lp1231
I2388
aS'5'
aS'109'
p1232
aa(lp1233
I2388
aS'4'
aS'110'
p1234
aa(lp1235
I4221
aS'14'
p1236
aS'84'
p1237
aa(lp1238
I7398
aS'3'
aS'83'
p1239
aasS'4K1X'
p1240
(lp1241
(lp1242
I1010
aS'125'
p1243
aS'238'
p1244
aa(lp1245
I3635
aS'30'
p1246
aS'105'
p1247
aasS'1SJS'
p1248
(lp1249
(lp1250
I4044
aS'29'
p1251
aS'412'
p1252
aasS'4C56'
p1253
(lp1254
(lp1255
I1208
aS'119'
p1256
aS'191'
p1257
aa(lp1258
I1680
aS'27'
p1259
aS'119'
p1260
aa(lp1261
I1690
aS'134'
p1262
aS'219'
p1263
aa(lp1264
I1690
aS'95'
p1265
aS'173'
p1266
aa(lp1267
I1690
aS'103'
p1268
aS'184'
p1269
aa(lp1270
I2388
aS'7'
aS'111'
p1271
aa(lp1272
I2388
aS'8'
aS'114'
p1273
aa(lp1274
I4221
aS'14'
p1275
aS'86'
p1276
aa(lp1277
I6311
aS'131'
p1278
aS'234'
p1279
aa(lp1280
I7398
aS'4'
aS'81'
p1281
aasS'4MAY'
p1282
(lp1283
(lp1284
I1208
aS'119'
p1285
aS'191'
p1286
aa(lp1287
I1690
aS'94'
p1288
aS'174'
p1289
aa(lp1290
I1690
aS'103'
p1291
aS'184'
p1292
aa(lp1293
I1690
aS'130'
p1294
aS'215'
p1295
aa(lp1296
I2388
aS'6'
aS'110'
p1297
aa(lp1298
I2388
aS'4'
aS'110'
p1299
aa(lp1300
I4221
aS'15'
p1301
aS'85'
p1302
aa(lp1303
I7398
aS'3'
aS'82'
p1304
aasS'1R87'
p1305
(lp1306
(lp1307
I6618
aS'20'
p1308
aS'377'
p1309
aasS'4H26'
p1310
(lp1311
(lp1312
I1690
aS'95'
p1313
aS'173'
p1314
aa(lp1315
I1690
aS'103'
p1316
aS'184'
p1317
aa(lp1318
I4221
aS'13'
p1319
aS'86'
p1320
aa(lp1321
I7398
aS'4'
aS'81'
p1322
aasS'1SJH'
p1323
(lp1324
(lp1325
I1680
aS'26'
p1326
aS'117'
p1327
aa(lp1328
I1690
aS'95'
p1329
aS'173'
p1330
aa(lp1331
I1690
aS'103'
p1332
aS'184'
p1333
aa(lp1334
I4221
aS'14'
p1335
aS'86'
p1336
aa(lp1337
I6311
aS'130'
p1338
aS'234'
p1339
aa(lp1340
I7398
aS'4'
aS'81'
p1341
aasS'2YCZ'
p1342
(lp1343
(lp1344
I5342
aS'58'
p1345
aS'343'
p1346
aasS'2YCX'
p1347
(lp1348
(lp1349
I5342
aS'58'
p1350
aS'343'
p1351
aasS'2YCY'
p1352
(lp1353
(lp1354
I5342
aS'58'
p1355
aS'343'
p1356
aasS'1D6E'
p1357
(lp1358
(lp1359
I1680
aS'27'
p1360
aS'119'
p1361
aa(lp1362
I1690
aS'95'
p1363
aS'173'
p1364
aa(lp1365
I1690
aS'103'
p1366
aS'184'
p1367
aa(lp1368
I4221
aS'14'
p1369
aS'86'
p1370
aa(lp1371
I6311
aS'131'
p1372
aS'234'
p1373
aa(lp1374
I7398
aS'4'
aS'81'
p1375
aasS'2YCW'
p1376
(lp1377
(lp1378
I5342
aS'58'
p1379
aS'343'
p1380
aasS'1EXP'
p1381
(lp1382
(lp1383
I6618
aS'4'
aS'310'
p1384
aasS'4H1L'
p1385
(lp1386
(lp1387
I1690
aS'95'
p1388
aS'173'
p1389
aa(lp1390
I1690
aS'103'
p1391
aS'184'
p1392
aa(lp1393
I2388
aS'9'
aS'111'
p1394
aa(lp1395
I2388
aS'4'
aS'111'
p1396
aa(lp1397
I4221
aS'13'
p1398
aS'86'
p1399
aa(lp1400
I7398
aS'4'
aS'81'
p1401
aasS'3S5L'
p1402
(lp1403
(lp1404
I1690
aS'95'
p1405
aS'173'
p1406
aa(lp1407
I1690
aS'103'
p1408
aS'184'
p1409
aa(lp1410
I4082
aS'2'
aS'97'
p1411
aa(lp1412
I4221
aS'14'
p1413
aS'86'
p1414
aa(lp1415
I6254
aS'101'
p1416
aS'177'
p1417
aa(lp1418
I7398
aS'4'
aS'81'
p1419
aasS'1K8I'
p1420
(lp1421
(lp1422
I1690
aS'107'
p1423
aS'178'
p1424
aa(lp1425
I1690
aS'106'
p1426
aS'184'
p1427
aa(lp1428
I4221
aS'8'
aS'87'
p1429
aa(lp1430
I7398
aS'12'
p1431
aS'85'
p1432
aasS'1SJE'
p1433
(lp1434
(lp1435
I1680
aS'26'
p1436
aS'117'
p1437
aa(lp1438
I1690
aS'95'
p1439
aS'173'
p1440
aa(lp1441
I1690
aS'103'
p1442
aS'184'
p1443
aa(lp1444
I4221
aS'14'
p1445
aS'86'
p1446
aa(lp1447
I6311
aS'130'
p1448
aS'234'
p1449
aa(lp1450
I7398
aS'4'
aS'81'
p1451
aasS'1XGV'
p1452
(lp1453
(lp1454
I4044
aS'38'
p1455
aS'416'
p1456
aasS'4HCX'
p1457
(lp1458
(lp1459
I4044
aS'12'
p1460
aS'399'
p1461
aasS'2R6H'
p1462
(lp1463
(lp1464
I1010
aS'284'
p1465
aS'393'
p1466
aa(lp1467
I3635
aS'203'
p1468
aS'273'
p1469
aasS'1A05'
p1470
(lp1471
(lp1472
I4044
aS'3'
aS'350'
p1473
aasS'4FK8'
p1474
(lp1475
(lp1476
I1010
aS'127'
p1477
aS'243'
p1478
aa(lp1479
I3635
aS'34'
p1480
aS'113'
p1481
aasS'4D5G'
p1482
(lp1483
(lp1484
I5925
aS'5'
aS'173'
p1485
aa(lp1486
I5928
aS'195'
p1487
aS'329'
p1488
aa(lp1489
I5932
aS'397'
p1490
aS'543'
p1491
aasS'4D5E'
p1492
(lp1493
(lp1494
I5925
aS'5'
aS'173'
p1495
aa(lp1496
I5928
aS'195'
p1497
aS'329'
p1498
aa(lp1499
I5932
aS'397'
p1500
aS'543'
p1501
aasS'3UZC'
p1502
(lp1503
(lp1504
I5342
aS'23'
p1505
aS'288'
p1506
aasS'2Y41'
p1507
(lp1508
(lp1509
I4044
aS'2'
aS'337'
p1510
aasS'1CQX'
p1511
(lp1512
(lp1513
I1010
aS'271'
p1514
aS'377'
p1515
aa(lp1516
I1262
aS'7'
aS'103'
p1517
aa(lp1518
I3635
aS'159'
p1519
aS'260'
p1520
aasS'1DDG'
p1521
(lp1522
(lp1523
I1010
aS'457'
p1524
aS'563'
p1525
aa(lp1526
I7371
aS'230'
p1527
aS'424'
p1528
aasS'1TLL'
p1529
(lp1530
(lp1531
I390
aS'757'
p1532
aS'930'
p1533
aa(lp1534
I1010
aS'1246'
p1535
aS'1358'
p1536
aa(lp1537
I7371
aS'986'
p1538
aS'1214'
p1539
aasS'3QFS'
p1540
(lp1541
(lp1542
I1010
aS'533'
p1543
aS'643'
p1544
aa(lp1545
I7371
aS'277'
p1546
aS'496'
p1547
aasS'3EMC'
p1548
(lp1549
(lp1550
I6618
aS'7'
aS'329'
p1551
aasS'1DDI'
p1552
(lp1553
(lp1554
I1010
aS'457'
p1555
aS'563'
p1556
aa(lp1557
I7371
aS'230'
p1558
aS'424'
p1559
aasS'1H15'
p1560
(lp1561
(lp1562
I1690
aS'95'
p1563
aS'173'
p1564
aa(lp1565
I1690
aS'103'
p1566
aS'184'
p1567
aa(lp1568
I4221
aS'14'
p1569
aS'86'
p1570
aa(lp1571
I7398
aS'4'
aS'81'
p1572
aasS'3EMZ'
p1573
(lp1574
(lp1575
I6618
aS'7'
aS'329'
p1576
aasS'4I5B'
p1577
(lp1578
(lp1579
I1690
aS'95'
p1580
aS'173'
p1581
aa(lp1582
I1690
aS'103'
p1583
aS'184'
p1584
aa(lp1585
I4221
aS'14'
p1586
aS'86'
p1587
aa(lp1588
I7398
aS'4'
aS'81'
p1589
aasS'3EMQ'
p1590
(lp1591
(lp1592
I6618
aS'7'
aS'329'
p1593
aasS'3AH3'
p1594
(lp1595
(lp1596
I4044
aS'5'
aS'330'
p1597
aasS'1W2V'
p1598
(lp1599
(lp1600
I6618
aS'6'
aS'343'
p1601
aasS'1W2P'
p1602
(lp1603
(lp1604
I6618
aS'6'
aS'343'
p1605
aasS'9ICD'
p1606
(lp1607
(lp1608
I4044
aS'29'
p1609
aS'412'
p1610
aasS'1YMM'
p1611
(lp1612
(lp1613
I1142
aS'85'
p1614
aS'98'
p1615
aa(lp1616
I1690
aS'95'
p1617
aS'173'
p1618
aa(lp1619
I1690
aS'103'
p1620
aS'184'
p1621
aa(lp1622
I1690
aS'138'
p1623
aS'223'
p1624
aa(lp1625
I2388
aS'9'
aS'104'
p1626
aa(lp1627
I2388
aS'6'
aS'118'
p1628
aa(lp1629
I4221
aS'14'
p1630
aS'86'
p1631
aa(lp1632
I7398
aS'4'
aS'81'
p1633
aasS'1HDM'
p1634
(lp1635
(lp1636
I1690
aS'107'
p1637
aS'179'
p1638
aa(lp1639
I1690
aS'101'
p1640
aS'178'
p1641
aa(lp1642
I4221
aS'9'
aS'81'
p1643
aa(lp1644
I7398
aS'15'
p1645
aS'85'
p1646
aasS'3WUB'
p1647
(lp1648
(lp1649
I6618
aS'43'
p1650
aS'348'
p1651
aasS'4AEN'
p1652
(lp1653
(lp1654
I1690
aS'95'
p1655
aS'173'
p1656
aa(lp1657
I1690
aS'103'
p1658
aS'184'
p1659
aa(lp1660
I4221
aS'14'
p1661
aS'86'
p1662
aa(lp1663
I7398
aS'4'
aS'81'
p1664
aasS'1ZOR'
p1665
(lp1666
(lp1667
I4044
aS'5'
aS'391'
p1668
aasS'3WUG'
p1669
(lp1670
(lp1671
I6618
aS'43'
p1672
aS'348'
p1673
aasS'3WUF'
p1674
(lp1675
(lp1676
I6618
aS'43'
p1677
aS'348'
p1678
aasS'4GRL'
p1679
(lp1680
(lp1681
I1208
aS'119'
p1682
aS'191'
p1683
aa(lp1684
I1690
aS'94'
p1685
aS'174'
p1686
aa(lp1687
I1690
aS'103'
p1688
aS'184'
p1689
aa(lp1690
I1690
aS'157'
p1691
aS'242'
p1692
aa(lp1693
I2388
aS'6'
aS'110'
p1694
aa(lp1695
I2388
aS'31'
p1696
aS'137'
p1697
aa(lp1698
I4221
aS'15'
p1699
aS'85'
p1700
aa(lp1701
I7398
aS'3'
aS'82'
p1702
aasS'4L4O'
p1703
(lp1704
(lp1705
I6618
aS'12'
p1706
aS'336'
p1707
aasS'2UXQ'
p1708
(lp1709
(lp1710
I4044
aS'9'
aS'388'
p1711
aasS'1VLC'
p1712
(lp1713
(lp1714
I4044
aS'2'
aS'346'
p1715
aa(lp1716
I4044
aS'2'
aS'346'
p1717
aasS'1U19'
p1718
(lp1719
(lp1720
I4446
aS'2'
aS'37'
p1721
aa(lp1722
I5342
aS'55'
p1723
aS'306'
p1724
aasS'1HQR'
p1725
(lp1726
(lp1727
I1680
aS'515'
p1728
aS'592'
p1729
aa(lp1730
I1690
aS'95'
p1731
aS'173'
p1732
aa(lp1733
I1690
aS'303'
p1734
aS'384'
p1735
aa(lp1736
I4221
aS'214'
p1737
aS'286'
p1738
aa(lp1739
I6311
aS'601'
p1740
aS'706'
p1741
aa(lp1742
I7398
aS'4'
aS'81'
p1743
aasS'1HQS'
p1744
(lp1745
(lp1746
I4044
aS'22'
p1747
aS'417'
p1748
aasS'4L4P'
p1749
(lp1750
(lp1751
I6618
aS'12'
p1752
aS'336'
p1753
aasS'3US8'
p1754
(lp1755
(lp1756
I4044
aS'5'
aS'392'
p1757
aasS'3NJ3'
p1758
(lp1759
(lp1760
I6618
aS'21'
p1761
aS'334'
p1762
aasS'1GRP'
p1763
(lp1764
(lp1765
I4044
aS'29'
p1766
aS'412'
p1767
aasS'4UG2'
p1768
(lp1769
(lp1770
I5342
aS'23'
p1771
aS'288'
p1772
aasS'4P4R'
p1773
(lp1774
(lp1775
I1690
aS'93'
p1776
aS'174'
p1777
aa(lp1778
I1690
aS'101'
p1779
aS'182'
p1780
aa(lp1781
I4221
aS'13'
p1782
aS'83'
p1783
aa(lp1784
I7398
aS'4'
aS'82'
p1785
aasS'2IPK'
p1786
(lp1787
(lp1788
I1680
aS'26'
p1789
aS'117'
p1790
aa(lp1791
I1690
aS'95'
p1792
aS'173'
p1793
aa(lp1794
I1690
aS'103'
p1795
aS'184'
p1796
aa(lp1797
I4221
aS'14'
p1798
aS'86'
p1799
aa(lp1800
I6311
aS'130'
p1801
aS'234'
p1802
aa(lp1803
I7398
aS'4'
aS'81'
p1804
aasS'1BG4'
p1805
(lp1806
(lp1807
I6618
aS'7'
aS'300'
p1808
aasS'5DEI'
p1809
(lp1810
(lp1811
I5925
aS'10'
p1812
aS'170'
p1813
aa(lp1814
I5928
aS'194'
p1815
aS'326'
p1816
aa(lp1817
I5932
aS'381'
p1818
aS'522'
p1819
aasS'1OGI'
p1820
(lp1821
(lp1822
I1010
aS'152'
p1823
aS'270'
p1824
aa(lp1825
I3635
aS'49'
p1826
aS'138'
p1827
aasS'4JA8'
p1828
(lp1829
(lp1830
I4044
aS'45'
p1831
aS'441'
p1832
aasS'1OGJ'
p1833
(lp1834
(lp1835
I1010
aS'152'
p1836
aS'270'
p1837
aa(lp1838
I3635
aS'49'
p1839
aS'138'
p1840
aasS'4P4K'
p1841
(lp1842
(lp1843
I1208
aS'122'
p1844
aS'194'
p1845
aa(lp1846
I1690
aS'93'
p1847
aS'174'
p1848
aa(lp1849
I1690
aS'101'
p1850
aS'182'
p1851
aa(lp1852
I1690
aS'133'
p1853
aS'218'
p1854
aa(lp1855
I2388
aS'7'
aS'113'
p1856
aa(lp1857
I2388
aS'6'
aS'113'
p1858
aa(lp1859
I4221
aS'13'
p1860
aS'83'
p1861
aa(lp1862
I7398
aS'4'
aS'82'
p1863
aasS'3C6L'
p1864
(lp1865
(lp1866
I1208
aS'118'
p1867
aS'188'
p1868
aa(lp1869
I1690
aS'128'
p1870
aS'211'
p1871
aa(lp1872
I1690
aS'94'
p1873
aS'175'
p1874
aa(lp1875
I1690
aS'139'
p1876
aS'211'
p1877
aa(lp1878
I2388
aS'5'
aS'109'
p1879
aa(lp1880
I2388
aS'4'
aS'110'
p1881
aa(lp1882
I4221
aS'40'
p1883
aS'110'
p1884
aa(lp1885
I7398
aS'4'
aS'84'
p1886
aasS'4P46'
p1887
(lp1888
(lp1889
I1208
aS'118'
p1890
aS'190'
p1891
aa(lp1892
I1690
aS'93'
p1893
aS'174'
p1894
aa(lp1895
I1690
aS'106'
p1896
aS'185'
p1897
aa(lp1898
I1690
aS'130'
p1899
aS'215'
p1900
aa(lp1901
I2388
aS'5'
aS'109'
p1902
aa(lp1903
I2388
aS'4'
aS'110'
p1904
aa(lp1905
I4221
aS'14'
p1906
aS'84'
p1907
aa(lp1908
I7398
aS'3'
aS'83'
p1909
aasS'2PXY'
p1910
(lp1911
(lp1912
I1690
aS'93'
p1913
aS'174'
p1914
aa(lp1915
I1690
aS'105'
p1916
aS'184'
p1917
aa(lp1918
I2388
aS'10'
p1919
aS'114'
p1920
aa(lp1921
I2388
aS'6'
aS'117'
p1922
aa(lp1923
I4221
aS'15'
p1924
aS'84A'
p1925
aa(lp1926
I7398
aS'4'
aS'83'
p1927
aasS'2HIS'
p1928
(lp1929
(lp1930
I6618
aS'4'
aS'310'
p1931
aasS'5DE1'
p1932
(lp1933
(lp1934
I4044
aS'11'
p1935
aS'399'
p1936
aasS'2XNJ'
p1937
(lp1938
(lp1939
I1010
aS'120'
p1940
aS'231'
p1941
aa(lp1942
I3635
aS'18'
p1943
aS'99'
p1944
aasS'7ICD'
p1945
(lp1946
(lp1947
I4044
aS'29'
p1948
aS'412'
p1949
aasS'1PYW'
p1950
(lp1951
(lp1952
I1680
aS'26'
p1953
aS'117'
p1954
aa(lp1955
I1690
aS'95'
p1956
aS'173'
p1957
aa(lp1958
I1690
aS'103'
p1959
aS'184'
p1960
aa(lp1961
I4221
aS'14'
p1962
aS'86'
p1963
aa(lp1964
I6311
aS'130'
p1965
aS'234'
p1966
aa(lp1967
I7398
aS'4'
aS'81'
p1968
aasS'4PMZ'
p1969
(lp1970
(lp1971
I6618
aS'40'
p1972
aS'319'
p1973
aasS'4PMY'
p1974
(lp1975
(lp1976
I6618
aS'40'
p1977
aS'319'
p1978
aasS'4PMX'
p1979
(lp1980
(lp1981
I6618
aS'40'
p1982
aS'319'
p1983
aasS'4PMV'
p1984
(lp1985
(lp1986
I6618
aS'24'
p1987
aS'373'
p1988
aasS'4PMU'
p1989
(lp1990
(lp1991
I6618
aS'24'
p1992
aS'373'
p1993
aasS'1IEB'
p1994
(lp1995
(lp1996
I1690
aS'94'
p1997
aS'174'
p1998
aa(lp1999
I1690
aS'103'
p2000
aS'184'
p2001
aa(lp2002
I4221
aS'13'
p2003
aS'86'
p2004
aa(lp2005
I7398
aS'4'
aS'82'
p2006
aasS'2D1C'
p2007
(lp2008
(lp2009
I4044
aS'22'
p2010
aS'351'
p2011
aasS'2QDX'
p2012
(lp2013
(lp2014
I1010
aS'112'
p2015
aS'228'
p2016
aa(lp2017
I3635
aS'17'
p2018
aS'98'
p2019
aasS'1PYD'
p2020
(lp2021
(lp2022
I5925
aS'5'
aS'177'
p2023
aa(lp2024
I5928
aS'201'
p2025
aS'324'
p2026
aa(lp2027
I5932
aS'401'
p2028
aS'505'
p2029
aasS'1JFP'
p2030
(lp2031
(lp2032
I5342
aS'55'
p2033
aS'306'
p2034
aasS'3LQ1'
p2035
(lp2036
(lp2037
I5925
aS'13'
p2038
aS'185'
p2039
aa(lp2040
I5932
aS'438'
p2041
aS'554'
p2042
aa(lp2043
I6972
aS'205'
p2044
aS'405'
p2045
aasS'3LQZ'
p2046
(lp2047
(lp2048
I1690
aS'93'
p2049
aS'174'
p2050
aa(lp2051
I1690
aS'101'
p2052
aS'182'
p2053
aa(lp2054
I4221
aS'13'
p2055
aS'83'
p2056
aa(lp2057
I7398
aS'4'
aS'82'
p2058
aasS'4XV0'
p2059
(lp2060
(lp2061
I6618
aS'51'
p2062
aS'343'
p2063
aasS'4QPZ'
p2064
(lp2065
(lp2066
I5925
aS'5'
aS'173'
p2067
aa(lp2068
I5928
aS'194'
p2069
aS'329'
p2070
aa(lp2071
I5932
aS'392'
p2072
aS'542'
p2073
aasS'1T5X'
p2074
(lp2075
(lp2076
I1680
aS'26'
p2077
aS'117'
p2078
aa(lp2079
I1690
aS'95'
p2080
aS'173'
p2081
aa(lp2082
I1690
aS'103'
p2083
aS'184'
p2084
aa(lp2085
I4221
aS'14'
p2086
aS'86'
p2087
aa(lp2088
I6311
aS'130'
p2089
aS'234'
p2090
aa(lp2091
I7398
aS'4'
aS'81'
p2092
aasS'1GR1'
p2093
(lp2094
(lp2095
I1010
aS'152'
p2096
aS'270'
p2097
aa(lp2098
I3635
aS'49'
p2099
aS'138'
p2100
aasS'3QXD'
p2101
(lp2102
(lp2103
I1690
aS'95'
p2104
aS'173'
p2105
aa(lp2106
I1690
aS'103'
p2107
aS'184'
p2108
aa(lp2109
I4221
aS'14'
p2110
aS'86'
p2111
aa(lp2112
I7398
aS'4'
aS'81'
p2113
aasS'1UPB'
p2114
(lp2115
(lp2116
I5925
aS'13'
p2117
aS'174'
p2118
aa(lp2119
I5928
aS'207'
p2120
aS'344'
p2121
aa(lp2122
I5932
aS'410'
p2123
aS'557'
p2124
aasS'1JWU'
p2125
(lp2126
(lp2127
I1680
aS'26'
p2128
aS'117'
p2129
aa(lp2130
I1690
aS'95'
p2131
aS'173'
p2132
aa(lp2133
I1690
aS'103'
p2134
aS'184'
p2135
aa(lp2136
I4221
aS'14'
p2137
aS'86'
p2138
aa(lp2139
I6311
aS'130'
p2140
aS'234'
p2141
aa(lp2142
I7398
aS'4'
aS'81'
p2143
aasS'3QXA'
p2144
(lp2145
(lp2146
I1690
aS'95'
p2147
aS'173'
p2148
aa(lp2149
I1690
aS'103'
p2150
aS'184'
p2151
aa(lp2152
I4221
aS'14'
p2153
aS'86'
p2154
aa(lp2155
I7398
aS'4'
aS'81'
p2156
aasS'3CRZ'
p2157
(lp2158
(lp2159
I1010
aS'112'
p2160
aS'228'
p2161
aa(lp2162
I3635
aS'17'
p2163
aS'98'
p2164
aasS'3FJO'
p2165
(lp2166
(lp2167
I390
aS'63'
p2168
aS'199'
p2169
aa(lp2170
I1010
aS'510'
p2171
aS'620'
p2172
aa(lp2173
I7371
aS'254'
p2174
aS'473'
p2175
aasS'2X3U'
p2176
(lp2177
(lp2178
I1010
aS'152'
p2179
aS'270'
p2180
aa(lp2181
I3635
aS'49'
p2182
aS'138'
p2183
aasS'2Y03'
p2184
(lp2185
(lp2186
I5342
aS'58'
p2187
aS'343'
p2188
aasS'2Y02'
p2189
(lp2190
(lp2191
I5342
aS'58'
p2192
aS'343'
p2193
aasS'2Y01'
p2194
(lp2195
(lp2196
I5342
aS'58'
p2197
aS'343'
p2198
aasS'2Y00'
p2199
(lp2200
(lp2201
I5342
aS'58'
p2202
aS'343'
p2203
aasS'1IEA'
p2204
(lp2205
(lp2206
I1690
aS'94'
p2207
aS'174'
p2208
aa(lp2209
I1690
aS'103'
p2210
aS'184'
p2211
aa(lp2212
I4221
aS'13'
p2213
aS'86'
p2214
aa(lp2215
I7398
aS'4'
aS'82'
p2216
aasS'2Y04'
p2217
(lp2218
(lp2219
I5342
aS'58'
p2220
aS'343'
p2221
aasS'2XNC'
p2222
(lp2223
(lp2224
I1010
aS'152'
p2225
aS'267'
p2226
aa(lp2227
I3635
aS'84'
p2228
aS'138'
p2229
aasS'3FMX'
p2230
(lp2231
(lp2232
I4044
aS'8'
aS'356'
p2233
aasS'2PGO'
p2234
(lp2235
(lp2236
I5925
aS'5'
aS'173'
p2237
aa(lp2238
I5928
aS'195'
p2239
aS'329'
p2240
aa(lp2241
I5932
aS'397'
p2242
aS'543'
p2243
aasS'2PGN'
p2244
(lp2245
(lp2246
I5925
aS'5'
aS'173'
p2247
aa(lp2248
I5928
aS'195'
p2249
aS'329'
p2250
aa(lp2251
I5932
aS'397'
p2252
aS'543'
p2253
aasS'1YNO'
p2254
(lp2255
(lp2256
I5925
aS'9'
aS'169'
p2257
aa(lp2258
I5928
aS'193'
p2259
aS'325'
p2260
aa(lp2261
I5932
aS'380'
p2262
aS'521'
p2263
aasS'1XKD'
p2264
(lp2265
(lp2266
I4044
aS'38'
p2267
aS'416'
p2268
aasS'4AJS'
p2269
(lp2270
(lp2271
I4044
aS'29'
p2272
aS'412'
p2273
aasS'4AJR'
p2274
(lp2275
(lp2276
I4044
aS'29'
p2277
aS'412'
p2278
aasS'3OJX'
p2279
(lp2280
(lp2281
I390
aS'82'
p2282
aS'219'
p2283
aa(lp2284
I1010
aS'530'
p2285
aS'641'
p2286
aa(lp2287
I7371
aS'274'
p2288
aS'493'
p2289
aasS'3OJW'
p2290
(lp2291
(lp2292
I390
aS'82'
p2293
aS'219'
p2294
aa(lp2295
I1010
aS'530'
p2296
aS'641'
p2297
aa(lp2298
I7371
aS'274'
p2299
aS'493'
p2300
aasS'1BL5'
p2301
(lp2302
(lp2303
I4044
aS'29'
p2304
aS'412'
p2305
aasS'4AJC'
p2306
(lp2307
(lp2308
I4044
aS'29'
p2309
aS'412'
p2310
aasS'4AJB'
p2311
(lp2312
(lp2313
I4044
aS'29'
p2314
aS'412'
p2315
aasS'4AJA'
p2316
(lp2317
(lp2318
I4044
aS'29'
p2319
aS'412'
p2320
aasS'3MMD'
p2321
(lp2322
(lp2323
I6618
aS'20'
p2324
aS'377'
p2325
aasS'1UQY'
p2326
(lp2327
(lp2328
I6618
aS'27'
p2329
aS'367'
p2330
aasS'1UQZ'
p2331
(lp2332
(lp2333
I6618
aS'27'
p2334
aS'367'
p2335
aasS'3C60'
p2336
(lp2337
(lp2338
I1208
aS'118'
p2339
aS'190'
p2340
aa(lp2341
I1690
aS'130'
p2342
aS'215'
p2343
aa(lp2344
I1690
aS'94'
p2345
aS'175'
p2346
aa(lp2347
I1690
aS'132'
p2348
aS'211'
p2349
aa(lp2350
I2388
aS'7'
aS'109'
p2351
aa(lp2352
I2388
aS'4'
aS'110'
p2353
aa(lp2354
I4221
aS'40'
p2355
aS'110'
p2356
aa(lp2357
I7398
aS'4'
aS'84'
p2358
aasS'4GM0'
p2359
(lp2360
(lp2361
I5925
aS'9'
aS'169'
p2362
aa(lp2363
I5928
aS'193'
p2364
aS'325'
p2365
aa(lp2366
I5932
aS'380'
p2367
aS'521'
p2368
aasS'4GM1'
p2369
(lp2370
(lp2371
I5925
aS'9'
aS'169'
p2372
aa(lp2373
I5928
aS'193'
p2374
aS'325'
p2375
aa(lp2376
I5932
aS'380'
p2377
aS'521'
p2378
aasS'2VNJ'
p2379
(lp2380
(lp2381
I1010
aS'125'
p2382
aS'238'
p2383
aa(lp2384
I3635
aS'30'
p2385
aS'105'
p2386
aasS'2VNK'
p2387
(lp2388
(lp2389
I1010
aS'125'
p2390
aS'238'
p2391
aa(lp2392
I3635
aS'30'
p2393
aS'105'
p2394
aasS'2VNH'
p2395
(lp2396
(lp2397
I1010
aS'125'
p2398
aS'238'
p2399
aa(lp2400
I3635
aS'30'
p2401
aS'105'
p2402
aasS'2VNI'
p2403
(lp2404
(lp2405
I1010
aS'125'
p2406
aS'238'
p2407
aa(lp2408
I3635
aS'30'
p2409
aS'105'
p2410
aasS'1XYF'
p2411
(lp2412
(lp2413
I6578
aS'313'
p2414
aS'433'
p2415
aa(lp2416
I6618
aS'6'
aS'298'
p2417
aasS'4QEL'
p2418
(lp2419
(lp2420
I5925
aS'9'
aS'169'
p2421
aa(lp2422
I5928
aS'193'
p2423
aS'325'
p2424
aa(lp2425
I5932
aS'380'
p2426
aS'521'
p2427
aasS'1YI1'
p2428
(lp2429
(lp2430
I5925
aS'98'
p2431
aS'261'
p2432
aa(lp2433
I5928
aS'290'
p2434
aS'420'
p2435
aa(lp2436
I5932
aS'484'
p2437
aS'639'
p2438
aasS'1YI0'
p2439
(lp2440
(lp2441
I5925
aS'98'
p2442
aS'261'
p2443
aa(lp2444
I5928
aS'290'
p2445
aS'420'
p2446
aa(lp2447
I5932
aS'484'
p2448
aS'639'
p2449
aasS'1V0K'
p2450
(lp2451
(lp2452
I6618
aS'6'
aS'299'
p2453
aasS'2WVH'
p2454
(lp2455
(lp2456
I5925
aS'4'
aS'178'
p2457
aa(lp2458
I5928
aS'199'
p2459
aS'305'
p2460
aa(lp2461
I5932
aS'409'
p2462
aS'537'
p2463
aasS'1V0M'
p2464
(lp2465
(lp2466
I6618
aS'6'
aS'299'
p2467
aasS'1V0L'
p2468
(lp2469
(lp2470
I6618
aS'6'
aS'299'
p2471
aasS'1XYZ'
p2472
(lp2473
(lp2474
I6618
aS'518'
p2475
aS'832'
p2476
aasS'1V0N'
p2477
(lp2478
(lp2479
I6618
aS'6'
aS'299'
p2480
aasS'2WVA'
p2481
(lp2482
(lp2483
I5925
aS'4'
aS'178'
p2484
aa(lp2485
I5928
aS'199'
p2486
aS'305'
p2487
aa(lp2488
I5932
aS'409'
p2489
aS'537'
p2490
aasS'2WVG'
p2491
(lp2492
(lp2493
I5925
aS'4'
aS'178'
p2494
aa(lp2495
I5928
aS'199'
p2496
aS'305'
p2497
aa(lp2498
I5932
aS'409'
p2499
aS'537'
p2500
aasS'4BEY'
p2501
(lp2502
(lp2503
I4446
aS'3'
aS'37'
p2504
aa(lp2505
I5342
aS'55'
p2506
aS'306'
p2507
aasS'2CMV'
p2508
(lp2509
(lp2510
I4044
aS'11'
p2511
aS'399'
p2512
aasS'2Q27'
p2513
(lp2514
(lp2515
I5925
aS'10'
p2516
aS'178'
p2517
aa(lp2518
I5928
aS'202'
p2519
aS'327'
p2520
aa(lp2521
I5932
aS'402'
p2522
aS'540'
p2523
aasS'2Q29'
p2524
(lp2525
(lp2526
I5925
aS'10'
p2527
aS'178'
p2528
aa(lp2529
I5928
aS'202'
p2530
aS'327'
p2531
aa(lp2532
I5932
aS'402'
p2533
aS'540'
p2534
aasS'2Q28'
p2535
(lp2536
(lp2537
I5925
aS'10'
p2538
aS'178'
p2539
aa(lp2540
I5928
aS'202'
p2541
aS'327'
p2542
aa(lp2543
I5932
aS'402'
p2544
aS'540'
p2545
aasS'1AI3'
p2546
(lp2547
(lp2548
I4044
aS'29'
p2549
aS'412'
p2550
aasS'1AI2'
p2551
(lp2552
(lp2553
I4044
aS'29'
p2554
aS'412'
p2555
aasS'2FN3'
p2556
(lp2557
(lp2558
I5925
aS'9'
aS'169'
p2559
aa(lp2560
I5928
aS'193'
p2561
aS'325'
p2562
aa(lp2563
I5932
aS'380'
p2564
aS'521'
p2565
aasS'3VL7'
p2566
(lp2567
(lp2568
I4044
aS'4'
aS'355'
p2569
aasS'3VL6'
p2570
(lp2571
(lp2572
I4044
aS'4'
aS'355'
p2573
aasS'3VL4'
p2574
(lp2575
(lp2576
I4044
aS'4'
aS'355'
p2577
aasS'3VL3'
p2578
(lp2579
(lp2580
I4044
aS'4'
aS'355'
p2581
aasS'3VL2'
p2582
(lp2583
(lp2584
I4044
aS'4'
aS'355'
p2585
aasS'2CMJ'
p2586
(lp2587
(lp2588
I4044
aS'11'
p2589
aS'399'
p2590
aasS'1QPB'
p2591
(lp2592
(lp2593
I5925
aS'5'
aS'177'
p2594
aa(lp2595
I5928
aS'201'
p2596
aS'326'
p2597
aa(lp2598
I5932
aS'401'
p2599
aS'505'
p2600
aasS'2NXW'
p2601
(lp2602
(lp2603
I5925
aS'1'
aS'173'
p2604
aa(lp2605
I5928
aS'193'
p2606
aS'328'
p2607
aa(lp2608
I5932
aS'394'
p2609
aS'517'
p2610
aasS'1CNZ'
p2611
(lp2612
(lp2613
I4044
aS'6'
aS'355'
p2614
aasS'2BN4'
p2615
(lp2616
(lp2617
I390
aS'63'
p2618
aS'199'
p2619
aa(lp2620
I1010
aS'538'
p2621
aS'655'
p2622
aa(lp2623
I7371
aS'262'
p2624
aS'480'
p2625
aasS'2Q5L'
p2626
(lp2627
(lp2628
I5925
aS'1'
aS'173'
p2629
aa(lp2630
I5928
aS'193'
p2631
aS'328'
p2632
aa(lp2633
I5932
aS'394'
p2634
aS'517'
p2635
aasS'2Z73'
p2636
(lp2637
(lp2638
I5342
aS'51'
p2639
aS'315'
p2640
aasS'2Q5O'
p2641
(lp2642
(lp2643
I5925
aS'1'
aS'173'
p2644
aa(lp2645
I5928
aS'193'
p2646
aS'328'
p2647
aa(lp2648
I5932
aS'394'
p2649
aS'517'
p2650
aasS'4RJI'
p2651
(lp2652
(lp2653
I5925
aS'16'
p2654
aS'181'
p2655
aa(lp2656
I5928
aS'201'
p2657
aS'334'
p2658
aa(lp2659
I5932
aS'397'
p2660
aS'543'
p2661
aasS'4RJJ'
p2662
(lp2663
(lp2664
I5925
aS'16'
p2665
aS'181'
p2666
aa(lp2667
I5928
aS'201'
p2668
aS'334'
p2669
aa(lp2670
I5932
aS'397'
p2671
aS'543'
p2672
aasS'1W87'
p2673
(lp2674
(lp2675
I1010
aS'152'
p2676
aS'270'
p2677
aa(lp2678
I3635
aS'49'
p2679
aS'138'
p2680
aasS'1R5V'
p2681
(lp2682
(lp2683
I1690
aS'94'
p2684
aS'174'
p2685
aa(lp2686
I1690
aS'130'
p2687
aS'211'
p2688
aa(lp2689
I4221
aS'40'
p2690
aS'113'
p2691
aa(lp2692
I7398
aS'4'
aS'82'
p2693
aasS'1R5W'
p2694
(lp2695
(lp2696
I1690
aS'94'
p2697
aS'174'
p2698
aa(lp2699
I1690
aS'130'
p2700
aS'211'
p2701
aa(lp2702
I4221
aS'40'
p2703
aS'113'
p2704
aa(lp2705
I7398
aS'4'
aS'82'
p2706
aasS'4ICD'
p2707
(lp2708
(lp2709
I4044
aS'29'
p2710
aS'412'
p2711
aasS'2Q5Q'
p2712
(lp2713
(lp2714
I5925
aS'1'
aS'173'
p2715
aa(lp2716
I5928
aS'193'
p2717
aS'328'
p2718
aa(lp2719
I5932
aS'394'
p2720
aS'517'
p2721
aasS'1QG0'
p2722
(lp2723
(lp2724
I1010
aS'161'
p2725
aS'276'
p2726
aasS'1CNF'
p2727
(lp2728
(lp2729
I1010
aS'141'
p2730
aS'251'
p2731
aa(lp2732
I3635
aS'15'
p2733
aS'121'
p2734
aasS'1S9V'
p2735
(lp2736
(lp2737
I1690
aS'94'
p2738
aS'173'
p2739
aa(lp2740
I1690
aS'103'
p2741
aS'184'
p2742
aa(lp2743
I4221
aS'14'
p2744
aS'85'
p2745
aa(lp2746
I7398
aS'4'
aS'82'
p2747
aasS'1CNE'
p2748
(lp2749
(lp2750
I1010
aS'141'
p2751
aS'251'
p2752
aa(lp2753
I3635
aS'15'
p2754
aS'121'
p2755
aasS'4PXF'
p2756
(lp2757
(lp2758
I4446
aS'2'
aS'37'
p2759
aa(lp2760
I5342
aS'55'
p2761
aS'306'
p2762
aasS'1QGA'
p2763
(lp2764
(lp2765
I1010
aS'161'
p2766
aS'276'
p2767
aasS'1V6X'
p2768
(lp2769
(lp2770
I6578
aS'313'
p2771
aS'433'
p2772
aa(lp2773
I6618
aS'6'
aS'298'
p2774
aasS'1D5X'
p2775
(lp2776
(lp2777
I1680
aS'27'
p2778
aS'119'
p2779
aa(lp2780
I1690
aS'95'
p2781
aS'173'
p2782
aa(lp2783
I1690
aS'103'
p2784
aS'184'
p2785
aa(lp2786
I4221
aS'14'
p2787
aS'86'
p2788
aa(lp2789
I6311
aS'131'
p2790
aS'234'
p2791
aa(lp2792
I7398
aS'4'
aS'81'
p2793
aasS'1D5Z'
p2794
(lp2795
(lp2796
I1680
aS'27'
p2797
aS'119'
p2798
aa(lp2799
I1690
aS'95'
p2800
aS'173'
p2801
aa(lp2802
I1690
aS'103'
p2803
aS'184'
p2804
aa(lp2805
I4221
aS'14'
p2806
aS'86'
p2807
aa(lp2808
I6311
aS'131'
p2809
aS'234'
p2810
aa(lp2811
I7398
aS'4'
aS'81'
p2812
aasS'1JSC'
p2813
(lp2814
(lp2815
I5925
aS'93'
p2816
aS'256'
p2817
aa(lp2818
I5928
aS'289'
p2819
aS'431'
p2820
aa(lp2821
I5932
aS'496'
p2822
aS'643'
p2823
aasS'1V6V'
p2824
(lp2825
(lp2826
I6578
aS'313'
p2827
aS'433'
p2828
aa(lp2829
I6618
aS'6'
aS'298'
p2830
aasS'2BNJ'
p2831
(lp2832
(lp2833
I6618
aS'6'
aS'299'
p2834
aa(lp2835
I6618
aS'6'
aS'299'
p2836
aasS'1D5M'
p2837
(lp2838
(lp2839
I1680
aS'27'
p2840
aS'119'
p2841
aa(lp2842
I1690
aS'95'
p2843
aS'173'
p2844
aa(lp2845
I1690
aS'103'
p2846
aS'184'
p2847
aa(lp2848
I4221
aS'14'
p2849
aS'86'
p2850
aa(lp2851
I6311
aS'131'
p2852
aS'234'
p2853
aa(lp2854
I7398
aS'4'
aS'81'
p2855
aasS'1QGZ'
p2856
(lp2857
(lp2858
I1010
aS'152'
p2859
aS'270'
p2860
aa(lp2861
I3635
aS'49'
p2862
aS'138'
p2863
aasS'1QGY'
p2864
(lp2865
(lp2866
I1010
aS'152'
p2867
aS'270'
p2868
aa(lp2869
I3635
aS'49'
p2870
aS'138'
p2871
aasS'3ASJ'
p2872
(lp2873
(lp2874
I4044
aS'5'
aS'330'
p2875
aasS'1G2U'
p2876
(lp2877
(lp2878
I4044
aS'2'
aS'337'
p2879
aasS'4BUO'
p2880
(lp2881
(lp2882
I5342
aS'81'
p2883
aS'369'
p2884
aasS'2XN9'
p2885
(lp2886
(lp2887
I1208
aS'117'
p2888
aS'189'
p2889
aa(lp2890
I1680
aS'27'
p2891
aS'98'
p2892
aa(lp2893
I1690
aS'134'
p2894
aS'219'
p2895
aa(lp2896
I1690
aS'95'
p2897
aS'173'
p2898
aa(lp2899
I1690
aS'103'
p2900
aS'184'
p2901
aa(lp2902
I2388
aS'6'
aS'108'
p2903
aa(lp2904
I2388
aS'8'
aS'114'
p2905
aa(lp2906
I4221
aS'14'
p2907
aS'86'
p2908
aa(lp2909
I6311
aS'110'
p2910
aS'211'
p2911
aa(lp2912
I7398
aS'4'
aS'81'
p2913
aasS'3PWH'
p2914
(lp2915
(lp2916
I5342
aS'23'
p2917
aS'288'
p2918
aasS'1JA0'
p2919
(lp2920
(lp2921
I390
aS'82'
p2922
aS'219'
p2923
aa(lp2924
I390
aS'82'
p2925
aS'219'
p2926
aa(lp2927
I1010
aS'530'
p2928
aS'641'
p2929
aa(lp2930
I1010
aS'530'
p2931
aS'641'
p2932
aa(lp2933
I7371
aS'274'
p2934
aS'493'
p2935
aa(lp2936
I7371
aS'274'
p2937
aS'493'
p2938
aasS'1JA1'
p2939
(lp2940
(lp2941
I390
aS'82'
p2942
aS'219'
p2943
aa(lp2944
I1010
aS'530'
p2945
aS'641'
p2946
aa(lp2947
I7371
aS'274'
p2948
aS'493'
p2949
aasS'1DR0'
p2950
(lp2951
(lp2952
I4044
aS'2'
aS'341'
p2953
aasS'1DR8'
p2954
(lp2955
(lp2956
I4044
aS'2'
aS'340'
p2957
aasS'1X0L'
p2958
(lp2959
(lp2960
I4044
aS'5'
aS'330'
p2961
aasS'1HZX'
p2962
(lp2963
(lp2964
I4446
aS'2'
aS'37'
p2965
aa(lp2966
I5342
aS'55'
p2967
aS'306'
p2968
aasS'4AMJ'
p2969
(lp2970
(lp2971
I5342
aS'58'
p2972
aS'343'
p2973
aasS'4AMI'
p2974
(lp2975
(lp2976
I5342
aS'58'
p2977
aS'343'
p2978
aasS'4KZO'
p2979
(lp2980
(lp2981
I4044
aS'11'
p2982
aS'399'
p2983
aasS'2WZE'
p2984
(lp2985
(lp2986
I1421
aS'37'
p2987
aS'164'
p2988
aa(lp2989
I6618
aS'195'
p2990
aS'537'
p2991
aasS'2UZ1'
p2992
(lp2993
(lp2994
I5925
aS'5'
aS'173'
p2995
aa(lp2996
I5925
aS'5'
aS'173'
p2997
aa(lp2998
I5928
aS'194'
p2999
aS'329'
p3000
aa(lp3001
I5928
aS'194'
p3002
aS'329'
p3003
aa(lp3004
I5932
aS'397'
p3005
aS'542'
p3006
aa(lp3007
I5932
aS'397'
p3008
aS'542'
p3009
aasS'2JIB'
p3010
(lp3011
(lp3012
I5925
aS'12'
p3013
aS'179'
p3014
aa(lp3015
I5928
aS'203'
p3016
aS'331'
p3017
aa(lp3018
I5932
aS'411'
p3019
aS'542'
p3020
aasS'1KTD'
p3021
(lp3022
(lp3023
I1690
aS'94'
p3024
aS'174'
p3025
aa(lp3026
I1690
aS'130'
p3027
aS'211'
p3028
aa(lp3029
I4221
aS'40'
p3030
aS'113'
p3031
aa(lp3032
I7398
aS'4'
aS'82'
p3033
aasS'2IHU'
p3034
(lp3035
(lp3036
I5925
aS'13'
p3037
aS'174'
p3038
aa(lp3039
I5928
aS'207'
p3040
aS'344'
p3041
aa(lp3042
I5932
aS'410'
p3043
aS'557'
p3044
aasS'2X7J'
p3045
(lp3046
(lp3047
I5925
aS'14'
p3048
aS'177'
p3049
aa(lp3050
I5932
aS'418'
p3051
aS'552'
p3052
aa(lp3053
I6972
aS'218'
p3054
aS'402'
p3055
aasS'3VW7'
p3056
(lp3057
(lp3058
I4357
aS'1024'
p3059
aS'1148'
p3060
aa(lp3061
I5342
aS'120'
p3062
aS'371'
p3063
aasS'1LWD'
p3064
(lp3065
(lp3066
I4044
aS'6'
aS'402'
p3067
aasS'1HLL'
p3068
(lp3069
(lp3070
I5342
aS'1'
aS'29'
p3071
aasS'1PO7'
p3072
(lp3073
(lp3074
I5925
aS'9'
aS'169'
p3075
aa(lp3076
I5928
aS'193'
p3077
aS'325'
p3078
aa(lp3079
I5932
aS'380'
p3080
aS'521'
p3081
aasS'1IAK'
p3082
(lp3083
(lp3084
I1690
aS'93'
p3085
aS'174'
p3086
aa(lp3087
I1690
aS'105'
p3088
aS'184'
p3089
aa(lp3090
I4221
aS'15'
p3091
aS'84A'
p3092
aa(lp3093
I6478
aS'176'
p3094
aS'181'
p3095
aa(lp3096
I7398
aS'4'
aS'83'
p3097
aasS'1FHD'
p3098
(lp3099
(lp3100
I6618
aS'4'
aS'310'
p3101
aasS'1IAO'
p3102
(lp3103
(lp3104
I1690
aS'93'
p3105
aS'174'
p3106
aa(lp3107
I1690
aS'105'
p3108
aS'184'
p3109
aa(lp3110
I4221
aS'14'
p3111
aS'84'
p3112
aa(lp3113
I7398
aS'3'
aS'82'
p3114
aasS'3F6E'
p3115
(lp3116
(lp3117
I5925
aS'9'
aS'169'
p3118
aa(lp3119
I5928
aS'193'
p3120
aS'325'
p3121
aa(lp3122
I5932
aS'380'
p3123
aS'521'
p3124
aasS'1W3H'
p3125
(lp3126
(lp3127
I6618
aS'6'
aS'343'
p3128
aasS'2AG0'
p3129
(lp3130
(lp3131
I5925
aS'5'
aS'173'
p3132
aa(lp3133
I5928
aS'194'
p3134
aS'329'
p3135
aa(lp3136
I5932
aS'397'
p3137
aS'542'
p3138
aasS'2AG1'
p3139
(lp3140
(lp3141
I5925
aS'5'
aS'173'
p3142
aa(lp3143
I5928
aS'194'
p3144
aS'329'
p3145
aa(lp3146
I5932
aS'397'
p3147
aS'542'
p3148
aasS'2EZU'
p3149
(lp3150
(lp3151
I5925
aS'14'
p3152
aS'180'
p3153
aa(lp3154
I5928
aS'203'
p3155
aS'332'
p3156
aa(lp3157
I5932
aS'393'
p3158
aS'542'
p3159
aasS'3NIY'
p3160
(lp3161
(lp3162
I6618
aS'21'
p3163
aS'334'
p3164
aasS'1POW'
p3165
(lp3166
(lp3167
I5925
aS'14'
p3168
aS'180'
p3169
aa(lp3170
I5928
aS'203'
p3171
aS'332'
p3172
aa(lp3173
I5932
aS'393'
p3174
aS'542'
p3175
aasS'1ISW'
p3176
(lp3177
(lp3178
I6578
aS'313'
p3179
aS'433'
p3180
aa(lp3181
I6618
aS'6'
aS'298'
p3182
aasS'1ISV'
p3183
(lp3184
(lp3185
I6578
aS'313'
p3186
aS'433'
p3187
aa(lp3188
I6618
aS'6'
aS'298'
p3189
aasS'4BWB'
p3190
(lp3191
(lp3192
I5342
aS'81'
p3193
aS'369'
p3194
aasS'1ISZ'
p3195
(lp3196
(lp3197
I6578
aS'313'
p3198
aS'433'
p3199
aa(lp3200
I6618
aS'6'
aS'298'
p3201
aasS'1ISY'
p3202
(lp3203
(lp3204
I6578
aS'313'
p3205
aS'433'
p3206
aa(lp3207
I6618
aS'6'
aS'298'
p3208
aasS'1W32'
p3209
(lp3210
(lp3211
I6618
aS'6'
aS'343'
p3212
aasS'4C43'
p3213
(lp3214
(lp3215
I1010
aS'152'
p3216
aS'270'
p3217
aa(lp3218
I3635
aS'49'
p3219
aS'138'
p3220
aasS'1W34'
p3221
(lp3222
(lp3223
I1010
aS'152'
p3224
aS'270'
p3225
aa(lp3226
I3635
aS'49'
p3227
aS'138'
p3228
aasS'1POX'
p3229
(lp3230
(lp3231
I5925
aS'14'
p3232
aS'179'
p3233
aa(lp3234
I5928
aS'203'
p3235
aS'332'
p3236
aa(lp3237
I5932
aS'393'
p3238
aS'542'
p3239
aasS'2F8Q'
p3240
(lp3241
(lp3242
I6618
aS'10'
p3243
aS'354'
p3244
aasS'2VK4'
p3245
(lp3246
(lp3247
I5925
aS'5'
aS'177'
p3248
aa(lp3249
I5928
aS'201'
p3250
aS'326'
p3251
aa(lp3252
I5932
aS'397'
p3253
aS'508'
p3254
aasS'2VK1'
p3255
(lp3256
(lp3257
I5925
aS'5'
aS'177'
p3258
aa(lp3259
I5928
aS'204'
p3260
aS'326'
p3261
aa(lp3262
I5932
aS'401'
p3263
aS'505'
p3264
aasS'2EZ8'
p3265
(lp3266
(lp3267
I5925
aS'14'
p3268
aS'180'
p3269
aa(lp3270
I5928
aS'203'
p3271
aS'332'
p3272
aa(lp3273
I5932
aS'393'
p3274
aS'542'
p3275
aasS'1FH7'
p3276
(lp3277
(lp3278
I6618
aS'4'
aS'310'
p3279
aasS'1DLH'
p3280
(lp3281
(lp3282
I1690
aS'95'
p3283
aS'173'
p3284
aa(lp3285
I1690
aS'103'
p3286
aS'184'
p3287
aa(lp3288
I4221
aS'14'
p3289
aS'86'
p3290
aa(lp3291
I7398
aS'4'
aS'81'
p3292
aasS'1FH9'
p3293
(lp3294
(lp3295
I6618
aS'4'
aS'310'
p3296
aasS'2EZ4'
p3297
(lp3298
(lp3299
I5925
aS'14'
p3300
aS'180'
p3301
aa(lp3302
I5928
aS'203'
p3303
aS'332'
p3304
aa(lp3305
I5932
aS'393'
p3306
aS'542'
p3307
aasS'4H25'
p3308
(lp3309
(lp3310
I1690
aS'95'
p3311
aS'173'
p3312
aa(lp3313
I1690
aS'103'
p3314
aS'184'
p3315
aa(lp3316
I4221
aS'13'
p3317
aS'86'
p3318
aa(lp3319
I7398
aS'4'
aS'81'
p3320
aasS'1ISO'
p3321
(lp3322
(lp3323
I4044
aS'29'
p3324
aS'412'
p3325
aasS'2VK8'
p3326
(lp3327
(lp3328
I5925
aS'5'
aS'177'
p3329
aa(lp3330
I5928
aS'204'
p3331
aS'324'
p3332
aa(lp3333
I5932
aS'401'
p3334
aS'505'
p3335
aasS'2VYQ'
p3336
(lp3337
(lp3338
I1010
aS'152'
p3339
aS'270'
p3340
aa(lp3341
I3635
aS'49'
p3342
aS'138'
p3343
aasS'4AJ3'
p3344
(lp3345
(lp3346
I4044
aS'29'
p3347
aS'412'
p3348
aasS'2X72'
p3349
(lp3350
(lp3351
I4446
aS'3'
aS'37'
p3352
aa(lp3353
I5342
aS'55'
p3354
aS'306'
p3355
aasS'1KT2'
p3356
(lp3357
(lp3358
I1690
aS'94'
p3359
aS'174'
p3360
aa(lp3361
I1690
aS'130'
p3362
aS'211'
p3363
aa(lp3364
I4221
aS'40'
p3365
aS'113'
p3366
aa(lp3367
I7398
aS'4'
aS'82'
p3368
aasS'2JI7'
p3369
(lp3370
(lp3371
I5925
aS'12'
p3372
aS'179'
p3373
aa(lp3374
I5928
aS'203'
p3375
aS'331'
p3376
aa(lp3377
I5932
aS'411'
p3378
aS'542'
p3379
aasS'2JI6'
p3380
(lp3381
(lp3382
I5925
aS'12'
p3383
aS'179'
p3384
aa(lp3385
I5928
aS'203'
p3386
aS'331'
p3387
aa(lp3388
I5932
aS'411'
p3389
aS'542'
p3390
aasS'2JI9'
p3391
(lp3392
(lp3393
I5925
aS'12'
p3394
aS'179'
p3395
aa(lp3396
I5928
aS'203'
p3397
aS'331'
p3398
aa(lp3399
I5932
aS'411'
p3400
aS'542'
p3401
aasS'2JI8'
p3402
(lp3403
(lp3404
I5925
aS'12'
p3405
aS'179'
p3406
aa(lp3407
I5928
aS'203'
p3408
aS'331'
p3409
aa(lp3410
I5932
aS'411'
p3411
aS'542'
p3412
aasS'1UMK'
p3413
(lp3414
(lp3415
I1010
aS'176'
p3416
aS'283'
p3417
aa(lp3418
I3635
aS'44'
p3419
aS'150'
p3420
aasS'1WAL'
p3421
(lp3422
(lp3423
I4044
aS'2'
aS'337'
p3424
aasS'3HWW'
p3425
(lp3426
(lp3427
I5925
aS'9'
aS'141'
p3428
aa(lp3429
I5932
aS'414'
p3430
aS'535'
p3431
aa(lp3432
I6972
aS'184'
p3433
aS'388'
p3434
aasS'1UR1'
p3435
(lp3436
(lp3437
I6618
aS'27'
p3438
aS'367'
p3439
aasS'1UR2'
p3440
(lp3441
(lp3442
I6618
aS'27'
p3443
aS'367'
p3444
aasS'1QUE'
p3445
(lp3446
(lp3447
I1010
aS'152'
p3448
aS'270'
p3449
aa(lp3450
I3635
aS'49'
p3451
aS'138'
p3452
aasS'2D4V'
p3453
(lp3454
(lp3455
I4044
aS'29'
p3456
aS'424'
p3457
aasS'1QUF'
p3458
(lp3459
(lp3460
I1010
aS'152'
p3461
aS'270'
p3462
aa(lp3463
I3635
aS'49'
p3464
aS'138'
p3465
aasS'1A8P'
p3466
(lp3467
(lp3468
I1010
aS'112'
p3469
aS'228'
p3470
aa(lp3471
I3635
aS'16'
p3472
aS'98'
p3473
aasS'1I7P'
p3474
(lp3475
(lp3476
I1010
aS'176'
p3477
aS'283'
p3478
aa(lp3479
I3635
aS'44'
p3480
aS'150'
p3481
aasS'4FQX'
p3482
(lp3483
(lp3484
I1690
aS'110'
p3485
aS'181'
p3486
aa(lp3487
I1690
aS'107'
p3488
aS'185'
p3489
aa(lp3490
I1690
aS'95'
p3491
aS'173'
p3492
aa(lp3493
I1690
aS'103'
p3494
aS'184'
p3495
aa(lp3496
I4221
aS'9'
aS'87'
p3497
aa(lp3498
I4221
aS'14'
p3499
aS'86'
p3500
aa(lp3501
I7398
aS'15'
p3502
aS'88'
p3503
aa(lp3504
I7398
aS'4'
aS'81'
p3505
aasS'5ICD'
p3506
(lp3507
(lp3508
I4044
aS'29'
p3509
aS'412'
p3510
aasS'2BSA'
p3511
(lp3512
(lp3513
I1010
aS'152'
p3514
aS'270'
p3515
aa(lp3516
I3635
aS'49'
p3517
aS'138'
p3518
aasS'4WUO'
p3519
(lp3520
(lp3521
I4044
aS'2'
aS'337'
p3522
aasS'1FV1'
p3523
(lp3524
(lp3525
I1142
aS'86'
p3526
aS'104'
p3527
aa(lp3528
I1690
aS'95'
p3529
aS'173'
p3530
aa(lp3531
I1690
aS'103'
p3532
aS'184'
p3533
aa(lp3534
I4221
aS'14'
p3535
aS'86'
p3536
aa(lp3537
I7398
aS'4'
aS'81'
p3538
aasS'4PUE'
p3539
(lp3540
(lp3541
I6618
aS'20'
p3542
aS'377'
p3543
aasS'4PUD'
p3544
(lp3545
(lp3546
I6618
aS'20'
p3547
aS'377'
p3548
aasS'2IAD'
p3549
(lp3550
(lp3551
I1690
aS'93'
p3552
aS'174'
p3553
aa(lp3554
I1690
aS'105'
p3555
aS'184'
p3556
aa(lp3557
I4221
aS'14'
p3558
aS'84'
p3559
aa(lp3560
I7398
aS'3'
aS'82'
p3561
aasS'3QIW'
p3562
(lp3563
(lp3564
I1208
aS'115'
p3565
aS'186'
p3566
aa(lp3567
I1690
aS'94'
p3568
aS'174'
p3569
aa(lp3570
I1690
aS'103'
p3571
aS'184'
p3572
aa(lp3573
I1690
aS'134'
p3574
aS'218'
p3575
aa(lp3576
I2388
aS'5'
aS'106'
p3577
aa(lp3578
I2388
aS'6'
aS'113'
p3579
aa(lp3580
I4221
aS'13'
p3581
aS'86'
p3582
aa(lp3583
I7398
aS'4'
aS'82'
p3584
aasS'2ZIY'
p3585
(lp3586
(lp3587
I5342
aS'51'
p3588
aS'315'
p3589
aasS'2IAN'
p3590
(lp3591
(lp3592
I1208
aS'115'
p3593
aS'187'
p3594
aa(lp3595
I1690
aS'95'
p3596
aS'173'
p3597
aa(lp3598
I1690
aS'103'
p3599
aS'184'
p3600
aa(lp3601
I1690
aS'130'
p3602
aS'215'
p3603
aa(lp3604
I2388
aS'5'
aS'106'
p3605
aa(lp3606
I2388
aS'14'
p3607
aS'109'
p3608
aa(lp3609
I4221
aS'14'
p3610
aS'86'
p3611
aa(lp3612
I7398
aS'4'
aS'81'
p3613
aasS'1BFD'
p3614
(lp3615
(lp3616
I5925
aS'9'
aS'169'
p3617
aa(lp3618
I5928
aS'193'
p3619
aS'325'
p3620
aa(lp3621
I5932
aS'380'
p3622
aS'521'
p3623
aasS'1XAD'
p3624
(lp3625
(lp3626
I4044
aS'2'
aS'337'
p3627
aasS'1XAA'
p3628
(lp3629
(lp3630
I4044
aS'2'
aS'337'
p3631
aasS'1XAB'
p3632
(lp3633
(lp3634
I4044
aS'2'
aS'337'
p3635
aasS'1XAC'
p3636
(lp3637
(lp3638
I4044
aS'2'
aS'337'
p3639
aasS'2IHV'
p3640
(lp3641
(lp3642
I5925
aS'13'
p3643
aS'174'
p3644
aa(lp3645
I5928
aS'207'
p3646
aS'344'
p3647
aa(lp3648
I5932
aS'410'
p3649
aS'557'
p3650
aasS'4BVN'
p3651
(lp3652
(lp3653
I5342
aS'58'
p3654
aS'342'
p3655
aasS'2IHT'
p3656
(lp3657
(lp3658
I5925
aS'13'
p3659
aS'174'
p3660
aa(lp3661
I5928
aS'207'
p3662
aS'344'
p3663
aa(lp3664
I5932
aS'410'
p3665
aS'557'
p3666
aasS'3U1H'
p3667
(lp3668
(lp3669
I4044
aS'4'
aS'351'
p3670
aasS'1GJR'
p3671
(lp3672
(lp3673
I1010
aS'152'
p3674
aS'270'
p3675
aa(lp3676
I3635
aS'49'
p3677
aS'138'
p3678
aasS'3PL6'
p3679
(lp3680
(lp3681
I1208
aS'119'
p3682
aS'191'
p3683
aa(lp3684
I1690
aS'94'
p3685
aS'174'
p3686
aa(lp3687
I1690
aS'103'
p3688
aS'184'
p3689
aa(lp3690
I1690
aS'157'
p3691
aS'242'
p3692
aa(lp3693
I2388
aS'6'
aS'110'
p3694
aa(lp3695
I2388
aS'31'
p3696
aS'137'
p3697
aa(lp3698
I4221
aS'15'
p3699
aS'85'
p3700
aa(lp3701
I7398
aS'3'
aS'82'
p3702
aasS'3AYN'
p3703
(lp3704
(lp3705
I5342
aS'51'
p3706
aS'315'
p3707
aasS'3AYM'
p3708
(lp3709
(lp3710
I5342
aS'51'
p3711
aS'315'
p3712
aasS'1NDH'
p3713
(lp3714
(lp3715
I1010
aS'148'
p3716
aS'255'
p3717
aa(lp3718
I3635
aS'16'
p3719
aS'122'
p3720
aasS'1JWS'
p3721
(lp3722
(lp3723
I1680
aS'26'
p3724
aS'117'
p3725
aa(lp3726
I1690
aS'95'
p3727
aS'173'
p3728
aa(lp3729
I1690
aS'103'
p3730
aS'184'
p3731
aa(lp3732
I4221
aS'14'
p3733
aS'86'
p3734
aa(lp3735
I6311
aS'130'
p3736
aS'234'
p3737
aa(lp3738
I7398
aS'4'
aS'81'
p3739
aasS'1A6A'
p3740
(lp3741
(lp3742
I1690
aS'95'
p3743
aS'173'
p3744
aa(lp3745
I1690
aS'103'
p3746
aS'184'
p3747
aa(lp3748
I4221
aS'13'
p3749
aS'86'
p3750
aa(lp3751
I7398
aS'5'
aS'81'
p3752
aasS'4PN2'
p3753
(lp3754
(lp3755
I6618
aS'40'
p3756
aS'319'
p3757
aasS'1OVM'
p3758
(lp3759
(lp3760
I5925
aS'7'
aS'178'
p3761
aa(lp3762
I5928
aS'203'
p3763
aS'320'
p3764
aa(lp3765
I5932
aS'396'
p3766
aS'528'
p3767
aasS'4BV0'
p3768
(lp3769
(lp3770
I5342
aS'81'
p3771
aS'369'
p3772
aasS'4XNV'
p3773
(lp3774
(lp3775
I404
aS'1003'
p3776
aS'1049'
p3777
aa(lp3778
I5342
aS'68'
p3779
aS'324'
p3780
aasS'4XNW'
p3781
(lp3782
(lp3783
I404
aS'1003'
p3784
aS'1049'
p3785
aa(lp3786
I5342
aS'68'
p3787
aS'324'
p3788
aasS'3DMS'
p3789
(lp3790
(lp3791
I4044
aS'31'
p3792
aS'412'
p3793
aasS'1JWM'
p3794
(lp3795
(lp3796
I1680
aS'26'
p3797
aS'117'
p3798
aa(lp3799
I1690
aS'95'
p3800
aS'173'
p3801
aa(lp3802
I1690
aS'103'
p3803
aS'184'
p3804
aa(lp3805
I4221
aS'14'
p3806
aS'86'
p3807
aa(lp3808
I6311
aS'130'
p3809
aS'234'
p3810
aa(lp3811
I7398
aS'4'
aS'81'
p3812
aasS'3QE2'
p3813
(lp3814
(lp3815
I390
aS'85'
p3816
aS'222'
p3817
aa(lp3818
I1010
aS'533'
p3819
aS'643'
p3820
aa(lp3821
I7371
aS'277'
p3822
aS'496'
p3823
aasS'1GAQ'
p3824
(lp3825
(lp3826
I1010
aS'167'
p3827
aS'282'
p3828
aa(lp3829
I1010
aS'167'
p3830
aS'282'
p3831
aa(lp3832
I3635
aS'66'
p3833
aS'153'
p3834
aa(lp3835
I3635
aS'66'
p3836
aS'153'
p3837
aa(lp3838
I4293
aS'9'
aS'82'
p3839
aa(lp3840
I4293
aS'9'
aS'82'
p3841
aasS'1GAW'
p3842
(lp3843
(lp3844
I1010
aS'167'
p3845
aS'282'
p3846
aa(lp3847
I3635
aS'66'
p3848
aS'153'
p3849
aasS'3FPK'
p3850
(lp3851
(lp3852
I1010
aS'111'
p3853
aS'222'
p3854
aa(lp3855
I3635
aS'18'
p3856
aS'90'
p3857
aasS'1E5N'
p3858
(lp3859
(lp3860
I6618
aS'6'
aS'343'
p3861
aasS'2DJI'
p3862
(lp3863
(lp3864
I5925
aS'9'
aS'175'
p3865
aa(lp3866
I5928
aS'197'
p3867
aS'327'
p3868
aa(lp3869
I5932
aS'388'
p3870
aS'537'
p3871
aasS'4P57'
p3872
(lp3873
(lp3874
I1690
aS'93'
p3875
aS'174'
p3876
aa(lp3877
I1690
aS'101'
p3878
aS'182'
p3879
aa(lp3880
I4221
aS'13'
p3881
aS'83'
p3882
aa(lp3883
I7398
aS'4'
aS'82'
p3884
aasS'4JUA'
p3885
(lp3886
(lp3887
I5925
aS'9'
aS'169'
p3888
aa(lp3889
I5928
aS'193'
p3890
aS'325'
p3891
aa(lp3892
I5932
aS'380'
p3893
aS'521'
p3894
aasS'2Y3Z'
p3895
(lp3896
(lp3897
I4044
aS'2'
aS'337'
p3898
aasS'3W2H'
p3899
(lp3900
(lp3901
I1010
aS'148'
p3902
aS'255'
p3903
aa(lp3904
I3635
aS'16'
p3905
aS'122'
p3906
aasS'2LNL'
p3907
(lp3908
(lp3909
I5342
aS'56'
p3910
aS'305'
p3911
aasS'3LO8'
p3912
(lp3913
(lp3914
I1010
aS'170'
p3915
aS'284'
p3916
aasS'1KRH'
p3917
(lp3918
(lp3919
I1010
aS'215'
p3920
aS'317'
p3921
aa(lp3922
I3635
aS'111'
p3923
aS'205'
p3924
aa(lp3925
I4293
aS'11'
p3926
aS'88'
p3927
aasS'4XX6'
p3928
(lp3929
(lp3930
I6618
aS'42'
p3931
aS'343'
p3932
aasS'2P24'
p3933
(lp3934
(lp3935
I1690
aS'93'
p3936
aS'174'
p3937
aa(lp3938
I1690
aS'213'
p3939
aS'284'
p3940
aa(lp3941
I4221
aS'115'
p3942
aS'184A'
p3943
aa(lp3944
I7398
aS'4'
aS'83'
p3945
aasS'2C31'
p3946
(lp3947
(lp3948
I5925
aS'12'
p3949
aS'179'
p3950
aa(lp3951
I5928
aS'203'
p3952
aS'331'
p3953
aa(lp3954
I5932
aS'411'
p3955
aS'542'
p3956
aasS'4BEZ'
p3957
(lp3958
(lp3959
I4446
aS'3'
aS'37'
p3960
aa(lp3961
I5342
aS'55'
p3962
aS'306'
p3963
aasS'3ICD'
p3964
(lp3965
(lp3966
I4044
aS'29'
p3967
aS'412'
p3968
aasS'1IDF'
p3969
(lp3970
(lp3971
I4044
aS'29'
p3972
aS'412'
p3973
aasS'4WQM'
p3974
(lp3975
(lp3976
I1010
aS'204'
p3977
aS'307'
p3978
aa(lp3979
I3635
aS'106'
p3980
aS'190'
p3981
aa(lp3982
I4293
aS'11'
p3983
aS'80'
p3984
aasS'1GO2'
p3985
(lp3986
(lp3987
I1010
aS'152'
p3988
aS'270'
p3989
aa(lp3990
I3635
aS'49'
p3991
aS'138'
p3992
aasS'4QDM'
p3993
(lp3994
(lp3995
I6618
aS'10'
p3996
aS'354'
p3997
aasS'3NYD'
p3998
(lp3999
(lp4000
I6618
aS'6'
aS'299'
p4001
aasS'4K68'
p4002
(lp4003
(lp4004
I6618
aS'35'
p4005
aS'376'
p4006
aasS'1FDR'
p4007
(lp4008
(lp4009
I1010
aS'111'
p4010
aS'222'
p4011
aa(lp4012
I3635
aS'18'
p4013
aS'90'
p4014
aasS'1QX4'
p4015
(lp4016
(lp4017
I1010
aS'176'
p4018
aS'283'
p4019
aa(lp4020
I3635
aS'44'
p4021
aS'150'
p4022
aasS'3F6B'
p4023
(lp4024
(lp4025
I5925
aS'9'
aS'169'
p4026
aa(lp4027
I5928
aS'193'
p4028
aS'325'
p4029
aa(lp4030
I5932
aS'380'
p4031
aS'521'
p4032
aasS'1PVD'
p4033
(lp4034
(lp4035
I5925
aS'5'
aS'177'
p4036
aa(lp4037
I5928
aS'201'
p4038
aS'324'
p4039
aa(lp4040
I5932
aS'401'
p4041
aS'505'
p4042
aasS'1GVH'
p4043
(lp4044
(lp4045
I1010
aS'264'
p4046
aS'372'
p4047
aa(lp4048
I1262
aS'7'
aS'103'
p4049
aa(lp4050
I3635
aS'157'
p4051
aS'252'
p4052
aasS'4RWA'
p4053
(lp4054
(lp4055
I4577
aS'1002'
p4056
aS'1104'
p4057
aa(lp4058
I5342
aS'66'
p4059
aS'318'
p4060
aasS'3INM'
p4061
(lp4062
(lp4063
I4044
aS'11'
p4064
aS'399'
p4065
aasS'1QH0'
p4066
(lp4067
(lp4068
I1010
aS'152'
p4069
aS'270'
p4070
aasS'4RWD'
p4071
(lp4072
(lp4073
I4577
aS'1002'
p4074
aS'1104'
p4075
aa(lp4076
I4577
aS'1002'
p4077
aS'1104'
p4078
aa(lp4079
I5342
aS'66'
p4080
aS'318'
p4081
aa(lp4082
I5342
aS'66'
p4083
aS'318'
p4084
aasS'4I0P'
p4085
(lp4086
(lp4087
I1690
aS'110'
p4088
aS'181'
p4089
aa(lp4090
I1690
aS'107'
p4091
aS'185'
p4092
aa(lp4093
I1690
aS'93'
p4094
aS'173'
p4095
aa(lp4096
I1690
aS'103'
p4097
aS'184'
p4098
aa(lp4099
I4221
aS'9'
aS'87'
p4100
aa(lp4101
I4221
aS'14'
p4102
aS'85'
p4103
aa(lp4104
I7398
aS'15'
p4105
aS'88'
p4106
aa(lp4107
I7398
aS'4'
aS'82'
p4108
aasS'2OK8'
p4109
(lp4110
(lp4111
I1010
aS'175'
p4112
aS'288'
p4113
aasS'1W0D'
p4114
(lp4115
(lp4116
I4044
aS'2'
aS'330'
p4117
aasS'4D8P'
p4118
(lp4119
(lp4120
I1690
aS'94'
p4121
aS'173'
p4122
aa(lp4123
I1690
aS'103'
p4124
aS'184'
p4125
aa(lp4126
I4221
aS'14'
p4127
aS'85'
p4128
aa(lp4129
I7398
aS'4'
aS'82'
p4130
aasS'1Q6Z'
p4131
(lp4132
(lp4133
I5925
aS'9'
aS'169'
p4134
aa(lp4135
I5928
aS'193'
p4136
aS'325'
p4137
aa(lp4138
I5932
aS'380'
p4139
aS'521'
p4140
aasS'2EZT'
p4141
(lp4142
(lp4143
I5925
aS'14'
p4144
aS'180'
p4145
aa(lp4146
I5928
aS'203'
p4147
aS'332'
p4148
aa(lp4149
I5932
aS'393'
p4150
aS'542'
p4151
aasS'2UWF'
p4152
(lp4153
(lp4154
I6618
aS'20'
p4155
aS'360'
p4156
aasS'5DMK'
p4157
(lp4158
(lp4159
I1690
aS'96'
p4160
aS'174'
p4161
aa(lp4162
I1690
aS'120'
p4163
aS'199'
p4164
aa(lp4165
I4221
aS'30'
p4166
aS'99'
p4167
aa(lp4168
I7398
aS'6'
aS'85'
p4169
aasS'4UMX'
p4170
(lp4171
(lp4172
I4044
aS'11'
p4173
aS'399'
p4174
aasS'4UMY'
p4175
(lp4176
(lp4177
I4044
aS'11'
p4178
aS'399'
p4179
aasS'2W5F'
p4180
(lp4181
(lp4182
I1421
aS'37'
p4183
aS'164'
p4184
aa(lp4185
I6618
aS'195'
p4186
aS'537'
p4187
aasS'4P5T'
p4188
(lp4189
(lp4190
I1208
aS'119'
p4191
aS'191'
p4192
aa(lp4193
I1690
aS'130'
p4194
aS'215'
p4195
aa(lp4196
I1690
aS'93'
p4197
aS'174'
p4198
aa(lp4199
I1690
aS'106'
p4200
aS'185'
p4201
aa(lp4202
I2388
aS'5'
aS'110'
p4203
aa(lp4204
I2388
aS'4'
aS'110'
p4205
aa(lp4206
I4221
aS'14'
p4207
aS'84'
p4208
aa(lp4209
I7398
aS'3'
aS'83'
p4210
aasS'4XXV'
p4211
(lp4212
(lp4213
I4044
aS'2'
aS'351'
p4214
aasS'2J4Y'
p4215
(lp4216
(lp4217
I4446
aS'3'
aS'37'
p4218
aa(lp4219
I5342
aS'55'
p4220
aS'306'
p4221
aasS'1IDE'
p4222
(lp4223
(lp4224
I4044
aS'29'
p4225
aS'412'
p4226
aasS'4GM4'
p4227
(lp4228
(lp4229
I5925
aS'9'
aS'169'
p4230
aa(lp4231
I5928
aS'193'
p4232
aS'325'
p4233
aa(lp4234
I5932
aS'380'
p4235
aS'521'
p4236
aasS'4J4Q'
p4237
(lp4238
(lp4239
I4446
aS'2'
aS'37'
p4240
aa(lp4241
I5342
aS'55'
p4242
aS'306'
p4243
aasS'1IT0'
p4244
(lp4245
(lp4246
I6578
aS'313'
p4247
aS'433'
p4248
aa(lp4249
I6618
aS'6'
aS'298'
p4250
aasS'3UZA'
p4251
(lp4252
(lp4253
I5342
aS'23'
p4254
aS'288'
p4255
aasS'4EH1'
p4256
(lp4257
(lp4258
I1010
aS'120'
p4259
aS'218'
p4260
aa(lp4261
I3635
aS'8'
aS'111'
p4262
aasS'3OAX'
p4263
(lp4264
(lp4265
I4446
aS'2'
aS'37'
p4266
aa(lp4267
I5342
aS'55'
p4268
aS'306'
p4269
aasS'1T9A'
p4270
(lp4271
(lp4272
I5925
aS'93'
p4273
aS'256'
p4274
aa(lp4275
I5928
aS'289'
p4276
aS'431'
p4277
aa(lp4278
I5932
aS'496'
p4279
aS'643'
p4280
aasS'1T9B'
p4281
(lp4282
(lp4283
I5925
aS'93'
p4284
aS'256'
p4285
aa(lp4286
I5928
aS'289'
p4287
aS'431'
p4288
aa(lp4289
I5932
aS'496'
p4290
aS'643'
p4291
aasS'1T9C'
p4292
(lp4293
(lp4294
I5925
aS'93'
p4295
aS'256'
p4296
aa(lp4297
I5928
aS'289'
p4298
aS'431'
p4299
aa(lp4300
I5932
aS'496'
p4301
aS'643'
p4302
aasS'3BLW'
p4303
(lp4304
(lp4305
I4044
aS'19'
p4306
aS'342'
p4307
aa(lp4308
I4044
aS'23'
p4309
aS'350'
p4310
aasS'3BLV'
p4311
(lp4312
(lp4313
I4044
aS'19'
p4314
aS'342'
p4315
aa(lp4316
I4044
aS'23'
p4317
aS'350'
p4318
aasS'4E41'
p4319
(lp4320
(lp4321
I1208
aS'116'
p4322
aS'188'
p4323
aa(lp4324
I1690
aS'95'
p4325
aS'173'
p4326
aa(lp4327
I1690
aS'103'
p4328
aS'184'
p4329
aa(lp4330
I1690
aS'129'
p4331
aS'214'
p4332
aa(lp4333
I2388
aS'5'
aS'107'
p4334
aa(lp4335
I2388
aS'4'
aS'109'
p4336
aa(lp4337
I4221
aS'14'
p4338
aS'86'
p4339
aa(lp4340
I7398
aS'4'
aS'81'
p4341
aasS'1IKA'
p4342
(lp4343
(lp4344
I4044
aS'29'
p4345
aS'412'
p4346
aasS'3BLX'
p4347
(lp4348
(lp4349
I4044
aS'19'
p4350
aS'342'
p4351
aa(lp4352
I4044
aS'23'
p4353
aS'350'
p4354
aasS'2GU8'
p4355
(lp4356
(lp4357
I252
aS'44'
p4358
aS'297'
p4359
aa(lp4360
I3438
aS'505'
p4361
aS'524'
p4362
aasS'1IB0'
p4363
(lp4364
(lp4365
I1010
aS'176'
p4366
aS'283'
p4367
aa(lp4368
I3635
aS'44'
p4369
aS'150'
p4370
aasS'1B3V'
p4371
(lp4372
(lp4373
I6618
aS'7'
aS'300'
p4374
aasS'1B3W'
p4375
(lp4376
(lp4377
I6618
aS'7'
aS'300'
p4378
aasS'1H42'
p4379
(lp4380
(lp4381
I1010
aS'152'
p4382
aS'270'
p4383
aa(lp4384
I3635
aS'49'
p4385
aS'138'
p4386
aasS'1TYO'
p4387
(lp4388
(lp4389
I4044
aS'38'
p4390
aS'416'
p4391
aasS'1B3X'
p4392
(lp4393
(lp4394
I6618
aS'7'
aS'300'
p4395
aasS'1B3Y'
p4396
(lp4397
(lp4398
I6618
aS'7'
aS'300'
p4399
aasS'1B3Z'
p4400
(lp4401
(lp4402
I6618
aS'7'
aS'300'
p4403
aasS'1FYT'
p4404
(lp4405
(lp4406
I1208
aS'123'
p4407
aS'195'
p4408
aa(lp4409
I1690
aS'95'
p4410
aS'173'
p4411
aa(lp4412
I1690
aS'103'
p4413
aS'184'
p4414
aa(lp4415
I1690
aS'137'
p4416
aS'222'
p4417
aa(lp4418
I2388
aS'8'
aS'114'
p4419
aa(lp4420
I2388
aS'6'
aS'116'
p4421
aa(lp4422
I4221
aS'14'
p4423
aS'86'
p4424
aa(lp4425
I7398
aS'4'
aS'81'
p4426
aasS'1BJK'
p4427
(lp4428
(lp4429
I1010
aS'152'
p4430
aS'270'
p4431
aa(lp4432
I3635
aS'49'
p4433
aS'138'
p4434
aasS'4OZH'
p4435
(lp4436
(lp4437
I1208
aS'135'
p4438
aS'207'
p4439
aa(lp4440
I1690
aS'94'
p4441
aS'173'
p4442
aa(lp4443
I1690
aS'103'
p4444
aS'184'
p4445
aa(lp4446
I1690
aS'147'
p4447
aS'232'
p4448
aa(lp4449
I2388
aS'6'
aS'126'
p4450
aa(lp4451
I2388
aS'6'
aS'127'
p4452
aa(lp4453
I4221
aS'14'
p4454
aS'85'
p4455
aa(lp4456
I7398
aS'4'
aS'82'
p4457
aasS'4MZX'
p4458
(lp4459
(lp4460
I5925
aS'9'
aS'169'
p4461
aa(lp4462
I5928
aS'193'
p4463
aS'325'
p4464
aa(lp4465
I5932
aS'382'
p4466
aS'521'
p4467
aasS'4OZG'
p4468
(lp4469
(lp4470
I1208
aS'135'
p4471
aS'207'
p4472
aa(lp4473
I1690
aS'94'
p4474
aS'173'
p4475
aa(lp4476
I1690
aS'103'
p4477
aS'184'
p4478
aa(lp4479
I1690
aS'147'
p4480
aS'232'
p4481
aa(lp4482
I2388
aS'6'
aS'126'
p4483
aa(lp4484
I2388
aS'6'
aS'127'
p4485
aa(lp4486
I4221
aS'14'
p4487
aS'85'
p4488
aa(lp4489
I7398
aS'4'
aS'82'
p4490
aasS'4OZF'
p4491
(lp4492
(lp4493
I1208
aS'135'
p4494
aS'207'
p4495
aa(lp4496
I1690
aS'94'
p4497
aS'173'
p4498
aa(lp4499
I1690
aS'103'
p4500
aS'184'
p4501
aa(lp4502
I1690
aS'147'
p4503
aS'232'
p4504
aa(lp4505
I2388
aS'6'
aS'126'
p4506
aa(lp4507
I2388
aS'6'
aS'127'
p4508
aa(lp4509
I4221
aS'14'
p4510
aS'85'
p4511
aa(lp4512
I7398
aS'4'
aS'82'
p4513
aasS'3CAP'
p4514
(lp4515
(lp4516
I4446
aS'2'
aS'37'
p4517
aa(lp4518
I5342
aS'55'
p4519
aS'306'
p4520
aasS'2Y42'
p4521
(lp4522
(lp4523
I4044
aS'2'
aS'337'
p4524
aasS'2R4R'
p4525
(lp4526
(lp4527
I1690
aS'120'
p4528
aS'205'
p4529
aa(lp4530
I1690
aS'128'
p4531
aS'205'
p4532
aa(lp4533
I2388
aS'6'
aS'106'
p4534
aa(lp4535
I2388
aS'5'
aS'111'
p4536
aa(lp4537
I5342
aS'50'
p4538
aS'326'
p4539
aasS'2R4S'
p4540
(lp4541
(lp4542
I1690
aS'120'
p4543
aS'205'
p4544
aa(lp4545
I1690
aS'128'
p4546
aS'205'
p4547
aa(lp4548
I2388
aS'6'
aS'106'
p4549
aa(lp4550
I2388
aS'5'
aS'111'
p4551
aa(lp4552
I5342
aS'50'
p4553
aS'326'
p4554
aasS'1HEX'
p4555
(lp4556
(lp4557
I4044
aS'2'
aS'337'
p4558
aasS'4KGD'
p4559
(lp4560
(lp4561
I5925
aS'14'
p4562
aS'180'
p4563
aa(lp4564
I5928
aS'203'
p4565
aS'332'
p4566
aa(lp4567
I5932
aS'393'
p4568
aS'542'
p4569
aasS'1ES0'
p4570
(lp4571
(lp4572
I1690
aS'93'
p4573
aS'174'
p4574
aa(lp4575
I1690
aS'113'
p4576
aS'184'
p4577
aa(lp4578
I4221
aS'14'
p4579
aS'85'
p4580
aa(lp4581
I7398
aS'3'
aS'82'
p4582
aasS'1J9Z'
p4583
(lp4584
(lp4585
I390
aS'82'
p4586
aS'219'
p4587
aa(lp4588
I1010
aS'530'
p4589
aS'641'
p4590
aa(lp4591
I7371
aS'274'
p4592
aS'493'
p4593
aasS'2D1Z'
p4594
(lp4595
(lp4596
I6578
aS'313'
p4597
aS'433'
p4598
aa(lp4599
I6618
aS'6'
aS'298'
p4600
aasS'1FRQ'
p4601
(lp4602
(lp4603
I1010
aS'167'
p4604
aS'282'
p4605
aasS'3VO2'
p4606
(lp4607
(lp4608
I1010
aS'167'
p4609
aS'282'
p4610
aa(lp4611
I3635
aS'67'
p4612
aS'153'
p4613
aasS'1T09'
p4614
(lp4615
(lp4616
I4044
aS'11'
p4617
aS'399'
p4618
aasS'3VO1'
p4619
(lp4620
(lp4621
I1010
aS'167'
p4622
aS'282'
p4623
aa(lp4624
I3635
aS'69'
p4625
aS'153'
p4626
aasS'3UDO'
p4627
(lp4628
(lp4629
I4044
aS'5'
aS'348'
p4630
aa(lp4631
I4044
aS'5'
aS'348'
p4632
aasS'1FH8'
p4633
(lp4634
(lp4635
I6618
aS'4'
aS'310'
p4636
aasS'2BPO'
p4637
(lp4638
(lp4639
I390
aS'63'
p4640
aS'199'
p4641
aa(lp4642
I1010
aS'538'
p4643
aS'655'
p4644
aa(lp4645
I7371
aS'262'
p4646
aS'480'
p4647
aasS'1NQ6'
p4648
(lp4649
(lp4650
I6618
aS'4'
aS'300'
p4651
aasS'3WEX'
p4652
(lp4653
(lp4654
I1690
aS'93'
p4655
aS'174'
p4656
aa(lp4657
I1690
aS'101'
p4658
aS'182'
p4659
aa(lp4660
I4221
aS'13'
p4661
aS'83'
p4662
aa(lp4663
I7398
aS'4'
aS'82'
p4664
aasS'4E4P'
p4665
(lp4666
(lp4667
I6618
aS'7'
aS'305'
p4668
aasS'1E62'
p4669
(lp4670
(lp4671
I1010
aS'152'
p4672
aS'270'
p4673
aa(lp4674
I3635
aS'49'
p4675
aS'138'
p4676
aasS'1E63'
p4677
(lp4678
(lp4679
I1010
aS'152'
p4680
aS'270'
p4681
aa(lp4682
I3635
aS'49'
p4683
aS'138'
p4684
aasS'1E64'
p4685
(lp4686
(lp4687
I1010
aS'152'
p4688
aS'270'
p4689
aa(lp4690
I3635
aS'49'
p4691
aS'138'
p4692
aasS'4GG6'
p4693
(lp4694
(lp4695
I1208
aS'135'
p4696
aS'205'
p4697
aa(lp4698
I1208
aS'135'
p4699
aS'205'
p4700
aa(lp4701
I1690
aS'94'
p4702
aS'173'
p4703
aa(lp4704
I1690
aS'103'
p4705
aS'184'
p4706
aa(lp4707
I1690
aS'147'
p4708
aS'232'
p4709
aa(lp4710
I1690
aS'94'
p4711
aS'173'
p4712
aa(lp4713
I1690
aS'103'
p4714
aS'184'
p4715
aa(lp4716
I1690
aS'147'
p4717
aS'232'
p4718
aa(lp4719
I2388
aS'6'
aS'126'
p4720
aa(lp4721
I2388
aS'6'
aS'127'
p4722
aa(lp4723
I2388
aS'6'
aS'126'
p4724
aa(lp4725
I2388
aS'6'
aS'127'
p4726
aa(lp4727
I4221
aS'14'
p4728
aS'85'
p4729
aa(lp4730
I4221
aS'14'
p4731
aS'85'
p4732
aa(lp4733
I7398
aS'4'
aS'82'
p4734
aa(lp4735
I7398
aS'4'
aS'82'
p4736
aasS'1V5B'
p4737
(lp4738
(lp4739
I4044
aS'4'
aS'350'
p4740
aasS'1B30'
p4741
(lp4742
(lp4743
I6618
aS'7'
aS'300'
p4744
aasS'1B31'
p4745
(lp4746
(lp4747
I6618
aS'7'
aS'300'
p4748
aasS'1V6Y'
p4749
(lp4750
(lp4751
I6618
aS'6'
aS'312'
p4752
aasS'4GG1'
p4753
(lp4754
(lp4755
I5925
aS'9'
aS'169'
p4756
aa(lp4757
I5928
aS'193'
p4758
aS'325'
p4759
aa(lp4760
I5932
aS'380'
p4761
aS'521'
p4762
aasS'1V6W'
p4763
(lp4764
(lp4765
I6578
aS'313'
p4766
aS'433'
p4767
aa(lp4768
I6618
aS'6'
aS'298'
p4769
aasS'2Y40'
p4770
(lp4771
(lp4772
I4044
aS'2'
aS'337'
p4773
aasS'1V6U'
p4774
(lp4775
(lp4776
I6578
aS'313'
p4777
aS'433'
p4778
aa(lp4779
I6618
aS'6'
aS'298'
p4780
aasS'3FLK'
p4781
(lp4782
(lp4783
I4044
aS'8'
aS'356'
p4784
aasS'2IV0'
p4785
(lp4786
(lp4787
I4044
aS'30'
p4788
aS'405'
p4789
aasS'1GC9'
p4790
(lp4791
(lp4792
I4044
aS'2'
aS'337'
p4793
aasS'4GPE'
p4794
(lp4795
(lp4796
I5925
aS'9'
aS'169'
p4797
aa(lp4798
I5928
aS'193'
p4799
aS'325'
p4800
aa(lp4801
I5932
aS'380'
p4802
aS'521'
p4803
aasS'2VZL'
p4804
(lp4805
(lp4806
I1010
aS'152'
p4807
aS'270'
p4808
aa(lp4809
I3635
aS'49'
p4810
aS'138'
p4811
aasS'4GPO'
p4812
(lp4813
(lp4814
I5342
aS'58'
p4815
aS'343'
p4816
aasS'2FGL'
p4817
(lp4818
(lp4819
I6618
aS'10'
p4820
aS'354'
p4821
aasS'1F20'
p4822
(lp4823
(lp4824
I1010
aS'1246'
p4825
aS'1358'
p4826
aa(lp4827
I7371
aS'986'
p4828
aS'1214'
p4829
aasS'2Q5J'
p4830
(lp4831
(lp4832
I5925
aS'1'
aS'173'
p4833
aa(lp4834
I5928
aS'193'
p4835
aS'328'
p4836
aa(lp4837
I5932
aS'394'
p4838
aS'517'
p4839
aasS'4MQ5'
p4840
(lp4841
(lp4842
I5925
aS'9'
aS'169'
p4843
aa(lp4844
I5928
aS'193'
p4845
aS'325'
p4846
aa(lp4847
I5932
aS'380'
p4848
aS'521'
p4849
aasS'3O2L'
p4850
(lp4851
(lp4852
I6618
aS'6'
aS'299'
p4853
aasS'2W93'
p4854
(lp4855
(lp4856
I5925
aS'5'
aS'177'
p4857
aa(lp4858
I5928
aS'201'
p4859
aS'324'
p4860
aa(lp4861
I5932
aS'401'
p4862
aS'505'
p4863
aasS'1IPD'
p4864
(lp4865
(lp4866
I4044
aS'2'
aS'337'
p4867
aasS'4RJK'
p4868
(lp4869
(lp4870
I5925
aS'16'
p4871
aS'181'
p4872
aa(lp4873
I5928
aS'201'
p4874
aS'334'
p4875
aa(lp4876
I5932
aS'397'
p4877
aS'543'
p4878
aasS'1ZGL'
p4879
(lp4880
(lp4881
I1208
aS'123'
p4882
aS'195'
p4883
aa(lp4884
I1690
aS'95'
p4885
aS'173'
p4886
aa(lp4887
I1690
aS'103'
p4888
aS'184'
p4889
aa(lp4890
I1690
aS'137'
p4891
aS'222'
p4892
aa(lp4893
I2388
aS'6'
aS'114'
p4894
aa(lp4895
I2388
aS'6'
aS'116'
p4896
aa(lp4897
I4221
aS'14'
p4898
aS'86'
p4899
aa(lp4900
I7398
aS'4'
aS'81'
p4901
aasS'1XAS'
p4902
(lp4903
(lp4904
I6618
aS'6'
aS'299'
p4905
aasS'3W2I'
p4906
(lp4907
(lp4908
I1010
aS'148'
p4909
aS'255'
p4910
aa(lp4911
I3635
aS'16'
p4912
aS'122'
p4913
aasS'1L9H'
p4914
(lp4915
(lp4916
I4446
aS'2'
aS'37'
p4917
aa(lp4918
I5342
aS'55'
p4919
aS'306'
p4920
aasS'1R5I'
p4921
(lp4922
(lp4923
I1690
aS'95'
p4924
aS'173'
p4925
aa(lp4926
I1690
aS'103'
p4927
aS'184'
p4928
aa(lp4929
I4221
aS'14'
p4930
aS'86'
p4931
aa(lp4932
I4487
aS'0'
aS'212'
p4933
aa(lp4934
I7398
aS'4'
aS'81'
p4935
aasS'3U7B'
p4936
(lp4937
(lp4938
I6618
aS'5'
aS'321'
p4939
aasS'3JQP'
p4940
(lp4941
(lp4942
I1010
aS'175'
p4943
aS'288'
p4944
aasS'3JQQ'
p4945
(lp4946
(lp4947
I1010
aS'175'
p4948
aS'288'
p4949
aasS'3JQR'
p4950
(lp4951
(lp4952
I1010
aS'175'
p4953
aS'288'
p4954
aasS'4BS0'
p4955
(lp4956
(lp4957
I6618
aS'6'
aS'299'
p4958
aasS'2VJY'
p4959
(lp4960
(lp4961
I5925
aS'5'
aS'177'
p4962
aa(lp4963
I5928
aS'201'
p4964
aS'326'
p4965
aa(lp4966
I5932
aS'397'
p4967
aS'508'
p4968
aasS'3RO8'
p4969
(lp4970
(lp4971
I6618
aS'7'
aS'305'
p4972
aasS'3W2E'
p4973
(lp4974
(lp4975
I1010
aS'148'
p4976
aS'255'
p4977
aa(lp4978
I3635
aS'16'
p4979
aS'122'
p4980
aasS'1GRO'
p4981
(lp4982
(lp4983
I4044
aS'29'
p4984
aS'412'
p4985
aasS'2OJE'
p4986
(lp4987
(lp4988
I1690
aS'95'
p4989
aS'173'
p4990
aa(lp4991
I1690
aS'103'
p4992
aS'184'
p4993
aa(lp4994
I4221
aS'14'
p4995
aS'86'
p4996
aa(lp4997
I4487
aS'0'
aS'212'
p4998
aa(lp4999
I7398
aS'4'
aS'81'
p5000
aasS'3W2F'
p5001
(lp5002
(lp5003
I1010
aS'148'
p5004
aS'255'
p5005
aa(lp5006
I3635
aS'16'
p5007
aS'122'
p5008
aasS'4UAJ'
p5009
(lp5010
(lp5011
I1010
aS'278'
p5012
aS'386'
p5013
aa(lp5014
I3635
aS'205'
p5015
aS'267'
p5016
aasS'4AF7'
p5017
(lp5018
(lp5019
I1010
aS'161'
p5020
aS'276'
p5021
aasS'3KJ6'
p5022
(lp5023
(lp5024
I1690
aS'120'
p5025
aS'205'
p5026
aa(lp5027
I1690
aS'128'
p5028
aS'205'
p5029
aa(lp5030
I2388
aS'6'
aS'106'
p5031
aa(lp5032
I2388
aS'5'
aS'111'
p5033
aa(lp5034
I5342
aS'50'
p5035
aS'326'
p5036
aasS'1LO5'
p5037
(lp5038
(lp5039
I1680
aS'37'
p5040
aS'113'
p5041
aa(lp5042
I1690
aS'95'
p5043
aS'173'
p5044
aa(lp5045
I1690
aS'103'
p5046
aS'184'
p5047
aa(lp5048
I4221
aS'14'
p5049
aS'86'
p5050
aa(lp5051
I6311
aS'123'
p5052
aS'230'
p5053
aa(lp5054
I7398
aS'4'
aS'81'
p5055
aasS'1GOQ'
p5056
(lp5057
(lp5058
I6618
aS'6'
aS'299'
p5059
aasS'2WBJ'
p5060
(lp5061
(lp5062
I1208
aS'119'
p5063
aS'191'
p5064
aa(lp5065
I1690
aS'95'
p5066
aS'173'
p5067
aa(lp5068
I1690
aS'103'
p5069
aS'184'
p5070
aa(lp5071
I1690
aS'160'
p5072
aS'245'
p5073
aa(lp5074
I2388
aS'8'
aS'111'
p5075
aa(lp5076
I2388
aS'28'
p5077
aS'140'
p5078
aa(lp5079
I4221
aS'14'
p5080
aS'86'
p5081
aa(lp5082
I7398
aS'4'
aS'81'
p5083
aasS'1GOR'
p5084
(lp5085
(lp5086
I6618
aS'6'
aS'299'
p5087
aasS'1GOM'
p5088
(lp5089
(lp5090
I6618
aS'6'
aS'299'
p5091
aasS'1P8F'
p5092
(lp5093
(lp5094
I4044
aS'29'
p5095
aS'412'
p5096
aasS'1GOO'
p5097
(lp5098
(lp5099
I6618
aS'6'
aS'299'
p5100
aasS'1MCZ'
p5101
(lp5102
(lp5103
I5925
aS'9'
aS'169'
p5104
aa(lp5105
I5928
aS'193'
p5106
aS'325'
p5107
aa(lp5108
I5932
aS'380'
p5109
aS'521'
p5110
aasS'1GOK'
p5111
(lp5112
(lp5113
I6618
aS'6'
aS'299'
p5114
aasS'1KLU'
p5115
(lp5116
(lp5117
I1680
aS'26'
p5118
aS'117'
p5119
aa(lp5120
I1690
aS'95'
p5121
aS'173'
p5122
aa(lp5123
I1690
aS'103'
p5124
aS'184'
p5125
aa(lp5126
I4221
aS'14'
p5127
aS'86'
p5128
aa(lp5129
I6311
aS'130'
p5130
aS'234'
p5131
aa(lp5132
I7398
aS'4'
aS'81'
p5133
aasS'3MAS'
p5134
(lp5135
(lp5136
I4044
aS'11'
p5137
aS'399'
p5138
aa(lp5139
I4044
aS'11'
p5140
aS'399'
p5141
aasS'3MAR'
p5142
(lp5143
(lp5144
I4044
aS'11'
p5145
aS'399'
p5146
aa(lp5147
I4044
aS'11'
p5148
aS'399'
p5149
aasS'3MAP'
p5150
(lp5151
(lp5152
I4044
aS'11'
p5153
aS'399'
p5154
aasS'2XYL'
p5155
(lp5156
(lp5157
I6618
aS'4'
aS'310'
p5158
aasS'5A8E'
p5159
(lp5160
(lp5161
I5342
aS'63'
p5162
aS'353'
p5163
aasS'4UHR'
p5164
(lp5165
(lp5166
I5342
aS'23'
p5167
aS'288'
p5168
aasS'4MQS'
p5169
(lp5170
(lp5171
I2388
aS'11'
p5172
aS'119'
p5173
aa(lp5174
I5342
aS'40'
p5175
aS'440'
p5176
aasS'1BX1'
p5177
(lp5178
(lp5179
I1010
aS'167'
p5180
aS'282'
p5181
aasS'1BX0'
p5182
(lp5183
(lp5184
I1010
aS'167'
p5185
aS'282'
p5186
aasS'4MQT'
p5187
(lp5188
(lp5189
I2388
aS'11'
p5190
aS'119'
p5191
aa(lp5192
I5342
aS'40'
p5193
aS'440'
p5194
aasS'1BX2'
p5195
(lp5196
(lp5197
I1142
aS'85'
p5198
aS'98'
p5199
aa(lp5200
I1690
aS'95'
p5201
aS'173'
p5202
aa(lp5203
I1690
aS'103'
p5204
aS'184'
p5205
aa(lp5206
I4221
aS'14'
p5207
aS'86'
p5208
aa(lp5209
I7398
aS'4'
aS'81'
p5210
aasS'2I36'
p5211
(lp5212
(lp5213
I4446
aS'2'
aS'37'
p5214
aa(lp5215
I5342
aS'55'
p5216
aS'306'
p5217
aasS'1JK8'
p5218
(lp5219
(lp5220
I1690
aS'94'
p5221
aS'173'
p5222
aa(lp5223
I1690
aS'103'
p5224
aS'184'
p5225
aa(lp5226
I4221
aS'14'
p5227
aS'85'
p5228
aa(lp5229
I7398
aS'4'
aS'82'
p5230
aasS'2I35'
p5231
(lp5232
(lp5233
I4446
aS'2'
aS'37'
p5234
aa(lp5235
I5342
aS'55'
p5236
aS'306'
p5237
aasS'3RFM'
p5238
(lp5239
(lp5240
I5342
aS'23'
p5241
aS'288'
p5242
aasS'3LVB'
p5243
(lp5244
(lp5245
I1010
aS'170'
p5246
aS'284'
p5247
aasS'4GP9'
p5248
(lp5249
(lp5250
I5925
aS'9'
aS'169'
p5251
aa(lp5252
I5928
aS'193'
p5253
aS'325'
p5254
aa(lp5255
I5932
aS'380'
p5256
aS'521'
p5257
aasS'3FLM'
p5258
(lp5259
(lp5260
I5925
aS'9'
aS'141'
p5261
aa(lp5262
I5932
aS'414'
p5263
aS'535'
p5264
aa(lp5265
I6972
aS'184'
p5266
aS'388'
p5267
aasS'2HPY'
p5268
(lp5269
(lp5270
I4446
aS'2'
aS'37'
p5271
aa(lp5272
I5342
aS'55'
p5273
aS'306'
p5274
aasS'1H85'
p5275
(lp5276
(lp5277
I1010
aS'152'
p5278
aS'270'
p5279
aa(lp5280
I3635
aS'49'
p5281
aS'138'
p5282
aasS'2NNA'
p5283
(lp5284
(lp5285
I1690
aS'94'
p5286
aS'173'
p5287
aa(lp5288
I1690
aS'103'
p5289
aS'184'
p5290
aa(lp5291
I4221
aS'14'
p5292
aS'85'
p5293
aa(lp5294
I7398
aS'4'
aS'82'
p5295
aasS'5DGD'
p5296
(lp5297
(lp5298
I5925
aS'9'
aS'169'
p5299
aa(lp5300
I5928
aS'193'
p5301
aS'325'
p5302
aa(lp5303
I5932
aS'380'
p5304
aS'521'
p5305
aasS'2IAM'
p5306
(lp5307
(lp5308
I1208
aS'115'
p5309
aS'187'
p5310
aa(lp5311
I1690
aS'95'
p5312
aS'173'
p5313
aa(lp5314
I1690
aS'103'
p5315
aS'184'
p5316
aa(lp5317
I1690
aS'130'
p5318
aS'215'
p5319
aa(lp5320
I2388
aS'5'
aS'106'
p5321
aa(lp5322
I2388
aS'14'
p5323
aS'109'
p5324
aa(lp5325
I4221
aS'14'
p5326
aS'86'
p5327
aa(lp5328
I7398
aS'4'
aS'81'
p5329
aasS'1FND'
p5330
(lp5331
(lp5332
I1010
aS'167'
p5333
aS'282'
p5334
aasS'1FNC'
p5335
(lp5336
(lp5337
I1010
aS'167'
p5338
aS'282'
p5339
aasS'1FNB'
p5340
(lp5341
(lp5342
I1010
aS'167'
p5343
aS'282'
p5344
aasS'2G4F'
p5345
(lp5346
(lp5347
I6618
aS'6'
aS'298'
p5348
aasS'3C5Z'
p5349
(lp5350
(lp5351
I1208
aS'118'
p5352
aS'190'
p5353
aa(lp5354
I1690
aS'130'
p5355
aS'215'
p5356
aa(lp5357
I1690
aS'94'
p5358
aS'175'
p5359
aa(lp5360
I1690
aS'132'
p5361
aS'211'
p5362
aa(lp5363
I2388
aS'5'
aS'110'
p5364
aa(lp5365
I2388
aS'4'
aS'109'
p5366
aa(lp5367
I4221
aS'40'
p5368
aS'110'
p5369
aa(lp5370
I7398
aS'4'
aS'84'
p5371
aasS'2G4O'
p5372
(lp5373
(lp5374
I4044
aS'2'
aS'330'
p5375
aasS'1EWY'
p5376
(lp5377
(lp5378
I1010
aS'152'
p5379
aS'270'
p5380
aa(lp5381
I3635
aS'49'
p5382
aS'138'
p5383
aa(lp5384
I4293
aS'11'
p5385
aS'84'
p5386
aasS'1Z8N'
p5387
(lp5388
(lp5389
I5925
aS'98'
p5390
aS'261'
p5391
aa(lp5392
I5928
aS'290'
p5393
aS'420'
p5394
aa(lp5395
I5932
aS'484'
p5396
aS'639'
p5397
aasS'3FSJ'
p5398
(lp5399
(lp5400
I5925
aS'9'
aS'169'
p5401
aa(lp5402
I5928
aS'193'
p5403
aS'325'
p5404
aa(lp5405
I5932
aS'380'
p5406
aS'521'
p5407
aasS'4GBX'
p5408
(lp5409
(lp5410
I1690
aS'110'
p5411
aS'181'
p5412
aa(lp5413
I1690
aS'107'
p5414
aS'185'
p5415
aa(lp5416
I1690
aS'95'
p5417
aS'173'
p5418
aa(lp5419
I1690
aS'103'
p5420
aS'184'
p5421
aa(lp5422
I4221
aS'9'
aS'87'
p5423
aa(lp5424
I4221
aS'14'
p5425
aS'86'
p5426
aa(lp5427
I7398
aS'15'
p5428
aS'88'
p5429
aa(lp5430
I7398
aS'4'
aS'81'
p5431
aasS'4F7I'
p5432
(lp5433
(lp5434
I4044
aS'2'
aS'337'
p5435
aasS'4BNP'
p5436
(lp5437
(lp5438
I4044
aS'29'
p5439
aS'412'
p5440
aasS'3ZC3'
p5441
(lp5442
(lp5443
I1010
aS'152'
p5444
aS'270'
p5445
aasS'4F7D'
p5446
(lp5447
(lp5448
I1010
aS'127'
p5449
aS'243'
p5450
aa(lp5451
I3635
aS'34'
p5452
aS'113'
p5453
aasS'3VKZ'
p5454
(lp5455
(lp5456
I4044
aS'4'
aS'355'
p5457
aasS'2YDO'
p5458
(lp5459
(lp5460
I5342
aS'23'
p5461
aS'288'
p5462
aasS'3MS8'
p5463
(lp5464
(lp5465
I6618
aS'7'
aS'329'
p5466
aasS'2PAN'
p5467
(lp5468
(lp5469
I5925
aS'4'
aS'172'
p5470
aa(lp5471
I5928
aS'193'
p5472
aS'328'
p5473
aa(lp5474
I5932
aS'393'
p5475
aS'553'
p5476
aasS'1US3'
p5477
(lp5478
(lp5479
I6618
aS'251'
p5480
aS'595'
p5481
aa(lp5482
I6891
aS'98'
p5483
aS'247'
p5484
aasS'1US2'
p5485
(lp5486
(lp5487
I6618
aS'251'
p5488
aS'595'
p5489
aa(lp5490
I6891
aS'95'
p5491
aS'247'
p5492
aasS'1PI3'
p5493
(lp5494
(lp5495
I5925
aS'9'
aS'169'
p5496
aa(lp5497
I5928
aS'193'
p5498
aS'325'
p5499
aa(lp5500
I5932
aS'380'
p5501
aS'521'
p5502
aasS'1U3H'
p5503
(lp5504
(lp5505
I1690
aS'93'
p5506
aS'174'
p5507
aa(lp5508
I1690
aS'105'
p5509
aS'184'
p5510
aa(lp5511
I2388
aS'5'
aS'114'
p5512
aa(lp5513
I2388
aS'6'
aS'117'
p5514
aa(lp5515
I4221
aS'15'
p5516
aS'84A'
p5517
aa(lp5518
I7398
aS'4'
aS'83'
p5519
aasS'4K9P'
p5520
(lp5521
(lp5522
I5925
aS'9'
aS'169'
p5523
aa(lp5524
I5928
aS'193'
p5525
aS'325'
p5526
aa(lp5527
I5932
aS'380'
p5528
aS'521'
p5529
aasS'1WPW'
p5530
(lp5531
(lp5532
I4044
aS'3'
aS'331'
p5533
aasS'2QTL'
p5534
(lp5535
(lp5536
I1010
aS'542'
p5537
aS'661'
p5538
aa(lp5539
I7371
aS'272'
p5540
aS'492'
p5541
aasS'3MSD'
p5542
(lp5543
(lp5544
I6618
aS'7'
aS'329'
p5545
aasS'3MSG'
p5546
(lp5547
(lp5548
I6618
aS'7'
aS'329'
p5549
aasS'1V94'
p5550
(lp5551
(lp5552
I4044
aS'38'
p5553
aS'416'
p5554
aasS'3PDO'
p5555
(lp5556
(lp5557
I1690
aS'95'
p5558
aS'173'
p5559
aa(lp5560
I1690
aS'103'
p5561
aS'184'
p5562
aa(lp5563
I4221
aS'14'
p5564
aS'86'
p5565
aa(lp5566
I7398
aS'4'
aS'81'
p5567
aasS'2I37'
p5568
(lp5569
(lp5570
I4446
aS'2'
aS'37'
p5571
aa(lp5572
I5342
aS'55'
p5573
aS'306'
p5574
aasS'1HOF'
p5575
(lp5576
(lp5577
I5342
aS'1'
aS'29'
p5578
aasS'1KG0'
p5579
(lp5580
(lp5581
I1690
aS'95'
p5582
aS'173'
p5583
aa(lp5584
I1690
aS'103'
p5585
aS'184'
p5586
aa(lp5587
I4221
aS'14'
p5588
aS'86'
p5589
aa(lp5590
I7398
aS'4'
aS'81'
p5591
aasS'3EY9'
p5592
(lp5593
(lp5594
I5925
aS'4'
aS'170'
p5595
aa(lp5596
I5928
aS'192'
p5597
aS'319'
p5598
aa(lp5599
I5932
aS'379'
p5600
aS'525'
p5601
aasS'2QTZ'
p5602
(lp5603
(lp5604
I1010
aS'542'
p5605
aS'661'
p5606
aa(lp5607
I7371
aS'272'
p5608
aS'492'
p5609
aasS'3WUE'
p5610
(lp5611
(lp5612
I6618
aS'43'
p5613
aS'348'
p5614
aasS'4I3K'
p5615
(lp5616
(lp5617
I4044
aS'11'
p5618
aS'399'
p5619
aasS'4I3L'
p5620
(lp5621
(lp5622
I4044
aS'11'
p5623
aS'399'
p5624
aasS'2G87'
p5625
(lp5626
(lp5627
I4446
aS'2'
aS'37'
p5628
aa(lp5629
I5342
aS'55'
p5630
aS'306'
p5631
aasS'3UDU'
p5632
(lp5633
(lp5634
I4044
aS'5'
aS'348'
p5635
aasS'4IWH'
p5636
(lp5637
(lp5638
I4044
aS'2'
aS'351'
p5639
aasS'1Y9D'
p5640
(lp5641
(lp5642
I5925
aS'14'
p5643
aS'180'
p5644
aa(lp5645
I5928
aS'203'
p5646
aS'332'
p5647
aa(lp5648
I5932
aS'393'
p5649
aS'542'
p5650
aasS'2D20'
p5651
(lp5652
(lp5653
I6578
aS'313'
p5654
aS'433'
p5655
aa(lp5656
I6618
aS'6'
aS'298'
p5657
aasS'2D22'
p5658
(lp5659
(lp5660
I6578
aS'313'
p5661
aS'433'
p5662
aa(lp5663
I6618
aS'6'
aS'298'
p5664
aasS'1D9K'
p5665
(lp5666
(lp5667
I1690
aS'93'
p5668
aS'174'
p5669
aa(lp5670
I1690
aS'105'
p5671
aS'184'
p5672
aa(lp5673
I2388
aS'5'
aS'114'
p5674
aa(lp5675
I2388
aS'6'
aS'116A'
p5676
aa(lp5677
I4221
aS'15'
p5678
aS'84A'
p5679
aa(lp5680
I7398
aS'4'
aS'83'
p5681
aasS'1R85'
p5682
(lp5683
(lp5684
I6618
aS'20'
p5685
aS'377'
p5686
aasS'2OJF'
p5687
(lp5688
(lp5689
I252
aS'43'
p5690
aS'297'
p5691
aa(lp5692
I3438
aS'5'
aS'24'
p5693
aasS'3PXO'
p5694
(lp5695
(lp5696
I4446
aS'2'
aS'37'
p5697
aa(lp5698
I5342
aS'55'
p5699
aS'306'
p5700
aasS'1R86'
p5701
(lp5702
(lp5703
I6618
aS'20'
p5704
aS'377'
p5705
aasS'2AYQ'
p5706
(lp5707
(lp5708
I4044
aS'4'
aS'350'
p5709
aasS'4N6H'
p5710
(lp5711
(lp5712
I4577
aS'1002'
p5713
aS'1104'
p5714
aa(lp5715
I5342
aS'66'
p5716
aS'318'
p5717
aasS'3DQB'
p5718
(lp5719
(lp5720
I4446
aS'2'
aS'37'
p5721
aa(lp5722
I5342
aS'55'
p5723
aS'306'
p5724
aasS'3R8W'
p5725
(lp5726
(lp5727
I4044
aS'6'
aS'355'
p5728
aasS'3OZU'
p5729
(lp5730
(lp5731
I1010
aS'271'
p5732
aS'377'
p5733
aa(lp5734
I1262
aS'7'
aS'103'
p5735
aa(lp5736
I3635
aS'159'
p5737
aS'260'
p5738
aasS'3OZV'
p5739
(lp5740
(lp5741
I1010
aS'271'
p5742
aS'377'
p5743
aa(lp5744
I1262
aS'7'
aS'103'
p5745
aa(lp5746
I3635
aS'159'
p5747
aS'260'
p5748
aasS'3OZW'
p5749
(lp5750
(lp5751
I1010
aS'271'
p5752
aS'377'
p5753
aa(lp5754
I1262
aS'7'
aS'103'
p5755
aa(lp5756
I3635
aS'159'
p5757
aS'260'
p5758
aasS'3O6F'
p5759
(lp5760
(lp5761
I1208
aS'116'
p5762
aS'188'
p5763
aa(lp5764
I1690
aS'95'
p5765
aS'173'
p5766
aa(lp5767
I1690
aS'132'
p5768
aS'213'
p5769
aa(lp5770
I1690
aS'134'
p5771
aS'219'
p5772
aa(lp5773
I2388
aS'5'
aS'107'
p5774
aa(lp5775
I2388
aS'4'
aS'114'
p5776
aa(lp5777
I4221
aS'43'
p5778
aS'115'
p5779
aa(lp5780
I7398
aS'4'
aS'81'
p5781
aasS'5C1M'
p5782
(lp5783
(lp5784
I2388
aS'14'
p5785
aS'122'
p5786
aa(lp5787
I5342
aS'85'
p5788
aS'336'
p5789
aasS'1CLX'
p5790
(lp5791
(lp5792
I6618
aS'6'
aS'343'
p5793
aasS'3REY'
p5794
(lp5795
(lp5796
I5342
aS'23'
p5797
aS'288'
p5798
aasS'2OK7'
p5799
(lp5800
(lp5801
I1010
aS'175'
p5802
aS'288'
p5803
aasS'3ZEV'
p5804
(lp5805
(lp5806
I5342
aS'81'
p5807
aS'369'
p5808
aasS'4U9U'
p5809
(lp5810
(lp5811
I1010
aS'278'
p5812
aS'386'
p5813
aa(lp5814
I3635
aS'205'
p5815
aS'267'
p5816
aasS'1AQD'
p5817
(lp5818
(lp5819
I1690
aS'95'
p5820
aS'173'
p5821
aa(lp5822
I1690
aS'103'
p5823
aS'184'
p5824
aa(lp5825
I4221
aS'14'
p5826
aS'86'
p5827
aa(lp5828
I7398
aS'4'
aS'81'
p5829
aasS'1TA3'
p5830
(lp5831
(lp5832
I6618
aS'3'
aS'299'
p5833
aa(lp5834
I7541
aS'7'
aS'257'
p5835
aasS'1HXY'
p5836
(lp5837
(lp5838
I1680
aS'27'
p5839
aS'98'
p5840
aa(lp5841
I1690
aS'95'
p5842
aS'173'
p5843
aa(lp5844
I1690
aS'103'
p5845
aS'184'
p5846
aa(lp5847
I4221
aS'14'
p5848
aS'86'
p5849
aa(lp5850
I6311
aS'110'
p5851
aS'211'
p5852
aa(lp5853
I7398
aS'4'
aS'81'
p5854
aasS'3PQR'
p5855
(lp5856
(lp5857
I4446
aS'2'
aS'37'
p5858
aa(lp5859
I5342
aS'55'
p5860
aS'306'
p5861
aasS'1SEB'
p5862
(lp5863
(lp5864
I1680
aS'27'
p5865
aS'119'
p5866
aa(lp5867
I1690
aS'95'
p5868
aS'173'
p5869
aa(lp5870
I1690
aS'103'
p5871
aS'184'
p5872
aa(lp5873
I4221
aS'14'
p5874
aS'86'
p5875
aa(lp5876
I6311
aS'131'
p5877
aS'234'
p5878
aa(lp5879
I7398
aS'4'
aS'81'
p5880
aasS'3QFT'
p5881
(lp5882
(lp5883
I1010
aS'533'
p5884
aS'643'
p5885
aa(lp5886
I7371
aS'277'
p5887
aS'496'
p5888
aasS'4YLF'
p5889
(lp5890
(lp5891
I1010
aS'108'
p5892
aS'199'
p5893
aa(lp5894
I1417
aS'16'
p5895
aS'127'
p5896
aa(lp5897
I1685
aS'216'
p5898
aS'252'
p5899
aa(lp5900
I3635
aS'9'
aS'96'
p5901
aa(lp5902
I7341
aS'142'
p5903
aS'448'
p5904
aasS'3QFR'
p5905
(lp5906
(lp5907
I390
aS'85'
p5908
aS'222'
p5909
aa(lp5910
I1010
aS'533'
p5911
aS'643'
p5912
aa(lp5913
I7371
aS'277'
p5914
aS'496'
p5915
aasS'2G3I'
p5916
(lp5917
(lp5918
I6618
aS'6'
aS'298'
p5919
aasS'2G3J'
p5920
(lp5921
(lp5922
I6618
aS'6'
aS'298'
p5923
aasS'1PB1'
p5924
(lp5925
(lp5926
I4044
aS'29'
p5927
aS'412'
p5928
aasS'1PB3'
p5929
(lp5930
(lp5931
I4044
aS'29'
p5932
aS'412'
p5933
aasS'3QFC'
p5934
(lp5935
(lp5936
I390
aS'85'
p5937
aS'222'
p5938
aa(lp5939
I1010
aS'533'
p5940
aS'643'
p5941
aa(lp5942
I7371
aS'277'
p5943
aS'496'
p5944
aasS'3FZN'
p5945
(lp5946
(lp5947
I5925
aS'9'
aS'169'
p5948
aa(lp5949
I5928
aS'193'
p5950
aS'325'
p5951
aa(lp5952
I5932
aS'380'
p5953
aS'521'
p5954
aasS'1DPZ'
p5955
(lp5956
(lp5957
I4044
aS'2'
aS'337'
p5958
aasS'2QFY'
p5959
(lp5960
(lp5961
I4044
aS'7'
aS'401'
p5962
aasS'2QFX'
p5963
(lp5964
(lp5965
I4044
aS'7'
aS'401'
p5966
aasS'4K9L'
p5967
(lp5968
(lp5969
I5925
aS'9'
aS'169'
p5970
aa(lp5971
I5928
aS'193'
p5972
aS'325'
p5973
aa(lp5974
I5932
aS'380'
p5975
aS'521'
p5976
aasS'2QFW'
p5977
(lp5978
(lp5979
I4044
aS'7'
aS'401'
p5980
aasS'2QFV'
p5981
(lp5982
(lp5983
I4044
aS'7'
aS'401'
p5984
aasS'3V2Y'
p5985
(lp5986
(lp5987
I4357
aS'1024'
p5988
aS'1148'
p5989
aa(lp5990
I5342
aS'62'
p5991
aS'311'
p5992
aasS'4JUC'
p5993
(lp5994
(lp5995
I5925
aS'9'
aS'169'
p5996
aa(lp5997
I5928
aS'193'
p5998
aS'325'
p5999
aa(lp6000
I5932
aS'380'
p6001
aS'521'
p6002
aasS'4JUB'
p6003
(lp6004
(lp6005
I5925
aS'9'
aS'169'
p6006
aa(lp6007
I5928
aS'193'
p6008
aS'325'
p6009
aa(lp6010
I5932
aS'380'
p6011
aS'521'
p6012
aasS'4JUD'
p6013
(lp6014
(lp6015
I5925
aS'9'
aS'169'
p6016
aa(lp6017
I5928
aS'193'
p6018
aS'325'
p6019
aa(lp6020
I5932
aS'380'
p6021
aS'521'
p6022
aasS'4JUF'
p6023
(lp6024
(lp6025
I5925
aS'9'
aS'169'
p6026
aa(lp6027
I5928
aS'193'
p6028
aS'325'
p6029
aa(lp6030
I5932
aS'380'
p6031
aS'521'
p6032
aasS'3TY4'
p6033
(lp6034
(lp6035
I4044
aS'11'
p6036
aS'356'
p6037
aasS'3TY3'
p6038
(lp6039
(lp6040
I4044
aS'11'
p6041
aS'356'
p6042
aasS'3V2W'
p6043
(lp6044
(lp6045
I4357
aS'1024'
p6046
aS'1148'
p6047
aa(lp6048
I5342
aS'62'
p6049
aS'311'
p6050
aasS'2E5M'
p6051
(lp6052
(lp6053
I4044
aS'27'
p6054
aS'401'
p6055
aa(lp6056
I4044
aS'27'
p6057
aS'401'
p6058
aasS'2G9H'
p6059
(lp6060
(lp6061
I1680
aS'54'
p6062
aS'83'
p6063
aa(lp6064
I1690
aS'95'
p6065
aS'173'
p6066
aa(lp6067
I1690
aS'103'
p6068
aS'184'
p6069
aa(lp6070
I4221
aS'14'
p6071
aS'86'
p6072
aa(lp6073
I6311
aS'94'
p6074
aS'212'
p6075
aa(lp6076
I7398
aS'4'
aS'81'
p6077
aasS'3PGC'
p6078
(lp6079
(lp6080
I1690
aS'95'
p6081
aS'173'
p6082
aa(lp6083
I1690
aS'103'
p6084
aS'184'
p6085
aa(lp6086
I4221
aS'14'
p6087
aS'86'
p6088
aa(lp6089
I7398
aS'4'
aS'81'
p6090
aasS'3PGD'
p6091
(lp6092
(lp6093
I1690
aS'95'
p6094
aS'173'
p6095
aa(lp6096
I1690
aS'103'
p6097
aS'184'
p6098
aa(lp6099
I4221
aS'14'
p6100
aS'86'
p6101
aa(lp6102
I7398
aS'4'
aS'81'
p6103
aasS'1J8H'
p6104
(lp6105
(lp6106
I1208
aS'123'
p6107
aS'195'
p6108
aa(lp6109
I1690
aS'95'
p6110
aS'173'
p6111
aa(lp6112
I1690
aS'103'
p6113
aS'184'
p6114
aa(lp6115
I1690
aS'137'
p6116
aS'222'
p6117
aa(lp6118
I2388
aS'8'
aS'114'
p6119
aa(lp6120
I2388
aS'6'
aS'116'
p6121
aa(lp6122
I4221
aS'14'
p6123
aS'86'
p6124
aa(lp6125
I7398
aS'4'
aS'81'
p6126
aasS'1OSI'
p6127
(lp6128
(lp6129
I4044
aS'2'
aS'337'
p6130
aasS'4AOU'
p6131
(lp6132
(lp6133
I4044
aS'7'
aS'394'
p6134
aasS'4AOV'
p6135
(lp6136
(lp6137
I4044
aS'9'
aS'388'
p6138
aa(lp6139
I4044
aS'9'
aS'388'
p6140
aasS'1OSJ'
p6141
(lp6142
(lp6143
I4044
aS'2'
aS'337'
p6144
aasS'8ICD'
p6145
(lp6146
(lp6147
I4044
aS'29'
p6148
aS'412'
p6149
aasS'1ZPD'
p6150
(lp6151
(lp6152
I5925
aS'4'
aS'178'
p6153
aa(lp6154
I5928
aS'199'
p6155
aS'305'
p6156
aa(lp6157
I5932
aS'409'
p6158
aS'537'
p6159
aasS'2EXO'
p6160
(lp6161
(lp6162
I6618
aS'4'
aS'310'
p6163
aasS'4AH2'
p6164
(lp6165
(lp6166
I1690
aS'95'
p6167
aS'173'
p6168
aa(lp6169
I1690
aS'103'
p6170
aS'184'
p6171
aa(lp6172
I4221
aS'14'
p6173
aS'86'
p6174
aa(lp6175
I7398
aS'4'
aS'81'
p6176
aasS'1V5F'
p6177
(lp6178
(lp6179
I5925
aS'9'
aS'175'
p6180
aa(lp6181
I5928
aS'197'
p6182
aS'327'
p6183
aa(lp6184
I5932
aS'388'
p6185
aS'537'
p6186
aasS'1V5G'
p6187
(lp6188
(lp6189
I5925
aS'9'
aS'175'
p6190
aa(lp6191
I5928
aS'197'
p6192
aS'327'
p6193
aa(lp6194
I5932
aS'388'
p6195
aS'537'
p6196
aasS'1V5E'
p6197
(lp6198
(lp6199
I5925
aS'9'
aS'175'
p6200
aa(lp6201
I5928
aS'197'
p6202
aS'327'
p6203
aa(lp6204
I5932
aS'388'
p6205
aS'537'
p6206
aasS'3HWX'
p6207
(lp6208
(lp6209
I5925
aS'9'
aS'141'
p6210
aa(lp6211
I5932
aS'414'
p6212
aS'535'
p6213
aa(lp6214
I6972
aS'184'
p6215
aS'388'
p6216
aasS'4AOY'
p6217
(lp6218
(lp6219
I4044
aS'7'
aS'394'
p6220
aasS'1KLG'
p6221
(lp6222
(lp6223
I1680
aS'26'
p6224
aS'117'
p6225
aa(lp6226
I1690
aS'95'
p6227
aS'173'
p6228
aa(lp6229
I1690
aS'103'
p6230
aS'184'
p6231
aa(lp6232
I4221
aS'14'
p6233
aS'86'
p6234
aa(lp6235
I6311
aS'130'
p6236
aS'234'
p6237
aa(lp6238
I7398
aS'4'
aS'81'
p6239
aasS'3VGA'
p6240
(lp6241
(lp6242
I1690
aS'120'
p6243
aS'205'
p6244
aa(lp6245
I1690
aS'144'
p6246
aS'216'
p6247
aa(lp6248
I2388
aS'6'
aS'106'
p6249
aa(lp6250
I2388
aS'5'
aS'122'
p6251
aa(lp6252
I5342
aS'23'
p6253
aS'288'
p6254
aasS'2BGI'
p6255
(lp6256
(lp6257
I1010
aS'125'
p6258
aS'238'
p6259
aa(lp6260
I3635
aS'30'
p6261
aS'105'
p6262
aasS'2BGJ'
p6263
(lp6264
(lp6265
I1010
aS'125'
p6266
aS'238'
p6267
aa(lp6268
I3635
aS'30'
p6269
aS'105'
p6270
aasS'1CW1'
p6271
(lp6272
(lp6273
I4044
aS'29'
p6274
aS'412'
p6275
aasS'4AF6'
p6276
(lp6277
(lp6278
I1010
aS'161'
p6279
aS'276'
p6280
aasS'4S0V'
p6281
(lp6282
(lp6283
I4367
aS'1034'
p6284
aS'1191'
p6285
aa(lp6286
I5342
aS'71'
p6287
aS'364'
p6288
aasS'3VG9'
p6289
(lp6290
(lp6291
I1690
aS'120'
p6292
aS'205'
p6293
aa(lp6294
I1690
aS'143'
p6295
aS'216'
p6296
aa(lp6297
I2388
aS'6'
aS'106'
p6298
aa(lp6299
I2388
aS'5'
aS'122'
p6300
aa(lp6301
I5342
aS'23'
p6302
aS'288'
p6303
aasS'1CW4'
p6304
(lp6305
(lp6306
I4044
aS'29'
p6307
aS'412'
p6308
aasS'1CW7'
p6309
(lp6310
(lp6311
I4044
aS'29'
p6312
aS'412'
p6313
aasS'3W5U'
p6314
(lp6315
(lp6316
I1010
aS'167'
p6317
aS'282'
p6318
aa(lp6319
I3635
aS'66'
p6320
aS'153'
p6321
aa(lp6322
I4293
aS'9'
aS'82'
p6323
aasS'2V3W'
p6324
(lp6325
(lp6326
I5925
aS'9'
aS'169'
p6327
aa(lp6328
I5928
aS'193'
p6329
aS'325'
p6330
aa(lp6331
I5932
aS'380'
p6332
aS'521'
p6333
aasS'3EYA'
p6334
(lp6335
(lp6336
I5925
aS'4'
aS'170'
p6337
aa(lp6338
I5928
aS'192'
p6339
aS'319'
p6340
aa(lp6341
I5932
aS'379'
p6342
aS'525'
p6343
aasS'2B5O'
p6344
(lp6345
(lp6346
I1010
aS'255'
p6347
aS'368'
p6348
aasS'5DGT'
p6349
(lp6350
(lp6351
I5925
aS'9'
aS'169'
p6352
aa(lp6353
I5928
aS'193'
p6354
aS'325'
p6355
aa(lp6356
I5932
aS'380'
p6357
aS'521'
p6358
aasS'4COK'
p6359
(lp6360
(lp6361
I5925
aS'4'
aS'175'
p6362
aa(lp6363
I5928
aS'199'
p6364
aS'315'
p6365
aa(lp6366
I5932
aS'405'
p6367
aS'529'
p6368
aasS'1V53'
p6369
(lp6370
(lp6371
I4044
aS'4'
aS'350'
p6372
aasS'3W5V'
p6373
(lp6374
(lp6375
I1010
aS'167'
p6376
aS'282'
p6377
aa(lp6378
I3635
aS'66'
p6379
aS'153'
p6380
aa(lp6381
I4293
aS'9'
aS'82'
p6382
aasS'4FEE'
p6383
(lp6384
(lp6385
I5925
aS'14'
p6386
aS'180'
p6387
aa(lp6388
I5928
aS'203'
p6389
aS'332'
p6390
aa(lp6391
I5932
aS'393'
p6392
aS'542'
p6393
aasS'4FEG'
p6394
(lp6395
(lp6396
I5925
aS'14'
p6397
aS'180'
p6398
aa(lp6399
I5928
aS'203'
p6400
aS'332'
p6401
aa(lp6402
I5932
aS'393'
p6403
aS'542'
p6404
aasS'1HJ6'
p6405
(lp6406
(lp6407
I4044
aS'29'
p6408
aS'412'
p6409
aasS'2UXR'
p6410
(lp6411
(lp6412
I4044
aS'9'
aS'388'
p6413
aasS'1OZH'
p6414
(lp6415
(lp6416
I5925
aS'13'
p6417
aS'176'
p6418
aa(lp6419
I5928
aS'197'
p6420
aS'331'
p6421
aa(lp6422
I5932
aS'393'
p6423
aS'538'
p6424
aasS'1OZF'
p6425
(lp6426
(lp6427
I5925
aS'13'
p6428
aS'176'
p6429
aa(lp6430
I5928
aS'197'
p6431
aS'331'
p6432
aa(lp6433
I5932
aS'393'
p6434
aS'538'
p6435
aasS'1OZG'
p6436
(lp6437
(lp6438
I5925
aS'13'
p6439
aS'176'
p6440
aa(lp6441
I5928
aS'197'
p6442
aS'331'
p6443
aa(lp6444
I5932
aS'393'
p6445
aS'538'
p6446
aasS'4QCE'
p6447
(lp6448
(lp6449
I6618
aS'10'
p6450
aS'354'
p6451
aa(lp6452
I6618
aS'10'
p6453
aS'354'
p6454
aasS'4QCF'
p6455
(lp6456
(lp6457
I6618
aS'10'
p6458
aS'354'
p6459
aasS'2OH0'
p6460
(lp6461
(lp6462
I252
aS'43'
p6463
aS'297'
p6464
aa(lp6465
I3438
aS'5'
aS'24'
p6466
aasS'2YDV'
p6467
(lp6468
(lp6469
I5342
aS'23'
p6470
aS'288'
p6471
aasS'4JU9'
p6472
(lp6473
(lp6474
I5925
aS'9'
aS'169'
p6475
aa(lp6476
I5928
aS'193'
p6477
aS'325'
p6478
aa(lp6479
I5932
aS'380'
p6480
aS'521'
p6481
aasS'4JU8'
p6482
(lp6483
(lp6484
I5925
aS'9'
aS'169'
p6485
aa(lp6486
I5928
aS'193'
p6487
aS'325'
p6488
aa(lp6489
I5932
aS'380'
p6490
aS'521'
p6491
aasS'4P5M'
p6492
(lp6493
(lp6494
I1690
aS'93'
p6495
aS'174'
p6496
aa(lp6497
I1690
aS'101'
p6498
aS'182'
p6499
aa(lp6500
I4221
aS'13'
p6501
aS'83'
p6502
aa(lp6503
I7398
aS'4'
aS'82'
p6504
aasS'2FWN'
p6505
(lp6506
(lp6507
I5925
aS'9'
aS'169'
p6508
aa(lp6509
I5928
aS'193'
p6510
aS'325'
p6511
aa(lp6512
I5932
aS'380'
p6513
aS'521'
p6514
aas.