(dp1
S'2DB3'
p2
(lp3
(lp4
I1722
aS'269'
p5
aS'441'
p6
aa(lp7
I3642
aS'476'
p8
aS'584'
p9
aasS'2AW9'
p10
(lp11
(lp12
I4448
aS'2'
aS'88'
p13
aa(lp14
I4454
aS'100'
p15
aS'206'
p16
aasS'2KG6'
p17
(lp18
(lp19
I361
aS'13'
p20
aS'78'
p21
aa(lp22
I361
aS'13'
p23
aS'78'
p24
aasS'1UES'
p25
(lp26
(lp27
I4448
aS'2'
aS'81'
p28
aa(lp29
I4454
aS'89'
p30
aS'190'
p31
aasS'1UER'
p32
(lp33
(lp34
I4448
aS'2'
aS'81'
p35
aa(lp36
I4454
aS'89'
p37
aS'190'
p38
aasS'2GPC'
p39
(lp40
(lp41
I4448
aS'2'
aS'82'
p42
aa(lp43
I4454
aS'90'
p44
aS'192'
p45
aasS'2R59'
p46
(lp47
(lp48
I4916
aS'18'
p49
aS'386'
p50
aa(lp51
I5288
aS'464'
p52
aS'607'
p53
aasS'3SE9'
p54
(lp55
(lp56
I1068
aS'44'
p57
aS'123'
p58
aa(lp59
I1068
aS'198'
p60
aS'492'
p61
aa(lp62
I1690
aS'126'
p63
aS'206'
p64
aa(lp65
I1690
aS'120'
p66
aS'205'
p67
aa(lp68
I2388
aS'10'
p69
aS'100'
p70
aa(lp71
I2388
aS'6'
aS'106'
p72
aasS'3EWS'
p73
(lp74
(lp75
I1722
aS'117'
p76
aS'281'
p77
aa(lp78
I3642
aS'319'
p79
aS'434'
p80
aasS'3B3B'
p81
(lp82
(lp83
I3130
aS'459'
p84
aS'827'
p85
aa(lp86
I4916
aS'49'
p87
aS'384'
p88
aasS'3U7Y'
p89
(lp90
(lp91
I1068
aS'44'
p92
aS'123'
p93
aa(lp94
I1068
aS'199'
p95
aS'492'
p96
aa(lp97
I1690
aS'130'
p98
aS'210'
p99
aa(lp100
I1690
aS'116'
p101
aS'201'
p102
aa(lp103
I2388
aS'11'
p104
aS'99'
p105
aa(lp106
I2388
aS'6'
aS'100'
p107
aasS'4HKG'
p108
(lp109
(lp110
I361
aS'12'
p111
aS'76'
p112
aasS'3TEJ'
p113
(lp114
(lp115
I361
aS'980'
p116
aS'1040'
p117
aa(lp118
I5566
aS'1067'
p119
aS'1283'
p120
aasS'4RHK'
p121
(lp122
(lp123
I6392
aS'55'
p124
aS'290'
p125
aasS'5A9G'
p126
(lp127
(lp128
I4448
aS'2'
aS'83'
p129
aa(lp130
I4454
aS'91'
p131
aS'196'
p132
aasS'4RHI'
p133
(lp134
(lp135
I6392
aS'55'
p136
aS'290'
p137
aasS'4RZ8'
p138
(lp139
(lp140
I1068
aS'44'
p141
aS'123'
p142
aa(lp143
I1068
aS'198'
p144
aS'492'
p145
aasS'4RHL'
p146
(lp147
(lp148
I6392
aS'55'
p149
aS'290'
p150
aasS'3MBQ'
p151
(lp152
(lp153
I664
aS'24'
p154
aS'142'
p155
aasS'4RHQ'
p156
(lp157
(lp158
I6392
aS'55'
p159
aS'290'
p160
aasS'4Q4I'
p161
(lp162
(lp163
I3130
aS'459'
p164
aS'827'
p165
aa(lp166
I4916
aS'49'
p167
aS'384'
p168
aasS'2KW2'
p169
(lp170
(lp171
I361
aS'6'
aS'58'
p172
aasS'4Q4E'
p173
(lp174
(lp175
I3130
aS'459'
p176
aS'827'
p177
aa(lp178
I4916
aS'49'
p179
aS'384'
p180
aasS'3SE8'
p181
(lp182
(lp183
I1068
aS'44'
p184
aS'123'
p185
aa(lp186
I1068
aS'198'
p187
aS'492'
p188
aa(lp189
I1690
aS'126'
p190
aS'206'
p191
aa(lp192
I1690
aS'120'
p193
aS'205'
p194
aa(lp195
I2388
aS'7'
aS'94'
p196
aa(lp197
I2388
aS'6'
aS'98'
p198
aasS'2RCV'
p199
(lp200
(lp201
I4448
aS'2'
aS'90'
p202
aa(lp203
I4454
aS'97'
p204
aS'195'
p205
aasS'3E9B'
p206
(lp207
(lp208
I6392
aS'8'
aS'302'
p209
aasS'4DKO'
p210
(lp211
(lp212
I1068
aS'44'
p213
aS'123'
p214
aa(lp215
I1068
aS'198'
p216
aS'492'
p217
aasS'3T70'
p218
(lp219
(lp220
I664
aS'87'
p221
aS'167'
p222
aasS'4Q48'
p223
(lp224
(lp225
I370
aS'407'
p226
aS'512'
p227
aa(lp228
I1722
aS'28'
p229
aS'186'
p230
aa(lp231
I3642
aS'225'
p232
aS'331'
p233
aa(lp234
I4078
aS'343'
p235
aS'405'
p236
aasS'1SIX'
p237
(lp238
(lp239
I664
aS'15'
p240
aS'144'
p241
aasS'2KWL'
p242
(lp243
(lp244
I361
aS'13'
p245
aS'79'
p246
aasS'4Q47'
p247
(lp248
(lp249
I370
aS'407'
p250
aS'513'
p251
aa(lp252
I1722
aS'28'
p253
aS'186'
p254
aa(lp255
I3642
aS'225'
p256
aS'331'
p257
aa(lp258
I4078
aS'343'
p259
aS'405'
p260
aasS'3BOR'
p261
(lp262
(lp263
I1722
aS'58'
p264
aS'222'
p265
aasS'4Q40'
p266
(lp267
(lp268
I6392
aS'26'
p269
aS'331'
p270
aasS'4NCO'
p271
(lp272
(lp273
I1068
aS'44'
p274
aS'140'
p275
aa(lp276
I1068
aS'153'
p277
aS'493'
p278
aa(lp279
I1690
aS'121'
p280
aS'202'
p281
aa(lp282
I1690
aS'124'
p283
aS'204'
p284
aa(lp285
I2388
aS'11'
p286
aS'107'
p287
aa(lp288
I2388
aS'8'
aS'109'
p289
aasS'4JKP'
p290
(lp291
(lp292
I1068
aS'44'
p293
aS'123'
p294
aa(lp295
I1068
aS'199'
p296
aS'492'
p297
aa(lp298
I1690
aS'130'
p299
aS'210'
p300
aa(lp301
I1690
aS'116'
p302
aS'201'
p303
aa(lp304
I2388
aS'11'
p305
aS'99'
p306
aa(lp307
I2388
aS'6'
aS'100'
p308
aasS'4R4N'
p309
(lp310
(lp311
I1068
aS'49'
p312
aS'123'
p313
aa(lp314
I1068
aS'199'
p315
aS'492'
p316
aa(lp317
I1690
aS'120'
p318
aS'205'
p319
aa(lp320
I1690
aS'126'
p321
aS'206'
p322
aa(lp323
I2388
aS'6'
aS'106'
p324
aa(lp325
I2388
aS'14'
p326
aS'111'
p327
aasS'3B37'
p328
(lp329
(lp330
I3130
aS'459'
p331
aS'827'
p332
aa(lp333
I4916
aS'49'
p334
aS'384'
p335
aasS'2A0M'
p336
(lp337
(lp338
I6392
aS'30'
p339
aS'303'
p340
aasS'4DKU'
p341
(lp342
(lp343
I1068
aS'44'
p344
aS'123'
p345
aa(lp346
I1068
aS'198'
p347
aS'492'
p348
aasS'4DKV'
p349
(lp350
(lp351
I1068
aS'44'
p352
aS'123'
p353
aa(lp354
I1068
aS'198'
p355
aS'492'
p356
aasS'4DKQ'
p357
(lp358
(lp359
I1068
aS'44'
p360
aS'123'
p361
aa(lp362
I1068
aS'198'
p363
aS'492'
p364
aa(lp365
I1068
aS'44'
p366
aS'123'
p367
aa(lp368
I1068
aS'198'
p369
aS'492'
p370
aasS'4DKP'
p371
(lp372
(lp373
I1068
aS'44'
p374
aS'123'
p375
aa(lp376
I1068
aS'198'
p377
aS'492'
p378
aasS'2QKA'
p379
(lp380
(lp381
I4448
aS'1'
aS'82'
p382
aa(lp383
I4454
aS'89'
p384
aS'192'
p385
aasS'2AWP'
p386
(lp387
(lp388
I4448
aS'5'
aS'81'
p389
aa(lp390
I4454
aS'89'
p391
aS'191'
p392
aasS'1XDC'
p393
(lp394
(lp395
I4448
aS'1'
aS'82'
p396
aa(lp397
I4454
aS'89'
p398
aS'192'
p399
aasS'2CDY'
p400
(lp401
(lp402
I4448
aS'1'
aS'87'
p403
aa(lp404
I4454
aS'99'
p405
aS'205'
p406
aasS'4MYK'
p407
(lp408
(lp409
I6392
aS'22'
p410
aS'295'
p411
aasS'3BFR'
p412
(lp413
(lp414
I4448
aS'11'
p415
aS'97'
p416
aa(lp417
I4454
aS'107'
p418
aS'209'
p419
aasS'4MYN'
p420
(lp421
(lp422
I6392
aS'22'
p423
aS'295'
p424
aasS'4GAA'
p425
(lp426
(lp427
I4916
aS'10'
p428
aS'383'
p429
aa(lp430
I5288
aS'461'
p431
aS'604'
p432
aasS'4MYL'
p433
(lp434
(lp435
I6392
aS'22'
p436
aS'295'
p437
aasS'3FU5'
p438
(lp439
(lp440
I4916
aS'18'
p441
aS'386'
p442
aa(lp443
I5288
aS'464'
p444
aS'607'
p445
aasS'4LSU'
p446
(lp447
(lp448
I1068
aS'44'
p449
aS'123'
p450
aa(lp451
I1068
aS'198'
p452
aS'492'
p453
aa(lp454
I1690
aS'126'
p455
aS'206'
p456
aa(lp457
I1690
aS'120'
p458
aS'201'
p459
aa(lp460
I2388
aS'7'
aS'100D'
p461
aa(lp462
I2388
aS'5'
aS'106A'
p463
aasS'4LST'
p464
(lp465
(lp466
I1068
aS'44'
p467
aS'123'
p468
aa(lp469
I1068
aS'199'
p470
aS'492'
p471
aa(lp472
I1690
aS'126'
p473
aS'206'
p474
aa(lp475
I1690
aS'122'
p476
aS'207'
p477
aa(lp478
I2388
aS'11'
p479
aS'100A'
p480
aa(lp481
I2388
aS'6'
aS'106'
p482
aasS'4LSV'
p483
(lp484
(lp485
I1068
aS'44'
p486
aS'123'
p487
aa(lp488
I1068
aS'199'
p489
aS'492'
p490
aa(lp491
I1690
aS'126'
p492
aS'206'
p493
aa(lp494
I1690
aS'120'
p495
aS'205'
p496
aa(lp497
I2388
aS'11'
p498
aS'111'
p499
aa(lp500
I2388
aS'6'
aS'90'
p501
aasS'4LSQ'
p502
(lp503
(lp504
I1068
aS'44'
p505
aS'123'
p506
aa(lp507
I1068
aS'198'
p508
aS'492'
p509
aa(lp510
I1690
aS'126'
p511
aS'206'
p512
aa(lp513
I1690
aS'120'
p514
aS'205'
p515
aa(lp516
I2388
aS'11'
p517
aS'100A'
p518
aa(lp519
I2388
aS'6'
aS'105'
p520
aasS'3RN4'
p521
(lp522
(lp523
I4448
aS'11'
p524
aS'97'
p525
aa(lp526
I4454
aS'107'
p527
aS'209'
p528
aasS'4LSS'
p529
(lp530
(lp531
I1068
aS'44'
p532
aS'123'
p533
aa(lp534
I1068
aS'199'
p535
aS'492'
p536
aa(lp537
I1690
aS'126'
p538
aS'206'
p539
aa(lp540
I1690
aS'122'
p541
aS'207'
p542
aa(lp543
I2388
aS'11'
p544
aS'100A'
p545
aa(lp546
I2388
aS'6'
aS'106'
p547
aasS'4LSR'
p548
(lp549
(lp550
I1068
aS'44'
p551
aS'123'
p552
aa(lp553
I1068
aS'198'
p554
aS'494'
p555
aa(lp556
I1690
aS'126'
p557
aS'206'
p558
aa(lp559
I1690
aS'120'
p560
aS'205'
p561
aa(lp562
I2388
aS'11'
p563
aS'100A'
p564
aa(lp565
I2388
aS'6'
aS'105'
p566
aasS'2Y1T'
p567
(lp568
(lp569
I664
aS'25'
p570
aS'128'
p571
aasS'3EHW'
p572
(lp573
(lp574
I664
aS'34'
p575
aS'162'
p576
aasS'4YDI'
p577
(lp578
(lp579
I1068
aS'44'
p580
aS'123'
p581
aa(lp582
I1068
aS'199'
p583
aS'491'
p584
aa(lp585
I1690
aS'138'
p586
aS'206'
p587
aa(lp588
I1690
aS'120'
p589
aS'205'
p590
aa(lp591
I2388
aS'7'
aS'111'
p592
aa(lp593
I2388
aS'6'
aS'105'
p594
aasS'4JYY'
p595
(lp596
(lp597
I4448
aS'31'
p598
aS'118'
p599
aa(lp600
I4454
aS'125'
p601
aS'223'
p602
aasS'4FFK'
p603
(lp604
(lp605
I4448
aS'18'
p606
aS'100'
p607
aa(lp608
I4454
aS'109'
p609
aS'211'
p610
aasS'4YDJ'
p611
(lp612
(lp613
I1068
aS'44'
p614
aS'113'
p615
aa(lp616
I1068
aS'210'
p617
aS'491'
p618
aa(lp619
I1690
aS'126'
p620
aS'206'
p621
aa(lp622
I1690
aS'120'
p623
aS'201'
p624
aa(lp625
I2388
aS'6'
aS'96'
p626
aa(lp627
I2388
aS'5'
aS'106'
p628
aasS'2WWY'
p629
(lp630
(lp631
I370
aS'485'
p632
aS'592'
p633
aa(lp634
I1722
aS'94'
p635
aS'260'
p636
aa(lp637
I3642
aS'303'
p638
aS'407'
p639
aa(lp640
I4078
aS'421'
p641
aS'479'
p642
aasS'3NY7'
p643
(lp644
(lp645
I361
aS'6'
aS'73'
p646
aa(lp647
I1529
aS'444'
p648
aS'544'
p649
aasS'2K0Y'
p650
(lp651
(lp652
I361
aS'13'
p653
aS'78'
p654
aasS'2K0X'
p655
(lp656
(lp657
I361
aS'13'
p658
aS'78'
p659
aasS'1ZTE'
p660
(lp661
(lp662
I4448
aS'1'
aS'82'
p663
aa(lp664
I4454
aS'89'
p665
aS'192'
p666
aasS'3M1R'
p667
(lp668
(lp669
I6392
aS'38'
p670
aS'309'
p671
aasS'1GQ7'
p672
(lp673
(lp674
I6392
aS'31'
p675
aS'301'
p676
aasS'1GQ6'
p677
(lp678
(lp679
I6392
aS'31'
p680
aS'301'
p681
aasS'4OOP'
p682
(lp683
(lp684
I664
aS'37'
p685
aS'157'
p686
aasS'4OOQ'
p687
(lp688
(lp689
I664
aS'37'
p690
aS'156'
p691
aasS'2Y8C'
p692
(lp693
(lp694
I664
aS'87'
p695
aS'167'
p696
aasS'2N57'
p697
(lp698
(lp699
I361
aS'6'
aS'73'
p700
aasS'2LTE'
p701
(lp702
(lp703
I361
aS'31'
p704
aS'94'
p705
aasS'1Y67'
p706
(lp707
(lp708
I4448
aS'2'
aS'88'
p709
aa(lp710
I4454
aS'100'
p711
aS'206'
p712
aasS'4GSM'
p713
(lp714
(lp715
I6392
aS'7'
aS'300'
p716
aasS'4GSV'
p717
(lp718
(lp719
I6392
aS'7'
aS'300'
p720
aasS'4OLU'
p721
(lp722
(lp723
I1068
aS'44'
p724
aS'123'
p725
aa(lp726
I1068
aS'198'
p727
aS'492'
p728
aa(lp729
I1690
aS'126'
p730
aS'206'
p731
aa(lp732
I1690
aS'122'
p733
aS'207'
p734
aa(lp735
I2388
aS'11'
p736
aS'110'
p737
aa(lp738
I2388
aS'6'
aS'106'
p739
aasS'4GSZ'
p740
(lp741
(lp742
I6392
aS'7'
aS'300'
p743
aasS'4QHP'
p744
(lp745
(lp746
I3130
aS'454'
p747
aS'824'
p748
aa(lp749
I4916
aS'102'
p750
aS'380'
p751
aasS'2I5Y'
p752
(lp753
(lp754
I1068
aS'83'
p755
aS'128'
p756
aa(lp757
I1068
aS'195'
p758
aS'297'
p759
aa(lp760
I1068
aS'329'
p761
aS'492'
p762
aa(lp763
I1690
aS'120'
p764
aS'205'
p765
aa(lp766
I1690
aS'126'
p767
aS'206'
p768
aa(lp769
I2388
aS'6'
aS'106'
p770
aa(lp771
I2388
aS'11'
p772
aS'100C'
p773
aasS'1N0N'
p774
(lp775
(lp776
I4448
aS'1'
aS'82'
p777
aa(lp778
I4454
aS'89'
p779
aS'192'
p780
aasS'3KKY'
p781
(lp782
(lp783
I4448
aS'1'
aS'87'
p784
aa(lp785
I4454
aS'99'
p786
aS'205'
p787
aasS'2L0Q'
p788
(lp789
(lp790
I361
aS'9'
aS'76'
p791
aasS'4RHJ'
p792
(lp793
(lp794
I6392
aS'55'
p795
aS'290'
p796
aasS'2K94'
p797
(lp798
(lp799
I361
aS'5'
aS'72'
p800
aasS'4QME'
p801
(lp802
(lp803
I3130
aS'454'
p804
aS'824'
p805
aa(lp806
I4916
aS'102'
p807
aS'380'
p808
aasS'1DNY'
p809
(lp810
(lp811
I361
aS'18'
p812
aS'81'
p813
aasS'2K93'
p814
(lp815
(lp816
I361
aS'5'
aS'72'
p817
aasS'4JDT'
p818
(lp819
(lp820
I1068
aS'44'
p821
aS'123'
p822
aa(lp823
I1068
aS'199'
p824
aS'491'
p825
aa(lp826
I1690
aS'130'
p827
aS'210'
p828
aa(lp829
I1690
aS'116'
p830
aS'201'
p831
aa(lp832
I2388
aS'9'
aS'114'
p833
aa(lp834
I2388
aS'6'
aS'100'
p835
aasS'3ARN'
p836
(lp837
(lp838
I664
aS'34'
p839
aS'148'
p840
aasS'1GC1'
p841
(lp842
(lp843
I1068
aS'90'
p844
aS'128'
p845
aa(lp846
I1068
aS'195'
p847
aS'297'
p848
aa(lp849
I1068
aS'329'
p850
aS'492'
p851
aa(lp852
I1690
aS'122'
p853
aS'207'
p854
aa(lp855
I1690
aS'141'
p856
aS'221'
p857
aa(lp858
I2388
aS'6'
aS'108'
p859
aa(lp860
I2388
aS'11'
p861
aS'107'
p862
aa(lp863
I4082
aS'3'
aS'97'
p864
aa(lp865
I6254
aS'101'
p866
aS'177'
p867
aasS'4PWV'
p868
(lp869
(lp870
I361
aS'15'
p871
aS'75'
p872
aa(lp873
I3490
aS'280'
p874
aS'378'
p875
aasS'3NEJ'
p876
(lp877
(lp878
I1722
aS'25'
p879
aS'191'
p880
aasS'3FUS'
p881
(lp882
(lp883
I1068
aS'66'
p884
aS'109'
p885
aa(lp886
I1068
aS'209'
p887
aS'311'
p888
aa(lp889
I1068
aS'341'
p890
aS'499'
p891
aasS'3RRM'
p892
(lp893
(lp894
I1722
aS'117'
p895
aS'278'
p896
aa(lp897
I3642
aS'319'
p898
aS'431'
p899
aa(lp900
I5351
aS'259'
p901
aS'499'
p902
aa(lp903
I6405
aS'24'
p904
aS'380'
p905
aasS'3FUM'
p906
(lp907
(lp908
I4916
aS'18'
p909
aS'386'
p910
aa(lp911
I5288
aS'464'
p912
aS'607'
p913
aasS'3FUN'
p914
(lp915
(lp916
I4916
aS'18'
p917
aS'386'
p918
aa(lp919
I5288
aS'464'
p920
aS'607'
p921
aasS'3FUH'
p922
(lp923
(lp924
I4916
aS'18'
p925
aS'386'
p926
aa(lp927
I5288
aS'464'
p928
aS'607'
p929
aasS'3FUI'
p930
(lp931
(lp932
I4916
aS'18'
p933
aS'386'
p934
aa(lp935
I5288
aS'464'
p936
aS'607'
p937
aasS'3FUJ'
p938
(lp939
(lp940
I4916
aS'18'
p941
aS'386'
p942
aa(lp943
I5288
aS'464'
p944
aS'607'
p945
aasS'3FUK'
p946
(lp947
(lp948
I4916
aS'18'
p949
aS'386'
p950
aa(lp951
I5288
aS'464'
p952
aS'607'
p953
aasS'3FUD'
p954
(lp955
(lp956
I4916
aS'18'
p957
aS'386'
p958
aa(lp959
I5288
aS'464'
p960
aS'607'
p961
aasS'3FUE'
p962
(lp963
(lp964
I4916
aS'18'
p965
aS'386'
p966
aa(lp967
I5288
aS'464'
p968
aS'607'
p969
aasS'3FUF'
p970
(lp971
(lp972
I4916
aS'18'
p973
aS'386'
p974
aa(lp975
I5288
aS'464'
p976
aS'607'
p977
aasS'1SM8'
p978
(lp979
(lp980
I664
aS'15'
p981
aS'132'
p982
aasS'3LJF'
p983
(lp984
(lp985
I4448
aS'2'
aS'81'
p986
aa(lp987
I4454
aS'88'
p988
aS'189'
p989
aasS'5CEV'
p990
(lp991
(lp992
I6392
aS'3'
aS'294'
p993
aasS'3B7T'
p994
(lp995
(lp996
I4916
aS'18'
p997
aS'386'
p998
aa(lp999
I5288
aS'464'
p1000
aS'607'
p1001
aasS'3B7U'
p1002
(lp1003
(lp1004
I4916
aS'18'
p1005
aS'386'
p1006
aa(lp1007
I5288
aS'464'
p1008
aS'607'
p1009
aasS'3B7R'
p1010
(lp1011
(lp1012
I4916
aS'18'
p1013
aS'386'
p1014
aa(lp1015
I5288
aS'464'
p1016
aS'607'
p1017
aasS'3B7S'
p1018
(lp1019
(lp1020
I4916
aS'18'
p1021
aS'386'
p1022
aa(lp1023
I5288
aS'464'
p1024
aS'607'
p1025
aasS'4A4D'
p1026
(lp1027
(lp1028
I1722
aS'118'
p1029
aS'288'
p1030
aasS'3BER'
p1031
(lp1032
(lp1033
I1722
aS'48'
p1034
aS'215'
p1035
aasS'3TS6'
p1036
(lp1037
(lp1038
I664
aS'30'
p1039
aS'136'
p1040
aasS'3C3I'
p1041
(lp1042
(lp1043
I664
aS'13'
p1044
aS'128'
p1045
aasS'3B7G'
p1046
(lp1047
(lp1048
I1722
aS'87'
p1049
aS'248'
p1050
aasS'3TYG'
p1051
(lp1052
(lp1053
I1068
aS'14'
p1054
aS'39'
p1055
aa(lp1056
I1068
aS'60'
p1057
aS'185'
p1058
aa(lp1059
I1690
aS'120'
p1060
aS'204'
p1061
aa(lp1062
I1690
aS'126'
p1063
aS'218'
p1064
aa(lp1065
I2388
aS'6'
aS'106A'
p1066
aa(lp1067
I2388
aS'5'
aS'94'
p1068
aasS'4A4Z'
p1069
(lp1070
(lp1071
I1722
aS'333'
p1072
aS'482'
p1073
aa(lp1074
I3642
aS'618'
p1075
aS'768'
p1076
aa(lp1077
I5558
aS'823'
p1078
aS'1078'
p1079
aa(lp1080
I5975
aS'1109'
p1081
aS'1282'
p1082
aasS'2QAD'
p1083
(lp1084
(lp1085
I1068
aS'90'
p1086
aS'123'
p1087
aa(lp1088
I1068
aS'199'
p1089
aS'492'
p1090
aa(lp1091
I1690
aS'120'
p1092
aS'205'
p1093
aa(lp1094
I1690
aS'126'
p1095
aS'206'
p1096
aa(lp1097
I2388
aS'6'
aS'106'
p1098
aa(lp1099
I2388
aS'9'
aS'100'
p1100
aa(lp1101
I4082
aS'3'
aS'97'
p1102
aa(lp1103
I6254
aS'101'
p1104
aS'177'
p1105
aasS'2CGQ'
p1106
(lp1107
(lp1108
I361
aS'5'
aS'66'
p1109
aasS'3DKP'
p1110
(lp1111
(lp1112
I1722
aS'189'
p1113
aS'361'
p1114
aasS'3SL0'
p1115
(lp1116
(lp1117
I6392
aS'169'
p1118
aS'377'
p1119
aasS'3SL1'
p1120
(lp1121
(lp1122
I6392
aS'169'
p1123
aS'377'
p1124
aasS'5AB0'
p1125
(lp1126
(lp1127
I662
aS'673'
p1128
aS'990'
p1129
aa(lp1130
I4916
aS'121'
p1131
aS'511'
p1132
aasS'1IDS'
p1133
(lp1134
(lp1135
I4448
aS'3'
aS'84'
p1136
aa(lp1137
I4454
aS'91'
p1138
aS'193'
p1139
aasS'1ZSP'
p1140
(lp1141
(lp1142
I4448
aS'1'
aS'82'
p1143
aa(lp1144
I4454
aS'89'
p1145
aS'192'
p1146
aasS'2X2B'
p1147
(lp1148
(lp1149
I361
aS'6'
aS'73'
p1150
aasS'2GXU'
p1151
(lp1152
(lp1153
I1722
aS'25'
p1154
aS'191'
p1155
aasS'4DDX'
p1156
(lp1157
(lp1158
I1722
aS'82'
p1159
aS'227'
p1160
aa(lp1161
I2156
aS'715'
p1162
aS'1090'
p1163
aa(lp1164
I4549
aS'544'
p1165
aS'699'
p1166
aasS'1T5G'
p1167
(lp1168
(lp1169
I6392
aS'8'
aS'302'
p1170
aasS'3TSL'
p1171
(lp1172
(lp1173
I664
aS'30'
p1174
aS'136'
p1175
aasS'2LPK'
p1176
(lp1177
(lp1178
I361
aS'6'
aS'58'
p1179
aasS'2GXS'
p1180
(lp1181
(lp1182
I1722
aS'25'
p1183
aS'191'
p1184
aasS'3NBF'
p1185
(lp1186
(lp1187
I1722
aS'25'
p1188
aS'191'
p1189
aasS'1EM1'
p1190
(lp1191
(lp1192
I4448
aS'1'
aS'82'
p1193
aa(lp1194
I4454
aS'89'
p1195
aS'192'
p1196
aasS'2CG5'
p1197
(lp1198
(lp1199
I361
aS'2126'
p1200
aS'2187'
p1201
aa(lp1202
I2402
aS'135'
p1203
aS'254'
p1204
aasS'1SMC'
p1205
(lp1206
(lp1207
I664
aS'15'
p1208
aS'132'
p1209
aasS'3LJ9'
p1210
(lp1211
(lp1212
I4448
aS'2'
aS'81'
p1213
aa(lp1214
I4454
aS'88'
p1215
aS'189'
p1216
aasS'2WE2'
p1217
(lp1218
(lp1219
I664
aS'121'
p1220
aS'227'
p1221
aasS'2WE3'
p1222
(lp1223
(lp1224
I664
aS'129'
p1225
aS'227'
p1226
aasS'2WE0'
p1227
(lp1228
(lp1229
I664
aS'121'
p1230
aS'227'
p1231
aasS'2WE1'
p1232
(lp1233
(lp1234
I664
aS'121'
p1235
aS'227'
p1236
aasS'4YDL'
p1237
(lp1238
(lp1239
I1068
aS'44'
p1240
aS'123'
p1241
aa(lp1242
I1068
aS'199'
p1243
aS'492'
p1244
aa(lp1245
I1690
aS'126'
p1246
aS'206'
p1247
aa(lp1248
I1690
aS'120'
p1249
aS'205'
p1250
aa(lp1251
I2388
aS'10'
p1252
aS'111'
p1253
aa(lp1254
I2388
aS'6'
aS'103'
p1255
aasS'3FU6'
p1256
(lp1257
(lp1258
I4916
aS'18'
p1259
aS'386'
p1260
aa(lp1261
I5288
aS'464'
p1262
aS'607'
p1263
aasS'3FU0'
p1264
(lp1265
(lp1266
I4916
aS'18'
p1267
aS'386'
p1268
aa(lp1269
I5288
aS'464'
p1270
aS'607'
p1271
aasS'4MS6'
p1272
(lp1273
(lp1274
I4916
aS'18'
p1275
aS'386'
p1276
aa(lp1277
I5288
aS'464'
p1278
aS'607'
p1279
aasS'4YDK'
p1280
(lp1281
(lp1282
I1068
aS'44'
p1283
aS'123'
p1284
aa(lp1285
I1068
aS'198'
p1286
aS'491'
p1287
aa(lp1288
I1690
aS'126'
p1289
aS'206'
p1290
aa(lp1291
I1690
aS'120'
p1292
aS'205'
p1293
aa(lp1294
I2388
aS'12'
p1295
aS'100A'
p1296
aa(lp1297
I2388
aS'6'
aS'106'
p1298
aasS'3FU3'
p1299
(lp1300
(lp1301
I4916
aS'18'
p1302
aS'386'
p1303
aa(lp1304
I5288
aS'464'
p1305
aS'607'
p1306
aasS'1D3V'
p1307
(lp1308
(lp1309
I6392
aS'8'
aS'302'
p1310
aasS'2MR8'
p1311
(lp1312
(lp1313
I361
aS'14'
p1314
aS'77'
p1315
aasS'2MR7'
p1316
(lp1317
(lp1318
I361
aS'14'
p1319
aS'77'
p1320
aasS'4C9B'
p1321
(lp1322
(lp1323
I1722
aS'63'
p1324
aS'225'
p1325
aa(lp1326
I3642
aS'263'
p1327
aS'372'
p1328
aa(lp1329
I4496
aS'164'
p1330
aS'345'
p1331
aasS'4W7S'
p1332
(lp1333
(lp1334
I1722
aS'198'
p1335
aS'387'
p1336
aa(lp1337
I3642
aS'423'
p1338
aS'531'
p1339
aasS'4DQO'
p1340
(lp1341
(lp1342
I1068
aS'153'
p1343
aS'208'
p1344
aa(lp1345
I1690
aS'126'
p1346
aS'206'
p1347
aa(lp1348
I1690
aS'120'
p1349
aS'201'
p1350
aa(lp1351
I2388
aS'12'
p1352
aS'111'
p1353
aa(lp1354
I2388
aS'5'
aS'106A'
p1355
aa(lp1356
I4438
aS'199'
p1357
aS'238'
p1358
aasS'2EIV'
p1359
(lp1360
(lp1361
I6392
aS'3'
aS'286'
p1362
aasS'1GV3'
p1363
(lp1364
(lp1365
I4448
aS'39'
p1366
aS'125'
p1367
aa(lp1368
I4454
aS'132'
p1369
aS'233'
p1370
aasS'4CGZ'
p1371
(lp1372
(lp1373
I370
aS'1072'
p1374
aS'1193'
p1375
aa(lp1376
I1722
aS'671'
p1377
aS'838'
p1378
aa(lp1379
I3642
aS'882'
p1380
aS'984'
p1381
aa(lp1382
I4078
aS'995'
p1383
aS'1067'
p1384
aa(lp1385
I7192
aS'1217'
p1386
aS'1281'
p1387
aasS'4NEO'
p1388
(lp1389
(lp1390
I361
aS'17'
p1391
aS'80'
p1392
aasS'3T6Y'
p1393
(lp1394
(lp1395
I664
aS'87'
p1396
aS'167'
p1397
aasS'2ADQ'
p1398
(lp1399
(lp1400
I4448
aS'1'
aS'82'
p1401
aa(lp1402
I4454
aS'89'
p1403
aS'192'
p1404
aasS'2ADP'
p1405
(lp1406
(lp1407
I4448
aS'1'
aS'82'
p1408
aa(lp1409
I4454
aS'89'
p1410
aS'192'
p1411
aasS'3HI1'
p1412
(lp1413
(lp1414
I1068
aS'90'
p1415
aS'124'
p1416
aa(lp1417
I1068
aS'199'
p1418
aS'492'
p1419
aa(lp1420
I1690
aS'120'
p1421
aS'205'
p1422
aa(lp1423
I1690
aS'126'
p1424
aS'206'
p1425
aa(lp1426
I2388
aS'6'
aS'106'
p1427
aa(lp1428
I2388
aS'8'
aS'111'
p1429
aasS'4NL4'
p1430
(lp1431
(lp1432
I1722
aS'218'
p1433
aS'363'
p1434
aa(lp1435
I3642
aS'491'
p1436
aS'588'
p1437
aasS'4Z7I'
p1438
(lp1439
(lp1440
I662
aS'724'
p1441
aS'1040'
p1442
aa(lp1443
I4916
aS'202'
p1444
aS'587'
p1445
aasS'1MSD'
p1446
(lp1447
(lp1448
I4448
aS'1'
aS'82'
p1449
aa(lp1450
I4454
aS'89'
p1451
aS'192'
p1452
aasS'3SQX'
p1453
(lp1454
(lp1455
I1722
aS'130'
p1456
aS'315'
p1457
aa(lp1458
I3642
aS'360'
p1459
aS'471'
p1460
aasS'1T8K'
p1461
(lp1462
(lp1463
I361
aS'5'
aS'72'
p1464
aasS'4HZE'
p1465
(lp1466
(lp1467
I6392
aS'25'
p1468
aS'321'
p1469
aasS'5C97'
p1470
(lp1471
(lp1472
I662
aS'725'
p1473
aS'1033'
p1474
aa(lp1475
I4916
aS'203'
p1476
aS'588'
p1477
aasS'3OIY'
p1478
(lp1479
(lp1480
I1722
aS'82'
p1481
aS'228'
p1482
aa(lp1483
I3642
aS'299'
p1484
aS'475'
p1485
aasS'2MD9'
p1486
(lp1487
(lp1488
I361
aS'18'
p1489
aS'81'
p1490
aasS'3CHR'
p1491
(lp1492
(lp1493
I4916
aS'18'
p1494
aS'386'
p1495
aa(lp1496
I5288
aS'464'
p1497
aS'607'
p1498
aasS'1RZJ'
p1499
(lp1500
(lp1501
I1068
aS'83'
p1502
aS'128'
p1503
aa(lp1504
I1068
aS'195'
p1505
aS'297'
p1506
aa(lp1507
I1068
aS'329'
p1508
aS'492'
p1509
aa(lp1510
I1690
aS'120'
p1511
aS'205'
p1512
aa(lp1513
I1690
aS'126'
p1514
aS'206'
p1515
aa(lp1516
I2388
aS'6'
aS'106'
p1517
aa(lp1518
I2388
aS'11'
p1519
aS'100C'
p1520
aa(lp1521
I4082
aS'3'
aS'97'
p1522
aa(lp1523
I6254
aS'101'
p1524
aS'177'
p1525
aasS'4DZ4'
p1526
(lp1527
(lp1528
I6392
aS'44'
p1529
aS'309'
p1530
aasS'3CHQ'
p1531
(lp1532
(lp1533
I4916
aS'18'
p1534
aS'386'
p1535
aa(lp1536
I5288
aS'464'
p1537
aS'607'
p1538
aasS'1WVB'
p1539
(lp1540
(lp1541
I6392
aS'7'
aS'300'
p1542
aasS'3LLM'
p1543
(lp1544
(lp1545
I1722
aS'395'
p1546
aS'547'
p1547
aasS'1WVA'
p1548
(lp1549
(lp1550
I6392
aS'7'
aS'300'
p1551
aasS'1MMM'
p1552
(lp1553
(lp1554
I4448
aS'1'
aS'88'
p1555
aa(lp1556
I4454
aS'95'
p1557
aS'200'
p1558
aasS'1GM5'
p1559
(lp1560
(lp1561
I1722
aS'374'
p1562
aS'527'
p1563
aa(lp1564
I3642
aS'564'
p1565
aS'685'
p1566
aasS'4DHK'
p1567
(lp1568
(lp1569
I664
aS'83'
p1570
aS'173'
p1571
aasS'4GWD'
p1572
(lp1573
(lp1574
I6392
aS'7'
aS'300'
p1575
aasS'1OR5'
p1576
(lp1577
(lp1578
I361
aS'7'
aS'74'
p1579
aasS'4GWC'
p1580
(lp1581
(lp1582
I6392
aS'7'
aS'300'
p1583
aasS'3ZF1'
p1584
(lp1585
(lp1586
I664
aS'13'
p1587
aS'98'
p1588
aa(lp1589
I664
aS'128'
p1590
aS'156'
p1591
aasS'3CHO'
p1592
(lp1593
(lp1594
I4916
aS'18'
p1595
aS'386'
p1596
aa(lp1597
I5288
aS'464'
p1598
aS'607'
p1599
aasS'3ZF3'
p1600
(lp1601
(lp1602
I664
aS'13'
p1603
aS'98'
p1604
aa(lp1605
I664
aS'128'
p1606
aS'156'
p1607
aasS'3ZF2'
p1608
(lp1609
(lp1610
I664
aS'12'
p1611
aS'97'
p1612
aa(lp1613
I664
aS'127'
p1614
aS'155'
p1615
aasS'3ZF5'
p1616
(lp1617
(lp1618
I664
aS'13'
p1619
aS'98'
p1620
aa(lp1621
I664
aS'128'
p1622
aS'169'
p1623
aasS'3ZF4'
p1624
(lp1625
(lp1626
I664
aS'13'
p1627
aS'98'
p1628
aa(lp1629
I664
aS'128'
p1630
aS'169'
p1631
aasS'3ZF6'
p1632
(lp1633
(lp1634
I664
aS'13'
p1635
aS'98'
p1636
aa(lp1637
I664
aS'128'
p1638
aS'169'
p1639
aasS'1FH1'
p1640
(lp1641
(lp1642
I361
aS'46'
p1643
aS'79'
p1644
aasS'4GK6'
p1645
(lp1646
(lp1647
I664
aS'10'
p1648
aS'127'
p1649
aasS'4G3H'
p1650
(lp1651
(lp1652
I6392
aS'2'
aS'292'
p1653
aasS'1AF8'
p1654
(lp1655
(lp1656
I361
aS'13'
p1657
aS'78'
p1658
aasS'2P4K'
p1659
(lp1660
(lp1661
I4448
aS'1'
aS'82'
p1662
aa(lp1663
I4454
aS'89'
p1664
aS'192'
p1665
aasS'3U4E'
p1666
(lp1667
(lp1668
I1068
aS'132'
p1669
aS'208'
p1670
aa(lp1671
I1690
aS'126'
p1672
aS'206'
p1673
aa(lp1674
I1690
aS'120'
p1675
aS'201'
p1676
aa(lp1677
I2388
aS'12'
p1678
aS'100B'
p1679
aa(lp1680
I2388
aS'5'
aS'106A'
p1681
aa(lp1682
I4438
aS'199'
p1683
aS'239'
p1684
aasS'4UJE'
p1685
(lp1686
(lp1687
I62
aS'19'
p1688
aS'100'
p1689
aa(lp1690
I86
aS'2'
aS'69'
p1691
aa(lp1692
I125
aS'24'
p1693
aS'101'
p1694
aa(lp1695
I143
aS'19'
p1696
aS'112'
p1697
aa(lp1698
I143
aS'114'
p1699
aS'182'
p1700
aa(lp1701
I145
aS'10'
p1702
aS'63'
p1703
aa(lp1704
I147
aS'102'
p1705
aS'166'
p1706
aa(lp1707
I341
aS'6'
aS'99'
p1708
aa(lp1709
I472
aS'275'
p1710
aS'348'
p1711
aa(lp1712
I481
aS'4'
aS'145'
p1713
aa(lp1714
I512
aS'2'
aS'60'
p1715
aa(lp1716
I587
aS'2'
aS'96'
p1717
aa(lp1718
I625
aS'8'
aS'68'
p1719
aa(lp1720
I672
aS'2'
aS'190'
p1721
aa(lp1722
I905
aS'17'
p1723
aS'124'
p1724
aa(lp1725
I1127
aS'212'
p1726
aS'258'
p1727
aa(lp1728
I1431
aS'38'
p1729
aS'67'
p1730
aa(lp1731
I1484
aS'3'
aS'88'
p1732
aa(lp1733
I1732
aS'12'
p1734
aS'165'
p1735
aa(lp1736
I1735
aS'16'
p1737
aS'116'
p1738
aa(lp1739
I1787
aS'67'
p1740
aS'165'
p1741
aa(lp1742
I1801
aS'9'
aS'184'
p1743
aa(lp1744
I2021
aS'90'
p1745
aS'140'
p1746
aa(lp1747
I2074
aS'2'
aS'190'
p1748
aa(lp1749
I2075
aS'78'
p1750
aS'127'
p1751
aa(lp1752
I2266
aS'3'
aS'99'
p1753
aa(lp1754
I2417
aS'51'
p1755
aS'83'
p1756
aa(lp1757
I2417
aS'7'
aS'35'
p1758
aa(lp1759
I2417
aS'178'
p1760
aS'211'
p1761
aa(lp1762
I2446
aS'106'
p1763
aS'188'
p1764
aa(lp1765
I2502
aS'3'
aS'39'
p1766
aa(lp1767
I2772
aS'12'
p1768
aS'85'
p1769
aa(lp1770
I2772
aS'99'
p1771
aS'178'
p1772
aa(lp1773
I2835
aS'108'
p1774
aS'151'
p1775
aa(lp1776
I3026
aS'52'
p1777
aS'136'
p1778
aa(lp1779
I3055
aS'7'
aS'130'
p1780
aa(lp1781
I3071
aS'22'
p1782
aS'139'
p1783
aa(lp1784
I3282
aS'7'
aS'191'
p1785
aa(lp1786
I3544
aS'14'
p1787
aS'142'
p1788
aa(lp1789
I3545
aS'21'
p1790
aS'115'
p1791
aa(lp1792
I3548
aS'75'
p1793
aS'144'
p1794
aa(lp1795
I3549
aS'9'
aS'54'
p1796
aa(lp1797
I3550
aS'74'
p1798
aS'147'
p1799
aa(lp1800
I3651
aS'17'
p1801
aS'87'
p1802
aa(lp1803
I3767
aS'21'
p1804
aS'221'
p1805
aa(lp1806
I3809
aS'185'
p1807
aS'256'
p1808
aa(lp1809
I3813
aS'6'
aS'56'
p1810
aa(lp1811
I4048
aS'202'
p1812
aS'219'
p1813
aa(lp1814
I4161
aS'27'
p1815
aS'173'
p1816
aa(lp1817
I4162
aS'28'
p1818
aS'146'
p1819
aa(lp1820
I4222
aS'2'
aS'54'
p1821
aa(lp1822
I4304
aS'5'
aS'73'
p1823
aa(lp1824
I4410
aS'47'
p1825
aS'120'
p1826
aa(lp1827
I4667
aS'5'
aS'139'
p1828
aa(lp1829
I4691
aS'9'
aS'49'
p1830
aa(lp1831
I4935
aS'2'
aS'119'
p1832
aa(lp1833
I4980
aS'3'
aS'42'
p1834
aa(lp1835
I5041
aS'6'
aS'130'
p1836
aa(lp1837
I5042
aS'14'
p1838
aS'146'
p1839
aa(lp1840
I5050
aS'62'
p1841
aS'204'
p1842
aa(lp1843
I5273
aS'97'
p1844
aS'230'
p1845
aa(lp1846
I5516
aS'10'
p1847
aS'63'
p1848
aa(lp1849
I5517
aS'22'
p1850
aS'262'
p1851
aa(lp1852
I5519
aS'12'
p1853
aS'207'
p1854
aa(lp1855
I5520
aS'2'
aS'375'
p1856
aa(lp1857
I5521
aS'13'
p1858
aS'90'
p1859
aa(lp1860
I5532
aS'9'
aS'140'
p1861
aa(lp1862
I5807
aS'1'
aS'79'
p1863
aa(lp1864
I5992
aS'8'
aS'63'
p1865
aa(lp1866
I5993
aS'8'
aS'122'
p1867
aa(lp1868
I5996
aS'18'
p1869
aS'151'
p1870
aa(lp1871
I5997
aS'76'
p1872
aS'140'
p1873
aa(lp1874
I6062
aS'192'
p1875
aS'283'
p1876
aa(lp1877
I6235
aS'1'
aS'25'
p1878
aa(lp1879
I6236
aS'17'
p1880
aS'94'
p1881
aa(lp1882
I6345
aS'20'
p1883
aS'92'
p1884
aa(lp1885
I6388
aS'3'
aS'95'
p1886
aa(lp1887
I6403
aS'29'
p1888
aS'147'
p1889
aa(lp1890
I6412
aS'47'
p1891
aS'128'
p1892
aa(lp1893
I6453
aS'16'
p1894
aS'117'
p1895
aa(lp1896
I6484
aS'181'
p1897
aS'288'
p1898
aa(lp1899
I6625
aS'17'
p1900
aS'110'
p1901
aa(lp1902
I6625
aS'131'
p1903
aS'212'
p1904
aa(lp1905
I6625
aS'13'
p1906
aS'105'
p1907
aa(lp1908
I6680
aS'95'
p1909
aS'169'
p1910
aa(lp1911
I6703
aS'1'
aS'64'
p1912
aa(lp1913
I6753
aS'5'
aS'104'
p1914
aa(lp1915
I6925
aS'1'
aS'126'
p1916
aa(lp1917
I7161
aS'40'
p1918
aS'112'
p1919
aa(lp1920
I7213
aS'9'
aS'44'
p1921
aa(lp1922
I7213
aS'55'
p1923
aS'91'
p1924
aa(lp1925
I7213
aS'96'
p1926
aS'133'
p1927
aa(lp1928
I7213
aS'145'
p1929
aS'178'
p1930
aa(lp1931
I7213
aS'188'
p1932
aS'220'
p1933
aa(lp1934
I7213
aS'225'
p1935
aS'260'
p1936
aa(lp1937
I7223
aS'5'
aS'120'
p1938
aa(lp1939
I7397
aS'28'
p1940
aS'82'
p1941
aa(lp1942
I7432
aS'2'
aS'97'
p1943
aa(lp1944
I7504
aS'102'
p1945
aS'147'
p1946
aasS'4UJD'
p1947
(lp1948
(lp1949
I62
aS'19'
p1950
aS'100'
p1951
aa(lp1952
I86
aS'2'
aS'69'
p1953
aa(lp1954
I125
aS'24'
p1955
aS'101'
p1956
aa(lp1957
I143
aS'19'
p1958
aS'112'
p1959
aa(lp1960
I143
aS'114'
p1961
aS'182'
p1962
aa(lp1963
I145
aS'10'
p1964
aS'63'
p1965
aa(lp1966
I147
aS'102'
p1967
aS'166'
p1968
aa(lp1969
I341
aS'6'
aS'99'
p1970
aa(lp1971
I472
aS'275'
p1972
aS'348'
p1973
aa(lp1974
I481
aS'4'
aS'145'
p1975
aa(lp1976
I512
aS'2'
aS'60'
p1977
aa(lp1978
I587
aS'2'
aS'96'
p1979
aa(lp1980
I625
aS'8'
aS'68'
p1981
aa(lp1982
I672
aS'2'
aS'190'
p1983
aa(lp1984
I905
aS'17'
p1985
aS'124'
p1986
aa(lp1987
I1127
aS'212'
p1988
aS'258'
p1989
aa(lp1990
I1431
aS'38'
p1991
aS'67'
p1992
aa(lp1993
I1484
aS'3'
aS'88'
p1994
aa(lp1995
I1732
aS'12'
p1996
aS'165'
p1997
aa(lp1998
I1735
aS'16'
p1999
aS'116'
p2000
aa(lp2001
I1787
aS'67'
p2002
aS'165'
p2003
aa(lp2004
I1801
aS'9'
aS'184'
p2005
aa(lp2006
I2021
aS'90'
p2007
aS'140'
p2008
aa(lp2009
I2074
aS'2'
aS'190'
p2010
aa(lp2011
I2075
aS'78'
p2012
aS'127'
p2013
aa(lp2014
I2266
aS'3'
aS'99'
p2015
aa(lp2016
I2417
aS'51'
p2017
aS'83'
p2018
aa(lp2019
I2417
aS'7'
aS'35'
p2020
aa(lp2021
I2417
aS'178'
p2022
aS'211'
p2023
aa(lp2024
I2446
aS'106'
p2025
aS'188'
p2026
aa(lp2027
I2502
aS'3'
aS'39'
p2028
aa(lp2029
I2772
aS'12'
p2030
aS'85'
p2031
aa(lp2032
I2772
aS'99'
p2033
aS'178'
p2034
aa(lp2035
I2835
aS'108'
p2036
aS'151'
p2037
aa(lp2038
I3026
aS'52'
p2039
aS'136'
p2040
aa(lp2041
I3055
aS'7'
aS'130'
p2042
aa(lp2043
I3071
aS'22'
p2044
aS'139'
p2045
aa(lp2046
I3282
aS'7'
aS'191'
p2047
aa(lp2048
I3544
aS'14'
p2049
aS'142'
p2050
aa(lp2051
I3545
aS'21'
p2052
aS'115'
p2053
aa(lp2054
I3548
aS'75'
p2055
aS'144'
p2056
aa(lp2057
I3549
aS'9'
aS'54'
p2058
aa(lp2059
I3550
aS'74'
p2060
aS'147'
p2061
aa(lp2062
I3651
aS'17'
p2063
aS'87'
p2064
aa(lp2065
I3767
aS'21'
p2066
aS'221'
p2067
aa(lp2068
I3809
aS'185'
p2069
aS'256'
p2070
aa(lp2071
I3813
aS'6'
aS'56'
p2072
aa(lp2073
I4048
aS'202'
p2074
aS'219'
p2075
aa(lp2076
I4161
aS'27'
p2077
aS'173'
p2078
aa(lp2079
I4162
aS'28'
p2080
aS'146'
p2081
aa(lp2082
I4222
aS'2'
aS'54'
p2083
aa(lp2084
I4304
aS'5'
aS'73'
p2085
aa(lp2086
I4410
aS'47'
p2087
aS'120'
p2088
aa(lp2089
I4654
aS'1084'
p2090
aS'1160'
p2091
aa(lp2092
I4667
aS'5'
aS'139'
p2093
aa(lp2094
I4691
aS'9'
aS'49'
p2095
aa(lp2096
I4935
aS'2'
aS'119'
p2097
aa(lp2098
I4980
aS'3'
aS'42'
p2099
aa(lp2100
I5041
aS'6'
aS'130'
p2101
aa(lp2102
I5042
aS'14'
p2103
aS'146'
p2104
aa(lp2105
I5050
aS'62'
p2106
aS'204'
p2107
aa(lp2108
I5273
aS'97'
p2109
aS'230'
p2110
aa(lp2111
I5516
aS'10'
p2112
aS'63'
p2113
aa(lp2114
I5517
aS'22'
p2115
aS'262'
p2116
aa(lp2117
I5519
aS'12'
p2118
aS'207'
p2119
aa(lp2120
I5520
aS'2'
aS'375'
p2121
aa(lp2122
I5521
aS'13'
p2123
aS'90'
p2124
aa(lp2125
I5532
aS'9'
aS'140'
p2126
aa(lp2127
I5807
aS'1'
aS'79'
p2128
aa(lp2129
I5903
aS'1189'
p2130
aS'1283'
p2131
aa(lp2132
I5992
aS'8'
aS'63'
p2133
aa(lp2134
I5993
aS'8'
aS'122'
p2135
aa(lp2136
I5996
aS'18'
p2137
aS'151'
p2138
aa(lp2139
I5997
aS'76'
p2140
aS'140'
p2141
aa(lp2142
I6062
aS'192'
p2143
aS'283'
p2144
aa(lp2145
I6226
aS'847'
p2146
aS'1057'
p2147
aa(lp2148
I6235
aS'1'
aS'25'
p2149
aa(lp2150
I6236
aS'17'
p2151
aS'94'
p2152
aa(lp2153
I6345
aS'20'
p2154
aS'92'
p2155
aa(lp2156
I6388
aS'3'
aS'95'
p2157
aa(lp2158
I6403
aS'29'
p2159
aS'147'
p2160
aa(lp2161
I6412
aS'47'
p2162
aS'128'
p2163
aa(lp2164
I6453
aS'16'
p2165
aS'117'
p2166
aa(lp2167
I6484
aS'181'
p2168
aS'288'
p2169
aa(lp2170
I6625
aS'131'
p2171
aS'212'
p2172
aa(lp2173
I6625
aS'13'
p2174
aS'105'
p2175
aa(lp2176
I6625
aS'17'
p2177
aS'110'
p2178
aa(lp2179
I6680
aS'95'
p2180
aS'169'
p2181
aa(lp2182
I6703
aS'1'
aS'64'
p2183
aa(lp2184
I6753
aS'5'
aS'104'
p2185
aa(lp2186
I6925
aS'1'
aS'126'
p2187
aa(lp2188
I7161
aS'40'
p2189
aS'112'
p2190
aa(lp2191
I7213
aS'9'
aS'44'
p2192
aa(lp2193
I7213
aS'55'
p2194
aS'91'
p2195
aa(lp2196
I7213
aS'96'
p2197
aS'133'
p2198
aa(lp2199
I7213
aS'145'
p2200
aS'178'
p2201
aa(lp2202
I7213
aS'188'
p2203
aS'220'
p2204
aa(lp2205
I7213
aS'225'
p2206
aS'260'
p2207
aa(lp2208
I7223
aS'5'
aS'120'
p2209
aa(lp2210
I7397
aS'28'
p2211
aS'82'
p2212
aa(lp2213
I7432
aS'2'
aS'97'
p2214
aa(lp2215
I7504
aS'102'
p2216
aS'147'
p2217
aasS'4UJC'
p2218
(lp2219
(lp2220
I62
aS'19'
p2221
aS'100'
p2222
aa(lp2223
I86
aS'2'
aS'69'
p2224
aa(lp2225
I125
aS'24'
p2226
aS'101'
p2227
aa(lp2228
I143
aS'19'
p2229
aS'112'
p2230
aa(lp2231
I143
aS'114'
p2232
aS'182'
p2233
aa(lp2234
I145
aS'10'
p2235
aS'63'
p2236
aa(lp2237
I147
aS'102'
p2238
aS'166'
p2239
aa(lp2240
I341
aS'6'
aS'99'
p2241
aa(lp2242
I472
aS'275'
p2243
aS'348'
p2244
aa(lp2245
I481
aS'4'
aS'145'
p2246
aa(lp2247
I512
aS'2'
aS'60'
p2248
aa(lp2249
I587
aS'2'
aS'96'
p2250
aa(lp2251
I625
aS'8'
aS'68'
p2252
aa(lp2253
I672
aS'2'
aS'190'
p2254
aa(lp2255
I905
aS'17'
p2256
aS'124'
p2257
aa(lp2258
I1127
aS'212'
p2259
aS'258'
p2260
aa(lp2261
I1431
aS'38'
p2262
aS'67'
p2263
aa(lp2264
I1484
aS'3'
aS'88'
p2265
aa(lp2266
I1732
aS'12'
p2267
aS'165'
p2268
aa(lp2269
I1735
aS'16'
p2270
aS'116'
p2271
aa(lp2272
I1787
aS'67'
p2273
aS'165'
p2274
aa(lp2275
I1801
aS'9'
aS'184'
p2276
aa(lp2277
I2021
aS'90'
p2278
aS'140'
p2279
aa(lp2280
I2074
aS'2'
aS'190'
p2281
aa(lp2282
I2075
aS'78'
p2283
aS'127'
p2284
aa(lp2285
I2266
aS'3'
aS'99'
p2286
aa(lp2287
I2417
aS'51'
p2288
aS'83'
p2289
aa(lp2290
I2417
aS'7'
aS'35'
p2291
aa(lp2292
I2417
aS'178'
p2293
aS'211'
p2294
aa(lp2295
I2446
aS'106'
p2296
aS'188'
p2297
aa(lp2298
I2502
aS'3'
aS'39'
p2299
aa(lp2300
I2772
aS'12'
p2301
aS'85'
p2302
aa(lp2303
I2772
aS'99'
p2304
aS'178'
p2305
aa(lp2306
I2835
aS'108'
p2307
aS'151'
p2308
aa(lp2309
I3026
aS'52'
p2310
aS'136'
p2311
aa(lp2312
I3055
aS'7'
aS'130'
p2313
aa(lp2314
I3071
aS'22'
p2315
aS'139'
p2316
aa(lp2317
I3282
aS'7'
aS'191'
p2318
aa(lp2319
I3544
aS'14'
p2320
aS'142'
p2321
aa(lp2322
I3545
aS'21'
p2323
aS'115'
p2324
aa(lp2325
I3548
aS'75'
p2326
aS'144'
p2327
aa(lp2328
I3549
aS'9'
aS'54'
p2329
aa(lp2330
I3550
aS'74'
p2331
aS'147'
p2332
aa(lp2333
I3651
aS'17'
p2334
aS'87'
p2335
aa(lp2336
I3767
aS'21'
p2337
aS'221'
p2338
aa(lp2339
I3809
aS'185'
p2340
aS'256'
p2341
aa(lp2342
I3813
aS'6'
aS'56'
p2343
aa(lp2344
I4048
aS'202'
p2345
aS'219'
p2346
aa(lp2347
I4161
aS'27'
p2348
aS'173'
p2349
aa(lp2350
I4162
aS'28'
p2351
aS'146'
p2352
aa(lp2353
I4222
aS'2'
aS'54'
p2354
aa(lp2355
I4304
aS'5'
aS'73'
p2356
aa(lp2357
I4410
aS'47'
p2358
aS'120'
p2359
aa(lp2360
I4654
aS'1084'
p2361
aS'1160'
p2362
aa(lp2363
I4667
aS'5'
aS'139'
p2364
aa(lp2365
I4691
aS'9'
aS'49'
p2366
aa(lp2367
I4935
aS'2'
aS'119'
p2368
aa(lp2369
I4980
aS'3'
aS'42'
p2370
aa(lp2371
I5041
aS'6'
aS'130'
p2372
aa(lp2373
I5042
aS'14'
p2374
aS'146'
p2375
aa(lp2376
I5050
aS'62'
p2377
aS'204'
p2378
aa(lp2379
I5273
aS'97'
p2380
aS'230'
p2381
aa(lp2382
I5516
aS'10'
p2383
aS'63'
p2384
aa(lp2385
I5517
aS'22'
p2386
aS'262'
p2387
aa(lp2388
I5519
aS'12'
p2389
aS'207'
p2390
aa(lp2391
I5520
aS'2'
aS'375'
p2392
aa(lp2393
I5521
aS'13'
p2394
aS'90'
p2395
aa(lp2396
I5532
aS'9'
aS'140'
p2397
aa(lp2398
I5807
aS'1'
aS'79'
p2399
aa(lp2400
I5903
aS'1189'
p2401
aS'1283'
p2402
aa(lp2403
I5992
aS'8'
aS'63'
p2404
aa(lp2405
I5993
aS'8'
aS'122'
p2406
aa(lp2407
I5996
aS'18'
p2408
aS'151'
p2409
aa(lp2410
I5997
aS'76'
p2411
aS'140'
p2412
aa(lp2413
I6062
aS'192'
p2414
aS'283'
p2415
aa(lp2416
I6226
aS'847'
p2417
aS'1057'
p2418
aa(lp2419
I6235
aS'1'
aS'25'
p2420
aa(lp2421
I6236
aS'17'
p2422
aS'94'
p2423
aa(lp2424
I6345
aS'20'
p2425
aS'92'
p2426
aa(lp2427
I6388
aS'3'
aS'95'
p2428
aa(lp2429
I6403
aS'29'
p2430
aS'147'
p2431
aa(lp2432
I6412
aS'47'
p2433
aS'128'
p2434
aa(lp2435
I6453
aS'16'
p2436
aS'117'
p2437
aa(lp2438
I6484
aS'181'
p2439
aS'288'
p2440
aa(lp2441
I6625
aS'131'
p2442
aS'212'
p2443
aa(lp2444
I6625
aS'13'
p2445
aS'105'
p2446
aa(lp2447
I6625
aS'17'
p2448
aS'110'
p2449
aa(lp2450
I6680
aS'95'
p2451
aS'169'
p2452
aa(lp2453
I6703
aS'1'
aS'64'
p2454
aa(lp2455
I6753
aS'5'
aS'104'
p2456
aa(lp2457
I6925
aS'1'
aS'126'
p2458
aa(lp2459
I7161
aS'40'
p2460
aS'112'
p2461
aa(lp2462
I7213
aS'9'
aS'44'
p2463
aa(lp2464
I7213
aS'55'
p2465
aS'91'
p2466
aa(lp2467
I7213
aS'96'
p2468
aS'133'
p2469
aa(lp2470
I7213
aS'145'
p2471
aS'178'
p2472
aa(lp2473
I7213
aS'188'
p2474
aS'220'
p2475
aa(lp2476
I7213
aS'225'
p2477
aS'260'
p2478
aa(lp2479
I7223
aS'5'
aS'120'
p2480
aa(lp2481
I7397
aS'28'
p2482
aS'82'
p2483
aa(lp2484
I7432
aS'2'
aS'97'
p2485
aa(lp2486
I7504
aS'102'
p2487
aS'147'
p2488
aasS'3FHE'
p2489
(lp2490
(lp2491
I4916
aS'18'
p2492
aS'386'
p2493
aa(lp2494
I5288
aS'464'
p2495
aS'607'
p2496
aasS'2LL8'
p2497
(lp2498
(lp2499
I361
aS'6'
aS'58'
p2500
aasS'2QXX'
p2501
(lp2502
(lp2503
I664
aS'70'
p2504
aS'177'
p2505
aasS'1ZA5'
p2506
(lp2507
(lp2508
I4448
aS'1'
aS'81'
p2509
aa(lp2510
I4454
aS'88'
p2511
aS'189'
p2512
aasS'3DNO'
p2513
(lp2514
(lp2515
I1068
aS'90'
p2516
aS'124'
p2517
aa(lp2518
I1068
aS'198'
p2519
aS'297'
p2520
aa(lp2521
I1068
aS'329'
p2522
aS'395'
p2523
aa(lp2524
I1068
aS'413'
p2525
aS'492'
p2526
aasS'3DNN'
p2527
(lp2528
(lp2529
I1068
aS'90'
p2530
aS'124'
p2531
aa(lp2532
I1068
aS'198'
p2533
aS'297'
p2534
aa(lp2535
I1068
aS'329'
p2536
aS'395'
p2537
aa(lp2538
I1068
aS'413'
p2539
aS'492'
p2540
aasS'4S1R'
p2541
(lp2542
(lp2543
I1068
aS'44'
p2544
aS'123'
p2545
aa(lp2546
I1068
aS'198'
p2547
aS'492'
p2548
aa(lp2549
I1690
aS'126'
p2550
aS'206'
p2551
aa(lp2552
I1690
aS'122'
p2553
aS'207'
p2554
aa(lp2555
I2388
aS'9'
aS'94'
p2556
aa(lp2557
I2388
aS'6'
aS'106'
p2558
aasS'3DNL'
p2559
(lp2560
(lp2561
I1068
aS'90'
p2562
aS'124'
p2563
aa(lp2564
I1068
aS'198'
p2565
aS'297'
p2566
aa(lp2567
I1068
aS'329'
p2568
aS'395'
p2569
aa(lp2570
I1068
aS'413'
p2571
aS'492'
p2572
aasS'2MVU'
p2573
(lp2574
(lp2575
I361
aS'13'
p2576
aS'78'
p2577
aasS'3B34'
p2578
(lp2579
(lp2580
I3130
aS'459'
p2581
aS'827'
p2582
aa(lp2583
I4916
aS'49'
p2584
aS'384'
p2585
aasS'2MVV'
p2586
(lp2587
(lp2588
I361
aS'13'
p2589
aS'78'
p2590
aasS'2D4N'
p2591
(lp2592
(lp2593
I664
aS'112'
p2594
aS'219'
p2595
aasS'4R5T'
p2596
(lp2597
(lp2598
I3130
aS'664'
p2599
aS'1040'
p2600
aa(lp2601
I4916
aS'215'
p2602
aS'583'
p2603
aasS'2D4L'
p2604
(lp2605
(lp2606
I664
aS'112'
p2607
aS'219'
p2608
aasS'4R5V'
p2609
(lp2610
(lp2611
I3130
aS'664'
p2612
aS'1040'
p2613
aa(lp2614
I4916
aS'215'
p2615
aS'583'
p2616
aasS'4R4F'
p2617
(lp2618
(lp2619
I1068
aS'45'
p2620
aS'123'
p2621
aa(lp2622
I1068
aS'198'
p2623
aS'492'
p2624
aa(lp2625
I1690
aS'120'
p2626
aS'205'
p2627
aa(lp2628
I1690
aS'126'
p2629
aS'206'
p2630
aa(lp2631
I2388
aS'6'
aS'106'
p2632
aa(lp2633
I2388
aS'14'
p2634
aS'111'
p2635
aasS'2FQ2'
p2636
(lp2637
(lp2638
I361
aS'7'
aS'73'
p2639
aasS'2FQ0'
p2640
(lp2641
(lp2642
I361
aS'7'
aS'73'
p2643
aasS'3F80'
p2644
(lp2645
(lp2646
I6392
aS'7'
aS'300'
p2647
aasS'3SO2'
p2648
(lp2649
(lp2650
I664
aS'16'
p2651
aS'143'
p2652
aasS'2VJ8'
p2653
(lp2654
(lp2655
I4916
aS'18'
p2656
aS'386'
p2657
aa(lp2658
I5288
aS'464'
p2659
aS'607'
p2660
aasS'4I53'
p2661
(lp2662
(lp2663
I1068
aS'49'
p2664
aS'123'
p2665
aa(lp2666
I1068
aS'199'
p2667
aS'491'
p2668
aasS'2J4H'
p2669
(lp2670
(lp2671
I664
aS'78'
p2672
aS'174'
p2673
aasS'4I54'
p2674
(lp2675
(lp2676
I1068
aS'44'
p2677
aS'123'
p2678
aa(lp2679
I1068
aS'198'
p2680
aS'492'
p2681
aasS'2QKC'
p2682
(lp2683
(lp2684
I4448
aS'1'
aS'82'
p2685
aa(lp2686
I4454
aS'89'
p2687
aS'192'
p2688
aasS'2J4Q'
p2689
(lp2690
(lp2691
I664
aS'78'
p2692
aS'174'
p2693
aasS'4NZ8'
p2694
(lp2695
(lp2696
I662
aS'616'
p2697
aS'940'
p2698
aa(lp2699
I4916
aS'71'
p2700
aS'475'
p2701
aasS'4S1Q'
p2702
(lp2703
(lp2704
I1068
aS'44'
p2705
aS'123'
p2706
aa(lp2707
I1068
aS'198'
p2708
aS'492'
p2709
aa(lp2710
I1690
aS'126'
p2711
aS'206'
p2712
aa(lp2713
I1690
aS'122'
p2714
aS'207'
p2715
aa(lp2716
I2388
aS'6'
aS'95'
p2717
aa(lp2718
I2388
aS'6'
aS'106'
p2719
aasS'4KA2'
p2720
(lp2721
(lp2722
I1068
aS'44'
p2723
aS'123'
p2724
aa(lp2725
I1068
aS'198'
p2726
aS'492'
p2727
aasS'4DKR'
p2728
(lp2729
(lp2730
I1068
aS'44'
p2731
aS'123'
p2732
aa(lp2733
I1068
aS'198'
p2734
aS'492'
p2735
aasS'2AVA'
p2736
(lp2737
(lp2738
I361
aS'7'
aS'73'
p2739
aasS'4JZ2'
p2740
(lp2741
(lp2742
I4448
aS'31'
p2743
aS'118'
p2744
aa(lp2745
I4454
aS'125'
p2746
aS'223'
p2747
aasS'4FKK'
p2748
(lp2749
(lp2750
I662
aS'616'
p2751
aS'940'
p2752
aa(lp2753
I4916
aS'71'
p2754
aS'475'
p2755
aasS'2PC5'
p2756
(lp2757
(lp2758
I664
aS'37'
p2759
aS'152'
p2760
aasS'4FKH'
p2761
(lp2762
(lp2763
I662
aS'616'
p2764
aS'940'
p2765
aa(lp2766
I4916
aS'71'
p2767
aS'475'
p2768
aasS'1XUQ'
p2769
(lp2770
(lp2771
I4448
aS'3'
aS'91'
p2772
aa(lp2773
I4454
aS'98'
p2774
aS'198'
p2775
aasS'4JZG'
p2776
(lp2777
(lp2778
I4448
aS'31'
p2779
aS'118'
p2780
aa(lp2781
I4454
aS'125'
p2782
aS'223'
p2783
aasS'4FKE'
p2784
(lp2785
(lp2786
I662
aS'616'
p2787
aS'940'
p2788
aa(lp2789
I4916
aS'71'
p2790
aS'475'
p2791
aasS'4F91'
p2792
(lp2793
(lp2794
I1722
aS'483'
p2795
aS'658'
p2796
aa(lp2797
I1722
aS'1330'
p2798
aS'1496'
p2799
aa(lp2800
I3642
aS'720'
p2801
aS'859'
p2802
aa(lp2803
I4505
aS'982'
p2804
aS'1284'
p2805
aa(lp2806
I4505
aS'1812'
p2807
aS'2123'
p2808
aasS'5AGA'
p2809
(lp2810
(lp2811
I1722
aS'103'
p2812
aS'269'
p2813
aa(lp2814
I3642
aS'329'
p2815
aS'485'
p2816
aasS'4F92'
p2817
(lp2818
(lp2819
I1722
aS'483'
p2820
aS'658'
p2821
aa(lp2822
I1722
aS'1330'
p2823
aS'1496'
p2824
aa(lp2825
I3642
aS'720'
p2826
aS'859'
p2827
aa(lp2828
I4505
aS'982'
p2829
aS'1284'
p2830
aa(lp2831
I4505
aS'1812'
p2832
aS'2123'
p2833
aasS'3EBH'
p2834
(lp2835
(lp2836
I3130
aS'664'
p2837
aS'1040'
p2838
aa(lp2839
I4916
aS'215'
p2840
aS'583'
p2841
aasS'4JZZ'
p2842
(lp2843
(lp2844
I1068
aS'44'
p2845
aS'123'
p2846
aa(lp2847
I1068
aS'198'
p2848
aS'492'
p2849
aasS'3KED'
p2850
(lp2851
(lp2852
I3130
aS'459'
p2853
aS'827'
p2854
aa(lp2855
I4916
aS'49'
p2856
aS'384'
p2857
aasS'4JZW'
p2858
(lp2859
(lp2860
I1068
aS'44'
p2861
aS'123'
p2862
aa(lp2863
I1068
aS'198'
p2864
aS'492'
p2865
aasS'1H19'
p2866
(lp2867
(lp2868
I4916
aS'18'
p2869
aS'386'
p2870
aa(lp2871
I5288
aS'464'
p2872
aS'607'
p2873
aasS'3TPS'
p2874
(lp2875
(lp2876
I664
aS'30'
p2877
aS'137'
p2878
aasS'4DG9'
p2879
(lp2880
(lp2881
I361
aS'529'
p2882
aS'589'
p2883
aa(lp2884
I1283
aS'432'
p2885
aS'499'
p2886
aa(lp2887
I6140
aS'32'
p2888
aS'422'
p2889
aasS'2HR6'
p2890
(lp2891
(lp2892
I664
aS'17'
p2893
aS'137'
p2894
aasS'4OM0'
p2895
(lp2896
(lp2897
I1068
aS'44'
p2898
aS'123'
p2899
aa(lp2900
I1068
aS'198'
p2901
aS'492'
p2902
aa(lp2903
I1690
aS'126'
p2904
aS'206'
p2905
aa(lp2906
I1690
aS'122'
p2907
aS'207'
p2908
aa(lp2909
I2388
aS'11'
p2910
aS'110'
p2911
aa(lp2912
I2388
aS'6'
aS'106'
p2913
aasS'4OU3'
p2914
(lp2915
(lp2916
I662
aS'616'
p2917
aS'940'
p2918
aa(lp2919
I4916
aS'71'
p2920
aS'475'
p2921
aasS'1SQM'
p2922
(lp2923
(lp2924
I4916
aS'18'
p2925
aS'386'
p2926
aa(lp2927
I5288
aS'464'
p2928
aS'607'
p2929
aasS'1HQF'
p2930
(lp2931
(lp2932
I6392
aS'8'
aS'302'
p2933
aasS'3T64'
p2934
(lp2935
(lp2936
I664
aS'87'
p2937
aS'167'
p2938
aasS'3T60'
p2939
(lp2940
(lp2941
I664
aS'87'
p2942
aS'166'
p2943
aasS'1L0I'
p2944
(lp2945
(lp2946
I361
aS'5'
aS'72'
p2947
aasS'1L0H'
p2948
(lp2949
(lp2950
I361
aS'5'
aS'72'
p2951
aasS'1F7P'
p2952
(lp2953
(lp2954
I664
aS'8'
aS'116'
p2955
aasS'1F7Q'
p2956
(lp2957
(lp2958
I664
aS'8'
aS'116'
p2959
aasS'1F7R'
p2960
(lp2961
(lp2962
I664
aS'8'
aS'131'
p2963
aasS'4FYQ'
p2964
(lp2965
(lp2966
I662
aS'619'
p2967
aS'943'
p2968
aa(lp2969
I4916
aS'75'
p2970
aS'480'
p2971
aasS'4FYS'
p2972
(lp2973
(lp2974
I662
aS'619'
p2975
aS'943'
p2976
aa(lp2977
I4916
aS'75'
p2978
aS'480'
p2979
aasS'4FYR'
p2980
(lp2981
(lp2982
I662
aS'619'
p2983
aS'943'
p2984
aa(lp2985
I4916
aS'75'
p2986
aS'480'
p2987
aasS'1EN4'
p2988
(lp2989
(lp2990
I4448
aS'1'
aS'88'
p2991
aa(lp2992
I4454
aS'95'
p2993
aS'200'
p2994
aasS'4FYT'
p2995
(lp2996
(lp2997
I662
aS'619'
p2998
aS'943'
p2999
aa(lp3000
I4916
aS'75'
p3001
aS'480'
p3002
aasS'1EN6'
p3003
(lp3004
(lp3005
I4448
aS'1'
aS'88'
p3006
aa(lp3007
I4454
aS'95'
p3008
aS'200'
p3009
aasS'1F7K'
p3010
(lp3011
(lp3012
I664
aS'8'
aS'117'
p3013
aasS'1F7D'
p3014
(lp3015
(lp3016
I664
aS'8'
aS'118'
p3017
aasS'4XVS'
p3018
(lp3019
(lp3020
I1068
aS'44'
p3021
aS'123'
p3022
aa(lp3023
I1068
aS'199'
p3024
aS'493'
p3025
aa(lp3026
I1690
aS'138'
p3027
aS'218'
p3028
aa(lp3029
I1690
aS'122'
p3030
aS'207'
p3031
aa(lp3032
I2388
aS'10'
p3033
aS'108'
p3034
aa(lp3035
I2388
aS'8'
aS'106'
p3036
aasS'1HQX'
p3037
(lp3038
(lp3039
I6392
aS'8'
aS'302'
p3040
aasS'1R1O'
p3041
(lp3042
(lp3043
I6392
aS'8'
aS'302'
p3044
aasS'2CNR'
p3045
(lp3046
(lp3047
I361
aS'12'
p3048
aS'77'
p3049
aasS'3QVN'
p3050
(lp3051
(lp3052
I4448
aS'9'
aS'88'
p3053
aa(lp3054
I4454
aS'102'
p3055
aS'203'
p3056
aasS'4KX7'
p3057
(lp3058
(lp3059
I662
aS'616'
p3060
aS'932'
p3061
aa(lp3062
I4916
aS'92'
p3063
aS'482'
p3064
aasS'3CHP'
p3065
(lp3066
(lp3067
I4916
aS'18'
p3068
aS'386'
p3069
aa(lp3070
I5288
aS'464'
p3071
aS'607'
p3072
aasS'5C7K'
p3073
(lp3074
(lp3075
I1068
aS'34'
p3076
aS'135'
p3077
aa(lp3078
I1068
aS'152'
p3079
aS'504'
p3080
aa(lp3081
I1690
aS'126'
p3082
aS'218'
p3083
aa(lp3084
I1690
aS'120'
p3085
aS'204'
p3086
aa(lp3087
I1690
aS'126'
p3088
aS'206'
p3089
aa(lp3090
I1690
aS'120'
p3091
aS'205'
p3092
aa(lp3093
I2388
aS'5'
aS'94'
p3094
aa(lp3095
I2388
aS'6'
aS'106A'
p3096
aa(lp3097
I2388
aS'7'
aS'100'
p3098
aa(lp3099
I2388
aS'6'
aS'106'
p3100
aa(lp3101
I3336
aS'530'
p3102
aS'664'
p3103
aasS'1RLA'
p3104
(lp3105
(lp3106
I6392
aS'8'
aS'302'
p3107
aasS'1HV8'
p3108
(lp3109
(lp3110
I1722
aS'30'
p3111
aS'192'
p3112
aa(lp3113
I3642
aS'224'
p3114
aS'333'
p3115
aasS'4KX9'
p3116
(lp3117
(lp3118
I662
aS'616'
p3119
aS'932'
p3120
aa(lp3121
I4916
aS'92'
p3122
aS'482'
p3123
aasS'4KX8'
p3124
(lp3125
(lp3126
I662
aS'616'
p3127
aS'932'
p3128
aa(lp3129
I4916
aS'92'
p3130
aS'482'
p3131
aasS'4NAQ'
p3132
(lp3133
(lp3134
I662
aS'616'
p3135
aS'940'
p3136
aa(lp3137
I4916
aS'71'
p3138
aS'475'
p3139
aasS'3MDX'
p3140
(lp3141
(lp3142
I664
aS'24'
p3143
aS'151'
p3144
aasS'1OGH'
p3145
(lp3146
(lp3147
I664
aS'95'
p3148
aS'172'
p3149
aa(lp3150
I664
aS'95'
p3151
aS'172'
p3152
aasS'2I4I'
p3153
(lp3154
(lp3155
I1722
aS'204'
p3156
aS'391'
p3157
aa(lp3158
I3642
aS'426'
p3159
aS'534'
p3160
aasS'1TBH'
p3161
(lp3162
(lp3163
I6392
aS'8'
aS'302'
p3164
aasS'3MDS'
p3165
(lp3166
(lp3167
I4448
aS'4'
aS'90'
p3168
aa(lp3169
I4454
aS'98'
p3170
aS'198'
p3171
aasS'4JAN'
p3172
(lp3173
(lp3174
I1068
aS'255'
p3175
aS'472'
p3176
aa(lp3177
I1690
aS'126'
p3178
aS'206'
p3179
aa(lp3180
I1690
aS'120'
p3181
aS'201'
p3182
aa(lp3183
I2388
aS'8'
aS'111'
p3184
aa(lp3185
I2388
aS'5'
aS'106A'
p3186
aasS'2KOO'
p3187
(lp3188
(lp3189
I361
aS'11'
p3190
aS'76'
p3191
aasS'4R2G'
p3192
(lp3193
(lp3194
I1068
aS'93'
p3195
aS'123'
p3196
aa(lp3197
I1068
aS'199'
p3198
aS'491'
p3199
aa(lp3200
I1690
aS'121'
p3201
aS'202'
p3202
aa(lp3203
I1690
aS'144'
p3204
aS'224'
p3205
aa(lp3206
I2388
aS'8'
aS'106A'
p3207
aa(lp3208
I2388
aS'11'
p3209
aS'111'
p3210
aa(lp3211
I4082
aS'1'
aS'97'
p3212
aa(lp3213
I6254
aS'101'
p3214
aS'175'
p3215
aasS'1VEW'
p3216
(lp3217
(lp3218
I4448
aS'1'
aS'88'
p3219
aa(lp3220
I4454
aS'95'
p3221
aS'200'
p3222
aasS'3JS4'
p3223
(lp3224
(lp3225
I4448
aS'2'
aS'88'
p3226
aa(lp3227
I4454
aS'95'
p3228
aS'196'
p3229
aasS'3H6D'
p3230
(lp3231
(lp3232
I664
aS'15'
p3233
aS'140'
p3234
aasS'4KXC'
p3235
(lp3236
(lp3237
I662
aS'616'
p3238
aS'932'
p3239
aa(lp3240
I4916
aS'92'
p3241
aS'482'
p3242
aasS'4KXB'
p3243
(lp3244
(lp3245
I662
aS'616'
p3246
aS'932'
p3247
aa(lp3248
I4916
aS'92'
p3249
aS'482'
p3250
aasS'4KXA'
p3251
(lp3252
(lp3253
I662
aS'616'
p3254
aS'932'
p3255
aa(lp3256
I4916
aS'92'
p3257
aS'482'
p3258
aasS'3H6X'
p3259
(lp3260
(lp3261
I664
aS'19'
p3262
aS'132'
p3263
aasS'4MXR'
p3264
(lp3265
(lp3266
I6392
aS'22'
p3267
aS'295'
p3268
aasS'1VEC'
p3269
(lp3270
(lp3271
I1722
aS'110'
p3272
aS'275'
p3273
aasS'1WRB'
p3274
(lp3275
(lp3276
I1722
aS'208'
p3277
aS'387'
p3278
aasS'3LMO'
p3279
(lp3280
(lp3281
I361
aS'6'
aS'58'
p3282
aasS'1T5F'
p3283
(lp3284
(lp3285
I6392
aS'8'
aS'302'
p3286
aasS'3PUU'
p3287
(lp3288
(lp3289
I3130
aS'459'
p3290
aS'827'
p3291
aa(lp3292
I4916
aS'49'
p3293
aS'384'
p3294
aasS'4QPE'
p3295
(lp3296
(lp3297
I3130
aS'454'
p3298
aS'824'
p3299
aa(lp3300
I4916
aS'102'
p3301
aS'380'
p3302
aasS'4Q3P'
p3303
(lp3304
(lp3305
I6392
aS'26'
p3306
aS'331'
p3307
aasS'4Q3Q'
p3308
(lp3309
(lp3310
I6392
aS'26'
p3311
aS'331'
p3312
aasS'4Q3R'
p3313
(lp3314
(lp3315
I6392
aS'26'
p3316
aS'331'
p3317
aa(lp3318
I6392
aS'26'
p3319
aS'331'
p3320
aasS'4Q3S'
p3321
(lp3322
(lp3323
I6392
aS'26'
p3324
aS'331'
p3325
aasS'4Q3T'
p3326
(lp3327
(lp3328
I6392
aS'26'
p3329
aS'331'
p3330
aasS'4Q3U'
p3331
(lp3332
(lp3333
I6392
aS'26'
p3334
aS'331'
p3335
aasS'4Q3V'
p3336
(lp3337
(lp3338
I6392
aS'26'
p3339
aS'331'
p3340
aasS'2ZAV'
p3341
(lp3342
(lp3343
I6392
aS'7'
aS'300'
p3344
aasS'1HQ5'
p3345
(lp3346
(lp3347
I6392
aS'8'
aS'302'
p3348
aasS'1Q0U'
p3349
(lp3350
(lp3351
I1722
aS'28'
p3352
aS'196'
p3353
aasS'3B2X'
p3354
(lp3355
(lp3356
I3130
aS'459'
p3357
aS'827'
p3358
aa(lp3359
I4916
aS'49'
p3360
aS'384'
p3361
aasS'3B2P'
p3362
(lp3363
(lp3364
I3130
aS'459'
p3365
aS'827'
p3366
aa(lp3367
I4916
aS'49'
p3368
aS'384'
p3369
aasS'4TVP'
p3370
(lp3371
(lp3372
I1068
aS'34'
p3373
aS'140'
p3374
aa(lp3375
I1068
aS'152'
p3376
aS'505'
p3377
aa(lp3378
I1690
aS'121'
p3379
aS'202'
p3380
aa(lp3381
I1690
aS'124'
p3382
aS'204'
p3383
aa(lp3384
I1690
aS'126'
p3385
aS'206'
p3386
aa(lp3387
I1690
aS'120'
p3388
aS'201'
p3389
aa(lp3390
I2388
aS'8'
aS'107'
p3391
aa(lp3392
I2388
aS'8'
aS'109'
p3393
aa(lp3394
I2388
aS'9'
aS'111'
p3395
aa(lp3396
I2388
aS'6'
aS'106A'
p3397
aa(lp3398
I3336
aS'530'
p3399
aS'664'
p3400
aasS'1MNG'
p3401
(lp3402
(lp3403
I4448
aS'4'
aS'90'
p3404
aa(lp3405
I4454
aS'98'
p3406
aS'198'
p3407
aasS'1AP6'
p3408
(lp3409
(lp3410
I4448
aS'1'
aS'82'
p3411
aa(lp3412
I4454
aS'89'
p3413
aS'192'
p3414
aasS'3EBG'
p3415
(lp3416
(lp3417
I3130
aS'664'
p3418
aS'1040'
p3419
aa(lp3420
I4916
aS'215'
p3421
aS'583'
p3422
aasS'1AP5'
p3423
(lp3424
(lp3425
I4448
aS'1'
aS'82'
p3426
aa(lp3427
I4454
aS'89'
p3428
aS'192'
p3429
aasS'4IU0'
p3430
(lp3431
(lp3432
I6392
aS'14'
p3433
aS'315'
p3434
aasS'4IU1'
p3435
(lp3436
(lp3437
I6392
aS'14'
p3438
aS'315'
p3439
aasS'4IU4'
p3440
(lp3441
(lp3442
I6392
aS'14'
p3443
aS'315'
p3444
aasS'3EBI'
p3445
(lp3446
(lp3447
I3130
aS'664'
p3448
aS'1040'
p3449
aa(lp3450
I4916
aS'215'
p3451
aS'583'
p3452
aasS'2XAU'
p3453
(lp3454
(lp3455
I1722
aS'102'
p3456
aS'254'
p3457
aa(lp3458
I1722
aS'102'
p3459
aS'254'
p3460
aa(lp3461
I3332
aS'622'
p3462
aS'725'
p3463
aa(lp3464
I3332
aS'622'
p3465
aS'725'
p3466
aa(lp3467
I3642
aS'297'
p3468
aS'431'
p3469
aa(lp3470
I3642
aS'297'
p3471
aS'431'
p3472
aa(lp3473
I4473
aS'494'
p3474
aS'582'
p3475
aa(lp3476
I4473
aS'494'
p3477
aS'582'
p3478
aasS'1QNM'
p3479
(lp3480
(lp3481
I4448
aS'1'
aS'82'
p3482
aa(lp3483
I4454
aS'89'
p3484
aS'192'
p3485
aasS'1QNN'
p3486
(lp3487
(lp3488
I4448
aS'2'
aS'81'
p3489
aa(lp3490
I4454
aS'89'
p3491
aS'190'
p3492
aasS'3TRN'
p3493
(lp3494
(lp3495
I664
aS'30'
p3496
aS'137'
p3497
aasS'4BGD'
p3498
(lp3499
(lp3500
I1722
aS'501'
p3501
aS'677'
p3502
aa(lp3503
I1722
aS'1350'
p3504
aS'1515'
p3505
aa(lp3506
I3642
aS'728'
p3507
aS'878'
p3508
aa(lp3509
I4505
aS'999'
p3510
aS'1306'
p3511
aa(lp3512
I4505
aS'1849'
p3513
aS'2158'
p3514
aa(lp3515
I5110
aS'2289'
p3516
aS'2395'
p3517
aasS'1HS6'
p3518
(lp3519
(lp3520
I4916
aS'18'
p3521
aS'386'
p3522
aa(lp3523
I5288
aS'464'
p3524
aS'607'
p3525
aasS'4K0A'
p3526
(lp3527
(lp3528
I1068
aS'44'
p3529
aS'123'
p3530
aa(lp3531
I1068
aS'198'
p3532
aS'492'
p3533
aasS'2XX6'
p3534
(lp3535
(lp3536
I664
aS'25'
p3537
aS'128'
p3538
aasS'1SNF'
p3539
(lp3540
(lp3541
I664
aS'15'
p3542
aS'132'
p3543
aasS'2KOS'
p3544
(lp3545
(lp3546
I361
aS'11'
p3547
aS'76'
p3548
aasS'4F5C'
p3549
(lp3550
(lp3551
I662
aS'616'
p3552
aS'940'
p3553
aa(lp3554
I4916
aS'71'
p3555
aS'475'
p3556
aa(lp3557
I7321
aS'283'
p3558
aS'430'
p3559
aasS'1P7G'
p3560
(lp3561
(lp3562
I4448
aS'17'
p3563
aS'98'
p3564
aa(lp3565
I4454
aS'107'
p3566
aS'209'
p3567
aasS'3FMO'
p3568
(lp3569
(lp3570
I1722
aS'117'
p3571
aS'281'
p3572
aasS'2J0U'
p3573
(lp3574
(lp3575
I1722
aS'63'
p3576
aS'225'
p3577
aa(lp3578
I1722
aS'63'
p3579
aS'225'
p3580
aa(lp3581
I2527
aS'217'
p3582
aS'225'
p3583
aa(lp3584
I3642
aS'263'
p3585
aS'372'
p3586
aa(lp3587
I3642
aS'263'
p3588
aS'372'
p3589
aasS'3EIQ'
p3590
(lp3591
(lp3592
I1722
aS'57'
p3593
aS'221'
p3594
aa(lp3595
I3642
aS'258'
p3596
aS'362'
p3597
aa(lp3598
I3738
aS'165'
p3599
aS'274'
p3600
aa(lp3601
I3738
aS'329'
p3602
aS'439'
p3603
aasS'3MMR'
p3604
(lp3605
(lp3606
I6392
aS'169'
p3607
aS'377'
p3608
aasS'1PKJ'
p3609
(lp3610
(lp3611
I664
aS'95'
p3612
aS'172'
p3613
aasS'1PKK'
p3614
(lp3615
(lp3616
I664
aS'95'
p3617
aS'172'
p3618
aasS'1PKH'
p3619
(lp3620
(lp3621
I664
aS'95'
p3622
aS'172'
p3623
aasS'2V1X'
p3624
(lp3625
(lp3626
I370
aS'485'
p3627
aS'592'
p3628
aa(lp3629
I1722
aS'94'
p3630
aS'260'
p3631
aa(lp3632
I3642
aS'303'
p3633
aS'407'
p3634
aa(lp3635
I4078
aS'421'
p3636
aS'479'
p3637
aasS'3GMZ'
p3638
(lp3639
(lp3640
I6392
aS'7'
aS'300'
p3641
aasS'2BSY'
p3642
(lp3643
(lp3644
I664
aS'121'
p3645
aS'227'
p3646
aasS'4CT5'
p3647
(lp3648
(lp3649
I1722
aS'121'
p3650
aS'286'
p3651
aa(lp3652
I3642
aS'322'
p3653
aS'429'
p3654
aasS'3DJ8'
p3655
(lp3656
(lp3657
I6392
aS'7'
aS'300'
p3658
aasS'4NL8'
p3659
(lp3660
(lp3661
I1722
aS'218'
p3662
aS'363'
p3663
aa(lp3664
I1722
aS'218'
p3665
aS'363'
p3666
aa(lp3667
I3642
aS'491'
p3668
aS'583'
p3669
aa(lp3670
I3642
aS'491'
p3671
aS'583'
p3672
aasS'2A03'
p3673
(lp3674
(lp3675
I4448
aS'4'
aS'81'
p3676
aa(lp3677
I4454
aS'89'
p3678
aS'191'
p3679
aasS'3F4F'
p3680
(lp3681
(lp3682
I664
aS'18'
p3683
aS'143'
p3684
aasS'3ZEZ'
p3685
(lp3686
(lp3687
I664
aS'13'
p3688
aS'98'
p3689
aa(lp3690
I664
aS'128'
p3691
aS'169'
p3692
aasS'2KR5'
p3693
(lp3694
(lp3695
I361
aS'15'
p3696
aS'81'
p3697
aasS'4C7U'
p3698
(lp3699
(lp3700
I4448
aS'1'
aS'82'
p3701
aa(lp3702
I4454
aS'92'
p3703
aS'195'
p3704
aasS'3RLA'
p3705
(lp3706
(lp3707
I6392
aS'8'
aS'302'
p3708
aasS'1Q5U'
p3709
(lp3710
(lp3711
I664
aS'11'
p3712
aS'128'
p3713
aasS'4BRU'
p3714
(lp3715
(lp3716
I1722
aS'71'
p3717
aS'234'
p3718
aa(lp3719
I3642
aS'270'
p3720
aS'378'
p3721
aasS'4KBF'
p3722
(lp3723
(lp3724
I1722
aS'25'
p3725
aS'191'
p3726
aa(lp3727
I3642
aS'227'
p3728
aS'333'
p3729
aasS'2EF5'
p3730
(lp3731
(lp3732
I6392
aS'3'
aS'286'
p3733
aasS'2EF4'
p3734
(lp3735
(lp3736
I6392
aS'3'
aS'286'
p3737
aasS'4KXD'
p3738
(lp3739
(lp3740
I662
aS'616'
p3741
aS'932'
p3742
aa(lp3743
I4916
aS'92'
p3744
aS'482'
p3745
aasS'2JGP'
p3746
(lp3747
(lp3748
I361
aS'16'
p3749
aS'79'
p3750
aa(lp3751
I3214
aS'406'
p3752
aS'497'
p3753
aa(lp3754
I5895
aS'96'
p3755
aS'383'
p3756
aasS'3CIA'
p3757
(lp3758
(lp3759
I4916
aS'48'
p3760
aS'413'
p3761
aa(lp3762
I5288
aS'507'
p3763
aS'625'
p3764
aasS'3H1S'
p3765
(lp3766
(lp3767
I4448
aS'2'
aS'81'
p3768
aa(lp3769
I4454
aS'89'
p3770
aS'188'
p3771
aasS'3I5Y'
p3772
(lp3773
(lp3774
I1722
aS'130'
p3775
aS'315'
p3776
aa(lp3777
I3642
aS'360'
p3778
aS'471'
p3779
aasS'1SEH'
p3780
(lp3781
(lp3782
I664
aS'17'
p3783
aS'141'
p3784
aasS'1Q5H'
p3785
(lp3786
(lp3787
I664
aS'11'
p3788
aS'127'
p3789
aasS'4JBS'
p3790
(lp3791
(lp3792
I662
aS'620'
p3793
aS'937'
p3794
aa(lp3795
I4916
aS'68'
p3796
aS'458'
p3797
aasS'2ZXG'
p3798
(lp3799
(lp3800
I3130
aS'459'
p3801
aS'827'
p3802
aa(lp3803
I4916
aS'48'
p3804
aS'384'
p3805
aasS'1DUT'
p3806
(lp3807
(lp3808
I664
aS'8'
aS'117'
p3809
aasS'1DUP'
p3810
(lp3811
(lp3812
I664
aS'17'
p3813
aS'136'
p3814
aasS'3QJX'
p3815
(lp3816
(lp3817
I3130
aS'459'
p3818
aS'827'
p3819
aa(lp3820
I4916
aS'49'
p3821
aS'384'
p3822
aasS'2NXZ'
p3823
(lp3824
(lp3825
I1068
aS'83'
p3826
aS'128'
p3827
aa(lp3828
I1068
aS'195'
p3829
aS'298'
p3830
aa(lp3831
I1068
aS'329'
p3832
aS'491'
p3833
aa(lp3834
I1690
aS'2122'
p3835
aS'2207'
p3836
aa(lp3837
I1690
aS'3141'
p3838
aS'3221'
p3839
aa(lp3840
I2388
aS'2006'
p3841
aS'2108'
p3842
aa(lp3843
I2388
aS'3011'
p3844
aS'3107'
p3845
aa(lp3846
I4082
aS'1001'
p3847
aS'1097'
p3848
aa(lp3849
I6254
aS'1101'
p3850
aS'1177'
p3851
aasS'3TGT'
p3852
(lp3853
(lp3854
I1068
aS'44'
p3855
aS'123'
p3856
aa(lp3857
I1068
aS'198'
p3858
aS'492'
p3859
aasS'1EU5'
p3860
(lp3861
(lp3862
I664
aS'17'
p3863
aS'136'
p3864
aasS'3TGQ'
p3865
(lp3866
(lp3867
I1068
aS'45'
p3868
aS'123'
p3869
aa(lp3870
I1068
aS'198'
p3871
aS'492'
p3872
aasS'3TGR'
p3873
(lp3874
(lp3875
I1068
aS'44'
p3876
aS'123'
p3877
aa(lp3878
I1068
aS'199'
p3879
aS'492'
p3880
aasS'3TGS'
p3881
(lp3882
(lp3883
I1068
aS'44'
p3884
aS'123'
p3885
aa(lp3886
I1068
aS'199'
p3887
aS'492'
p3888
aa(lp3889
I1068
aS'44'
p3890
aS'123'
p3891
aa(lp3892
I1068
aS'199'
p3893
aS'492'
p3894
aasS'1DUN'
p3895
(lp3896
(lp3897
I664
aS'8'
aS'120'
p3898
aasS'3FTZ'
p3899
(lp3900
(lp3901
I4916
aS'18'
p3902
aS'386'
p3903
aa(lp3904
I5288
aS'464'
p3905
aS'607'
p3906
aasS'3TIH'
p3907
(lp3908
(lp3909
I1068
aS'44'
p3910
aS'123'
p3911
aa(lp3912
I1068
aS'199'
p3913
aS'492'
p3914
aasS'1MEQ'
p3915
(lp3916
(lp3917
I1068
aS'1'
aS'23'
p3918
aasS'3FTV'
p3919
(lp3920
(lp3921
I4916
aS'18'
p3922
aS'386'
p3923
aa(lp3924
I5288
aS'464'
p3925
aS'607'
p3926
aasS'3FTU'
p3927
(lp3928
(lp3929
I4916
aS'18'
p3930
aS'386'
p3931
aa(lp3932
I5288
aS'464'
p3933
aS'607'
p3934
aasS'3FTS'
p3935
(lp3936
(lp3937
I4916
aS'18'
p3938
aS'386'
p3939
aa(lp3940
I5288
aS'464'
p3941
aS'607'
p3942
aasS'3P4Y'
p3943
(lp3944
(lp3945
I1722
aS'82'
p3946
aS'228'
p3947
aa(lp3948
I3642
aS'299'
p3949
aS'475'
p3950
aasS'3P4X'
p3951
(lp3952
(lp3953
I1722
aS'82'
p3954
aS'228'
p3955
aa(lp3956
I3642
aS'299'
p3957
aS'475'
p3958
aasS'4ZMJ'
p3959
(lp3960
(lp3961
I1068
aS'34'
p3962
aS'140'
p3963
aa(lp3964
I1068
aS'152'
p3965
aS'505'
p3966
aa(lp3967
I3336
aS'530'
p3968
aS'664'
p3969
aasS'1UNF'
p3970
(lp3971
(lp3972
I4448
aS'18'
p3973
aS'103'
p3974
aa(lp3975
I4454
aS'110'
p3976
aS'229'
p3977
aasS'1D5N'
p3978
(lp3979
(lp3980
I4448
aS'1'
aS'88'
p3981
aa(lp3982
I4454
aS'95'
p3983
aS'200'
p3984
aasS'1GN2'
p3985
(lp3986
(lp3987
I4448
aS'3'
aS'84'
p3988
aa(lp3989
I4454
aS'91'
p3990
aS'193'
p3991
aasS'1GN3'
p3992
(lp3993
(lp3994
I4448
aS'3'
aS'84'
p3995
aa(lp3996
I4454
aS'91'
p3997
aS'193'
p3998
aasS'1JA8'
p3999
(lp4000
(lp4001
I4448
aS'1'
aS'82'
p4002
aa(lp4003
I4454
aS'89'
p4004
aS'192'
p4005
aasS'1GN6'
p4006
(lp4007
(lp4008
I4448
aS'3'
aS'84'
p4009
aa(lp4010
I4454
aS'91'
p4011
aS'193'
p4012
aasS'4RX4'
p4013
(lp4014
(lp4015
I1068
aS'44'
p4016
aS'123'
p4017
aa(lp4018
I1068
aS'205'
p4019
aS'492'
p4020
aa(lp4021
I1690
aS'126'
p4022
aS'206'
p4023
aa(lp4024
I1690
aS'120'
p4025
aS'205'
p4026
aa(lp4027
I2388
aS'12'
p4028
aS'94'
p4029
aa(lp4030
I2388
aS'6'
aS'104'
p4031
aasS'1GN4'
p4032
(lp4033
(lp4034
I4448
aS'3'
aS'84'
p4035
aa(lp4036
I4454
aS'91'
p4037
aS'193'
p4038
aasS'5ACO'
p4039
(lp4040
(lp4041
I1068
aS'36'
p4042
aS'142'
p4043
aa(lp4044
I1068
aS'147'
p4045
aS'1306'
p4046
aa(lp4047
I3336
aS'536'
p4048
aS'667'
p4049
aasS'4GV8'
p4050
(lp4051
(lp4052
I664
aS'13'
p4053
aS'95'
p4054
aa(lp4055
I664
aS'101'
p4056
aS'155'
p4057
aasS'4BR6'
p4058
(lp4059
(lp4060
I4448
aS'3'
aS'82'
p4061
aa(lp4062
I4454
aS'92'
p4063
aS'193'
p4064
aasS'3TH7'
p4065
(lp4066
(lp4067
I6392
aS'7'
aS'300'
p4068
aasS'2DNW'
p4069
(lp4070
(lp4071
I361
aS'28'
p4072
aS'85'
p4073
aasS'1VAR'
p4074
(lp4075
(lp4076
I4448
aS'1'
aS'82'
p4077
aa(lp4078
I4454
aS'89'
p4079
aS'192'
p4080
aasS'4JB9'
p4081
(lp4082
(lp4083
I1068
aS'44'
p4084
aS'123'
p4085
aa(lp4086
I1068
aS'198'
p4087
aS'492'
p4088
aa(lp4089
I1690
aS'126'
p4090
aS'206'
p4091
aa(lp4092
I1690
aS'115'
p4093
aS'200'
p4094
aa(lp4095
I2388
aS'7'
aS'97'
p4096
aa(lp4097
I2388
aS'6'
aS'100'
p4098
aasS'3LP7'
p4099
(lp4100
(lp4101
I6392
aS'7'
aS'300'
p4102
aasS'2NY7'
p4103
(lp4104
(lp4105
I1068
aS'83'
p4106
aS'120'
p4107
aa(lp4108
I1068
aS'204'
p4109
aS'298'
p4110
aa(lp4111
I1068
aS'329'
p4112
aS'492'
p4113
aa(lp4114
I1690
aS'126'
p4115
aS'218'
p4116
aa(lp4117
I1690
aS'120'
p4118
aS'205'
p4119
aa(lp4120
I2388
aS'9'
aS'111'
p4121
aa(lp4122
I2388
aS'6'
aS'105'
p4123
aasS'2L22'
p4124
(lp4125
(lp4126
I361
aS'9'
aS'74'
p4127
aa(lp4128
I361
aS'112'
p4129
aS'177'
p4130
aasS'1SYL'
p4131
(lp4132
(lp4133
I664
aS'17'
p4134
aS'137'
p4135
aasS'1IXB'
p4136
(lp4137
(lp4138
I4448
aS'1'
aS'88'
p4139
aa(lp4140
I4454
aS'95'
p4141
aS'200'
p4142
aasS'4R5X'
p4143
(lp4144
(lp4145
I3130
aS'664'
p4146
aS'1040'
p4147
aa(lp4148
I4916
aS'215'
p4149
aS'583'
p4150
aasS'3GN0'
p4151
(lp4152
(lp4153
I6392
aS'7'
aS'300'
p4154
aasS'3PEW'
p4155
(lp4156
(lp4157
I1722
aS'117'
p4158
aS'278'
p4159
aa(lp4160
I3642
aS'319'
p4161
aS'431'
p4162
aasS'2KG8'
p4163
(lp4164
(lp4165
I361
aS'13'
p4166
aS'78'
p4167
aasS'2KG9'
p4168
(lp4169
(lp4170
I361
aS'13'
p4171
aS'78'
p4172
aasS'1XTK'
p4173
(lp4174
(lp4175
I1722
aS'70'
p4176
aS'235'
p4177
aa(lp4178
I3642
aS'275'
p4179
aS'382'
p4180
aasS'1XTJ'
p4181
(lp4182
(lp4183
I1722
aS'70'
p4184
aS'235'
p4185
aa(lp4186
I3642
aS'275'
p4187
aS'382'
p4188
aasS'1XTI'
p4189
(lp4190
(lp4191
I1722
aS'70'
p4192
aS'235'
p4193
aa(lp4194
I3642
aS'275'
p4195
aS'382'
p4196
aasS'4S1S'
p4197
(lp4198
(lp4199
I1068
aS'44'
p4200
aS'123'
p4201
aa(lp4202
I1068
aS'198'
p4203
aS'492'
p4204
aa(lp4205
I1690
aS'126'
p4206
aS'206'
p4207
aa(lp4208
I1690
aS'122'
p4209
aS'207'
p4210
aa(lp4211
I2388
aS'13'
p4212
aS'97'
p4213
aa(lp4214
I2388
aS'6'
aS'106'
p4215
aasS'4ZQT'
p4216
(lp4217
(lp4218
I3130
aS'664'
p4219
aS'1040'
p4220
aa(lp4221
I4916
aS'215'
p4222
aS'583'
p4223
aasS'4IU5'
p4224
(lp4225
(lp4226
I6392
aS'14'
p4227
aS'315'
p4228
aasS'3TRL'
p4229
(lp4230
(lp4231
I664
aS'30'
p4232
aS'136'
p4233
aasS'3C2T'
p4234
(lp4235
(lp4236
I664
aS'13'
p4237
aS'125'
p4238
aasS'4JPW'
p4239
(lp4240
(lp4241
I1068
aS'44'
p4242
aS'123'
p4243
aa(lp4244
I1068
aS'198'
p4245
aS'492'
p4246
aa(lp4247
I1690
aS'126'
p4248
aS'206'
p4249
aa(lp4250
I1690
aS'120'
p4251
aS'205'
p4252
aa(lp4253
I2388
aS'7'
aS'98'
p4254
aa(lp4255
I2388
aS'6'
aS'98'
p4256
aasS'4IXV'
p4257
(lp4258
(lp4259
I6392
aS'25'
p4260
aS'321'
p4261
aasS'2BAZ'
p4262
(lp4263
(lp4264
I664
aS'25'
p4265
aS'128'
p4266
aasS'2NY0'
p4267
(lp4268
(lp4269
I1068
aS'83'
p4270
aS'128'
p4271
aa(lp4272
I1068
aS'195'
p4273
aS'298'
p4274
aa(lp4275
I1068
aS'329'
p4276
aS'491'
p4277
aa(lp4278
I1690
aS'2122'
p4279
aS'2207'
p4280
aa(lp4281
I1690
aS'3141'
p4282
aS'3221'
p4283
aa(lp4284
I2388
aS'2006'
p4285
aS'2108'
p4286
aa(lp4287
I2388
aS'3011'
p4288
aS'3107'
p4289
aa(lp4290
I4082
aS'1001'
p4291
aS'1097'
p4292
aa(lp4293
I6254
aS'1101'
p4294
aS'1177'
p4295
aasS'3NIO'
p4296
(lp4297
(lp4298
I6392
aS'39'
p4299
aS'310'
p4300
aasS'3NIP'
p4301
(lp4302
(lp4303
I6392
aS'36'
p4304
aS'307'
p4305
aasS'3NIQ'
p4306
(lp4307
(lp4308
I6392
aS'36'
p4309
aS'307'
p4310
aasS'1GW6'
p4311
(lp4312
(lp4313
I4916
aS'18'
p4314
aS'386'
p4315
aa(lp4316
I5288
aS'464'
p4317
aS'607'
p4318
aasS'4DDT'
p4319
(lp4320
(lp4321
I1722
aS'82'
p4322
aS'227'
p4323
aa(lp4324
I2156
aS'715'
p4325
aS'1090'
p4326
aa(lp4327
I4549
aS'544'
p4328
aS'699'
p4329
aasS'4DDU'
p4330
(lp4331
(lp4332
I1722
aS'82'
p4333
aS'227'
p4334
aa(lp4335
I2156
aS'715'
p4336
aS'1090'
p4337
aa(lp4338
I4549
aS'544'
p4339
aS'699'
p4340
aasS'4DDV'
p4341
(lp4342
(lp4343
I1722
aS'82'
p4344
aS'227'
p4345
aa(lp4346
I2156
aS'715'
p4347
aS'1090'
p4348
aa(lp4349
I4549
aS'544'
p4350
aS'699'
p4351
aasS'4DDW'
p4352
(lp4353
(lp4354
I1722
aS'82'
p4355
aS'227'
p4356
aa(lp4357
I2156
aS'715'
p4358
aS'1090'
p4359
aa(lp4360
I4549
aS'544'
p4361
aS'699'
p4362
aasS'4JPJ'
p4363
(lp4364
(lp4365
I1068
aS'14'
p4366
aS'52'
p4367
aa(lp4368
I1068
aS'55'
p4369
aS'101'
p4370
aa(lp4371
I1068
aS'103'
p4372
aS'170'
p4373
aasS'4JPK'
p4374
(lp4375
(lp4376
I1068
aS'14'
p4377
aS'53'
p4378
aa(lp4379
I1068
aS'55'
p4380
aS'100'
p4381
aa(lp4382
I1068
aS'103'
p4383
aS'168'
p4384
aa(lp4385
I1690
aS'126'
p4386
aS'206'
p4387
aa(lp4388
I1690
aS'122'
p4389
aS'207'
p4390
aa(lp4391
I2388
aS'9'
aS'111'
p4392
aa(lp4393
I2388
aS'6'
aS'108'
p4394
aasS'2K2Q'
p4395
(lp4396
(lp4397
I361
aS'18'
p4398
aS'81'
p4399
aa(lp4400
I5566
aS'15'
p4401
aS'233'
p4402
aasS'2EHT'
p4403
(lp4404
(lp4405
I361
aS'4'
aS'71'
p4406
aasS'2EHS'
p4407
(lp4408
(lp4409
I361
aS'4'
aS'71'
p4410
aasS'1ISC'
p4411
(lp4412
(lp4413
I4448
aS'1'
aS'81'
p4414
aa(lp4415
I4454
aS'88'
p4416
aS'189'
p4417
aasS'1ISB'
p4418
(lp4419
(lp4420
I4448
aS'1'
aS'81'
p4421
aa(lp4422
I4454
aS'88'
p4423
aS'189'
p4424
aasS'1ISA'
p4425
(lp4426
(lp4427
I4448
aS'1'
aS'81'
p4428
aa(lp4429
I4454
aS'88'
p4430
aS'189'
p4431
aasS'3T8V'
p4432
(lp4433
(lp4434
I3130
aS'664'
p4435
aS'1040'
p4436
aa(lp4437
I4916
aS'215'
p4438
aS'583'
p4439
aasS'3J70'
p4440
(lp4441
(lp4442
I1068
aS'34'
p4443
aS'499'
p4444
aa(lp4445
I4082
aS'3'
aS'97'
p4446
aa(lp4447
I6254
aS'101'
p4448
aS'177'
p4449
aasS'1S2M'
p4450
(lp4451
(lp4452
I1722
aS'71'
p4453
aS'235'
p4454
aa(lp4455
I3642
aS'270'
p4456
aS'378'
p4457
aasS'1B06'
p4458
(lp4459
(lp4460
I4448
aS'8'
aS'92'
p4461
aa(lp4462
I4454
aS'101'
p4463
aS'203'
p4464
aasS'2HRM'
p4465
(lp4466
(lp4467
I664
aS'17'
p4468
aS'137'
p4469
aasS'4FCK'
p4470
(lp4471
(lp4472
I6392
aS'7'
aS'300'
p4473
aasS'4OM1'
p4474
(lp4475
(lp4476
I1068
aS'44'
p4477
aS'123'
p4478
aa(lp4479
I1068
aS'198'
p4480
aS'492'
p4481
aa(lp4482
I1690
aS'126'
p4483
aS'206'
p4484
aa(lp4485
I1690
aS'122'
p4486
aS'207'
p4487
aa(lp4488
I2388
aS'11'
p4489
aS'110'
p4490
aa(lp4491
I2388
aS'6'
aS'106'
p4492
aasS'4FCI'
p4493
(lp4494
(lp4495
I6392
aS'7'
aS'300'
p4496
aasS'2KGD'
p4497
(lp4498
(lp4499
I361
aS'13'
p4500
aS'78'
p4501
aasS'2KGE'
p4502
(lp4503
(lp4504
I361
aS'13'
p4505
aS'78'
p4506
aasS'2GDS'
p4507
(lp4508
(lp4509
I4448
aS'1'
aS'82'
p4510
aa(lp4511
I4454
aS'89'
p4512
aS'192'
p4513
aasS'4LJY'
p4514
(lp4515
(lp4516
I1722
aS'280'
p4517
aS'453'
p4518
aa(lp4519
I3642
aS'525'
p4520
aS'619'
p4521
aasS'2KGA'
p4522
(lp4523
(lp4524
I361
aS'13'
p4525
aS'78'
p4526
aasS'2GDW'
p4527
(lp4528
(lp4529
I361
aS'18'
p4530
aS'81'
p4531
aasS'2KGC'
p4532
(lp4533
(lp4534
I361
aS'13'
p4535
aS'78'
p4536
aasS'2GDY'
p4537
(lp4538
(lp4539
I361
aS'18'
p4540
aS'81'
p4541
aasS'2GDX'
p4542
(lp4543
(lp4544
I361
aS'18'
p4545
aS'81'
p4546
aasS'1MY6'
p4547
(lp4548
(lp4549
I4448
aS'5'
aS'87'
p4550
aa(lp4551
I4454
aS'94'
p4552
aS'195'
p4553
aasS'1IX9'
p4554
(lp4555
(lp4556
I4448
aS'1'
aS'88'
p4557
aa(lp4558
I4454
aS'95'
p4559
aS'200'
p4560
aasS'2HXB'
p4561
(lp4562
(lp4563
I664
aS'95'
p4564
aS'172'
p4565
aasS'3Q7J'
p4566
(lp4567
(lp4568
I662
aS'473'
p4569
aS'718'
p4570
aa(lp4571
I4916
aS'3'
aS'354'
p4572
aasS'2HXD'
p4573
(lp4574
(lp4575
I664
aS'95'
p4576
aS'172'
p4577
aasS'4XMP'
p4578
(lp4579
(lp4580
I1068
aS'45'
p4581
aS'123'
p4582
aa(lp4583
I1068
aS'199'
p4584
aS'492'
p4585
aa(lp4586
I1690
aS'126'
p4587
aS'206'
p4588
aa(lp4589
I1690
aS'120'
p4590
aS'205'
p4591
aa(lp4592
I2388
aS'7'
aS'94'
p4593
aa(lp4594
I2388
aS'6'
aS'106'
p4595
aasS'1GL9'
p4596
(lp4597
(lp4598
I1722
aS'59'
p4599
aS'228'
p4600
aa(lp4601
I2156
aS'676'
p4602
aS'732'
p4603
aa(lp4604
I2156
aS'732'
p4605
aS'1042'
p4606
aa(lp4607
I4549
aS'508'
p4608
aS'661'
p4609
aasS'2PNG'
p4610
(lp4611
(lp4612
I361
aS'8'
aS'68'
p4613
aasS'2HXY'
p4614
(lp4615
(lp4616
I1722
aS'63'
p4617
aS'225'
p4618
aa(lp4619
I3642
aS'263'
p4620
aS'372'
p4621
aasS'2QLP'
p4622
(lp4623
(lp4624
I664
aS'70'
p4625
aS'156'
p4626
aasS'4A6A'
p4627
(lp4628
(lp4629
I664
aS'70'
p4630
aS'177'
p4631
aasS'2ZDC'
p4632
(lp4633
(lp4634
I664
aS'64'
p4635
aS'152'
p4636
aasS'4QIR'
p4637
(lp4638
(lp4639
I3130
aS'454'
p4640
aS'824'
p4641
aa(lp4642
I4916
aS'102'
p4643
aS'380'
p4644
aasS'4X2U'
p4645
(lp4646
(lp4647
I3130
aS'664'
p4648
aS'1040'
p4649
aa(lp4650
I4916
aS'215'
p4651
aS'583'
p4652
aasS'3CEI'
p4653
(lp4654
(lp4655
I4448
aS'2'
aS'81'
p4656
aa(lp4657
I4454
aS'89'
p4658
aS'188'
p4659
aasS'3IUY'
p4660
(lp4661
(lp4662
I1722
aS'255'
p4663
aS'425'
p4664
aasS'3CEV'
p4665
(lp4666
(lp4667
I6392
aS'3'
aS'294'
p4668
aasS'1T4S'
p4669
(lp4670
(lp4671
I6392
aS'8'
aS'302'
p4672
aasS'1T4R'
p4673
(lp4674
(lp4675
I6392
aS'8'
aS'302'
p4676
aasS'2ZJ8'
p4677
(lp4678
(lp4679
I1667
aS'648'
p4680
aS'700'
p4681
aa(lp4682
I1722
aS'26'
p4683
aS'180'
p4684
aa(lp4685
I3642
aS'230'
p4686
aS'372'
p4687
aasS'1T4P'
p4688
(lp4689
(lp4690
I6392
aS'8'
aS'302'
p4691
aasS'3E6V'
p4692
(lp4693
(lp4694
I6392
aS'7'
aS'300'
p4695
aa(lp4696
I6392
aS'7'
aS'300'
p4697
aasS'2ZJ5'
p4698
(lp4699
(lp4700
I1667
aS'648'
p4701
aS'699'
p4702
aa(lp4703
I1722
aS'26'
p4704
aS'180'
p4705
aa(lp4706
I3642
aS'230'
p4707
aS'372'
p4708
aasS'2ZJ2'
p4709
(lp4710
(lp4711
I1667
aS'648'
p4712
aS'664'
p4713
aa(lp4714
I1722
aS'26'
p4715
aS'180'
p4716
aa(lp4717
I3642
aS'230'
p4718
aS'372'
p4719
aasS'2BT1'
p4720
(lp4721
(lp4722
I664
aS'120'
p4723
aS'227'
p4724
aasS'2FAC'
p4725
(lp4726
(lp4727
I361
aS'5'
aS'72'
p4728
aasS'2ZJA'
p4729
(lp4730
(lp4731
I1667
aS'648'
p4732
aS'700'
p4733
aa(lp4734
I1722
aS'26'
p4735
aS'180'
p4736
aa(lp4737
I3642
aS'230'
p4738
aS'372'
p4739
aasS'2PY4'
p4740
(lp4741
(lp4742
I664
aS'15'
p4743
aS'149'
p4744
aasS'4YFL'
p4745
(lp4746
(lp4747
I1068
aS'44'
p4748
aS'123'
p4749
aa(lp4750
I1068
aS'198'
p4751
aS'492'
p4752
aa(lp4753
I1690
aS'126'
p4754
aS'206'
p4755
aa(lp4756
I1690
aS'120'
p4757
aS'201'
p4758
aa(lp4759
I2388
aS'6'
aS'97'
p4760
aa(lp4761
I2388
aS'6'
aS'105'
p4762
aasS'4O3M'
p4763
(lp4764
(lp4765
I370
aS'1072'
p4766
aS'1194'
p4767
aa(lp4768
I1722
aS'671'
p4769
aS'838'
p4770
aa(lp4771
I3642
aS'882'
p4772
aS'984'
p4773
aa(lp4774
I4078
aS'995'
p4775
aS'1067'
p4776
aa(lp4777
I7192
aS'1217'
p4778
aS'1281'
p4779
aasS'4XNZ'
p4780
(lp4781
(lp4782
I1068
aS'47'
p4783
aS'123'
p4784
aa(lp4785
I1068
aS'198'
p4786
aS'492'
p4787
aa(lp4788
I1690
aS'133'
p4789
aS'213'
p4790
aa(lp4791
I1690
aS'120'
p4792
aS'205'
p4793
aa(lp4794
I2388
aS'9'
aS'95'
p4795
aa(lp4796
I2388
aS'6'
aS'91'
p4797
aasS'2W7W'
p4798
(lp4799
(lp4800
I4448
aS'2'
aS'82'
p4801
aa(lp4802
I4454
aS'89'
p4803
aS'191'
p4804
aasS'2OL1'
p4805
(lp4806
(lp4807
I664
aS'19'
p4808
aS'131'
p4809
aasS'2OL0'
p4810
(lp4811
(lp4812
I664
aS'19'
p4813
aS'131'
p4814
aasS'1HY8'
p4815
(lp4816
(lp4817
I361
aS'5'
aS'72'
p4818
aasS'4PU2'
p4819
(lp4820
(lp4821
I3130
aS'454'
p4822
aS'824'
p4823
aa(lp4824
I4916
aS'102'
p4825
aS'380'
p4826
aasS'4F6E'
p4827
(lp4828
(lp4829
I4448
aS'3'
aS'89'
p4830
aa(lp4831
I4454
aS'99'
p4832
aS'201'
p4833
aasS'4GCY'
p4834
(lp4835
(lp4836
I664
aS'15'
p4837
aS'149'
p4838
aasS'3I93'
p4839
(lp4840
(lp4841
I664
aS'15'
p4842
aS'131'
p4843
aasS'3HZA'
p4844
(lp4845
(lp4846
I664
aS'15'
p4847
aS'149'
p4848
aasS'1RNJ'
p4849
(lp4850
(lp4851
I664
aS'17'
p4852
aS'146'
p4853
aasS'2M5R'
p4854
(lp4855
(lp4856
I361
aS'7'
aS'73'
p4857
aasS'3TQZ'
p4858
(lp4859
(lp4860
I664
aS'17'
p4861
aS'138'
p4862
aasS'1PQ3'
p4863
(lp4864
(lp4865
I6392
aS'25'
p4866
aS'321'
p4867
aasS'3ZF0'
p4868
(lp4869
(lp4870
I664
aS'13'
p4871
aS'98'
p4872
aa(lp4873
I664
aS'128'
p4874
aS'155'
p4875
aasS'1G9M'
p4876
(lp4877
(lp4878
I1068
aS'83'
p4879
aS'128'
p4880
aa(lp4881
I1068
aS'195'
p4882
aS'297'
p4883
aa(lp4884
I1068
aS'329'
p4885
aS'492'
p4886
aa(lp4887
I1690
aS'122'
p4888
aS'207'
p4889
aa(lp4890
I1690
aS'141'
p4891
aS'221'
p4892
aa(lp4893
I2388
aS'6'
aS'108'
p4894
aa(lp4895
I2388
aS'11'
p4896
aS'107'
p4897
aa(lp4898
I4082
aS'3'
aS'97'
p4899
aa(lp4900
I6254
aS'101'
p4901
aS'177'
p4902
aasS'2DQ6'
p4903
(lp4904
(lp4905
I3130
aS'459'
p4906
aS'827'
p4907
aa(lp4908
I4916
aS'48'
p4909
aS'384'
p4910
aasS'4J3B'
p4911
(lp4912
(lp4913
I3130
aS'664'
p4914
aS'1040'
p4915
aa(lp4916
I4916
aS'214'
p4917
aS'583'
p4918
aasS'1BT8'
p4919
(lp4920
(lp4921
I4448
aS'3'
aS'83'
p4922
aa(lp4923
I4454
aS'92'
p4924
aS'192'
p4925
aasS'2CW2'
p4926
(lp4927
(lp4928
I4448
aS'7'
aS'88'
p4929
aa(lp4930
I4454
aS'95'
p4931
aS'194'
p4932
aasS'2CW3'
p4933
(lp4934
(lp4935
I4448
aS'11'
p4936
aS'88'
p4937
aa(lp4938
I4454
aS'101'
p4939
aS'201'
p4940
aasS'4TYW'
p4941
(lp4942
(lp4943
I1722
aS'130'
p4944
aS'315'
p4945
aa(lp4946
I3642
aS'360'
p4947
aS'471'
p4948
aasS'4HWW'
p4949
(lp4950
(lp4951
I6392
aS'7'
aS'300'
p4952
aasS'4TMU'
p4953
(lp4954
(lp4955
I370
aS'406'
p4956
aS'514'
p4957
aa(lp4958
I1722
aS'28'
p4959
aS'187'
p4960
aa(lp4961
I3642
aS'225'
p4962
aS'331'
p4963
aa(lp4964
I4078
aS'343'
p4965
aS'404'
p4966
aasS'3EJD'
p4967
(lp4968
(lp4969
I361
aS'25'
p4970
aS'92'
p4971
aa(lp4972
I3490
aS'13'
p4973
aS'364'
p4974
aasS'3EJE'
p4975
(lp4976
(lp4977
I361
aS'25'
p4978
aS'92'
p4979
aa(lp4980
I3490
aS'13'
p4981
aS'364'
p4982
aasS'3EJB'
p4983
(lp4984
(lp4985
I361
aS'25'
p4986
aS'92'
p4987
aa(lp4988
I3490
aS'13'
p4989
aS'364'
p4990
aasS'4TYY'
p4991
(lp4992
(lp4993
I1722
aS'130'
p4994
aS'315'
p4995
aa(lp4996
I3642
aS'360'
p4997
aS'471'
p4998
aasS'4XNY'
p4999
(lp5000
(lp5001
I1068
aS'45'
p5002
aS'123'
p5003
aa(lp5004
I1068
aS'199'
p5005
aS'492'
p5006
aa(lp5007
I1690
aS'126'
p5008
aS'206'
p5009
aa(lp5010
I1690
aS'120'
p5011
aS'205'
p5012
aa(lp5013
I2388
aS'11'
p5014
aS'94'
p5015
aa(lp5016
I2388
aS'6'
aS'106'
p5017
aasS'3PZL'
p5018
(lp5019
(lp5020
I6392
aS'36'
p5021
aS'292'
p5022
aasS'1BSM'
p5023
(lp5024
(lp5025
I4448
aS'3'
aS'83'
p5026
aa(lp5027
I4454
aS'92'
p5028
aS'192'
p5029
aasS'4RWY'
p5030
(lp5031
(lp5032
I1068
aS'44'
p5033
aS'123'
p5034
aa(lp5035
I1068
aS'198'
p5036
aS'492'
p5037
aa(lp5038
I1690
aS'126'
p5039
aS'206'
p5040
aa(lp5041
I1690
aS'120'
p5042
aS'205'
p5043
aa(lp5044
I2388
aS'12'
p5045
aS'111'
p5046
aa(lp5047
I2388
aS'6'
aS'104'
p5048
aasS'2FVF'
p5049
(lp5050
(lp5051
I361
aS'7'
aS'73'
p5052
aasS'2D4M'
p5053
(lp5054
(lp5055
I664
aS'112'
p5056
aS'219'
p5057
aasS'2FVE'
p5058
(lp5059
(lp5060
I361
aS'7'
aS'73'
p5061
aasS'1OYW'
p5062
(lp5063
(lp5064
I370
aS'406'
p5065
aS'514'
p5066
aa(lp5067
I1722
aS'28'
p5068
aS'187'
p5069
aa(lp5070
I3642
aS'225'
p5071
aS'331'
p5072
aa(lp5073
I4078
aS'343'
p5074
aS'404'
p5075
aasS'2JU2'
p5076
(lp5077
(lp5078
I361
aS'25'
p5079
aS'90'
p5080
aasS'2JU1'
p5081
(lp5082
(lp5083
I361
aS'25'
p5084
aS'90'
p5085
aasS'2FVA'
p5086
(lp5087
(lp5088
I361
aS'7'
aS'73'
p5089
aasS'4HXQ'
p5090
(lp5091
(lp5092
I6392
aS'7'
aS'300'
p5093
aasS'1OYY'
p5094
(lp5095
(lp5096
I370
aS'406'
p5097
aS'514'
p5098
aa(lp5099
I1722
aS'28'
p5100
aS'187'
p5101
aa(lp5102
I3642
aS'225'
p5103
aS'331'
p5104
aa(lp5105
I4078
aS'343'
p5106
aS'404'
p5107
aasS'2Z0M'
p5108
(lp5109
(lp5110
I1722
aS'18'
p5111
aS'176'
p5112
aa(lp5113
I3642
aS'213'
p5114
aS'311'
p5115
aasS'3QNF'
p5116
(lp5117
(lp5118
I662
aS'597'
p5119
aS'915'
p5120
aa(lp5121
I4916
aS'53'
p5122
aS'441'
p5123
aasS'2OKE'
p5124
(lp5125
(lp5126
I664
aS'19'
p5127
aS'131'
p5128
aasS'2LIU'
p5129
(lp5130
(lp5131
I361
aS'1960'
p5132
aS'2025'
p5133
aasS'1CE4'
p5134
(lp5135
(lp5136
I1068
aS'1'
aS'35'
p5137
aasS'4GUN'
p5138
(lp5139
(lp5140
I4448
aS'9'
aS'88'
p5141
aa(lp5142
I4454
aS'102'
p5143
aS'203'
p5144
aasS'4MYF'
p5145
(lp5146
(lp5147
I6392
aS'22'
p5148
aS'295'
p5149
aasS'4RHM'
p5150
(lp5151
(lp5152
I6392
aS'55'
p5153
aS'290'
p5154
aasS'1ZLZ'
p5155
(lp5156
(lp5157
I4448
aS'1'
aS'88'
p5158
aa(lp5159
I4454
aS'95'
p5160
aS'200'
p5161
aasS'1ACP'
p5162
(lp5163
(lp5164
I361
aS'5'
aS'72'
p5165
aasS'4DVR'
p5166
(lp5167
(lp5168
I1068
aS'90'
p5169
aS'123'
p5170
aa(lp5171
I1068
aS'198'
p5172
aS'492'
p5173
aa(lp5174
I1690
aS'119'
p5175
aS'204'
p5176
aa(lp5177
I1690
aS'132'
p5178
aS'212'
p5179
aa(lp5180
I2388
aS'6'
aS'105'
p5181
aa(lp5182
I2388
aS'9'
aS'117'
p5183
aasS'4DVS'
p5184
(lp5185
(lp5186
I1068
aS'44'
p5187
aS'123'
p5188
aa(lp5189
I1068
aS'198'
p5190
aS'492'
p5191
aasS'1KKC'
p5192
(lp5193
(lp5194
I4448
aS'15'
p5195
aS'96'
p5196
aa(lp5197
I4454
aS'111'
p5198
aS'207'
p5199
aasS'4DVH'
p5200
(lp5201
(lp5202
I4448
aS'4'
aS'86'
p5203
aa(lp5204
I4454
aS'96'
p5205
aS'195'
p5206
aasS'1BS3'
p5207
(lp5208
(lp5209
I4448
aS'3'
aS'83'
p5210
aa(lp5211
I4454
aS'92'
p5212
aS'192'
p5213
aasS'1VKU'
p5214
(lp5215
(lp5216
I361
aS'9'
aS'72'
p5217
aasS'4I06'
p5218
(lp5219
(lp5220
I6392
aS'25'
p5221
aS'321'
p5222
aasS'2XY3'
p5223
(lp5224
(lp5225
I664
aS'25'
p5226
aS'129'
p5227
aasS'2XPZ'
p5228
(lp5229
(lp5230
I4916
aS'65'
p5231
aS'432'
p5232
aa(lp5233
I5288
aS'509'
p5234
aS'669'
p5235
aasS'5CU5'
p5236
(lp5237
(lp5238
I662
aS'620'
p5239
aS'937'
p5240
aa(lp5241
I4916
aS'68'
p5242
aS'458'
p5243
aasS'2XPY'
p5244
(lp5245
(lp5246
I4916
aS'65'
p5247
aS'432'
p5248
aa(lp5249
I4916
aS'65'
p5250
aS'432'
p5251
aa(lp5252
I5288
aS'509'
p5253
aS'669'
p5254
aa(lp5255
I5288
aS'509'
p5256
aS'669'
p5257
aasS'2V9X'
p5258
(lp5259
(lp5260
I664
aS'78'
p5261
aS'185'
p5262
aasS'3AK1'
p5263
(lp5264
(lp5265
I4448
aS'6'
aS'87'
p5266
aa(lp5267
I4454
aS'96'
p5268
aS'198'
p5269
aasS'3AK3'
p5270
(lp5271
(lp5272
I4448
aS'6'
aS'87'
p5273
aa(lp5274
I4454
aS'96'
p5275
aS'198'
p5276
aasS'3AK2'
p5277
(lp5278
(lp5279
I4448
aS'6'
aS'87'
p5280
aa(lp5281
I4454
aS'96'
p5282
aS'198'
p5283
aasS'3NGB'
p5284
(lp5285
(lp5286
I1068
aS'44'
p5287
aS'123'
p5288
aa(lp5289
I1068
aS'198'
p5290
aS'492'
p5291
aa(lp5292
I1690
aS'126'
p5293
aS'206'
p5294
aa(lp5295
I1690
aS'122'
p5296
aS'207'
p5297
aa(lp5298
I2388
aS'11'
p5299
aS'100A'
p5300
aa(lp5301
I2388
aS'6'
aS'106'
p5302
aasS'3THH'
p5303
(lp5304
(lp5305
I6392
aS'7'
aS'300'
p5306
aasS'3THJ'
p5307
(lp5308
(lp5309
I6392
aS'7'
aS'300'
p5310
aasS'1QDE'
p5311
(lp5312
(lp5313
I1722
aS'46'
p5314
aS'208'
p5315
aasS'3GZM'
p5316
(lp5317
(lp5318
I361
aS'9'
aS'75'
p5319
aasS'4PX9'
p5320
(lp5321
(lp5322
I1722
aS'204'
p5323
aS'391'
p5324
aasS'3THE'
p5325
(lp5326
(lp5327
I6392
aS'7'
aS'300'
p5328
aasS'3E8Q'
p5329
(lp5330
(lp5331
I6392
aS'8'
aS'302'
p5332
aasS'3TQ4'
p5333
(lp5334
(lp5335
I664
aS'30'
p5336
aS'136'
p5337
aasS'3TQ5'
p5338
(lp5339
(lp5340
I664
aS'30'
p5341
aS'137'
p5342
aasS'3TQ3'
p5343
(lp5344
(lp5345
I664
aS'30'
p5346
aS'137'
p5347
aasS'1VYQ'
p5348
(lp5349
(lp5350
I664
aS'87'
p5351
aS'159'
p5352
aasS'4U7D'
p5353
(lp5354
(lp5355
I370
aS'485'
p5356
aS'592'
p5357
aa(lp5358
I1722
aS'94'
p5359
aS'260'
p5360
aa(lp5361
I3642
aS'303'
p5362
aS'407'
p5363
aa(lp5364
I4078
aS'421'
p5365
aS'479'
p5366
aasS'3E8Z'
p5367
(lp5368
(lp5369
I6392
aS'8'
aS'302'
p5370
aasS'2BF1'
p5371
(lp5372
(lp5373
I1068
aS'66'
p5374
aS'109'
p5375
aa(lp5376
I1068
aS'209'
p5377
aS'311'
p5378
aa(lp5379
I1068
aS'341'
p5380
aS'499'
p5381
aasS'1XS1'
p5382
(lp5383
(lp5384
I664
aS'78'
p5385
aS'185'
p5386
aasS'1XS6'
p5387
(lp5388
(lp5389
I664
aS'78'
p5390
aS'185'
p5391
aasS'1XS4'
p5392
(lp5393
(lp5394
I664
aS'78'
p5395
aS'185'
p5396
aasS'1P8P'
p5397
(lp5398
(lp5399
I6392
aS'8'
aS'302'
p5400
aasS'3SJT'
p5401
(lp5402
(lp5403
I6392
aS'7'
aS'300'
p5404
aasS'3LHL'
p5405
(lp5406
(lp5407
I6392
aS'22'
p5408
aS'283'
p5409
aasS'3EVK'
p5410
(lp5411
(lp5412
I4448
aS'17'
p5413
aS'98'
p5414
aa(lp5415
I4454
aS'107'
p5416
aS'209'
p5417
aasS'3PEY'
p5418
(lp5419
(lp5420
I1722
aS'117'
p5421
aS'278'
p5422
aa(lp5423
I3642
aS'317'
p5424
aS'431'
p5425
aasS'2CEV'
p5426
(lp5427
(lp5428
I6392
aS'3'
aS'294'
p5429
aasS'1X3O'
p5430
(lp5431
(lp5432
I361
aS'8'
aS'75'
p5433
aasS'3FE2'
p5434
(lp5435
(lp5436
I1722
aS'118'
p5437
aS'288'
p5438
aasS'2GTQ'
p5439
(lp5440
(lp5441
I3130
aS'454'
p5442
aS'824'
p5443
aa(lp5444
I4916
aS'102'
p5445
aS'380'
p5446
aasS'4OLV'
p5447
(lp5448
(lp5449
I1068
aS'44'
p5450
aS'123'
p5451
aa(lp5452
I1068
aS'198'
p5453
aS'492'
p5454
aa(lp5455
I1690
aS'126'
p5456
aS'206'
p5457
aa(lp5458
I1690
aS'122'
p5459
aS'207'
p5460
aa(lp5461
I2388
aS'11'
p5462
aS'110'
p5463
aa(lp5464
I2388
aS'6'
aS'106'
p5465
aasS'1WOI'
p5466
(lp5467
(lp5468
I6392
aS'29'
p5469
aS'296'
p5470
aasS'1WOH'
p5471
(lp5472
(lp5473
I6392
aS'29'
p5474
aS'296'
p5475
aasS'3MWL'
p5476
(lp5477
(lp5478
I1722
aS'25'
p5479
aS'191'
p5480
aasS'1WOG'
p5481
(lp5482
(lp5483
I6392
aS'29'
p5484
aS'296'
p5485
aasS'1TBJ'
p5486
(lp5487
(lp5488
I6392
aS'8'
aS'302'
p5489
aasS'2NY4'
p5490
(lp5491
(lp5492
I1068
aS'83'
p5493
aS'128'
p5494
aa(lp5495
I1068
aS'195'
p5496
aS'298'
p5497
aa(lp5498
I1068
aS'329'
p5499
aS'491'
p5500
aa(lp5501
I1690
aS'2122'
p5502
aS'2207'
p5503
aa(lp5504
I1690
aS'3141'
p5505
aS'3221'
p5506
aa(lp5507
I2388
aS'2006'
p5508
aS'2108'
p5509
aa(lp5510
I2388
aS'3011'
p5511
aS'3107'
p5512
aa(lp5513
I4082
aS'1001'
p5514
aS'1097'
p5515
aa(lp5516
I6254
aS'1101'
p5517
aS'1177'
p5518
aasS'1TBL'
p5519
(lp5520
(lp5521
I6392
aS'8'
aS'302'
p5522
aasS'3MWK'
p5523
(lp5524
(lp5525
I1722
aS'25'
p5526
aS'191'
p5527
aasS'3MWJ'
p5528
(lp5529
(lp5530
I1722
aS'25'
p5531
aS'191'
p5532
aasS'3CA9'
p5533
(lp5534
(lp5535
I664
aS'13'
p5536
aS'125'
p5537
aasS'2G9N'
p5538
(lp5539
(lp5540
I1722
aS'57'
p5541
aS'221'
p5542
aasS'4XJC'
p5543
(lp5544
(lp5545
I664
aS'67'
p5546
aS'157'
p5547
aasS'3ECY'
p5548
(lp5549
(lp5550
I664
aS'34'
p5551
aS'144'
p5552
aasS'3HHQ'
p5553
(lp5554
(lp5555
I664
aS'18'
p5556
aS'132'
p5557
aasS'4E36'
p5558
(lp5559
(lp5560
I662
aS'620'
p5561
aS'937'
p5562
aa(lp5563
I4916
aS'68'
p5564
aS'458'
p5565
aasS'4ITY'
p5566
(lp5567
(lp5568
I6392
aS'14'
p5569
aS'315'
p5570
aasS'1XFK'
p5571
(lp5572
(lp5573
I6392
aS'45'
p5574
aS'322'
p5575
aasS'2CE4'
p5576
(lp5577
(lp5578
I4448
aS'1'
aS'87'
p5579
aa(lp5580
I4454
aS'99'
p5581
aS'205'
p5582
aasS'1NQ4'
p5583
(lp5584
(lp5585
I361
aS'13'
p5586
aS'76'
p5587
aasS'3SE6'
p5588
(lp5589
(lp5590
I662
aS'620'
p5591
aS'937'
p5592
aa(lp5593
I4916
aS'68'
p5594
aS'458'
p5595
aasS'1AVM'
p5596
(lp5597
(lp5598
I4448
aS'3'
aS'83'
p5599
aa(lp5600
I4454
aS'92'
p5601
aS'192'
p5602
aasS'3TQJ'
p5603
(lp5604
(lp5605
I4448
aS'3'
aS'82'
p5606
aa(lp5607
I4454
aS'89'
p5608
aS'189'
p5609
aasS'4F93'
p5610
(lp5611
(lp5612
I1722
aS'483'
p5613
aS'658'
p5614
aa(lp5615
I1722
aS'1330'
p5616
aS'1496'
p5617
aa(lp5618
I3642
aS'720'
p5619
aS'859'
p5620
aa(lp5621
I4505
aS'982'
p5622
aS'1284'
p5623
aa(lp5624
I4505
aS'1812'
p5625
aS'2123'
p5626
aasS'4LSP'
p5627
(lp5628
(lp5629
I1068
aS'44'
p5630
aS'123'
p5631
aa(lp5632
I1068
aS'198'
p5633
aS'492'
p5634
aa(lp5635
I1690
aS'126'
p5636
aS'206'
p5637
aa(lp5638
I1690
aS'120'
p5639
aS'205'
p5640
aa(lp5641
I2388
aS'11'
p5642
aS'100A'
p5643
aa(lp5644
I2388
aS'6'
aS'105'
p5645
aasS'4PXA'
p5646
(lp5647
(lp5648
I1722
aS'204'
p5649
aS'391'
p5650
aa(lp5651
I3642
aS'426'
p5652
aS'536'
p5653
aasS'2EYQ'
p5654
(lp5655
(lp5656
I1224
aS'477'
p5657
aS'572'
p5658
aa(lp5659
I1722
aS'602'
p5660
aS'762'
p5661
aa(lp5662
I3642
aS'802'
p5663
aS'906'
p5664
aa(lp5665
I4730
aS'1006'
p5666
aS'1098'
p5667
aasS'1JR9'
p5668
(lp5669
(lp5670
I4448
aS'2'
aS'90'
p5671
aa(lp5672
I4454
aS'97'
p5673
aS'196'
p5674
aasS'4PXH'
p5675
(lp5676
(lp5677
I361
aS'15'
p5678
aS'75'
p5679
aa(lp5680
I3490
aS'280'
p5681
aS'378'
p5682
aasS'4E4E'
p5683
(lp5684
(lp5685
I4448
aS'3'
aS'89'
p5686
aa(lp5687
I4454
aS'99'
p5688
aS'201'
p5689
aasS'4F2N'
p5690
(lp5691
(lp5692
I4448
aS'34'
p5693
aS'116'
p5694
aa(lp5695
I4454
aS'125'
p5696
aS'221'
p5697
aasS'2VA8'
p5698
(lp5699
(lp5700
I1722
aS'26'
p5701
aS'182'
p5702
aa(lp5703
I3642
aS'239'
p5704
aS'387'
p5705
aasS'4L2B'
p5706
(lp5707
(lp5708
I4448
aS'2'
aS'81'
p5709
aa(lp5710
I4454
aS'88'
p5711
aS'189'
p5712
aasS'4L2C'
p5713
(lp5714
(lp5715
I4448
aS'2'
aS'81'
p5716
aa(lp5717
I4454
aS'88'
p5718
aS'189'
p5719
aasS'2NY5'
p5720
(lp5721
(lp5722
I1068
aS'83'
p5723
aS'128'
p5724
aa(lp5725
I1068
aS'195'
p5726
aS'298'
p5727
aa(lp5728
I1068
aS'329'
p5729
aS'491'
p5730
aa(lp5731
I1690
aS'2122'
p5732
aS'2207'
p5733
aa(lp5734
I1690
aS'3141'
p5735
aS'3221'
p5736
aa(lp5737
I2388
aS'2006'
p5738
aS'2108'
p5739
aa(lp5740
I2388
aS'3011'
p5741
aS'3107'
p5742
aa(lp5743
I4082
aS'1001'
p5744
aS'1097'
p5745
aa(lp5746
I6254
aS'1101'
p5747
aS'1177'
p5748
aasS'4L2A'
p5749
(lp5750
(lp5751
I4448
aS'2'
aS'81'
p5752
aa(lp5753
I4454
aS'88'
p5754
aS'189'
p5755
aasS'5RLA'
p5756
(lp5757
(lp5758
I6392
aS'8'
aS'302'
p5759
aasS'2NY2'
p5760
(lp5761
(lp5762
I1068
aS'83'
p5763
aS'128'
p5764
aa(lp5765
I1068
aS'195'
p5766
aS'298'
p5767
aa(lp5768
I1068
aS'329'
p5769
aS'491'
p5770
aa(lp5771
I1690
aS'2122'
p5772
aS'2207'
p5773
aa(lp5774
I1690
aS'3141'
p5775
aS'3221'
p5776
aa(lp5777
I2388
aS'2006'
p5778
aS'2108'
p5779
aa(lp5780
I2388
aS'3011'
p5781
aS'3107'
p5782
aa(lp5783
I4082
aS'1001'
p5784
aS'1097'
p5785
aa(lp5786
I6254
aS'1101'
p5787
aS'1177'
p5788
aasS'4L2D'
p5789
(lp5790
(lp5791
I4448
aS'2'
aS'81'
p5792
aa(lp5793
I4454
aS'88'
p5794
aS'189'
p5795
aasS'1DT0'
p5796
(lp5797
(lp5798
I4448
aS'2'
aS'81'
p5799
aa(lp5800
I4454
aS'88'
p5801
aS'188'
p5802
aasS'2AFE'
p5803
(lp5804
(lp5805
I361
aS'18'
p5806
aS'83'
p5807
aasS'2AFD'
p5808
(lp5809
(lp5810
I361
aS'18'
p5811
aS'83'
p5812
aasS'2QNW'
p5813
(lp5814
(lp5815
I361
aS'10'
p5816
aS'77'
p5817
aasS'4L2L'
p5818
(lp5819
(lp5820
I4916
aS'18'
p5821
aS'386'
p5822
aa(lp5823
I5288
aS'464'
p5824
aS'607'
p5825
aasS'1KLP'
p5826
(lp5827
(lp5828
I361
aS'12'
p5829
aS'77'
p5830
aasS'2FAE'
p5831
(lp5832
(lp5833
I361
aS'5'
aS'72'
p5834
aasS'2FAD'
p5835
(lp5836
(lp5837
I361
aS'5'
aS'72'
p5838
aasS'3TF3'
p5839
(lp5840
(lp5841
I6392
aS'7'
aS'300'
p5842
aasS'2K92'
p5843
(lp5844
(lp5845
I361
aS'5'
aS'72'
p5846
aasS'1P8N'
p5847
(lp5848
(lp5849
I6392
aS'8'
aS'302'
p5850
aasS'4K5L'
p5851
(lp5852
(lp5853
I3130
aS'664'
p5854
aS'1040'
p5855
aa(lp5856
I4916
aS'215'
p5857
aS'583'
p5858
aasS'4K5M'
p5859
(lp5860
(lp5861
I3130
aS'664'
p5862
aS'1040'
p5863
aa(lp5864
I4916
aS'215'
p5865
aS'583'
p5866
aasS'4K5N'
p5867
(lp5868
(lp5869
I3130
aS'664'
p5870
aS'1040'
p5871
aa(lp5872
I4916
aS'215'
p5873
aS'583'
p5874
aasS'4K5O'
p5875
(lp5876
(lp5877
I3130
aS'664'
p5878
aS'1040'
p5879
aa(lp5880
I4916
aS'215'
p5881
aS'583'
p5882
aasS'2KOP'
p5883
(lp5884
(lp5885
I361
aS'11'
p5886
aS'76'
p5887
aasS'2KOQ'
p5888
(lp5889
(lp5890
I361
aS'11'
p5891
aS'76'
p5892
aasS'2KOR'
p5893
(lp5894
(lp5895
I361
aS'11'
p5896
aS'76'
p5897
aasS'4JPV'
p5898
(lp5899
(lp5900
I1068
aS'44'
p5901
aS'123'
p5902
aa(lp5903
I1068
aS'198'
p5904
aS'492'
p5905
aa(lp5906
I1690
aS'126'
p5907
aS'206'
p5908
aa(lp5909
I1690
aS'120'
p5910
aS'205'
p5911
aa(lp5912
I2388
aS'11'
p5913
aS'111'
p5914
aa(lp5915
I2388
aS'6'
aS'90'
p5916
aasS'1DUD'
p5917
(lp5918
(lp5919
I664
aS'17'
p5920
aS'136'
p5921
aasS'3I62'
p5922
(lp5923
(lp5924
I1722
aS'130'
p5925
aS'315'
p5926
aa(lp5927
I3642
aS'360'
p5928
aS'471'
p5929
aasS'3I61'
p5930
(lp5931
(lp5932
I1722
aS'130'
p5933
aS'315'
p5934
aa(lp5935
I3642
aS'360'
p5936
aS'471'
p5937
aasS'1WP9'
p5938
(lp5939
(lp5940
I1722
aS'14'
p5941
aS'172'
p5942
aa(lp5943
I3642
aS'348'
p5944
aS'463'
p5945
aasS'3MJL'
p5946
(lp5947
(lp5948
I6392
aS'7'
aS'300'
p5949
aasS'2VSQ'
p5950
(lp5951
(lp5952
I361
aS'976'
p5953
aS'1039'
p5954
aa(lp5955
I1283
aS'875'
p5956
aS'948'
p5957
aa(lp5958
I5566
aS'1060'
p5959
aS'1268'
p5960
aa(lp5961
I5895
aS'9'
aS'308'
p5962
aa(lp5963
I6140
aS'470'
p5964
aS'867'
p5965
aasS'4B0H'
p5966
(lp5967
(lp5968
I664
aS'27'
p5969
aS'131'
p5970
aasS'3Q44'
p5971
(lp5972
(lp5973
I3130
aS'664'
p5974
aS'1040'
p5975
aa(lp5976
I4916
aS'215'
p5977
aS'583'
p5978
aasS'4TYN'
p5979
(lp5980
(lp5981
I1722
aS'130'
p5982
aS'315'
p5983
aa(lp5984
I3642
aS'360'
p5985
aS'471'
p5986
aasS'4PJ6'
p5987
(lp5988
(lp5989
I662
aS'689'
p5990
aS'1006'
p5991
aa(lp5992
I4916
aS'167'
p5993
aS'552'
p5994
aasS'4P8Q'
p5995
(lp5996
(lp5997
I662
aS'689'
p5998
aS'1006'
p5999
aa(lp6000
I4916
aS'167'
p6001
aS'552'
p6002
aasS'3ARA'
p6003
(lp6004
(lp6005
I664
aS'34'
p6006
aS'148'
p6007
aasS'1P8S'
p6008
(lp6009
(lp6010
I6392
aS'8'
aS'302'
p6011
aasS'1P8R'
p6012
(lp6013
(lp6014
I6392
aS'8'
aS'302'
p6015
aasS'1P8Q'
p6016
(lp6017
(lp6018
I6392
aS'8'
aS'302'
p6019
aasS'4LK2'
p6020
(lp6021
(lp6022
I1722
aS'280'
p6023
aS'453'
p6024
aa(lp6025
I3642
aS'525'
p6026
aS'619'
p6027
aasS'2BPI'
p6028
(lp6029
(lp6030
I4448
aS'3'
aS'80'
p6031
aa(lp6032
I4454
aS'88'
p6033
aS'190'
p6034
aasS'2P9O'
p6035
(lp6036
(lp6037
I664
aS'37'
p6038
aS'153'
p6039
aasS'1DUC'
p6040
(lp6041
(lp6042
I664
aS'8'
aS'118'
p6043
aasS'4MKT'
p6044
(lp6045
(lp6046
I4916
aS'18'
p6047
aS'386'
p6048
aa(lp6049
I5288
aS'464'
p6050
aS'607'
p6051
aasS'1MQ7'
p6052
(lp6053
(lp6054
I664
aS'15'
p6055
aS'135'
p6056
aasS'1WB8'
p6057
(lp6058
(lp6059
I4448
aS'8'
aS'92'
p6060
aa(lp6061
I4454
aS'101'
p6062
aS'202'
p6063
aasS'1P8O'
p6064
(lp6065
(lp6066
I6392
aS'8'
aS'302'
p6067
aasS'1WB7'
p6068
(lp6069
(lp6070
I4448
aS'8'
aS'92'
p6071
aa(lp6072
I4454
aS'101'
p6073
aS'202'
p6074
aasS'1P8M'
p6075
(lp6076
(lp6077
I6392
aS'8'
aS'302'
p6078
aasS'1RN8'
p6079
(lp6080
(lp6081
I664
aS'17'
p6082
aS'146'
p6083
aasS'3LOJ'
p6084
(lp6085
(lp6086
I664
aS'15'
p6087
aS'149'
p6088
aasS'4IXU'
p6089
(lp6090
(lp6091
I6392
aS'25'
p6092
aS'321'
p6093
aasS'3GF0'
p6094
(lp6095
(lp6096
I664
aS'95'
p6097
aS'172'
p6098
aasS'3FUL'
p6099
(lp6100
(lp6101
I4916
aS'18'
p6102
aS'386'
p6103
aa(lp6104
I5288
aS'464'
p6105
aS'607'
p6106
aasS'4CA3'
p6107
(lp6108
(lp6109
I361
aS'6842'
p6110
aS'6907'
p6111
aasS'2LIW'
p6112
(lp6113
(lp6114
I361
aS'1960'
p6115
aS'2025'
p6116
aasS'2HQU'
p6117
(lp6118
(lp6119
I664
aS'34'
p6120
aS'162'
p6121
aasS'1COJ'
p6122
(lp6123
(lp6124
I4448
aS'19'
p6125
aS'88'
p6126
aa(lp6127
I4454
aS'96'
p6128
aS'196'
p6129
aasS'2AF8'
p6130
(lp6131
(lp6132
I361
aS'13'
p6133
aS'78'
p6134
aasS'2P6R'
p6135
(lp6136
(lp6137
I1722
aS'28'
p6138
aS'186'
p6139
aa(lp6140
I3642
aS'231'
p6141
aS'374'
p6142
aasS'2P6U'
p6143
(lp6144
(lp6145
I1722
aS'28'
p6146
aS'186'
p6147
aa(lp6148
I3642
aS'231'
p6149
aS'374'
p6150
aasS'3LQW'
p6151
(lp6152
(lp6153
I664
aS'14'
p6154
aS'130'
p6155
aasS'3IDX'
p6156
(lp6157
(lp6158
I1068
aS'83'
p6159
aS'128'
p6160
aa(lp6161
I1068
aS'195'
p6162
aS'298'
p6163
aa(lp6164
I1068
aS'329'
p6165
aS'492'
p6166
aa(lp6167
I1690
aS'126'
p6168
aS'206'
p6169
aa(lp6170
I1690
aS'120'
p6171
aS'205'
p6172
aa(lp6173
I2388
aS'12'
p6174
aS'106'
p6175
aa(lp6176
I2388
aS'6'
aS'106'
p6177
aasS'3IDY'
p6178
(lp6179
(lp6180
I1068
aS'83'
p6181
aS'127'
p6182
aa(lp6183
I1068
aS'195'
p6184
aS'298'
p6185
aa(lp6186
I1068
aS'329'
p6187
aS'492'
p6188
aa(lp6189
I1690
aS'126'
p6190
aS'206'
p6191
aa(lp6192
I1690
aS'120'
p6193
aS'205'
p6194
aa(lp6195
I2388
aS'12'
p6196
aS'106'
p6197
aa(lp6198
I2388
aS'6'
aS'106'
p6199
aasS'3FH8'
p6200
(lp6201
(lp6202
I4916
aS'18'
p6203
aS'386'
p6204
aa(lp6205
I5288
aS'464'
p6206
aS'607'
p6207
aasS'2PHO'
p6208
(lp6209
(lp6210
I6392
aS'7'
aS'300'
p6211
aasS'5CJX'
p6212
(lp6213
(lp6214
I1068
aS'34'
p6215
aS'133'
p6216
aa(lp6217
I1068
aS'152'
p6218
aS'505'
p6219
aa(lp6220
I1690
aS'126'
p6221
aS'206'
p6222
aa(lp6223
I1690
aS'120'
p6224
aS'205'
p6225
aa(lp6226
I2388
aS'7'
aS'99'
p6227
aa(lp6228
I2388
aS'6'
aS'106'
p6229
aa(lp6230
I3336
aS'530'
p6231
aS'664'
p6232
aasS'1TA1'
p6233
(lp6234
(lp6235
I6392
aS'8'
aS'302'
p6236
aasS'2PHA'
p6237
(lp6238
(lp6239
I6392
aS'7'
aS'300'
p6240
aasS'3FH7'
p6241
(lp6242
(lp6243
I4916
aS'18'
p6244
aS'386'
p6245
aa(lp6246
I5288
aS'464'
p6247
aS'607'
p6248
aasS'2HPT'
p6249
(lp6250
(lp6251
I3130
aS'459'
p6252
aS'827'
p6253
aa(lp6254
I4916
aS'49'
p6255
aS'384'
p6256
aasS'2HPO'
p6257
(lp6258
(lp6259
I3130
aS'459'
p6260
aS'827'
p6261
aa(lp6262
I4916
aS'49'
p6263
aS'384'
p6264
aasS'3TTA'
p6265
(lp6266
(lp6267
I664
aS'30'
p6268
aS'136'
p6269
aasS'4CEV'
p6270
(lp6271
(lp6272
I6392
aS'3'
aS'294'
p6273
aasS'2BKB'
p6274
(lp6275
(lp6276
I4448
aS'1'
aS'81'
p6277
aa(lp6278
I4454
aS'88'
p6279
aS'189'
p6280
aasS'3FTY'
p6281
(lp6282
(lp6283
I4916
aS'18'
p6284
aS'386'
p6285
aa(lp6286
I5288
aS'464'
p6287
aS'607'
p6288
aasS'1SLH'
p6289
(lp6290
(lp6291
I664
aS'15'
p6292
aS'136'
p6293
aasS'2ROQ'
p6294
(lp6295
(lp6296
I361
aS'22'
p6297
aS'82'
p6298
aa(lp6299
I5566
aS'109'
p6300
aS'325'
p6301
aasS'4APZ'
p6302
(lp6303
(lp6304
I664
aS'27'
p6305
aS'141'
p6306
aasS'4K5P'
p6307
(lp6308
(lp6309
I3130
aS'664'
p6310
aS'1040'
p6311
aa(lp6312
I4916
aS'215'
p6313
aS'583'
p6314
aasS'1FUU'
p6315
(lp6316
(lp6317
I1722
aS'46'
p6318
aS'208'
p6319
aasS'1XIL'
p6320
(lp6321
(lp6322
I4448
aS'1'
aS'82'
p6323
aa(lp6324
I4454
aS'89'
p6325
aS'192'
p6326
aasS'3FTW'
p6327
(lp6328
(lp6329
I4916
aS'18'
p6330
aS'386'
p6331
aa(lp6332
I5288
aS'464'
p6333
aS'607'
p6334
aasS'2MF4'
p6335
(lp6336
(lp6337
I361
aS'6741'
p6338
aS'6806'
p6339
aasS'2NYB'
p6340
(lp6341
(lp6342
I4448
aS'1'
aS'81'
p6343
aa(lp6344
I4454
aS'88'
p6345
aS'189'
p6346
aasS'4OLZ'
p6347
(lp6348
(lp6349
I1068
aS'44'
p6350
aS'123'
p6351
aa(lp6352
I1068
aS'198'
p6353
aS'492'
p6354
aa(lp6355
I1690
aS'126'
p6356
aS'206'
p6357
aa(lp6358
I1690
aS'122'
p6359
aS'207'
p6360
aa(lp6361
I2388
aS'11'
p6362
aS'110'
p6363
aa(lp6364
I2388
aS'6'
aS'106'
p6365
aasS'4OLY'
p6366
(lp6367
(lp6368
I1068
aS'44'
p6369
aS'123'
p6370
aa(lp6371
I1068
aS'198'
p6372
aS'492'
p6373
aa(lp6374
I1690
aS'126'
p6375
aS'206'
p6376
aa(lp6377
I1690
aS'122'
p6378
aS'207'
p6379
aa(lp6380
I2388
aS'11'
p6381
aS'110'
p6382
aa(lp6383
I2388
aS'6'
aS'106'
p6384
aasS'4OLX'
p6385
(lp6386
(lp6387
I1068
aS'44'
p6388
aS'123'
p6389
aa(lp6390
I1068
aS'198'
p6391
aS'492'
p6392
aa(lp6393
I1690
aS'126'
p6394
aS'206'
p6395
aa(lp6396
I1690
aS'122'
p6397
aS'207'
p6398
aa(lp6399
I2388
aS'11'
p6400
aS'110'
p6401
aa(lp6402
I2388
aS'6'
aS'106'
p6403
aasS'2RLA'
p6404
(lp6405
(lp6406
I6392
aS'8'
aS'302'
p6407
aasS'4YWG'
p6408
(lp6409
(lp6410
I1068
aS'151'
p6411
aS'208'
p6412
aa(lp6413
I1690
aS'120'
p6414
aS'205'
p6415
aa(lp6416
I1690
aS'139'
p6417
aS'206'
p6418
aa(lp6419
I2388
aS'6'
aS'104'
p6420
aa(lp6421
I2388
aS'14'
p6422
aS'111'
p6423
aa(lp6424
I4438
aS'199'
p6425
aS'239'
p6426
aasS'4OLW'
p6427
(lp6428
(lp6429
I1068
aS'44'
p6430
aS'123'
p6431
aa(lp6432
I1068
aS'198'
p6433
aS'492'
p6434
aa(lp6435
I1690
aS'126'
p6436
aS'206'
p6437
aa(lp6438
I1690
aS'122'
p6439
aS'207'
p6440
aa(lp6441
I2388
aS'11'
p6442
aS'110'
p6443
aa(lp6444
I2388
aS'6'
aS'106'
p6445
aasS'3DC5'
p6446
(lp6447
(lp6448
I4448
aS'1'
aS'82'
p6449
aa(lp6450
I4454
aS'88'
p6451
aS'188'
p6452
aasS'3DC6'
p6453
(lp6454
(lp6455
I4448
aS'1'
aS'82'
p6456
aa(lp6457
I4454
aS'88'
p6458
aS'191'
p6459
aasS'2YD0'
p6460
(lp6461
(lp6462
I662
aS'597'
p6463
aS'915'
p6464
aa(lp6465
I4916
aS'53'
p6466
aS'441'
p6467
aasS'4NHO'
p6468
(lp6469
(lp6470
I1722
aS'415'
p6471
aS'616'
p6472
aa(lp6473
I3642
aS'650'
p6474
aS'759'
p6475
aasS'1SZX'
p6476
(lp6477
(lp6478
I4448
aS'1'
aS'82'
p6479
aa(lp6480
I4454
aS'89'
p6481
aS'192'
p6482
aasS'1T6N'
p6483
(lp6484
(lp6485
I1722
aS'70'
p6486
aS'235'
p6487
aasS'5AEN'
p6488
(lp6489
(lp6490
I4916
aS'18'
p6491
aS'386'
p6492
aa(lp6493
I5288
aS'464'
p6494
aS'607'
p6495
aasS'3C3S'
p6496
(lp6497
(lp6498
I4448
aS'1'
aS'82'
p6499
aa(lp6500
I4454
aS'89'
p6501
aS'192'
p6502
aasS'3C3T'
p6503
(lp6504
(lp6505
I4448
aS'1'
aS'82'
p6506
aa(lp6507
I4454
aS'89'
p6508
aS'192'
p6509
aasS'3CHS'
p6510
(lp6511
(lp6512
I4916
aS'18'
p6513
aS'386'
p6514
aa(lp6515
I5288
aS'464'
p6516
aS'607'
p6517
aasS'2YZJ'
p6518
(lp6519
(lp6520
I664
aS'64'
p6521
aS'154'
p6522
aasS'4H3E'
p6523
(lp6524
(lp6525
I4448
aS'35'
p6526
aS'117'
p6527
aa(lp6528
I4454
aS'128'
p6529
aS'226'
p6530
aasS'1Z1W'
p6531
(lp6532
(lp6533
I662
aS'473'
p6534
aS'718'
p6535
aa(lp6536
I4916
aS'3'
aS'354'
p6537
aasS'4YE4'
p6538
(lp6539
(lp6540
I1068
aS'46'
p6541
aS'124'
p6542
aa(lp6543
I1068
aS'125'
p6544
aS'493'
p6545
aa(lp6546
I1690
aS'140'
p6547
aS'220'
p6548
aa(lp6549
I1690
aS'127'
p6550
aS'212'
p6551
aa(lp6552
I2388
aS'7'
aS'107'
p6553
aa(lp6554
I2388
aS'6'
aS'111'
p6555
aasS'3FHT'
p6556
(lp6557
(lp6558
I1722
aS'117'
p6559
aS'281'
p6560
aa(lp6561
I3642
aS'319'
p6562
aS'434'
p6563
aasS'3G0H'
p6564
(lp6565
(lp6566
I1722
aS'117'
p6567
aS'281'
p6568
aa(lp6569
I3642
aS'319'
p6570
aS'434'
p6571
aasS'4I3S'
p6572
(lp6573
(lp6574
I1068
aS'252'
p6575
aS'330'
p6576
aa(lp6577
I1068
aS'330'
p6578
aS'477'
p6579
aa(lp6580
I1690
aS'126'
p6581
aS'206'
p6582
aa(lp6583
I1690
aS'120'
p6584
aS'205'
p6585
aa(lp6586
I2388
aS'10'
p6587
aS'100'
p6588
aa(lp6589
I2388
aS'6'
aS'106'
p6590
aasS'3FHO'
p6591
(lp6592
(lp6593
I1722
aS'139'
p6594
aS'302'
p6595
aa(lp6596
I3642
aS'339'
p6597
aS'450'
p6598
aasS'1PL4'
p6599
(lp6600
(lp6601
I4448
aS'1'
aS'82'
p6602
aa(lp6603
I4448
aS'1'
aS'82'
p6604
aa(lp6605
I4454
aS'89'
p6606
aS'192'
p6607
aa(lp6608
I4454
aS'89'
p6609
aS'192'
p6610
aasS'3FHC'
p6611
(lp6612
(lp6613
I1722
aS'117'
p6614
aS'281'
p6615
aasS'2XCE'
p6616
(lp6617
(lp6618
I664
aS'27'
p6619
aS'130'
p6620
aasS'2XCD'
p6621
(lp6622
(lp6623
I664
aS'27'
p6624
aS'130'
p6625
aasS'3KX2'
p6626
(lp6627
(lp6628
I1722
aS'102'
p6629
aS'254'
p6630
aa(lp6631
I3332
aS'622'
p6632
aS'725'
p6633
aa(lp6634
I3642
aS'297'
p6635
aS'431'
p6636
aa(lp6637
I4473
aS'494'
p6638
aS'582'
p6639
aasS'5AB2'
p6640
(lp6641
(lp6642
I662
aS'673'
p6643
aS'990'
p6644
aa(lp6645
I4916
aS'121'
p6646
aS'511'
p6647
aasS'1ZUQ'
p6648
(lp6649
(lp6650
I4448
aS'1'
aS'82'
p6651
aa(lp6652
I4454
aS'89'
p6653
aS'192'
p6654
aasS'2OKB'
p6655
(lp6656
(lp6657
I664
aS'19'
p6658
aS'123'
p6659
aasS'1EUW'
p6660
(lp6661
(lp6662
I664
aS'17'
p6663
aS'136'
p6664
aasS'1HQG'
p6665
(lp6666
(lp6667
I6392
aS'8'
aS'302'
p6668
aasS'3RJQ'
p6669
(lp6670
(lp6671
I1068
aS'45'
p6672
aS'117'
p6673
aa(lp6674
I1068
aS'208'
p6675
aS'491'
p6676
aa(lp6677
I2388
aS'11'
p6678
aS'111'
p6679
aasS'3U2S'
p6680
(lp6681
(lp6682
I1068
aS'153'
p6683
aS'208'
p6684
aa(lp6685
I1690
aS'126'
p6686
aS'206'
p6687
aa(lp6688
I1690
aS'120'
p6689
aS'201'
p6690
aa(lp6691
I2388
aS'12'
p6692
aS'100B'
p6693
aa(lp6694
I2388
aS'5'
aS'106A'
p6695
aa(lp6696
I4438
aS'199'
p6697
aS'239'
p6698
aasS'3KV2'
p6699
(lp6700
(lp6701
I6392
aS'7'
aS'300'
p6702
aasS'4QUO'
p6703
(lp6704
(lp6705
I3130
aS'454'
p6706
aS'824'
p6707
aa(lp6708
I4916
aS'102'
p6709
aS'380'
p6710
aasS'5DLL'
p6711
(lp6712
(lp6713
I3130
aS'468'
p6714
aS'821'
p6715
aa(lp6716
I4916
aS'35'
p6717
aS'393'
p6718
aasS'1I0H'
p6719
(lp6720
(lp6721
I4448
aS'1'
aS'88'
p6722
aa(lp6723
I4454
aS'95'
p6724
aS'200'
p6725
aasS'2GOJ'
p6726
(lp6727
(lp6728
I4448
aS'3'
aS'80'
p6729
aa(lp6730
I4454
aS'88'
p6731
aS'190'
p6732
aasS'3MFV'
p6733
(lp6734
(lp6735
I6392
aS'7'
aS'300'
p6736
aasS'3MFW'
p6737
(lp6738
(lp6739
I6392
aS'7'
aS'300'
p6740
aasS'2KBE'
p6741
(lp6742
(lp6743
I1722
aS'117'
p6744
aS'278'
p6745
aa(lp6746
I1722
aS'117'
p6747
aS'278'
p6748
aasS'1QVA'
p6749
(lp6750
(lp6751
I1722
aS'46'
p6752
aS'208'
p6753
aasS'3LY5'
p6754
(lp6755
(lp6756
I1722
aS'203'
p6757
aS'374'
p6758
aasS'3U9W'
p6759
(lp6760
(lp6761
I4916
aS'1018'
p6762
aS'1386'
p6763
aa(lp6764
I5288
aS'1464'
p6765
aS'1607'
p6766
aasS'2XQ0'
p6767
(lp6768
(lp6769
I4916
aS'65'
p6770
aS'432'
p6771
aa(lp6772
I5288
aS'509'
p6773
aS'669'
p6774
aasS'1I08'
p6775
(lp6776
(lp6777
I4448
aS'1'
aS'88'
p6778
aa(lp6779
I4454
aS'95'
p6780
aS'200'
p6781
aasS'4R0M'
p6782
(lp6783
(lp6784
I361
aS'577'
p6785
aS'640'
p6786
aa(lp6787
I6140
aS'41'
p6788
aS'442'
p6789
aasS'3GZL'
p6790
(lp6791
(lp6792
I361
aS'9'
aS'75'
p6793
aasS'1HQH'
p6794
(lp6795
(lp6796
I6392
aS'8'
aS'302'
p6797
aasS'4RLA'
p6798
(lp6799
(lp6800
I6392
aS'8'
aS'302'
p6801
aasS'4RFO'
p6802
(lp6803
(lp6804
I1068
aS'44'
p6805
aS'123'
p6806
aa(lp6807
I1068
aS'202'
p6808
aS'492'
p6809
aa(lp6810
I1690
aS'126'
p6811
aS'206'
p6812
aa(lp6813
I1690
aS'120'
p6814
aS'201'
p6815
aa(lp6816
I2388
aS'11'
p6817
aS'111'
p6818
aa(lp6819
I2388
aS'5'
aS'106A'
p6820
aasS'4PVB'
p6821
(lp6822
(lp6823
I3130
aS'454'
p6824
aS'824'
p6825
aa(lp6826
I4916
aS'102'
p6827
aS'380'
p6828
aasS'3FH5'
p6829
(lp6830
(lp6831
I4916
aS'18'
p6832
aS'386'
p6833
aa(lp6834
I5288
aS'464'
p6835
aS'607'
p6836
aasS'3FMP'
p6837
(lp6838
(lp6839
I1722
aS'117'
p6840
aS'281'
p6841
aasS'4IE2'
p6842
(lp6843
(lp6844
I6392
aS'25'
p6845
aS'321'
p6846
aasS'4IE3'
p6847
(lp6848
(lp6849
I6392
aS'25'
p6850
aS'321'
p6851
aasS'4IE1'
p6852
(lp6853
(lp6854
I6392
aS'7'
aS'300'
p6855
aasS'1YYM'
p6856
(lp6857
(lp6858
I1068
aS'83'
p6859
aS'128'
p6860
aa(lp6861
I1068
aS'195'
p6862
aS'297'
p6863
aa(lp6864
I1068
aS'329'
p6865
aS'492'
p6866
aa(lp6867
I1690
aS'120'
p6868
aS'205'
p6869
aa(lp6870
I1690
aS'126'
p6871
aS'206'
p6872
aa(lp6873
I2388
aS'6'
aS'106'
p6874
aa(lp6875
I2388
aS'11'
p6876
aS'100C'
p6877
aasS'1YYL'
p6878
(lp6879
(lp6880
I1068
aS'83'
p6881
aS'128'
p6882
aa(lp6883
I1068
aS'195'
p6884
aS'297'
p6885
aa(lp6886
I1068
aS'329'
p6887
aS'492'
p6888
aa(lp6889
I1690
aS'120'
p6890
aS'205'
p6891
aa(lp6892
I1690
aS'126'
p6893
aS'206'
p6894
aa(lp6895
I2388
aS'6'
aS'106'
p6896
aa(lp6897
I2388
aS'11'
p6898
aS'100C'
p6899
aasS'4YET'
p6900
(lp6901
(lp6902
I4448
aS'3'
aS'81'
p6903
aa(lp6904
I4454
aS'89'
p6905
aS'191'
p6906
aasS'1AR5'
p6907
(lp6908
(lp6909
I4448
aS'3'
aS'83'
p6910
aa(lp6911
I4454
aS'92'
p6912
aS'192'
p6913
aasS'3SQW'
p6914
(lp6915
(lp6916
I1722
aS'130'
p6917
aS'315'
p6918
aa(lp6919
I3642
aS'360'
p6920
aS'471'
p6921
aasS'4QU4'
p6922
(lp6923
(lp6924
I1722
aS'152'
p6925
aS'299'
p6926
aa(lp6927
I3642
aS'405'
p6928
aS'548'
p6929
aa(lp6930
I5558
aS'602'
p6931
aS'872'
p6932
aa(lp6933
I5975
aS'899'
p6934
aS'1067'
p6935
aasS'3E6K'
p6936
(lp6937
(lp6938
I6392
aS'7'
aS'300'
p6939
aasS'1F7N'
p6940
(lp6941
(lp6942
I664
aS'8'
aS'117'
p6943
aasS'1F7O'
p6944
(lp6945
(lp6946
I664
aS'8'
aS'116'
p6947
aasS'1GKU'
p6948
(lp6949
(lp6950
I1722
aS'59'
p6951
aS'228'
p6952
aa(lp6953
I2156
aS'676'
p6954
aS'732'
p6955
aa(lp6956
I2156
aS'732'
p6957
aS'1042'
p6958
aa(lp6959
I4549
aS'508'
p6960
aS'661'
p6961
aasS'3LIO'
p6962
(lp6963
(lp6964
I4448
aS'2'
aS'81'
p6965
aa(lp6966
I4454
aS'88'
p6967
aS'189'
p6968
aasS'4V8M'
p6969
(lp6970
(lp6971
I62
aS'85'
p6972
aS'162'
p6973
aa(lp6974
I86
aS'2'
aS'68'
p6975
aa(lp6976
I125
aS'29'
p6977
aS'107'
p6978
aa(lp6979
I143
aS'54'
p6980
aS'150'
p6981
aa(lp6982
I143
aS'148'
p6983
aS'218'
p6984
aa(lp6985
I145
aS'10'
p6986
aS'61'
p6987
aa(lp6988
I147
aS'86'
p6989
aS'150'
p6990
aa(lp6991
I341
aS'12'
p6992
aS'107'
p6993
aa(lp6994
I472
aS'273'
p6995
aS'349'
p6996
aa(lp6997
I481
aS'4'
aS'145'
p6998
aa(lp6999
I512
aS'2'
aS'60'
p7000
aa(lp7001
I587
aS'4'
aS'97'
p7002
aa(lp7003
I625
aS'37'
p7004
aS'102'
p7005
aa(lp7006
I672
aS'2'
aS'203'
p7007
aa(lp7008
I905
aS'15'
p7009
aS'122'
p7010
aa(lp7011
I1127
aS'209'
p7012
aS'256'
p7013
aa(lp7014
I1484
aS'3'
aS'88'
p7015
aa(lp7016
I1732
aS'12'
p7017
aS'166'
p7018
aa(lp7019
I1733
aS'74'
p7020
aS'143'
p7021
aa(lp7022
I1735
aS'42'
p7023
aS'125'
p7024
aa(lp7025
I1787
aS'71'
p7026
aS'169'
p7027
aa(lp7028
I1801
aS'8'
aS'191'
p7029
aa(lp7030
I2021
aS'100'
p7031
aS'149'
p7032
aa(lp7033
I2074
aS'20'
p7034
aS'207'
p7035
aa(lp7036
I2075
aS'2'
aS'51'
p7037
aa(lp7038
I2266
aS'3'
aS'99'
p7039
aa(lp7040
I2417
aS'175'
p7041
aS'199'
p7042
aa(lp7043
I2417
aS'49'
p7044
aS'80'
p7045
aa(lp7046
I2417
aS'6'
aS'31'
p7047
aa(lp7048
I2446
aS'106'
p7049
aS'187'
p7050
aa(lp7051
I2502
aS'9'
aS'36'
p7052
aa(lp7053
I2772
aS'11'
p7054
aS'85'
p7055
aa(lp7056
I2772
aS'97'
p7057
aS'176'
p7058
aa(lp7059
I2835
aS'44'
p7060
aS'87'
p7061
aa(lp7062
I2835
aS'106'
p7063
aS'150'
p7064
aa(lp7065
I3026
aS'51'
p7066
aS'133'
p7067
aa(lp7068
I3055
aS'6'
aS'128'
p7069
aa(lp7070
I3071
aS'21'
p7071
aS'139'
p7072
aa(lp7073
I3282
aS'9'
aS'191'
p7074
aa(lp7075
I3544
aS'15'
p7076
aS'143'
p7077
aa(lp7078
I3545
aS'19'
p7079
aS'111'
p7080
aa(lp7081
I3548
aS'89'
p7082
aS'156'
p7083
aa(lp7084
I3549
aS'16'
p7085
aS'55'
p7086
aa(lp7087
I3550
aS'74'
p7088
aS'142'
p7089
aa(lp7090
I3651
aS'27'
p7091
aS'96'
p7092
aa(lp7093
I3767
aS'20'
p7094
aS'223'
p7095
aa(lp7096
I3809
aS'169'
p7097
aS'240'
p7098
aa(lp7099
I3813
aS'3'
aS'60'
p7100
aa(lp7101
I4161
aS'27'
p7102
aS'179'
p7103
aa(lp7104
I4162
aS'48'
p7105
aS'128'
p7106
aa(lp7107
I4162
aS'28'
p7108
aS'143'
p7109
aa(lp7110
I4222
aS'2'
aS'53'
p7111
aa(lp7112
I4304
aS'19'
p7113
aS'87'
p7114
aa(lp7115
I4410
aS'48'
p7116
aS'120'
p7117
aa(lp7118
I4667
aS'22'
p7119
aS'156'
p7120
aa(lp7121
I4691
aS'9'
aS'49'
p7122
aa(lp7123
I4935
aS'2'
aS'118'
p7124
aa(lp7125
I4980
aS'3'
aS'39'
p7126
aa(lp7127
I5041
aS'6'
aS'130'
p7128
aa(lp7129
I5042
aS'16'
p7130
aS'149'
p7131
aa(lp7132
I5050
aS'48'
p7133
aS'190'
p7134
aa(lp7135
I5273
aS'98'
p7136
aS'229'
p7137
aa(lp7138
I5516
aS'14'
p7139
aS'67'
p7140
aa(lp7141
I5517
aS'22'
p7142
aS'260'
p7143
aa(lp7144
I5519
aS'17'
p7145
aS'210'
p7146
aa(lp7147
I5520
aS'53'
p7148
aS'424'
p7149
aa(lp7150
I5521
aS'69'
p7151
aS'88'
p7152
aa(lp7153
I5532
aS'9'
aS'142'
p7154
aa(lp7155
I5683
aS'15'
p7156
aS'67'
p7157
aa(lp7158
I5807
aS'8'
aS'83'
p7159
aa(lp7160
I5992
aS'44'
p7161
aS'64'
p7162
aa(lp7163
I5993
aS'8'
aS'119'
p7164
aa(lp7165
I5996
aS'17'
p7166
aS'149'
p7167
aa(lp7168
I5997
aS'84'
p7169
aS'143'
p7170
aa(lp7171
I6062
aS'198'
p7172
aS'295'
p7173
aa(lp7174
I6236
aS'20'
p7175
aS'93'
p7176
aa(lp7177
I6345
aS'21'
p7178
aS'90'
p7179
aa(lp7180
I6388
aS'5'
aS'100'
p7181
aa(lp7182
I6403
aS'22'
p7183
aS'132'
p7184
aa(lp7185
I6412
aS'62'
p7186
aS'135'
p7187
aa(lp7188
I6453
aS'22'
p7189
aS'124'
p7190
aa(lp7191
I6484
aS'69'
p7192
aS'192'
p7193
aa(lp7194
I6625
aS'32'
p7195
aS'125'
p7196
aa(lp7197
I6625
aS'20'
p7198
aS'111'
p7199
aa(lp7200
I6625
aS'145'
p7201
aS'218'
p7202
aa(lp7203
I6680
aS'92'
p7204
aS'166'
p7205
aa(lp7206
I6703
aS'1'
aS'69'
p7207
aa(lp7208
I6753
aS'38'
p7209
aS'142'
p7210
aa(lp7211
I6925
aS'1'
aS'129'
p7212
aa(lp7213
I7161
aS'27'
p7214
aS'110'
p7215
aa(lp7216
I7213
aS'9'
aS'43'
p7217
aa(lp7218
I7213
aS'62'
p7219
aS'95'
p7220
aa(lp7221
I7213
aS'99'
p7222
aS'137'
p7223
aa(lp7224
I7213
aS'140'
p7225
aS'182'
p7226
aa(lp7227
I7213
aS'187'
p7228
aS'224'
p7229
aa(lp7230
I7223
aS'7'
aS'113'
p7231
aa(lp7232
I7397
aS'29'
p7233
aS'82'
p7234
aa(lp7235
I7432
aS'2'
aS'102'
p7236
aa(lp7237
I7504
aS'101'
p7238
aS'149'
p7239
aasS'1EN5'
p7240
(lp7241
(lp7242
I4448
aS'1'
aS'88'
p7243
aa(lp7244
I4454
aS'95'
p7245
aS'200'
p7246
aasS'3TJT'
p7247
(lp7248
(lp7249
I4448
aS'31'
p7250
aS'118'
p7251
aa(lp7252
I4454
aS'125'
p7253
aS'223'
p7254
aasS'2OKD'
p7255
(lp7256
(lp7257
I664
aS'19'
p7258
aS'132'
p7259
aasS'4AOO'
p7260
(lp7261
(lp7262
I664
aS'27'
p7263
aS'141'
p7264
aasS'1T4T'
p7265
(lp7266
(lp7267
I6392
aS'8'
aS'302'
p7268
aasS'1Z5H'
p7269
(lp7270
(lp7271
I662
aS'473'
p7272
aS'718'
p7273
aa(lp7274
I4916
aS'3'
aS'354'
p7275
aasS'3OT7'
p7276
(lp7277
(lp7278
I4448
aS'1'
aS'88'
p7279
aa(lp7280
I4454
aS'95'
p7281
aS'200'
p7282
aasS'2XGJ'
p7283
(lp7284
(lp7285
I1722
aS'152'
p7286
aS'299'
p7287
aa(lp7288
I1722
aS'152'
p7289
aS'299'
p7290
aa(lp7291
I3642
aS'405'
p7292
aS'548'
p7293
aa(lp7294
I3642
aS'405'
p7295
aS'548'
p7296
aa(lp7297
I5558
aS'602'
p7298
aS'872'
p7299
aa(lp7300
I5558
aS'602'
p7301
aS'872'
p7302
aa(lp7303
I5975
aS'899'
p7304
aS'1067'
p7305
aa(lp7306
I5975
aS'899'
p7307
aS'1067'
p7308
aasS'1LUV'
p7309
(lp7310
(lp7311
I4448
aS'1'
aS'82'
p7312
aa(lp7313
I4454
aS'89'
p7314
aS'192'
p7315
aasS'1LUW'
p7316
(lp7317
(lp7318
I4448
aS'1'
aS'82'
p7319
aa(lp7320
I4454
aS'89'
p7321
aS'192'
p7322
aasS'2PLL'
p7323
(lp7324
(lp7325
I6392
aS'7'
aS'300'
p7326
aasS'4AOZ'
p7327
(lp7328
(lp7329
I664
aS'27'
p7330
aS'131'
p7331
aasS'1XRE'
p7332
(lp7333
(lp7334
I4448
aS'3'
aS'91'
p7335
aa(lp7336
I4454
aS'98'
p7337
aS'197'
p7338
aasS'4LAJ'
p7339
(lp7340
(lp7341
I1068
aS'44'
p7342
aS'123'
p7343
aa(lp7344
I1068
aS'198'
p7345
aS'492'
p7346
aa(lp7347
I2388
aS'12'
p7348
aS'122'
p7349
aasS'1ZPE'
p7350
(lp7351
(lp7352
I6392
aS'8'
aS'302'
p7353
aasS'1ZPG'
p7354
(lp7355
(lp7356
I6392
aS'8'
aS'302'
p7357
aasS'4DVX'
p7358
(lp7359
(lp7360
I1068
aS'44'
p7361
aS'123'
p7362
aa(lp7363
I1068
aS'198'
p7364
aS'492'
p7365
aasS'1AR4'
p7366
(lp7367
(lp7368
I4448
aS'3'
aS'83'
p7369
aa(lp7370
I4454
aS'92'
p7371
aS'192'
p7372
aasS'3J5M'
p7373
(lp7374
(lp7375
I1068
aS'44'
p7376
aS'140'
p7377
aa(lp7378
I1068
aS'145'
p7379
aS'492'
p7380
aa(lp7381
I1690
aS'120'
p7382
aS'205'
p7383
aa(lp7384
I1690
aS'126'
p7385
aS'206'
p7386
aa(lp7387
I2388
aS'6'
aS'106'
p7388
aa(lp7389
I2388
aS'10'
p7390
aS'100'
p7391
aasS'3TPN'
p7392
(lp7393
(lp7394
I664
aS'30'
p7395
aS'137'
p7396
aasS'4DVV'
p7397
(lp7398
(lp7399
I1068
aS'44'
p7400
aS'123'
p7401
aa(lp7402
I1068
aS'198'
p7403
aS'492'
p7404
aasS'4TZ0'
p7405
(lp7406
(lp7407
I1722
aS'130'
p7408
aS'315'
p7409
aa(lp7410
I3642
aS'360'
p7411
aS'471'
p7412
aasS'4TZ6'
p7413
(lp7414
(lp7415
I1722
aS'130'
p7416
aS'315'
p7417
aa(lp7418
I3642
aS'360'
p7419
aS'471'
p7420
aasS'2I60'
p7421
(lp7422
(lp7423
I1068
aS'83'
p7424
aS'128'
p7425
aa(lp7426
I1068
aS'195'
p7427
aS'297'
p7428
aa(lp7429
I1068
aS'329'
p7430
aS'492'
p7431
aa(lp7432
I1690
aS'120'
p7433
aS'205'
p7434
aa(lp7435
I1690
aS'126'
p7436
aS'206'
p7437
aa(lp7438
I2388
aS'6'
aS'106'
p7439
aa(lp7440
I2388
aS'11'
p7441
aS'100C'
p7442
aasS'3TPW'
p7443
(lp7444
(lp7445
I664
aS'30'
p7446
aS'137'
p7447
aasS'4DVW'
p7448
(lp7449
(lp7450
I1068
aS'44'
p7451
aS'123'
p7452
aa(lp7453
I1068
aS'198'
p7454
aS'492'
p7455
aasS'3TPY'
p7456
(lp7457
(lp7458
I664
aS'30'
p7459
aS'136'
p7460
aasS'3K9S'
p7461
(lp7462
(lp7463
I4448
aS'1'
aS'88'
p7464
aa(lp7465
I4454
aS'95'
p7466
aS'200'
p7467
aasS'4DVT'
p7468
(lp7469
(lp7470
I1068
aS'44'
p7471
aS'123'
p7472
aa(lp7473
I1068
aS'198'
p7474
aS'492'
p7475
aasS'2OXC'
p7476
(lp7477
(lp7478
I1722
aS'87'
p7479
aS'248'
p7480
aasS'1PM9'
p7481
(lp7482
(lp7483
I4448
aS'1'
aS'82'
p7484
aa(lp7485
I4448
aS'1'
aS'82'
p7486
aa(lp7487
I4454
aS'89'
p7488
aS'192'
p7489
aa(lp7490
I4454
aS'89'
p7491
aS'192'
p7492
aasS'2AEB'
p7493
(lp7494
(lp7495
I6392
aS'7'
aS'300'
p7496
aasS'4CDG'
p7497
(lp7498
(lp7499
I370
aS'1072'
p7500
aS'1195'
p7501
aa(lp7502
I1722
aS'671'
p7503
aS'838'
p7504
aa(lp7505
I2388
aS'33'
p7506
aS'139'
p7507
aa(lp7508
I3642
aS'883'
p7509
aS'984'
p7510
aa(lp7511
I4078
aS'995'
p7512
aS'1067'
p7513
aa(lp7514
I7192
aS'1217'
p7515
aS'1281'
p7516
aasS'2LOL'
p7517
(lp7518
(lp7519
I361
aS'9'
aS'76'
p7520
aasS'1CEV'
p7521
(lp7522
(lp7523
I6392
aS'3'
aS'294'
p7524
aasS'3TP1'
p7525
(lp7526
(lp7527
I664
aS'30'
p7528
aS'137'
p7529
aasS'4AO5'
p7530
(lp7531
(lp7532
I664
aS'25'
p7533
aS'128'
p7534
aasS'1MA1'
p7535
(lp7536
(lp7537
I4448
aS'8'
aS'87'
p7538
aa(lp7539
I4454
aS'97'
p7540
aS'199'
p7541
aasS'3I5X'
p7542
(lp7543
(lp7544
I1722
aS'130'
p7545
aS'315'
p7546
aa(lp7547
I3642
aS'360'
p7548
aS'471'
p7549
aasS'4IZ6'
p7550
(lp7551
(lp7552
I361
aS'547'
p7553
aS'606'
p7554
aa(lp7555
I1283
aS'446'
p7556
aS'520'
p7557
aa(lp7558
I6140
aS'37'
p7559
aS'437'
p7560
aasS'4DPR'
p7561
(lp7562
(lp7563
I4916
aS'18'
p7564
aS'386'
p7565
aa(lp7566
I5288
aS'464'
p7567
aS'607'
p7568
aasS'4PW4'
p7569
(lp7570
(lp7571
I3130
aS'454'
p7572
aS'824'
p7573
aa(lp7574
I4916
aS'102'
p7575
aS'380'
p7576
aasS'3MDJ'
p7577
(lp7578
(lp7579
I662
aS'597'
p7580
aS'915'
p7581
aa(lp7582
I4916
aS'53'
p7583
aS'441'
p7584
aasS'2L4B'
p7585
(lp7586
(lp7587
I361
aS'17'
p7588
aS'81'
p7589
aasS'2PL3'
p7590
(lp7591
(lp7592
I1722
aS'93'
p7593
aS'263'
p7594
aasS'3LP4'
p7595
(lp7596
(lp7597
I6392
aS'7'
aS'300'
p7598
aasS'3SDP'
p7599
(lp7600
(lp7601
I4448
aS'5'
aS'82'
p7602
aa(lp7603
I4454
aS'89'
p7604
aS'188'
p7605
aasS'2GXQ'
p7606
(lp7607
(lp7608
I1722
aS'25'
p7609
aS'191'
p7610
aasS'1N0J'
p7611
(lp7612
(lp7613
I4448
aS'1'
aS'82'
p7614
aa(lp7615
I4454
aS'89'
p7616
aS'192'
p7617
aasS'4LHR'
p7618
(lp7619
(lp7620
I664
aS'16'
p7621
aS'132'
p7622
aasS'3LSU'
p7623
(lp7624
(lp7625
I4448
aS'3'
aS'89'
p7626
aa(lp7627
I4454
aS'99'
p7628
aS'201'
p7629
aas.