(dp1
S'2PB4'
p2
(lp3
(lp4
I1
aI1
aI261
aasS'2PB5'
p5
(lp6
(lp7
I1
aI1
aI261
aasS'2PB6'
p8
(lp9
(lp10
I1
aI1
aI261
aasS'4YOG'
p11
(lp12
(lp13
I2
aI1357
aI7114
aa(lp14
I3
aI1
aI4429
aasS'4M4X'
p15
(lp16
(lp17
I4
aI27
aI386
aasS'4YOI'
p18
(lp19
(lp20
I2
aI1357
aI7114
aa(lp21
I3
aI1
aI4429
aasS'4YOJ'
p22
(lp23
(lp24
I2
aI1357
aI7114
aa(lp25
I3
aI1
aI4429
aasS'3E29'
p26
(lp27
(lp28
I5
aI6
aI133
aasS'2OG1'
p29
(lp30
(lp31
I6
aI20
aI284
aasS'4FSA'
p32
(lp33
(lp34
I7
aI14
aI380
aasS'4GCO'
p35
(lp36
(lp37
I8
aI1
aI320
aasS'2QBU'
p38
(lp39
(lp40
I9
aI2
aI179
aasS'2NQZ'
p41
(lp42
(lp43
I7
aI14
aI380
aasS'2DEK'
p44
(lp45
(lp46
I1
aI1
aI261
aasS'2F0X'
p47
(lp48
(lp49
I5
aI3
aI133
aasS'4QD7'
p50
(lp51
(lp52
I5
aI8
aI140
aasS'1NWZ'
p53
(lp54
(lp55
I10
aI8
aI124
aasS'2OWU'
p56
(lp57
(lp58
I1
aI1
aI261
aasS'3TEA'
p59
(lp60
(lp61
I5
aI14
aI151
aasS'2Q7F'
p62
(lp63
(lp64
I8
aI1
aI203
aasS'2OWV'
p65
(lp66
(lp67
I1
aI1
aI261
aasS'3IEG'
p68
(lp69
(lp70
I8
aI27
aI394
aasS'4Q4Q'
p71
(lp72
(lp73
I7
aI14
aI380
aasS'4Q4P'
p74
(lp75
(lp76
I7
aI14
aI380
aasS'4Q4S'
p77
(lp78
(lp79
I7
aI14
aI380
aasS'4Q4R'
p80
(lp81
(lp82
I7
aI14
aI380
aasS'4Q4M'
p83
(lp84
(lp85
I7
aI14
aI380
aasS'1OT6'
p86
(lp87
(lp88
I10
aI8
aI124
aasS'2ELE'
p89
(lp90
(lp91
I1
aI1
aI261
aasS'3BWX'
p92
(lp93
(lp94
I6
aI16
aI283
aasS'1SBK'
p95
(lp96
(lp97
I5
aI13
aI136
aasS'3HDU'
p98
(lp99
(lp100
I5
aI12
aI156
aasS'2ELD'
p101
(lp102
(lp103
I1
aI1
aI261
aasS'1OT9'
p104
(lp105
(lp106
I10
aI8
aI124
aasS'1OTD'
p107
(lp108
(lp109
I10
aI8
aI124
aasS'1OTE'
p110
(lp111
(lp112
I10
aI8
aI124
aasS'1OTA'
p113
(lp114
(lp115
I10
aI8
aI124
aasS'1OTB'
p116
(lp117
(lp118
I10
aI8
aI124
aasS'3W05'
p119
(lp120
(lp121
I6
aI45
aI318
aasS'1OTI'
p122
(lp123
(lp124
I10
aI8
aI124
aasS'1C4X'
p125
(lp126
(lp127
I6
aI8
aI284
aasS'1IHG'
p128
(lp129
(lp130
I8
aI192
aI370
aasS'2XPI'
p131
(lp132
(lp133
I8
aI289
aI643
aasS'1D7E'
p134
(lp135
(lp136
I10
aI8
aI124
aasS'4BBT'
p137
(lp138
(lp139
I10
aI8
aI124
aasS'4BBU'
p140
(lp141
(lp142
I10
aI8
aI124
aasS'4BBV'
p143
(lp144
(lp145
I10
aI8
aI124
aasS'3UME'
p146
(lp147
(lp148
I10
aI8
aI124
aasS'4B9O'
p149
(lp150
(lp151
I10
aI8
aI124
aasS'4MYS'
p152
(lp153
(lp154
I6
aI13
aI251
aasS'1P0E'
p155
(lp156
(lp157
I7
aI14
aI380
aasS'3TNT'
p158
(lp159
(lp160
I11
aI1
aI306
aasS'3TNS'
p161
(lp162
(lp163
I11
aI1
aI306
aasS'1P0B'
p164
(lp165
(lp166
I7
aI14
aI380
aasS'1SC0'
p167
(lp168
(lp169
I5
aI10
aI138
aasS'2Z7K'
p170
(lp171
(lp172
I7
aI14
aI380
aasS'4E2V'
p173
(lp174
(lp175
I7
aI14
aI380
aasS'4GAH'
p176
(lp177
(lp178
I12
aI142
aI231
aa(lp179
I5
aI56
aI208
aasS'4YO9'
p180
(lp181
(lp182
I2
aI1357
aI7114
aa(lp183
I3
aI1
aI4429
aasS'4MYD'
p184
(lp185
(lp186
I6
aI13
aI251
aasS'4KBQ'
p187
(lp188
(lp189
I8
aI3
aI187
aasS'2Y6U'
p190
(lp191
(lp192
I6
aI46
aI177
aasS'1WPR'
p193
(lp194
(lp195
I6
aI7
aI267
aasS'4JYP'
p196
(lp197
(lp198
I6
aI9
aI266
aasS'4LEQ'
p199
(lp200
(lp201
I7
aI14
aI380
aasS'1PXG'
p202
(lp203
(lp204
I7
aI13
aI379
aasS'2CY9'
p205
(lp206
(lp207
I5
aI20
aI131
aasS'4IH1'
p208
(lp209
(lp210
I6
aI9
aI266
aasS'2E0N'
p211
(lp212
(lp213
I9
aI1
aI232
aasS'4IOF'
p214
(lp215
(lp216
I13
aI50
aI944
aasS'2Y6V'
p217
(lp218
(lp219
I6
aI46
aI177
aasS'2E0K'
p220
(lp221
(lp222
I9
aI1
aI232
aasS'4IH4'
p223
(lp224
(lp225
I6
aI2
aI267
aasS'2QWZ'
p226
(lp227
(lp228
I5
aI37
aI159
aasS'1WDE'
p229
(lp230
(lp231
I1
aI8
aI271
aasS'2GJ3'
p232
(lp233
(lp234
I14
aI401
aI517
aa(lp235
I15
aI119
aI514
aasS'1WA9'
p236
(lp237
(lp238
I4
aI230
aI501
aasS'3UEG'
p239
(lp240
(lp241
I16
aI5
aI97
aasS'1IQ8'
p242
(lp243
(lp244
I7
aI8
aI337
aasS'3UED'
p245
(lp246
(lp247
I16
aI5
aI97
aasS'3UEC'
p248
(lp249
(lp250
I16
aI5
aI97
aasS'3M1D'
p251
(lp252
(lp253
I17
aI538
aI618
aa(lp254
I16
aI17
aI445
aasS'4EC4'
p255
(lp256
(lp257
I18
aI256
aI497
aa(lp258
I16
aI16
aI434
aasS'1IT8'
p259
(lp260
(lp261
I7
aI8
aI337
aasS'4K49'
p262
(lp263
(lp264
I5
aI13
aI136
aasS'3MUP'
p265
(lp266
(lp267
I17
aI538
aI618
aa(lp268
I16
aI17
aI445
aasS'4MOB'
p269
(lp270
(lp271
I5
aI2
aI337
aasS'3F5O'
p272
(lp273
(lp274
I5
aI3
aI133
aasS'2VF2'
p275
(lp276
(lp277
I6
aI1
aI290
aasS'2KCL'
p278
(lp279
(lp280
I8
aI2
aI69
aasS'4GS8'
p281
(lp282
(lp283
I13
aI50
aI944
aasS'4KYO'
p284
(lp285
(lp286
I8
aI269
aI637
aasS'4GSC'
p287
(lp288
(lp289
I13
aI50
aI944
aasS'3EA9'
p290
(lp291
(lp292
I3
aI1
aI4378
aasS'3EA8'
p293
(lp294
(lp295
I3
aI1
aI4378
aasS'4GSF'
p296
(lp297
(lp298
I13
aI50
aI944
aasS'2EJZ'
p299
(lp300
(lp301
I1
aI1
aI261
aasS'1S4R'
p302
(lp303
(lp304
I10
aI8
aI124
aasS'1S4S'
p305
(lp306
(lp307
I10
aI8
aI124
aasS'3EA7'
p308
(lp309
(lp310
I11
aI1
aI306
aasS'1EFZ'
p311
(lp312
(lp313
I7
aI14
aI380
aasS'4K4D'
p314
(lp315
(lp316
I5
aI17
aI135
aasS'4K4C'
p317
(lp318
(lp319
I5
aI17
aI135
aasS'4K4B'
p320
(lp321
(lp322
I5
aI13
aI136
aasS'2EJK'
p323
(lp324
(lp325
I1
aI1
aI261
aasS'2EJJ'
p326
(lp327
(lp328
I1
aI1
aI261
aasS'4L3T'
p329
(lp330
(lp331
I19
aI64
aI997
aasS'3CLX'
p332
(lp333
(lp334
I18
aI256
aI497
aa(lp335
I16
aI16
aI434
aasS'2FBN'
p336
(lp337
(lp338
I20
aI2
aI159
aa(lp339
I8
aI6
aI292
aasS'4IHA'
p340
(lp341
(lp342
I6
aI45
aI318
aasS'2DSI'
p343
(lp344
(lp345
I1
aI1
aI261
aasS'2DSH'
p346
(lp347
(lp348
I1
aI1
aI261
aasS'2E08'
p349
(lp350
(lp351
I1
aI1
aI261
aasS'2E07'
p352
(lp353
(lp354
I1
aI1
aI261
aasS'2P2X'
p355
(lp356
(lp357
I1
aI1
aI261
aasS'2DSG'
p358
(lp359
(lp360
I1
aI1
aI261
aasS'2JK7'
p361
(lp362
(lp363
I18
aI256
aI497
aa(lp364
I16
aI16
aI434
aasS'2CYE'
p365
(lp366
(lp367
I21
aI8
aI132
aasS'4PES'
p368
(lp369
(lp370
I13
aI50
aI944
aasS'3C2Y'
p371
(lp372
(lp373
I7
aI14
aI380
aasS'5AEM'
p374
(lp375
(lp376
I8
aI140
aI274
aa(lp377
I8
aI464
aI551
aasS'2Z3C'
p378
(lp379
(lp380
I3
aI1
aI4378
aasS'2Z3E'
p381
(lp382
(lp383
I11
aI1
aI306
aasS'2Z3D'
p384
(lp385
(lp386
I3
aI1
aI4378
aasS'3S5M'
p387
(lp388
(lp389
I19
aI70
aI1157
aasS'3S5I'
p390
(lp391
(lp392
I19
aI70
aI1157
aasS'3S5H'
p393
(lp394
(lp395
I19
aI70
aI1157
aasS'3S5K'
p396
(lp397
(lp398
I19
aI70
aI1157
aasS'4F49'
p399
(lp400
(lp401
I11
aI7
aI310
aasS'2KCV'
p402
(lp403
(lp404
I8
aI2
aI69
aasS'2DBA'
p405
(lp406
(lp407
I8
aI1
aI207
aasS'2GW1'
p408
(lp409
(lp410
I8
aI61
aI574
aasS'3ESK'
p411
(lp412
(lp413
I8
aI1
aI543
aasS'4J8D'
p414
(lp415
(lp416
I8
aI44
aI362
aasS'3BJK'
p417
(lp418
(lp419
I5
aI12
aI152
aasS'1PSU'
p420
(lp421
(lp422
I5
aI7
aI134
aasS'4OXC'
p423
(lp424
(lp425
I18
aI256
aI497
aa(lp426
I16
aI16
aI434
aasS'4MTZ'
p427
(lp428
(lp429
I18
aI256
aI497
aa(lp430
I16
aI16
aI434
aasS'2EGR'
p431
(lp432
(lp433
I21
aI3
aI126
aasS'3E91'
p434
(lp435
(lp436
I11
aI1
aI306
aasS'2YNB'
p437
(lp438
(lp439
I3
aI1
aI4434
aasS'2GX4'
p440
(lp441
(lp442
I3
aI1
aI4378
aasS'2EGL'
p443
(lp444
(lp445
I1
aI1
aI261
aasS'2EGJ'
p446
(lp447
(lp448
I21
aI3
aI126
aasS'3KWP'
p449
(lp450
(lp451
I9
aI3
aI236
aasS'4MTI'
p452
(lp453
(lp454
I17
aI538
aI618
aa(lp455
I16
aI17
aI445
aasS'4G8D'
p456
(lp457
(lp458
I6
aI8
aI274
aasS'3IWM'
p459
(lp460
(lp461
I3
aI1
aI4378
aasS'3B7K'
p462
(lp463
(lp464
I5
aI2
aI337
aasS'3M0A'
p465
(lp466
(lp467
I17
aI483
aI604
aa(lp468
I16
aI1
aI440
aasS'3DKZ'
p469
(lp470
(lp471
I5
aI40
aI165
aasS'4J3Y'
p472
(lp473
(lp474
I18
aI256
aI497
aa(lp475
I16
aI16
aI434
aasS'3D9T'
p476
(lp477
(lp478
I22
aI150
aI413
aasS'3V1K'
p479
(lp480
(lp481
I6
aI10
aI284
aasS'3V1L'
p482
(lp483
(lp484
I6
aI20
aI284
aasS'3V1M'
p485
(lp486
(lp487
I6
aI20
aI284
aasS'3V1N'
p488
(lp489
(lp490
I6
aI10
aI284
aasS'4I3F'
p491
(lp492
(lp493
I6
aI14
aI302
aasS'3RR4'
p494
(lp495
(lp496
I7
aI14
aI380
aasS'2LSU'
p497
(lp498
(lp499
I8
aI1
aI76
aasS'3SPS'
p500
(lp501
(lp502
I5
aI1
aI167
aasS'3LCA'
p503
(lp504
(lp505
I8
aI51
aI618
aasS'4RG7'
p506
(lp507
(lp508
I8
aI482
aI815
aasS'4I3I'
p509
(lp510
(lp511
I10
aI8
aI124
aasS'2F41'
p512
(lp513
(lp514
I5
aI104
aI183
aasS'4GEC'
p515
(lp516
(lp517
I6
aI13
aI251
aasS'2K7X'
p518
(lp519
(lp520
I23
aI1
aI120
aasS'4I3J'
p521
(lp522
(lp523
I10
aI8
aI124
aasS'4GEG'
p524
(lp525
(lp526
I6
aI13
aI251
aasS'3AMJ'
p527
(lp528
(lp529
I24
aI7
aI410
aasS'3AMI'
p530
(lp531
(lp532
I25
aI263
aI434
aa(lp533
I24
aI3
aI416
aasS'3SZN'
p534
(lp535
(lp536
I11
aI1
aI306
aasS'4ORD'
p537
(lp538
(lp539
I5
aI9
aI141
aasS'1S1Z'
p540
(lp541
(lp542
I10
aI8
aI124
aasS'1S1Y'
p543
(lp544
(lp545
I10
aI8
aI124
aasS'2KAT'
p546
(lp547
(lp548
I8
aI23
aI102
aasS'2EN5'
p549
(lp550
(lp551
I1
aI1
aI261
aasS'4HQV'
p552
(lp553
(lp554
I7
aI14
aI380
aasS'4CGQ'
p555
(lp556
(lp557
I8
aI1
aI76
aasS'4CGV'
p558
(lp559
(lp560
I8
aI60
aI442
aasS'4CGW'
p561
(lp562
(lp563
I8
aI60
aI442
aasS'2B6E'
p564
(lp565
(lp566
I5
aI10
aI138
aasS'2VM5'
p567
(lp568
(lp569
I16
aI2
aI397
aasS'2VYI'
p570
(lp571
(lp572
I8
aI19
aI265
aasS'2H2Z'
p573
(lp574
(lp575
I3
aI1
aI4378
aasS'3UW5'
p576
(lp577
(lp578
I18
aI79
aI298
aa(lp579
I16
aI2
aI201
aasS'3UW4'
p580
(lp581
(lp582
I18
aI256
aI497
aa(lp583
I16
aI16
aI434
aasS'2O5U'
p584
(lp585
(lp586
I21
aI19
aI145
aasS'2E4N'
p587
(lp588
(lp589
I1
aI1
aI261
aasS'1VI8'
p590
(lp591
(lp592
I5
aI13
aI136
aasS'2E4R'
p593
(lp594
(lp595
I1
aI1
aI261
aasS'1HR9'
p596
(lp597
(lp598
I24
aI26
aI426
aasS'1HR8'
p599
(lp600
(lp601
I24
aI26
aI426
aasS'3VTY'
p602
(lp603
(lp604
I8
aI1
aI184
aasS'3E3A'
p605
(lp606
(lp607
I6
aI30
aI293
aasS'1HR7'
p608
(lp609
(lp610
I24
aI26
aI426
aasS'1HR6'
p611
(lp612
(lp613
I24
aI26
aI426
aasS'1Q4S'
p614
(lp615
(lp616
I5
aI14
aI151
aasS'1Q4Q'
p617
(lp618
(lp619
I18
aI217
aI438
aa(lp620
I16
aI19
aI323
aasS'1Q4W'
p621
(lp622
(lp623
I7
aI14
aI380
aasS'1Q4T'
p624
(lp625
(lp626
I5
aI14
aI151
aasS'1Q4U'
p627
(lp628
(lp629
I5
aI14
aI151
aasS'2AMP'
p630
(lp631
(lp632
I3
aI1
aI4017
aasS'2AMQ'
p633
(lp634
(lp635
I3
aI1
aI4378
aasS'3NEI'
p636
(lp637
(lp638
I9
aI1
aI232
aasS'2OIW'
p639
(lp640
(lp641
I21
aI9
aI134
aasS'2AMD'
p642
(lp643
(lp644
I3
aI1
aI4378
aasS'3I4T'
p645
(lp646
(lp647
I1
aI22
aI273
aasS'2KX6'
p648
(lp649
(lp650
I10
aI8
aI124
aasS'4I45'
p651
(lp652
(lp653
I21
aI11
aI133
aasS'2ENI'
p654
(lp655
(lp656
I1
aI1
aI261
aasS'1ELW'
p657
(lp658
(lp659
I8
aI1
aI543
aasS'3NWZ'
p660
(lp661
(lp662
I5
aI2
aI170
aasS'4K02'
p663
(lp664
(lp665
I5
aI16
aI145
aasS'4KWO'
p666
(lp667
(lp668
I7
aI14
aI380
aasS'3SZ7'
p669
(lp670
(lp671
I8
aI3
aI137
aasS'1QBH'
p672
(lp673
(lp674
I17
aI538
aI618
aa(lp675
I16
aI17
aI445
aasS'1IIP'
p676
(lp677
(lp678
I8
aI192
aI370
aasS'4K00'
p679
(lp680
(lp681
I21
aI4
aI133
aasS'3AVZ'
p682
(lp683
(lp684
I3
aI1
aI4378
aasS'4DLN'
p685
(lp686
(lp687
I6
aI3
aI293
aasS'4AE8'
p688
(lp689
(lp690
I12
aI142
aI231
aa(lp691
I5
aI56
aI208
aasS'2E2E'
p692
(lp693
(lp694
I8
aI47
aI194
aasS'4EUS'
p695
(lp696
(lp697
I6
aI3
aI293
aasS'3S1G'
p698
(lp699
(lp700
I7
aI14
aI380
aasS'2FI7'
p701
(lp702
(lp703
I26
aI1
aI40
aa(lp704
I8
aI37
aI259
aasS'4GIY'
p705
(lp706
(lp707
I7
aI14
aI380
aasS'4A0Y'
p708
(lp709
(lp710
I5
aI107
aI185
aasS'4A0X'
p711
(lp712
(lp713
I5
aI107
aI185
aasS'2VJ1'
p714
(lp715
(lp716
I2
aI1381
aI7072
aa(lp717
I3
aI1
aI4383
aasS'2OP9'
p718
(lp719
(lp720
I3
aI1
aI4378
aasS'4LTE'
p721
(lp722
(lp723
I13
aI50
aI944
aasS'1LT0'
p724
(lp725
(lp726
I15
aI111
aI505
aasS'2PCG'
p727
(lp728
(lp729
I1
aI1
aI261
aasS'3D3Y'
p730
(lp731
(lp732
I24
aI172
aI410
aasS'4PSU'
p733
(lp734
(lp735
I6
aI8
aI293
aasS'4ZP4'
p736
(lp737
(lp738
I4
aI84
aI464
aasS'1Y28'
p739
(lp740
(lp741
I15
aI111
aI505
aasS'2PCM'
p742
(lp743
(lp744
I1
aI1
aI261
aasS'2PCK'
p745
(lp746
(lp747
I1
aI1
aI261
aasS'2PCI'
p748
(lp749
(lp750
I1
aI1
aI261
aasS'2PCH'
p751
(lp752
(lp753
I1
aI1
aI261
aasS'4RPC'
p754
(lp755
(lp756
I6
aI7
aI133
aasS'2AV9'
p757
(lp758
(lp759
I21
aI18
aI144
aasS'4LBU'
p760
(lp761
(lp762
I7
aI14
aI380
aasS'4I5S'
p763
(lp764
(lp765
I15
aI89
aI437
aasS'4ZPH'
p766
(lp767
(lp768
I4
aI84
aI464
aasS'3VTX'
p769
(lp770
(lp771
I8
aI1
aI184
aasS'2OPY'
p772
(lp773
(lp774
I18
aI256
aI497
aa(lp775
I16
aI16
aI434
aasS'2OPZ'
p776
(lp777
(lp778
I18
aI256
aI497
aa(lp779
I16
aI16
aI434
aasS'4ZPR'
p780
(lp781
(lp782
I4
aI4
aI335
aasS'1VPM'
p783
(lp784
(lp785
I5
aI2
aI167
aasS'3FQ6'
p786
(lp787
(lp788
I9
aI3
aI112
aasS'2Y4U'
p789
(lp790
(lp791
I8
aI27
aI394
aasS'2Y4T'
p792
(lp793
(lp794
I8
aI27
aI394
aasS'3C5W'
p795
(lp796
(lp797
I27
aI5
aI293
aasS'3C5V'
p798
(lp799
(lp800
I6
aI61
aI228
aasS'2HR8'
p801
(lp802
(lp803
I1
aI1
aI261
aasS'1A17'
p804
(lp805
(lp806
I8
aI1
aI166
aasS'4A0I'
p807
(lp808
(lp809
I16
aI5
aI97
aasS'2XMZ'
p810
(lp811
(lp812
I6
aI7
aI269
aasS'2QJ5'
p813
(lp814
(lp815
I10
aI8
aI124
aasS'2QJ7'
p816
(lp817
(lp818
I10
aI8
aI124
aasS'2HUX'
p819
(lp820
(lp821
I1
aI1
aI261
aasS'3V48'
p822
(lp823
(lp824
I6
aI1
aI260
aasS'4GI4'
p825
(lp826
(lp827
I7
aI14
aI380
aasS'2HUT'
p828
(lp829
(lp830
I1
aI1
aI261
aasS'2HUV'
p831
(lp832
(lp833
I1
aI1
aI261
aasS'2WUF'
p834
(lp835
(lp836
I6
aI1
aI290
aasS'1P0D'
p837
(lp838
(lp839
I7
aI14
aI380
aasS'4CCY'
p840
(lp841
(lp842
I6
aI33
aI294
aasS'4CCW'
p843
(lp844
(lp845
I6
aI33
aI293
aasS'2EMR'
p846
(lp847
(lp848
I1
aI1
aI261
aasS'2EMU'
p849
(lp850
(lp851
I1
aI1
aI261
aasS'1S5U'
p852
(lp853
(lp854
I21
aI6
aI130
aasS'2VQ2'
p855
(lp856
(lp857
I8
aI12
aI219
aasS'2IF4'
p858
(lp859
(lp860
I20
aI19
aI186
aa(lp861
I8
aI48
aI363
aasS'4HVX'
p862
(lp863
(lp864
I7
aI14
aI380
aasS'3LZ7'
p865
(lp866
(lp867
I5
aI10
aI138
aasS'1VE2'
p868
(lp869
(lp870
I9
aI2
aI228
aasS'5C7D'
p871
(lp872
(lp873
I18
aI256
aI497
aa(lp874
I16
aI16
aI434
aasS'5C7A'
p875
(lp876
(lp877
I18
aI256
aI497
aa(lp878
I16
aI16
aI434
aasS'5C7C'
p879
(lp880
(lp881
I18
aI256
aI497
aa(lp882
I16
aI16
aI434
aasS'5C7B'
p883
(lp884
(lp885
I18
aI256
aI497
aa(lp886
I16
aI16
aI434
aasS'4JA9'
p887
(lp888
(lp889
I27
aI189
aI480
aa(lp890
I8
aI5
aI190
aasS'4JA7'
p891
(lp892
(lp893
I27
aI189
aI480
aa(lp894
I8
aI5
aI190
aasS'3UMD'
p895
(lp896
(lp897
I10
aI8
aI124
aasS'4KJU'
p898
(lp899
(lp900
I18
aI256
aI497
aa(lp901
I16
aI16
aI434
aasS'1UJ1'
p902
(lp903
(lp904
I3
aI1
aI4378
aasS'4KJV'
p905
(lp906
(lp907
I18
aI256
aI497
aa(lp908
I16
aI16
aI434
aasS'4MXD'
p909
(lp910
(lp911
I6
aI13
aI251
aasS'4ZRO'
p912
(lp913
(lp914
I2
aI1920
aI6707
aa(lp915
I3
aI1
aI4042
aasS'3BF7'
p916
(lp917
(lp918
I6
aI1
aI253
aasS'1ZKI'
p919
(lp920
(lp921
I5
aI5
aI133
aasS'2QWS'
p922
(lp923
(lp924
I10
aI8
aI124
aasS'2CJP'
p925
(lp926
(lp927
I6
aI46
aI352
aasS'4FPS'
p928
(lp929
(lp930
I7
aI14
aI380
aasS'4PF7'
p931
(lp932
(lp933
I13
aI50
aI944
aasS'3BF8'
p934
(lp935
(lp936
I6
aI1
aI253
aasS'4KXK'
p937
(lp938
(lp939
I8
aI269
aI637
aasS'4MEB'
p940
(lp941
(lp942
I6
aI28
aI327
aasS'4PF9'
p943
(lp944
(lp945
I13
aI50
aI944
aasS'5DJ5'
p946
(lp947
(lp948
I6
aI45
aI318
aasS'3E4A'
p949
(lp950
(lp951
I13
aI50
aI944
aasS'4EB9'
p952
(lp953
(lp954
I17
aI538
aI618
aa(lp955
I16
aI17
aI445
aasS'3T6P'
p956
(lp957
(lp958
I17
aI538
aI618
aa(lp959
I16
aI17
aI445
aasS'2Q6D'
p960
(lp961
(lp962
I2
aI1752
aI6628
aa(lp963
I3
aI1733
aI3957
aa(lp964
I28
aI832
aI1567
aasS'2Q6G'
p965
(lp966
(lp967
I2
aI1381
aI7072
aa(lp968
I3
aI1
aI4383
aasS'2Q6F'
p969
(lp970
(lp971
I2
aI1752
aI6628
aa(lp972
I3
aI1733
aI3957
aa(lp973
I28
aI832
aI1567
aasS'2H4U'
p974
(lp975
(lp976
I5
aI3
aI133
aasS'1NW9'
p977
(lp978
(lp979
I22
aI150
aI413
aasS'1ENU'
p980
(lp981
(lp982
I7
aI14
aI380
aasS'4M20'
p983
(lp984
(lp985
I5
aI1
aI127
aasS'3CM7'
p986
(lp987
(lp988
I18
aI256
aI497
aa(lp989
I16
aI16
aI434
aasS'3E4Z'
p990
(lp991
(lp992
I13
aI50
aI944
aasS'3CM2'
p993
(lp994
(lp995
I18
aI256
aI497
aa(lp996
I16
aI16
aI434
aasS'1WNG'
p997
(lp998
(lp999
I1
aI1
aI261
aasS'3EBN'
p1000
(lp1001
(lp1002
I2
aI1381
aI7072
aa(lp1003
I3
aI1
aI4383
aasS'3IBT'
p1004
(lp1005
(lp1006
I6
aI17
aI105
aasS'1C9Q'
p1007
(lp1008
(lp1009
I18
aI256
aI497
aa(lp1010
I16
aI16
aI434
aasS'3FP2'
p1011
(lp1012
(lp1013
I8
aI51
aI618
aasS'4H6E'
p1014
(lp1015
(lp1016
I7
aI14
aI380
aasS'2GVH'
p1017
(lp1018
(lp1019
I5
aI2
aI282
aasS'3PHY'
p1020
(lp1021
(lp1022
I10
aI8
aI124
aasS'4MEA'
p1023
(lp1024
(lp1025
I6
aI28
aI327
aasS'3LBB'
p1026
(lp1027
(lp1028
I26
aI1
aI40
aa(lp1029
I5
aI30
aI163
aasS'5AIO'
p1030
(lp1031
(lp1032
I8
aI140
aI274
aa(lp1033
I8
aI464
aI551
aasS'4LXH'
p1034
(lp1035
(lp1036
I6
aI3
aI276
aasS'4LXI'
p1037
(lp1038
(lp1039
I6
aI3
aI276
aasS'3LBE'
p1040
(lp1041
(lp1042
I26
aI1
aI40
aa(lp1043
I5
aI30
aI163
aasS'3TLL'
p1044
(lp1045
(lp1046
I7
aI14
aI380
aasS'4LXG'
p1047
(lp1048
(lp1049
I6
aI3
aI276
aasS'4GDM'
p1050
(lp1051
(lp1052
I6
aI18
aI267
aasS'3VE4'
p1053
(lp1054
(lp1055
I10
aI8
aI124
aasS'4GD0'
p1056
(lp1057
(lp1058
I7
aI14
aI380
aasS'4KMP'
p1059
(lp1060
(lp1061
I18
aI256
aI497
aa(lp1062
I16
aI16
aI434
aasS'3VE3'
p1063
(lp1064
(lp1065
I10
aI8
aI124
aasS'4KMN'
p1066
(lp1067
(lp1068
I17
aI538
aI618
aa(lp1069
I16
aI17
aI445
aasS'3Q4A'
p1070
(lp1071
(lp1072
I8
aI13
aI158
aasS'2V1O'
p1073
(lp1074
(lp1075
I5
aI53
aI373
aasS'3VXK'
p1076
(lp1077
(lp1078
I6
aI1
aI274
aasS'2ZU5'
p1079
(lp1080
(lp1081
I3
aI1
aI4378
aasS'2ZU4'
p1082
(lp1083
(lp1084
I3
aI1
aI4378
aasS'2D02'
p1085
(lp1086
(lp1087
I10
aI8
aI124
aasS'2ZU2'
p1088
(lp1089
(lp1090
I29
aI37
aI1453
aa(lp1091
I3
aI1438
aI4085
aa(lp1092
I28
aI1038
aI1916
aasS'2L6J'
p1093
(lp1094
(lp1095
I8
aI1
aI76
aasS'2D01'
p1096
(lp1097
(lp1098
I10
aI8
aI124
aasS'1Y7U'
p1099
(lp1100
(lp1101
I5
aI18
aI166
aasS'1OXN'
p1102
(lp1103
(lp1104
I18
aI79
aI298
aa(lp1105
I16
aI2
aI201
aasS'3HZO'
p1106
(lp1107
(lp1108
I6
aI30
aI293
aasS'1WN3'
p1109
(lp1110
(lp1111
I5
aI1
aI123
aasS'1CBF'
p1112
(lp1113
(lp1114
I9
aI6
aI259
aasS'3VB3'
p1115
(lp1116
(lp1117
I3
aI1
aI4378
aasS'4XI0'
p1118
(lp1119
(lp1120
I8
aI1
aI192
aasS'3VB5'
p1121
(lp1122
(lp1123
I3
aI1
aI4378
aasS'3VB4'
p1124
(lp1125
(lp1126
I3
aI1
aI4378
aasS'3VB7'
p1127
(lp1128
(lp1129
I3
aI1
aI4378
aasS'3VB6'
p1130
(lp1131
(lp1132
I3
aI1
aI4378
aasS'1P9S'
p1133
(lp1134
(lp1135
I29
aI37
aI1453
aa(lp1136
I3
aI1438
aI4085
aa(lp1137
I28
aI1038
aI1916
aasS'2ALV'
p1138
(lp1139
(lp1140
I11
aI1
aI305
aasS'1DRM'
p1141
(lp1142
(lp1143
I15
aI111
aI505
aasS'3SM0'
p1144
(lp1145
(lp1146
I7
aI14
aI380
aasS'3UPV'
p1147
(lp1148
(lp1149
I8
aI211
aI586
aa(lp1150
I8
aI2
aI171
aasS'1T18'
p1151
(lp1152
(lp1153
I10
aI8
aI124
aasS'1T19'
p1154
(lp1155
(lp1156
I10
aI8
aI124
aasS'3D62'
p1157
(lp1158
(lp1159
I11
aI1
aI299
aasS'4JBR'
p1160
(lp1161
(lp1162
I7
aI14
aI380
aasS'4PUN'
p1163
(lp1164
(lp1165
I7
aI14
aI380
aasS'2PUH'
p1166
(lp1167
(lp1168
I6
aI20
aI284
aasS'2CMN'
p1169
(lp1170
(lp1171
I15
aI111
aI505
aasS'2NSO'
p1172
(lp1173
(lp1174
I7
aI14
aI380
aasS'1VA0'
p1175
(lp1176
(lp1177
I9
aI1
aI228
aasS'3AS5'
p1178
(lp1179
(lp1180
I8
aI9
aI186
aasS'1U2E'
p1181
(lp1182
(lp1183
I6
aI3
aI287
aasS'2FGE'
p1184
(lp1185
(lp1186
I19
aI106
aI1046
aasS'1F3E'
p1187
(lp1188
(lp1189
I7
aI14
aI380
aasS'1F3H'
p1190
(lp1191
(lp1192
I16
aI5
aI97
aasS'1NA0'
p1193
(lp1194
(lp1195
I8
aI1
aI125
aasS'3AS8'
p1196
(lp1197
(lp1198
I8
aI11
aI186
aasS'4PUJ'
p1199
(lp1200
(lp1201
I7
aI14
aI380
aasS'2RAW'
p1202
(lp1203
(lp1204
I16
aI5
aI97
aasS'4G8B'
p1205
(lp1206
(lp1207
I6
aI8
aI274
aasS'3ND1'
p1208
(lp1209
(lp1210
I9
aI11
aI193
aasS'5C3H'
p1211
(lp1212
(lp1213
I18
aI256
aI497
aa(lp1214
I16
aI16
aI434
aasS'5C3K'
p1215
(lp1216
(lp1217
I18
aI256
aI497
aa(lp1218
I16
aI16
aI434
aasS'2RAX'
p1219
(lp1220
(lp1221
I16
aI5
aI97
aasS'1R5Y'
p1222
(lp1223
(lp1224
I7
aI14
aI380
aasS'2QIQ'
p1225
(lp1226
(lp1227
I2
aI1381
aI7072
aa(lp1228
I3
aI1
aI4383
aasS'3HH1'
p1229
(lp1230
(lp1231
I30
aI6
aI117
aasS'4Q8Q'
p1232
(lp1233
(lp1234
I7
aI14
aI380
aasS'4Q8P'
p1235
(lp1236
(lp1237
I7
aI14
aI380
aasS'3FP3'
p1238
(lp1239
(lp1240
I8
aI51
aI618
aasS'4UI9'
p1241
(lp1242
(lp1243
I8
aI175
aI585
aasS'4Q8U'
p1244
(lp1245
(lp1246
I7
aI14
aI380
aasS'4Q8T'
p1247
(lp1248
(lp1249
I7
aI14
aI380
aasS'4Q8W'
p1250
(lp1251
(lp1252
I7
aI14
aI380
aasS'4Q8V'
p1253
(lp1254
(lp1255
I7
aI14
aI380
aasS'3ASD'
p1256
(lp1257
(lp1258
I8
aI9
aI190
aasS'3ASG'
p1259
(lp1260
(lp1261
I8
aI9
aI186
aasS'3ASF'
p1262
(lp1263
(lp1264
I8
aI11
aI186
aasS'4Q8M'
p1265
(lp1266
(lp1267
I7
aI14
aI380
aasS'4Q8O'
p1268
(lp1269
(lp1270
I7
aI14
aI380
aasS'4Q8N'
p1271
(lp1272
(lp1273
I7
aI14
aI380
aasS'2QII'
p1274
(lp1275
(lp1276
I7
aI14
aI380
aasS'3TIT'
p1277
(lp1278
(lp1279
I11
aI1
aI306
aasS'3TIU'
p1280
(lp1281
(lp1282
I11
aI1
aI306
aasS'2BX4'
p1283
(lp1284
(lp1285
I3
aI1
aI4378
aasS'3ASH'
p1286
(lp1287
(lp1288
I8
aI9
aI186
aasS'1VH5'
p1289
(lp1290
(lp1291
I5
aI13
aI136
aasS'4HI3'
p1292
(lp1293
(lp1294
I3
aI1
aI4378
aasS'1T1A'
p1295
(lp1296
(lp1297
I10
aI8
aI124
aasS'1T1B'
p1298
(lp1299
(lp1300
I10
aI8
aI124
aasS'1T1C'
p1301
(lp1302
(lp1303
I10
aI8
aI124
aasS'1UGU'
p1304
(lp1305
(lp1306
I10
aI8
aI124
aasS'2RI6'
p1307
(lp1308
(lp1309
I6
aI17
aI281
aasS'2Q2B'
p1310
(lp1311
(lp1312
I5
aI53
aI373
aasS'2WC0'
p1313
(lp1314
(lp1315
I13
aI50
aI944
aasS'4GG9'
p1316
(lp1317
(lp1318
I7
aI14
aI380
aasS'4RMM'
p1319
(lp1320
(lp1321
I5
aI21
aI149
aasS'3FZD'
p1322
(lp1323
(lp1324
I11
aI1
aI301
aasS'4WMD'
p1325
(lp1326
(lp1327
I11
aI1
aI306
aasS'4WME'
p1328
(lp1329
(lp1330
I11
aI1
aI306
aasS'4WMF'
p1331
(lp1332
(lp1333
I11
aI1
aI306
aasS'4QD9'
p1334
(lp1335
(lp1336
I5
aI8
aI140
aasS'4ZQD'
p1337
(lp1338
(lp1339
I4
aI84
aI464
aasS'1IXL'
p1340
(lp1341
(lp1342
I5
aI21
aI126
aasS'2HYZ'
p1343
(lp1344
(lp1345
I8
aI1
aI136
aasS'3UEI'
p1346
(lp1347
(lp1348
I16
aI5
aI97
aasS'2OWF'
p1349
(lp1350
(lp1351
I1
aI1
aI261
aasS'2OWG'
p1352
(lp1353
(lp1354
I1
aI1
aI261
aasS'2OWH'
p1355
(lp1356
(lp1357
I15
aI111
aI505
aasS'2OWJ'
p1358
(lp1359
(lp1360
I15
aI111
aI505
aasS'2OWK'
p1361
(lp1362
(lp1363
I1
aI1
aI261
aasS'4XEA'
p1364
(lp1365
(lp1366
I24
aI8
aI423
aasS'4TWY'
p1367
(lp1368
(lp1369
I2
aI1381
aI7072
aa(lp1370
I3
aI1
aI4383
aasS'2EH5'
p1371
(lp1372
(lp1373
I1
aI1
aI261
aasS'2EH4'
p1374
(lp1375
(lp1376
I1
aI1
aI261
aasS'2EH2'
p1377
(lp1378
(lp1379
I1
aI1
aI261
aasS'1TFT'
p1380
(lp1381
(lp1382
I18
aI256
aI497
aa(lp1383
I16
aI16
aI434
aasS'1TFQ'
p1384
(lp1385
(lp1386
I18
aI256
aI497
aa(lp1387
I16
aI16
aI434
aasS'2ZVC'
p1388
(lp1389
(lp1390
I9
aI2
aI261
aasS'4MOC'
p1391
(lp1392
(lp1393
I5
aI2
aI337
aasS'3HYS'
p1394
(lp1395
(lp1396
I6
aI1
aI262
aasS'2WQH'
p1397
(lp1398
(lp1399
I8
aI1
aI125
aasS'1W3B'
p1400
(lp1401
(lp1402
I8
aI21
aI569
aasS'2PYP'
p1403
(lp1404
(lp1405
I10
aI8
aI124
aasS'3HGZ'
p1406
(lp1407
(lp1408
I13
aI50
aI944
aasS'4NCP'
p1409
(lp1410
(lp1411
I5
aI1
aI168
aasS'2GZ9'
p1412
(lp1413
(lp1414
I3
aI1
aI4378
aasS'2GZ8'
p1415
(lp1416
(lp1417
I3
aI1
aI4378
aasS'2GZ7'
p1418
(lp1419
(lp1420
I3
aI1
aI4378
aasS'2PYR'
p1421
(lp1422
(lp1423
I10
aI8
aI124
aasS'4L0C'
p1424
(lp1425
(lp1426
I6
aI12
aI254
aasS'2QRA'
p1427
(lp1428
(lp1429
I18
aI256
aI497
aa(lp1430
I16
aI16
aI434
aasS'4I82'
p1431
(lp1432
(lp1433
I5
aI1
aI132
aasS'2EHC'
p1434
(lp1435
(lp1436
I1
aI1
aI261
aasS'4HRX'
p1437
(lp1438
(lp1439
I6
aI9
aI266
aasS'4HRY'
p1440
(lp1441
(lp1442
I6
aI9
aI266
aasS'2EHL'
p1443
(lp1444
(lp1445
I1
aI1
aI261
aasS'1KT0'
p1446
(lp1447
(lp1448
I20
aI17
aI138
aa(lp1449
I8
aI136
aI415
aasS'1KT1'
p1450
(lp1451
(lp1452
I20
aI17
aI138
aa(lp1453
I8
aI136
aI415
aasS'1ODV'
p1454
(lp1455
(lp1456
I10
aI8
aI124
aasS'4Q4O'
p1457
(lp1458
(lp1459
I7
aI14
aI380
aasS'2YPU'
p1460
(lp1461
(lp1462
I13
aI50
aI944
aasS'4DNO'
p1463
(lp1464
(lp1465
I6
aI3
aI293
aasS'4DM7'
p1466
(lp1467
(lp1468
I6
aI3
aI293
aasS'1WAO'
p1469
(lp1470
(lp1471
I27
aI190
aI480
aa(lp1472
I8
aI7
aI181
aasS'2DUC'
p1473
(lp1474
(lp1475
I3
aI1
aI4378
aasS'3F1T'
p1476
(lp1477
(lp1478
I5
aI7
aI143
aasS'2EKA'
p1479
(lp1480
(lp1481
I1
aI1
aI261
aasS'4GH1'
p1482
(lp1483
(lp1484
I7
aI14
aI380
aasS'4YX9'
p1485
(lp1486
(lp1487
I6
aI3
aI293
aasS'2E7R'
p1488
(lp1489
(lp1490
I1
aI1
aI261
aasS'1KOU'
p1491
(lp1492
(lp1493
I10
aI8
aI124
aasS'4RAL'
p1494
(lp1495
(lp1496
I13
aI50
aI944
aasS'3TLO'
p1497
(lp1498
(lp1499
I29
aI1
aI1428
aa(lp1500
I3
aI1398
aI4060
aa(lp1501
I28
aI1251
aI1438
aasS'3P7L'
p1502
(lp1503
(lp1504
I13
aI48
aI944
aasS'5CBK'
p1505
(lp1506
(lp1507
I6
aI5
aI266
aasS'3P7O'
p1508
(lp1509
(lp1510
I13
aI48
aI944
aasS'3SIQ'
p1511
(lp1512
(lp1513
I18
aI217
aI438
aa(lp1514
I16
aI19
aI323
aasS'3SIP'
p1515
(lp1516
(lp1517
I18
aI217
aI438
aa(lp1518
I16
aI19
aI323
aasS'1SDZ'
p1519
(lp1520
(lp1521
I18
aI217
aI438
aa(lp1522
I16
aI19
aI323
aasS'2A5A'
p1523
(lp1524
(lp1525
I3
aI1
aI4378
aasS'4DTT'
p1526
(lp1527
(lp1528
I13
aI50
aI944
aasS'4PUM'
p1529
(lp1530
(lp1531
I7
aI16
aI382
aasS'4PUL'
p1532
(lp1533
(lp1534
I7
aI14
aI380
aasS'4PUK'
p1535
(lp1536
(lp1537
I7
aI14
aI380
aasS'2A5I'
p1538
(lp1539
(lp1540
I3
aI1
aI4378
aasS'2A5K'
p1541
(lp1542
(lp1543
I3
aI1
aI4378
aasS'2G56'
p1544
(lp1545
(lp1546
I13
aI50
aI944
aasS'2EEQ'
p1547
(lp1548
(lp1549
I1
aI1
aI261
aasS'2G54'
p1550
(lp1551
(lp1552
I13
aI50
aI944
aasS'3AW1'
p1553
(lp1554
(lp1555
I3
aI1
aI4378
aasS'3AW0'
p1556
(lp1557
(lp1558
I3
aI1
aI4378
aasS'2P5F'
p1559
(lp1560
(lp1561
I1
aI1
aI261
aasS'3RKV'
p1562
(lp1563
(lp1564
I8
aI3
aI161
aasS'4G9E'
p1565
(lp1566
(lp1567
I6
aI8
aI274
aasS'3SND'
p1568
(lp1569
(lp1570
I3
aI1
aI4378
aasS'3SNE'
p1571
(lp1572
(lp1573
I3
aI1
aI4378
aasS'2P5C'
p1574
(lp1575
(lp1576
I1
aI1
aI261
aasS'3SNA'
p1577
(lp1578
(lp1579
I3
aI1
aI4378
aasS'3SNB'
p1580
(lp1581
(lp1582
I3
aI1
aI4378
aasS'3SNC'
p1583
(lp1584
(lp1585
I3
aI1
aI4378
aasS'4GH3'
p1586
(lp1587
(lp1588
I7
aI14
aI380
aasS'4TWW'
p1589
(lp1590
(lp1591
I2
aI1381
aI7072
aa(lp1592
I3
aI1
aI4383
aasS'4DMK'
p1593
(lp1594
(lp1595
I6
aI3
aI292
aasS'3AS4'
p1596
(lp1597
(lp1598
I8
aI9
aI186
aasS'4DMH'
p1599
(lp1600
(lp1601
I6
aI3
aI293
aasS'3TUV'
p1602
(lp1603
(lp1604
I13
aI48
aI944
aasS'2YBO'
p1605
(lp1606
(lp1607
I9
aI8
aI262
aasS'4DMC'
p1608
(lp1609
(lp1610
I6
aI3
aI293
aasS'3HL5'
p1611
(lp1612
(lp1613
I18
aI256
aI497
aa(lp1614
I16
aI16
aI434
aasS'3SN8'
p1615
(lp1616
(lp1617
I3
aI1
aI4378
aasS'4DMF'
p1618
(lp1619
(lp1620
I6
aI3
aI293
aasS'2BUG'
p1621
(lp1622
(lp1623
I27
aI190
aI480
aa(lp1624
I8
aI7
aI181
aasS'2JBU'
p1625
(lp1626
(lp1627
I13
aI50
aI944
aasS'1XOX'
p1628
(lp1629
(lp1630
I16
aI5
aI97
aasS'3E50'
p1631
(lp1632
(lp1633
I13
aI50
aI944
aasS'3CWW'
p1634
(lp1635
(lp1636
I13
aI50
aI944
aasS'4GHR'
p1637
(lp1638
(lp1639
I7
aI14
aI380
aasS'1XFQ'
p1640
(lp1641
(lp1642
I10
aI8
aI124
aasS'3GO9'
p1643
(lp1644
(lp1645
I24
aI31
aI244
aasS'2Z1X'
p1646
(lp1647
(lp1648
I7
aI14
aI380
aasS'1ELR'
p1649
(lp1650
(lp1651
I8
aI1
aI543
aasS'4GCX'
p1652
(lp1653
(lp1654
I7
aI14
aI380
aasS'2Z1W'
p1655
(lp1656
(lp1657
I7
aI14
aI380
aasS'2Z1V'
p1658
(lp1659
(lp1660
I7
aI14
aI380
aasS'1N2V'
p1661
(lp1662
(lp1663
I7
aI14
aI380
aasS'2CBF'
p1664
(lp1665
(lp1666
I9
aI1
aI234
aasS'1UK4'
p1667
(lp1668
(lp1669
I3
aI1
aI4378
aasS'1UK3'
p1670
(lp1671
(lp1672
I3
aI1
aI4378
aasS'1UK2'
p1673
(lp1674
(lp1675
I3
aI1
aI4378
aasS'1XFN'
p1676
(lp1677
(lp1678
I10
aI8
aI124
aasS'4A0Z'
p1679
(lp1680
(lp1681
I5
aI107
aI185
aasS'4K4A'
p1682
(lp1683
(lp1684
I5
aI13
aI136
aasS'2LNI'
p1685
(lp1686
(lp1687
I8
aI1
aI543
aasS'4EHB'
p1688
(lp1689
(lp1690
I6
aI3
aI293
aasS'4J46'
p1691
(lp1692
(lp1693
I18
aI256
aI497
aa(lp1694
I16
aI16
aI434
aasS'4J47'
p1695
(lp1696
(lp1697
I18
aI256
aI497
aa(lp1698
I16
aI16
aI434
aasS'4NGE'
p1699
(lp1700
(lp1701
I19
aI64
aI997
aasS'4J45'
p1702
(lp1703
(lp1704
I18
aI256
aI497
aa(lp1705
I16
aI16
aI434
aasS'1Y5V'
p1706
(lp1707
(lp1708
I7
aI14
aI380
aasS'1PJT'
p1709
(lp1710
(lp1711
I9
aI211
aI455
aasS'4IH9'
p1712
(lp1713
(lp1714
I6
aI45
aI318
aasS'1PJQ'
p1715
(lp1716
(lp1717
I9
aI211
aI455
aasS'2AVP'
p1718
(lp1719
(lp1720
I8
aI1
aI70
aasS'4J48'
p1721
(lp1722
(lp1723
I18
aI256
aI497
aa(lp1724
I16
aI16
aI434
aasS'3NUT'
p1725
(lp1726
(lp1727
I9
aI4
aI245
aa(lp1728
I9
aI246
aI508
aasS'1Q65'
p1729
(lp1730
(lp1731
I7
aI14
aI380
aasS'3N56'
p1732
(lp1733
(lp1734
I13
aI50
aI944
aasS'3N57'
p1735
(lp1736
(lp1737
I13
aI50
aI944
aasS'4LGE'
p1738
(lp1739
(lp1740
I17
aI538
aI618
aa(lp1741
I16
aI17
aI445
aasS'1Q63'
p1742
(lp1743
(lp1744
I7
aI14
aI380
aasS'2EL3'
p1745
(lp1746
(lp1747
I1
aI1
aI261
aasS'1S4D'
p1748
(lp1749
(lp1750
I9
aI10
aI261
aasS'2EL1'
p1751
(lp1752
(lp1753
I1
aI1
aI261
aasS'1VHV'
p1754
(lp1755
(lp1756
I1
aI16
aI226
aasS'4DXX'
p1757
(lp1758
(lp1759
I7
aI14
aI380
aasS'1J2B'
p1760
(lp1761
(lp1762
I7
aI8
aI337
aasS'3GE7'
p1763
(lp1764
(lp1765
I7
aI14
aI380
aasS'4QDB'
p1766
(lp1767
(lp1768
I5
aI8
aI140
aasS'3F7H'
p1769
(lp1770
(lp1771
I18
aI79
aI298
aa(lp1772
I16
aI2
aI201
aasS'3F7I'
p1773
(lp1774
(lp1775
I18
aI79
aI298
aa(lp1776
I16
aI2
aI201
aasS'4LGU'
p1777
(lp1778
(lp1779
I17
aI538
aI618
aa(lp1780
I16
aI17
aI445
aasS'1LSX'
p1781
(lp1782
(lp1783
I15
aI111
aI505
aasS'1K4G'
p1784
(lp1785
(lp1786
I7
aI14
aI380
aasS'1LSV'
p1787
(lp1788
(lp1789
I15
aI111
aI505
aasS'1LSW'
p1790
(lp1791
(lp1792
I15
aI111
aI505
aasS'3M3S'
p1793
(lp1794
(lp1795
I3
aI1
aI4378
aasS'3M3T'
p1796
(lp1797
(lp1798
I3
aI1
aI4378
aasS'3M3V'
p1799
(lp1800
(lp1801
I3
aI1
aI4378
aasS'4M1C'
p1802
(lp1803
(lp1804
I13
aI50
aI944
aasS'2PCA'
p1805
(lp1806
(lp1807
I1
aI1
aI261
aasS'2LIZ'
p1808
(lp1809
(lp1810
I3
aI1
aI4378
aasS'3R9A'
p1811
(lp1812
(lp1813
I8
aI269
aI637
aasS'2DV4'
p1814
(lp1815
(lp1816
I1
aI1
aI261
aasS'1GSX'
p1817
(lp1818
(lp1819
I10
aI8
aI124
aasS'3PYP'
p1820
(lp1821
(lp1822
I10
aI8
aI124
aasS'2DV7'
p1823
(lp1824
(lp1825
I1
aI1
aI261
aasS'1OY7'
p1826
(lp1827
(lp1828
I18
aI79
aI298
aa(lp1829
I16
aI2
aI201
aasS'4QD8'
p1830
(lp1831
(lp1832
I5
aI8
aI140
aasS'2DXX'
p1833
(lp1834
(lp1835
I1
aI1
aI261
aasS'2DV3'
p1836
(lp1837
(lp1838
I1
aI1
aI261
aasS'2DXV'
p1839
(lp1840
(lp1841
I1
aI1
aI261
aasS'2DXW'
p1842
(lp1843
(lp1844
I1
aI1
aI261
aasS'3GEC'
p1845
(lp1846
(lp1847
I4
aI230
aI501
aasS'3NDC'
p1848
(lp1849
(lp1850
I9
aI1
aI232
aasS'1GSW'
p1851
(lp1852
(lp1853
I10
aI8
aI124
aasS'1GSV'
p1854
(lp1855
(lp1856
I10
aI8
aI124
aasS'5C0K'
p1857
(lp1858
(lp1859
I18
aI256
aI497
aa(lp1860
I16
aI16
aI434
aasS'5C0L'
p1861
(lp1862
(lp1863
I18
aI256
aI497
aa(lp1864
I16
aI16
aI434
aasS'4IFH'
p1865
(lp1866
(lp1867
I13
aI50
aI944
aasS'2DSL'
p1868
(lp1869
(lp1870
I5
aI1
aI123
aasS'2J9Q'
p1871
(lp1872
(lp1873
I8
aI269
aI637
aasS'3UNT'
p1874
(lp1875
(lp1876
I7
aI14
aI380
aasS'2VV6'
p1877
(lp1878
(lp1879
I15
aI111
aI505
aasS'2VV7'
p1880
(lp1881
(lp1882
I15
aI111
aI505
aasS'4WVS'
p1883
(lp1884
(lp1885
I18
aI256
aI497
aa(lp1886
I16
aI16
aI434
aasS'2C3S'
p1887
(lp1888
(lp1889
I3
aI1
aI4378
aasS'4WVU'
p1890
(lp1891
(lp1892
I18
aI256
aI497
aa(lp1893
I16
aI16
aI434
aasS'4WVT'
p1894
(lp1895
(lp1896
I18
aI256
aI497
aa(lp1897
I16
aI16
aI434
aasS'4NNZ'
p1898
(lp1899
(lp1900
I24
aI7
aI429
aasS'2DV5'
p1901
(lp1902
(lp1903
I1
aI1
aI261
aasS'2QQ2'
p1904
(lp1905
(lp1906
I5
aI49
aI372
aasS'1I3O'
p1907
(lp1908
(lp1909
I22
aI34
aI275
aasS'1IT7'
p1910
(lp1911
(lp1912
I7
aI8
aI337
aasS'2VV8'
p1913
(lp1914
(lp1915
I15
aI111
aI505
aasS'3RTY'
p1916
(lp1917
(lp1918
I4
aI230
aI501
aasS'3ATW'
p1919
(lp1920
(lp1921
I3
aI1
aI4378
aasS'2JG4'
p1922
(lp1923
(lp1924
I13
aI50
aI944
aasS'2ZOI'
p1925
(lp1926
(lp1927
I10
aI8
aI124
aasS'2ZOH'
p1928
(lp1929
(lp1930
I10
aI8
aI124
aasS'2EK7'
p1931
(lp1932
(lp1933
I1
aI1
aI261
aasS'3E8P'
p1934
(lp1935
(lp1936
I5
aI19
aI163
aasS'1PUD'
p1937
(lp1938
(lp1939
I7
aI14
aI380
aasS'3BLD'
p1940
(lp1941
(lp1942
I7
aI14
aI380
aasS'3BLO'
p1943
(lp1944
(lp1945
I7
aI14
aI380
aasS'3BLL'
p1946
(lp1947
(lp1948
I7
aI14
aI380
aasS'2Z6R'
p1949
(lp1950
(lp1951
I1
aI1
aI261
aasS'2PWV'
p1952
(lp1953
(lp1954
I7
aI14
aI380
aasS'3E1E'
p1955
(lp1956
(lp1957
I5
aI30
aI144
aasS'3P2M'
p1958
(lp1959
(lp1960
I6
aI1
aI296
aasS'3G76'
p1961
(lp1962
(lp1963
I18
aI256
aI497
aa(lp1964
I16
aI16
aI434
aasS'4ZPK'
p1965
(lp1966
(lp1967
I4
aI2
aI347
aasS'1WOM'
p1968
(lp1969
(lp1970
I6
aI7
aI267
aasS'2WUG'
p1971
(lp1972
(lp1973
I6
aI1
aI290
aasS'4ZRF'
p1974
(lp1975
(lp1976
I5
aI1
aI132
aasS'2WUE'
p1977
(lp1978
(lp1979
I6
aI1
aI290
aasS'4ZRB'
p1980
(lp1981
(lp1982
I5
aI1
aI132
aasS'2POT'
p1983
(lp1984
(lp1985
I7
aI14
aI380
aasS'2KCK'
p1986
(lp1987
(lp1988
I8
aI22
aI101
aasS'1WOF'
p1989
(lp1990
(lp1991
I3
aI1
aI4378
aasS'2FO7'
p1992
(lp1993
(lp1994
I8
aI1
aI136
aasS'2ZVB'
p1995
(lp1996
(lp1997
I9
aI2
aI261
aasS'1MZU'
p1998
(lp1999
(lp2000
I10
aI13
aI129
aasS'3V3M'
p2001
(lp2002
(lp2003
I3
aI1
aI4378
aasS'2FS2'
p2004
(lp2005
(lp2006
I5
aI7
aI134
aasS'2C0M'
p2007
(lp2008
(lp2009
I8
aI269
aI637
aasS'2POI'
p2010
(lp2011
(lp2012
I18
aI256
aI497
aa(lp2013
I16
aI16
aI434
aasS'2C0L'
p2014
(lp2015
(lp2016
I8
aI269
aI637
aasS'3BL3'
p2017
(lp2018
(lp2019
I7
aI14
aI380
aasS'4GCN'
p2020
(lp2021
(lp2022
I8
aI1
aI320
aasS'1YLI'
p2023
(lp2024
(lp2025
I5
aI12
aI152
aasS'2WK3'
p2026
(lp2027
(lp2028
I13
aI50
aI944
aasS'4RE9'
p2029
(lp2030
(lp2031
I13
aI50
aI944
aasS'1XJ4'
p2032
(lp2033
(lp2034
I15
aI111
aI505
aasS'4MDS'
p2035
(lp2036
(lp2037
I3
aI1
aI4378
aasS'1XJ6'
p2038
(lp2039
(lp2040
I15
aI111
aI505
aasS'1XJ3'
p2041
(lp2042
(lp2043
I15
aI111
aI505
aasS'1XJ2'
p2044
(lp2045
(lp2046
I15
aI111
aI505
aasS'1Q2L'
p2047
(lp2048
(lp2049
I13
aI28
aI913
aasS'4LYE'
p2050
(lp2051
(lp2052
I6
aI3
aI276
aasS'4LYD'
p2053
(lp2054
(lp2055
I6
aI3
aI276
aasS'2YBQ'
p2056
(lp2057
(lp2058
I9
aI8
aI262
aasS'3W04'
p2059
(lp2060
(lp2061
I6
aI45
aI318
aasS'4H7Z'
p2062
(lp2063
(lp2064
I7
aI14
aI380
aasS'4HSH'
p2065
(lp2066
(lp2067
I7
aI14
aI380
aasS'3HFY'
p2068
(lp2069
(lp2070
I7
aI14
aI380
aasS'1M4M'
p2071
(lp2072
(lp2073
I16
aI3
aI129
aasS'2I3H'
p2074
(lp2075
(lp2076
I18
aI79
aI298
aa(lp2077
I16
aI2
aI201
aasS'2I3I'
p2078
(lp2079
(lp2080
I18
aI79
aI298
aa(lp2081
I16
aI2
aI201
aasS'3HDI'
p2082
(lp2083
(lp2084
I24
aI19
aI456
aasS'2R11'
p2085
(lp2086
(lp2087
I6
aI46
aI306
aasS'1F9X'
p2088
(lp2089
(lp2090
I18
aI256
aI497
aa(lp2091
I16
aI16
aI434
aasS'4QIA'
p2092
(lp2093
(lp2094
I13
aI50
aI944
aasS'1R3D'
p2095
(lp2096
(lp2097
I6
aI2
aI255
aasS'2W0N'
p2098
(lp2099
(lp2100
I15
aI226
aI539
aasS'3PI6'
p2101
(lp2102
(lp2103
I6
aI3
aI292
aasS'1F9I'
p2104
(lp2105
(lp2106
I10
aI8
aI124
aasS'4FR1'
p2107
(lp2108
(lp2109
I7
aI14
aI380
aasS'4FR6'
p2110
(lp2111
(lp2112
I7
aI14
aI380
aasS'2V6N'
p2113
(lp2114
(lp2115
I2
aI1381
aI7072
aa(lp2116
I3
aI1
aI4383
aasS'2VSL'
p2117
(lp2118
(lp2119
I18
aI256
aI497
aa(lp2120
I16
aI16
aI434
aasS'2QC2'
p2121
(lp2122
(lp2123
I2
aI1381
aI7072
aa(lp2124
I3
aI1
aI4383
aasS'3Q47'
p2125
(lp2126
(lp2127
I8
aI13
aI158
aasS'3Q49'
p2128
(lp2129
(lp2130
I8
aI13
aI158
aasS'3UEH'
p2131
(lp2132
(lp2133
I16
aI5
aI97
aasS'4HTA'
p2134
(lp2135
(lp2136
I6
aI9
aI266
aasS'4HTB'
p2137
(lp2138
(lp2139
I7
aI16
aI382
aasS'2P9D'
p2140
(lp2141
(lp2142
I1
aI1
aI261
aasS'2NPN'
p2143
(lp2144
(lp2145
I9
aI4
aI189
aasS'2EK3'
p2146
(lp2147
(lp2148
I1
aI1
aI261
aasS'4EQF'
p2149
(lp2150
(lp2151
I8
aI202
aI565
aasS'1Q2R'
p2152
(lp2153
(lp2154
I7
aI14
aI380
aasS'1Q2S'
p2155
(lp2156
(lp2157
I7
aI14
aI380
aasS'1Q2W'
p2158
(lp2159
(lp2160
I11
aI3
aI306
aasS'4GYO'
p2161
(lp2162
(lp2163
I8
aI220
aI292
aasS'2PZH'
p2164
(lp2165
(lp2166
I21
aI1
aI124
aasS'2ASH'
p2167
(lp2168
(lp2169
I7
aI1
aI354
aasS'2P6L'
p2170
(lp2171
(lp2172
I1
aI1
aI261
aasS'4JYM'
p2173
(lp2174
(lp2175
I6
aI9
aI266
aasS'2WBY'
p2176
(lp2177
(lp2178
I13
aI50
aI944
aasS'2QCY'
p2179
(lp2180
(lp2181
I2
aI1381
aI7072
aa(lp2182
I3
aI1
aI4383
aasS'2EK2'
p2183
(lp2184
(lp2185
I1
aI1
aI261
aasS'2P6I'
p2186
(lp2187
(lp2188
I1
aI1
aI261
aasS'2P6K'
p2189
(lp2190
(lp2191
I1
aI1
aI261
aasS'1S39'
p2192
(lp2193
(lp2194
I7
aI14
aI380
aasS'1S38'
p2195
(lp2196
(lp2197
I7
aI14
aI380
aasS'2EK4'
p2198
(lp2199
(lp2200
I1
aI1
aI261
aasS'4Q5Z'
p2201
(lp2202
(lp2203
I13
aI50
aI944
aasS'2P6D'
p2204
(lp2205
(lp2206
I1
aI1
aI261
aasS'4J44'
p2207
(lp2208
(lp2209
I18
aI256
aI497
aa(lp2210
I16
aI16
aI434
aasS'1F98'
p2211
(lp2212
(lp2213
I10
aI8
aI124
aasS'4J8E'
p2214
(lp2215
(lp2216
I8
aI44
aI362
aasS'4CGU'
p2217
(lp2218
(lp2219
I8
aI1
aI76
aasS'4UHE'
p2220
(lp2221
(lp2222
I6
aI1
aI272
aasS'4UHD'
p2223
(lp2224
(lp2225
I6
aI1
aI272
aasS'2QZR'
p2226
(lp2227
(lp2228
I7
aI14
aI380
aasS'4UHC'
p2229
(lp2230
(lp2231
I6
aI1
aI272
aasS'2LSV'
p2232
(lp2233
(lp2234
I8
aI1
aI76
aasS'4DNP'
p2235
(lp2236
(lp2237
I6
aI2
aI265
aasS'3W06'
p2238
(lp2239
(lp2240
I6
aI9
aI266
aasS'4X00'
p2241
(lp2242
(lp2243
I6
aI17
aI279
aasS'2D2D'
p2244
(lp2245
(lp2246
I3
aI1
aI4378
aasS'2E8H'
p2247
(lp2248
(lp2249
I1
aI1
aI261
aasS'4DNF'
p2250
(lp2251
(lp2252
I6
aI3
aI293
aasS'1WLU'
p2253
(lp2254
(lp2255
I5
aI1
aI123
aasS'1WLV'
p2256
(lp2257
(lp2258
I5
aI1
aI123
aasS'2PHY'
p2259
(lp2260
(lp2261
I10
aI8
aI124
aasS'2Z9G'
p2262
(lp2263
(lp2264
I2
aI1381
aI7072
aa(lp2265
I3
aI1
aI4383
aasS'2E8R'
p2266
(lp2267
(lp2268
I1
aI1
aI261
aasS'2E8Q'
p2269
(lp2270
(lp2271
I1
aI1
aI261
aasS'3GT9'
p2272
(lp2273
(lp2274
I18
aI79
aI298
aa(lp2275
I16
aI2
aI201
aasS'2Z9K'
p2276
(lp2277
(lp2278
I2
aI1381
aI7072
aa(lp2279
I3
aI1
aI4383
aasS'2Z9J'
p2280
(lp2281
(lp2282
I2
aI1381
aI7072
aa(lp2283
I3
aI1
aI4383
aasS'4GKT'
p2284
(lp2285
(lp2286
I7
aI14
aI380
aasS'2Z9L'
p2287
(lp2288
(lp2289
I2
aI1381
aI7072
aa(lp2290
I3
aI1
aI4383
aasS'1P5Q'
p2291
(lp2292
(lp2293
I20
aI8
aI166
aa(lp2294
I8
aI136
aI438
aasS'1V9A'
p2295
(lp2296
(lp2297
I9
aI1
aI228
aasS'2E15'
p2298
(lp2299
(lp2300
I1
aI1
aI261
aasS'2OV9'
p2301
(lp2302
(lp2303
I12
aI121
aI208
aasS'2E17'
p2304
(lp2305
(lp2306
I1
aI1
aI261
aasS'3EYL'
p2307
(lp2308
(lp2309
I18
aI256
aI497
aa(lp2310
I16
aI16
aI434
aasS'3S4K'
p2311
(lp2312
(lp2313
I5
aI3
aI140
aasS'1PJS'
p2314
(lp2315
(lp2316
I9
aI211
aI455
aasS'3HSS'
p2317
(lp2318
(lp2319
I6
aI30
aI293
aasS'4WL9'
p2320
(lp2321
(lp2322
I10
aI8
aI124
aasS'4ZV3'
p2323
(lp2324
(lp2325
I5
aI53
aI373
aasS'3EOU'
p2326
(lp2327
(lp2328
I7
aI14
aI380
aasS'4NXO'
p2329
(lp2330
(lp2331
I13
aI50
aI944
aasS'4WLA'
p2332
(lp2333
(lp2334
I10
aI8
aI124
aasS'2HBO'
p2335
(lp2336
(lp2337
I5
aI9
aI114
aasS'3EOQ'
p2338
(lp2339
(lp2340
I24
aI2
aI384
aasS'3EOS'
p2341
(lp2342
(lp2343
I7
aI14
aI380
aasS'1EW0'
p2344
(lp2345
(lp2346
I15
aI127
aI495
aasS'1Q66'
p2347
(lp2348
(lp2349
I7
aI14
aI380
aasS'2HUQ'
p2350
(lp2351
(lp2352
I1
aI1
aI261
aasS'1WKE'
p2353
(lp2354
(lp2355
I7
aI14
aI380
aasS'1WKD'
p2356
(lp2357
(lp2358
I7
aI14
aI380
aasS'1WKF'
p2359
(lp2360
(lp2361
I7
aI14
aI380
aasS'4IPP'
p2362
(lp2363
(lp2364
I7
aI14
aI380
aasS'4I3A'
p2365
(lp2366
(lp2367
I10
aI8
aI124
aasS'4UHF'
p2368
(lp2369
(lp2370
I6
aI1
aI272
aasS'2G47'
p2371
(lp2372
(lp2373
I13
aI50
aI944
aasS'2Z94'
p2374
(lp2375
(lp2376
I2
aI1381
aI7072
aa(lp2377
I3
aI1
aI4383
aasS'2G49'
p2378
(lp2379
(lp2380
I13
aI50
aI944
aasS'2G48'
p2381
(lp2382
(lp2383
I13
aI50
aI944
aasS'1LVO'
p2384
(lp2385
(lp2386
I11
aI1
aI302
aasS'1D06'
p2387
(lp2388
(lp2389
I15
aI127
aI495
aasS'3GTA'
p2390
(lp2391
(lp2392
I18
aI79
aI298
aa(lp2393
I16
aI2
aI201
aasS'1Z1J'
p2394
(lp2395
(lp2396
I3
aI1
aI4378
aasS'1Z1I'
p2397
(lp2398
(lp2399
I3
aI1
aI4378
aasS'2EL2'
p2400
(lp2401
(lp2402
I1
aI1
aI261
aasS'2BBF'
p2403
(lp2404
(lp2405
I7
aI14
aI380
aasS'2EL0'
p2406
(lp2407
(lp2408
I1
aI1
aI261
aasS'2XCC'
p2409
(lp2410
(lp2411
I8
aI16
aI105
aasS'2ED3'
p2412
(lp2413
(lp2414
I1
aI1
aI261
aasS'4MU7'
p2415
(lp2416
(lp2417
I17
aI538
aI618
aa(lp2418
I16
aI17
aI445
aasS'1DP9'
p2419
(lp2420
(lp2421
I15
aI111
aI505
aasS'1DP8'
p2422
(lp2423
(lp2424
I15
aI111
aI505
aasS'3GWB'
p2425
(lp2426
(lp2427
I24
aI144
aI421
aasS'2ED5'
p2428
(lp2429
(lp2430
I1
aI1
aI261
aasS'2YNA'
p2431
(lp2432
(lp2433
I3
aI1
aI4434
aasS'1DP6'
p2434
(lp2435
(lp2436
I15
aI111
aI505
aasS'2EGS'
p2437
(lp2438
(lp2439
I1
aI1
aI261
aasS'4DWK'
p2440
(lp2441
(lp2442
I13
aI50
aI944
aasS'2PWX'
p2443
(lp2444
(lp2445
I3
aI1
aI4378
aasS'2UVL'
p2446
(lp2447
(lp2448
I17
aI483
aI604
aa(lp2449
I16
aI1
aI440
aasS'3UVI'
p2450
(lp2451
(lp2452
I7
aI16
aI382
aasS'1JD5'
p2453
(lp2454
(lp2455
I18
aI217
aI438
aa(lp2456
I16
aI19
aI323
aasS'1JD4'
p2457
(lp2458
(lp2459
I18
aI217
aI438
aa(lp2460
I16
aI19
aI323
aasS'2PWU'
p2461
(lp2462
(lp2463
I7
aI14
aI380
aasS'1JD6'
p2464
(lp2465
(lp2466
I18
aI217
aI438
aa(lp2467
I16
aI19
aI323
aasS'1TS6'
p2468
(lp2469
(lp2470
I10
aI8
aI124
aasS'1TS7'
p2471
(lp2472
(lp2473
I10
aI8
aI124
aasS'2BX3'
p2474
(lp2475
(lp2476
I3
aI1
aI4378
aasS'4IEN'
p2477
(lp2478
(lp2479
I5
aI1
aI154
aasS'3H44'
p2480
(lp2481
(lp2482
I13
aI50
aI944
aasS'1TS0'
p2483
(lp2484
(lp2485
I10
aI8
aI124
aasS'1WM6'
p2486
(lp2487
(lp2488
I5
aI1
aI123
aasS'4DNQ'
p2489
(lp2490
(lp2491
I6
aI2
aI265
aasS'1TS8'
p2492
(lp2493
(lp2494
I10
aI8
aI124
aasS'2C2L'
p2495
(lp2496
(lp2497
I8
aI13
aI158
aasS'3R3B'
p2498
(lp2499
(lp2500
I5
aI14
aI151
aasS'3R3C'
p2501
(lp2502
(lp2503
I5
aI14
aI151
aasS'3R3A'
p2504
(lp2505
(lp2506
I5
aI14
aI151
aasS'3R3F'
p2507
(lp2508
(lp2509
I5
aI14
aI151
aasS'3R3D'
p2510
(lp2511
(lp2512
I5
aI14
aI151
aasS'1SE0'
p2513
(lp2514
(lp2515
I18
aI217
aI438
aa(lp2516
I16
aI19
aI323
aasS'3R32'
p2517
(lp2518
(lp2519
I5
aI14
aI151
aasS'3R36'
p2520
(lp2521
(lp2522
I5
aI14
aI151
aasS'3R37'
p2523
(lp2524
(lp2525
I5
aI14
aI151
aasS'3R34'
p2526
(lp2527
(lp2528
I5
aI14
aI151
aasS'3R35'
p2529
(lp2530
(lp2531
I5
aI14
aI151
aasS'2EGI'
p2532
(lp2533
(lp2534
I21
aI3
aI126
aasS'4XY6'
p2535
(lp2536
(lp2537
I5
aI1
aI132
aasS'4XY5'
p2538
(lp2539
(lp2540
I5
aI1
aI132
aasS'1K4H'
p2541
(lp2542
(lp2543
I7
aI14
aI380
aasS'1J1I'
p2544
(lp2545
(lp2546
I6
aI1
aI284
aasS'3HM0'
p2547
(lp2548
(lp2549
I21
aI39
aI167
aasS'4QDA'
p2550
(lp2551
(lp2552
I5
aI8
aI140
aasS'4YLU'
p2553
(lp2554
(lp2555
I11
aI1
aI306
aasS'2PU5'
p2556
(lp2557
(lp2558
I6
aI20
aI284
aasS'1XNF'
p2559
(lp2560
(lp2561
I8
aI55
aI163
aasS'4WY3'
p2562
(lp2563
(lp2564
I2
aI1381
aI7072
aa(lp2565
I3
aI1
aI4383
aasS'2EIS'
p2566
(lp2567
(lp2568
I5
aI3
aI128
aasS'1VCE'
p2569
(lp2570
(lp2571
I1
aI1
aI261
aasS'3F7G'
p2572
(lp2573
(lp2574
I18
aI79
aI298
aa(lp2575
I16
aI2
aI201
aasS'1VH9'
p2576
(lp2577
(lp2578
I5
aI17
aI135
aasS'5C83'
p2579
(lp2580
(lp2581
I18
aI256
aI497
aa(lp2582
I16
aI16
aI434
aasS'5C84'
p2583
(lp2584
(lp2585
I18
aI256
aI497
aa(lp2586
I16
aI16
aI434
aasS'3R87'
p2587
(lp2588
(lp2589
I21
aI11
aI133
aasS'2E8S'
p2590
(lp2591
(lp2592
I1
aI1
aI261
aasS'3IVL'
p2593
(lp2594
(lp2595
I25
aI24
aI192
aasS'2QFA'
p2596
(lp2597
(lp2598
I16
aI5
aI97
aasS'3OZ1'
p2599
(lp2600
(lp2601
I17
aI538
aI618
aa(lp2602
I16
aI17
aI445
aasS'3D6L'
p2603
(lp2604
(lp2605
I5
aI1
aI132
aasS'4DY1'
p2606
(lp2607
(lp2608
I7
aI16
aI382
aasS'2HO1'
p2609
(lp2610
(lp2611
I8
aI24
aI246
aasS'2YYS'
p2612
(lp2613
(lp2614
I6
aI4
aI276
aasS'4I38'
p2615
(lp2616
(lp2617
I10
aI8
aI124
aasS'1Y5W'
p2618
(lp2619
(lp2620
I7
aI14
aI380
aasS'4HY8'
p2621
(lp2622
(lp2623
I10
aI8
aI124
aasS'4I39'
p2624
(lp2625
(lp2626
I10
aI8
aI124
aasS'4HY0'
p2627
(lp2628
(lp2629
I18
aI256
aI497
aa(lp2630
I16
aI16
aI434
aasS'1Y5X'
p2631
(lp2632
(lp2633
I7
aI14
aI380
aasS'4HY5'
p2634
(lp2635
(lp2636
I17
aI538
aI618
aa(lp2637
I16
aI17
aI445
aasS'4HY4'
p2638
(lp2639
(lp2640
I17
aI538
aI618
aa(lp2641
I16
aI17
aI445
aasS'3F9H'
p2642
(lp2643
(lp2644
I3
aI1
aI4378
aasS'3F9E'
p2645
(lp2646
(lp2647
I3
aI1
aI4378
aasS'3F9F'
p2648
(lp2649
(lp2650
I3
aI1
aI4378
aasS'3F9G'
p2651
(lp2652
(lp2653
I3
aI1
aI4378
aasS'2WUD'
p2654
(lp2655
(lp2656
I6
aI8
aI290
aasS'2GTB'
p2657
(lp2658
(lp2659
I3
aI1
aI4378
aasS'3KXP'
p2660
(lp2661
(lp2662
I6
aI46
aI314
aasS'2F3X'
p2663
(lp2664
(lp2665
I5
aI104
aI183
aasS'3GC5'
p2666
(lp2667
(lp2668
I7
aI14
aI380
aasS'3GC4'
p2669
(lp2670
(lp2671
I7
aI14
aI380
aasS'4F3L'
p2672
(lp2673
(lp2674
I4
aI30
aI382
aasS'2OKO'
p2675
(lp2676
(lp2677
I7
aI14
aI380
aasS'1UWN'
p2678
(lp2679
(lp2680
I10
aI8
aI124
aasS'2GT7'
p2681
(lp2682
(lp2683
I3
aI1
aI4378
aasS'4PFC'
p2684
(lp2685
(lp2686
I13
aI50
aI944
aasS'2GT8'
p2687
(lp2688
(lp2689
I3
aI1
aI4378
aasS'3WIO'
p2690
(lp2691
(lp2692
I6
aI45
aI318
aasS'4L56'
p2693
(lp2694
(lp2695
I7
aI14
aI380
aasS'3IH6'
p2696
(lp2697
(lp2698
I25
aI27
aI195
aasS'1UWP'
p2699
(lp2700
(lp2701
I10
aI8
aI124
aasS'2RHT'
p2702
(lp2703
(lp2704
I6
aI17
aI281
aasS'2RHW'
p2705
(lp2706
(lp2707
I6
aI17
aI281
aasS'3KD2'
p2708
(lp2709
(lp2710
I6
aI3
aI293
aasS'1OZM'
p2711
(lp2712
(lp2713
I7
aI14
aI380
aasS'2O6U'
p2714
(lp2715
(lp2716
I21
aI20
aI146
aasS'2O6T'
p2717
(lp2718
(lp2719
I21
aI20
aI146
aasS'3GEK'
p2720
(lp2721
(lp2722
I5
aI2
aI137
aasS'3QZ2'
p2723
(lp2724
(lp2725
I13
aI50
aI944
aasS'2O6B'
p2726
(lp2727
(lp2728
I21
aI20
aI146
aasS'1J1Y'
p2729
(lp2730
(lp2731
I5
aI1
aI123
aasS'3FSG'
p2732
(lp2733
(lp2734
I6
aI12
aI247
aasS'1FCH'
p2735
(lp2736
(lp2737
I8
aI269
aI637
aasS'2HOB'
p2738
(lp2739
(lp2740
I3
aI1
aI4378
aasS'1Z54'
p2741
(lp2742
(lp2743
I21
aI5
aI128
aasS'1E31'
p2744
(lp2745
(lp2746
I16
aI5
aI97
aasS'2E16'
p2747
(lp2748
(lp2749
I1
aI1
aI261
aasS'2I9V'
p2750
(lp2751
(lp2752
I10
aI8
aI124
aasS'1OZQ'
p2753
(lp2754
(lp2755
I7
aI14
aI380
aas.