(dp1
S'1GG6'
p2
(lp3
(lp4
I2879
aS'16'
p5
aS'145'
p6
aa(lp7
I2879
aS'151'
p8
aS'238'
p9
aasS'2BQW'
p10
(lp11
(lp12
I2879
aS'16'
p13
aS'238'
p14
aa(lp15
I2939
aS'1'
aS'36'
p16
aasS'1ZPZ'
p17
(lp18
(lp19
I2879
aS'16'
p20
aS'238'
p21
aasS'4X0W'
p22
(lp23
(lp24
I2879
aS'16'
p25
aS'238'
p26
aasS'4MPX'
p27
(lp28
(lp29
I2879
aS'31'
p30
aS'267'
p31
aasS'4ZAE'
p32
(lp33
(lp34
I2879
aS'16'
p35
aS'238'
p36
aa(lp37
I2939
aS'88'
p38
aS'124'
p39
aasS'4MPW'
p40
(lp41
(lp42
I2879
aS'31'
p43
aS'267'
p44
aasS'4MPV'
p45
(lp46
(lp47
I2879
aS'31'
p48
aS'267'
p49
aasS'2FIR'
p50
(lp51
(lp52
I1362
aS'7'
aS'82'
p53
aa(lp54
I2879
aS'16'
p55
aS'238'
p56
aa(lp57
I2939
aS'91'
p58
aS'127'
p59
aa(lp60
I3392
aS'50'
p61
aS'79'
p62
aa(lp63
I6386
aS'106'
p64
aS'210'
p65
aa(lp66
I6715
aS'5'
aS'44'
p67
aasS'1O2Y'
p68
(lp69
(lp70
I2879
aS'16'
p71
aS'238'
p72
aasS'1IHT'
p73
(lp74
(lp75
I2879
aS'16'
p76
aS'238'
p77
aa(lp78
I4359
aS'1D'
p79
aS'14L'
p80
aasS'1IHS'
p81
(lp82
(lp83
I1247
aS'3'
aS'82'
p84
aa(lp85
I2879
aS'16'
p86
aS'238'
p87
aa(lp88
I4359
aS'1D'
p89
aS'14L'
p90
aasS'1SGN'
p91
(lp92
(lp93
I1504
aS'8'
aS'56'
p94
aa(lp95
I2879
aS'48D'
p96
aS'235'
p97
aasS'2FI5'
p98
(lp99
(lp100
I2879
aS'16'
p101
aS'238'
p102
aa(lp103
I5507
aS'4'
aS'55'
p104
aasS'2FI4'
p105
(lp106
(lp107
I2879
aS'16'
p108
aS'238'
p109
aa(lp110
I5507
aS'4'
aS'55'
p111
aasS'2FI3'
p112
(lp113
(lp114
I2879
aS'16'
p115
aS'238'
p116
aa(lp117
I5507
aS'4'
aS'55'
p118
aasS'2DE9'
p119
(lp120
(lp121
I2879
aS'1'
aS'233'
p122
aasS'2DE8'
p123
(lp124
(lp125
I2879
aS'1'
aS'233'
p126
aasS'1EPT'
p127
(lp128
(lp129
I2879
aS'16'
p130
aS'60'
p131
aa(lp132
I2879
aS'62'
p133
aS'145'
p134
aa(lp135
I2879
aS'151'
p136
aS'238'
p137
aasS'1KDQ'
p138
(lp139
(lp140
I2879
aS'17'
p141
aS'145'
p142
aa(lp143
I2879
aS'151'
p144
aS'238'
p145
aasS'2BQ7'
p146
(lp147
(lp148
I2879
aS'16'
p149
aS'238'
p150
aa(lp151
I2939
aS'1'
aS'36'
p152
aasS'2BQ6'
p153
(lp154
(lp155
I2879
aS'16'
p156
aS'238'
p157
aa(lp158
I2939
aS'1'
aS'36'
p159
aasS'2Z7F'
p160
(lp161
(lp162
I2879
aS'16'
p163
aS'238'
p164
aa(lp165
I6473
aS'60'
p166
aS'104'
p167
aasS'2H1U'
p168
(lp169
(lp170
I2879
aS'16'
p171
aS'238'
p172
aasS'2OUA'
p173
(lp174
(lp175
I2879
aS'53'
p176
aS'235'
p177
aasS'1NES'
p178
(lp179
(lp180
I2879
aS'16'
p181
aS'238'
p182
aasS'1ZTK'
p183
(lp184
(lp185
I2879
aS'16'
p186
aS'238'
p187
aasS'1ZTJ'
p188
(lp189
(lp190
I2879
aS'16'
p191
aS'238'
p192
aasS'1LQD'
p193
(lp194
(lp195
I2879
aS'16'
p196
aS'238'
p197
aa(lp198
I2939
aS'1'
aS'36'
p199
aasS'1ZTL'
p200
(lp201
(lp202
I2879
aS'16'
p203
aS'238'
p204
aa(lp205
I2879
aS'16'
p206
aS'238'
p207
aasS'4DT7'
p208
(lp209
(lp210
I2879
aS'16'
p211
aS'238'
p212
aa(lp213
I4359
aS'1D'
p214
aS'15'
p215
aasS'4CRA'
p216
(lp217
(lp218
I2879
aS'16'
p219
aS'238'
p220
aasS'4CRC'
p221
(lp222
(lp223
I2879
aS'16'
p224
aS'238'
p225
aasS'4CRB'
p226
(lp227
(lp228
I2879
aS'16'
p229
aS'238'
p230
aasS'4CRE'
p231
(lp232
(lp233
I2879
aS'16'
p234
aS'238'
p235
aasS'4CRD'
p236
(lp237
(lp238
I2879
aS'16'
p239
aS'238'
p240
aasS'4CRG'
p241
(lp242
(lp243
I2879
aS'16'
p244
aS'238'
p245
aasS'4CRF'
p246
(lp247
(lp248
I2879
aS'16'
p249
aS'238'
p250
aasS'4ABJ'
p251
(lp252
(lp253
I2879
aS'24'
p254
aS'239'
p255
aasS'4ABI'
p256
(lp257
(lp258
I2879
aS'16'
p259
aS'231'
p260
aasS'4ABH'
p261
(lp262
(lp263
I2879
aS'16'
p264
aS'238'
p265
aasS'4ABB'
p266
(lp267
(lp268
I2879
aS'16'
p269
aS'238'
p270
aasS'4ABA'
p271
(lp272
(lp273
I2879
aS'16'
p274
aS'238'
p275
aasS'4ABG'
p276
(lp277
(lp278
I2879
aS'16'
p279
aS'238'
p280
aasS'4ABF'
p281
(lp282
(lp283
I2879
aS'16'
p284
aS'238'
p285
aasS'4ABE'
p286
(lp287
(lp288
I2879
aS'16'
p289
aS'238'
p290
aasS'4ABD'
p291
(lp292
(lp293
I2879
aS'16'
p294
aS'238'
p295
aasS'4FXG'
p296
(lp297
(lp298
I1128
aS'702'
p299
aS'736'
p300
aa(lp301
I2539
aS'478'
p302
aS'610'
p303
aa(lp304
I2879
aS'445'
p305
aS'679'
p306
aa(lp307
I3054
aS'1481'
p308
aS'1570'
p309
aa(lp310
I3069
aS'782'
p311
aS'869'
p312
aa(lp313
I4067
aS'300'
p314
aS'361'
p315
aa(lp316
I4067
aS'366'
p317
aS'422'
p318
aa(lp319
I4736
aS'1000'
p320
aS'1028'
p321
aa(lp322
I5512
aS'1051'
p323
aS'1316'
p324
aa(lp325
I6554
aS'141'
p326
aS'233'
p327
aa(lp328
I7153
aS'1616'
p329
aS'1724'
p330
aasS'4AB9'
p331
(lp332
(lp333
I2879
aS'16'
p334
aS'238'
p335
aasS'4AB8'
p336
(lp337
(lp338
I2879
aS'16'
p339
aS'238'
p340
aasS'4CR9'
p341
(lp342
(lp343
I2879
aS'16'
p344
aS'238'
p345
aasS'4CR5'
p346
(lp347
(lp348
I2879
aS'16'
p349
aS'238'
p350
aasS'2THF'
p351
(lp352
(lp353
I2879
aS'16'
p354
aS'238'
p355
aa(lp356
I4359
aS'1A'
p357
aS'14K'
p358
aasS'3QUM'
p359
(lp360
(lp361
I1690
aS'120'
p362
aS'205'
p363
aa(lp364
I1690
aS'130'
p365
aS'205'
p366
aa(lp367
I1690
aS'120'
p368
aS'205'
p369
aa(lp370
I1690
aS'131'
p371
aS'206'
p372
aa(lp373
I2388
aS'6'
aS'106'
p374
aa(lp375
I2388
aS'5'
aS'111'
p376
aa(lp377
I2388
aS'6'
aS'106'
p378
aa(lp379
I2388
aS'5'
aS'112'
p380
aa(lp381
I2879
aS'16'
p382
aS'238'
p383
aasS'1LHF'
p384
(lp385
(lp386
I2879
aS'16'
p387
aS'238'
p388
aa(lp389
I4359
aS'1B'
p390
aS'14J'
p391
aasS'1SFQ'
p392
(lp393
(lp394
I2879
aS'16'
p395
aS'238'
p396
aa(lp397
I4359
aS'1C'
p398
aS'14L'
p399
aasS'1TRY'
p400
(lp401
(lp402
I2879
aS'16'
p403
aS'238'
p404
aasS'4UDW'
p405
(lp406
(lp407
I2879
aS'16'
p408
aS'265'
p409
aa(lp410
I4359
aS'1C'
p411
aS'28C'
p412
aasS'1QFK'
p413
(lp414
(lp415
I2879
aS'153'
p416
aS'387'
p417
aa(lp418
I2939
aS'91'
p419
aS'127'
p420
aa(lp421
I3392
aS'50'
p422
aS'79'
p423
aasS'3LJJ'
p424
(lp425
(lp426
I2879
aS'16'
p427
aS'238'
p428
aasS'2ASU'
p429
(lp430
(lp431
I2879
aS'489'
p432
aS'704'
p433
aasS'3LJO'
p434
(lp435
(lp436
I2879
aS'16'
p437
aS'238'
p438
aasS'1TRM'
p439
(lp440
(lp441
I2879
aS'16'
p442
aS'238'
p443
aasS'1ZZZ'
p444
(lp445
(lp446
I2879
aS'16'
p447
aS'238'
p448
aasS'1TRN'
p449
(lp450
(lp451
I2879
aS'16'
p452
aS'238'
p453
aasS'1A46'
p454
(lp455
(lp456
I2879
aS'16'
p457
aS'238'
p458
aa(lp459
I4359
aS'1A'
p460
aS'14K'
p461
aasS'2QAA'
p462
(lp463
(lp464
I2879
aS'48D'
p465
aS'235'
p466
aasS'2QA9'
p467
(lp468
(lp469
I2879
aS'48D'
p470
aS'235'
p471
aasS'2O8U'
p472
(lp473
(lp474
I2879
aS'16'
p475
aS'238'
p476
aasS'2O8T'
p477
(lp478
(lp479
I2879
aS'16'
p480
aS'238'
p481
aasS'2O8W'
p482
(lp483
(lp484
I2879
aS'16'
p485
aS'238'
p486
aasS'1HIA'
p487
(lp488
(lp489
I2879
aS'16'
p490
aS'95'
p491
aa(lp492
I2879
aS'97'
p493
aS'238'
p494
aa(lp495
I4333
aS'24'
p496
aS'50'
p497
aasS'4MPU'
p498
(lp499
(lp500
I2879
aS'31'
p501
aS'267'
p502
aasS'4DVA'
p503
(lp504
(lp505
I2879
aS'16'
p506
aS'238'
p507
aasS'1FMG'
p508
(lp509
(lp510
I2879
aS'16'
p511
aS'238'
p512
aasS'4UD9'
p513
(lp514
(lp515
I2879
aS'16'
p516
aS'265'
p517
aa(lp518
I4359
aS'1C'
p519
aS'28C'
p520
aasS'4F4O'
p521
(lp522
(lp523
I1262
aS'6'
aS'106'
p524
aa(lp525
I1262
aS'7'
aS'111'
p526
aa(lp527
I2879
aS'103'
p528
aS'340'
p529
aasS'1BMN'
p530
(lp531
(lp532
I2879
aS'16'
p533
aS'238'
p534
aa(lp535
I4359
aS'1B'
p536
aS'14J'
p537
aasS'1BML'
p538
(lp539
(lp540
I2879
aS'562'
p541
aS'784'
p542
aa(lp543
I3249
aS'27'
p544
aS'140'
p545
aa(lp546
I3249
aS'157'
p547
aS'276'
p548
aa(lp549
I3249
aS'295'
p550
aS'372'
p551
aasS'1BMM'
p552
(lp553
(lp554
I2879
aS'16'
p555
aS'238'
p556
aa(lp557
I4359
aS'1D'
p558
aS'14J'
p559
aasS'2AS9'
p560
(lp561
(lp562
I2879
aS'9'
aS'197'
p563
aasS'1JIM'
p564
(lp565
(lp566
I2879
aS'16'
p567
aS'238'
p568
aasS'1JIR'
p569
(lp570
(lp571
I2879
aS'16'
p572
aS'238'
p573
aasS'1S84'
p574
(lp575
(lp576
I2879
aS'16'
p577
aS'238'
p578
aasS'1S85'
p579
(lp580
(lp581
I2879
aS'16'
p582
aS'238'
p583
aasS'1S81'
p584
(lp585
(lp586
I2879
aS'16'
p587
aS'238'
p588
aasS'1S82'
p589
(lp590
(lp591
I2879
aS'16'
p592
aS'238'
p593
aasS'1S83'
p594
(lp595
(lp596
I2879
aS'16'
p597
aS'238'
p598
aasS'2CN0'
p599
(lp600
(lp601
I2879
aS'16'
p602
aS'238'
p603
aa(lp604
I4359
aS'1A'
p605
aS'14L'
p606
aasS'1JRS'
p607
(lp608
(lp609
I2879
aS'16'
p610
aS'238'
p611
aasS'1DS2'
p612
(lp613
(lp614
I1504
aS'8'
aS'56'
p615
aa(lp616
I2879
aS'48D'
p617
aS'234'
p618
aasS'1BQY'
p619
(lp620
(lp621
I2879
aS'17'
p622
aS'238'
p623
aasS'1BCU'
p624
(lp625
(lp626
I2879
aS'16'
p627
aS'238'
p628
aa(lp629
I4359
aS'1B'
p630
aS'14J'
p631
aasS'1MMJ'
p632
(lp633
(lp634
I2879
aS'1'
aS'233'
p635
aasS'1DST'
p636
(lp637
(lp638
I2879
aS'16'
p639
aS'238'
p640
aasS'1DSU'
p641
(lp642
(lp643
I2879
aS'16'
p644
aS'238'
p645
aasS'1DM4'
p646
(lp647
(lp648
I2879
aS'16'
p649
aS'238'
p650
aa(lp651
I4359
aS'1H'
p652
aS'14K'
p653
aasS'3VFE'
p654
(lp655
(lp656
I2879
aS'17'
p657
aS'238'
p658
aasS'1UMA'
p659
(lp660
(lp661
I2879
aS'16'
p662
aS'238'
p663
aa(lp664
I4359
aS'1H'
p665
aS'15'
p666
aasS'3TVJ'
p667
(lp668
(lp669
I2879
aS'445'
p670
aS'679'
p671
aa(lp672
I4067
aS'366'
p673
aS'428'
p674
aa(lp675
I7286
aS'3'
aS'35'
p676
aasS'2JH0'
p677
(lp678
(lp679
I2879
aS'16'
p680
aS'238'
p681
aa(lp682
I2879
aS'16'
p683
aS'238'
p684
aa(lp685
I4359
aS'1B'
p686
aS'15'
p687
aa(lp688
I4359
aS'1B'
p689
aS'15'
p690
aasS'2JH5'
p691
(lp692
(lp693
I2879
aS'16'
p694
aS'238'
p695
aa(lp696
I4359
aS'1B'
p697
aS'15'
p698
aasS'2JH6'
p699
(lp700
(lp701
I2879
aS'16'
p702
aS'238'
p703
aa(lp704
I4359
aS'1B'
p705
aS'15'
p706
aasS'1EQ9'
p707
(lp708
(lp709
I2879
aS'16'
p710
aS'238'
p711
aasS'2HLC'
p712
(lp713
(lp714
I2879
aS'16'
p715
aS'238'
p716
aasS'1XUH'
p717
(lp718
(lp719
I2879
aS'16'
p720
aS'238'
p721
aasS'1XUI'
p722
(lp723
(lp724
I2879
aS'16'
p725
aS'238'
p726
aasS'1XUJ'
p727
(lp728
(lp729
I2879
aS'16'
p730
aS'238'
p731
aasS'1XUK'
p732
(lp733
(lp734
I2879
aS'16'
p735
aS'238'
p736
aasS'1KSN'
p737
(lp738
(lp739
I2879
aS'16'
p740
aS'238'
p741
aa(lp742
I2939
aS'1'
aS'36'
p743
aasS'1XUF'
p744
(lp745
(lp746
I2879
aS'16'
p747
aS'238'
p748
aasS'1XUG'
p749
(lp750
(lp751
I2879
aS'16'
p752
aS'238'
p753
aasS'1O0D'
p754
(lp755
(lp756
I2879
aS'16'
p757
aS'238'
p758
aa(lp759
I4359
aS'1F'
p760
aS'15'
p761
aasS'2F83'
p762
(lp763
(lp764
I2879
aS'370'
p765
aS'600'
p766
aa(lp767
I4426
aS'4'
aS'85'
p768
aa(lp769
I4426
aS'101'
p770
aS'175'
p771
aa(lp772
I4426
aS'185'
p773
aS'265'
p774
aa(lp775
I4426
aS'278'
p776
aS'353'
p777
aasS'4DUR'
p778
(lp779
(lp780
I2879
aS'563'
p781
aS'784'
p782
aa(lp783
I4426
aS'6'
aS'77'
p784
aa(lp785
I5155
aS'84'
p786
aS'162'
p787
aa(lp788
I5155
aS'166'
p789
aS'243'
p790
aa(lp791
I5155
aS'256'
p792
aS'333'
p793
aa(lp794
I5155
aS'358'
p795
aS'435'
p796
aa(lp797
I5155
aS'462'
p798
aS'541'
p799
aasS'4DUU'
p800
(lp801
(lp802
I2879
aS'563'
p803
aS'784'
p804
aa(lp805
I4426
aS'6'
aS'77'
p806
aa(lp807
I5155
aS'84'
p808
aS'162'
p809
aa(lp810
I5155
aS'166'
p811
aS'243'
p812
aa(lp813
I5155
aS'346'
p814
aS'255'
p815
aa(lp816
I5155
aS'358'
p817
aS'435'
p818
aa(lp819
I5155
aS'462'
p820
aS'541'
p821
aasS'3OTJ'
p822
(lp823
(lp824
I2879
aS'16'
p825
aS'238'
p826
aa(lp827
I5507
aS'4'
aS'55'
p828
aasS'1ABI'
p829
(lp830
(lp831
I2879
aS'16'
p832
aS'238'
p833
aa(lp834
I4359
aS'1E'
p835
aS'15'
p836
aasS'1ABJ'
p837
(lp838
(lp839
I2879
aS'16'
p840
aS'238'
p841
aa(lp842
I4359
aS'1B'
p843
aS'14K'
p844
aasS'3B23'
p845
(lp846
(lp847
I2879
aS'16'
p848
aS'238'
p849
aa(lp850
I4359
aS'1B'
p851
aS'14M'
p852
aasS'2TIO'
p853
(lp854
(lp855
I2879
aS'16'
p856
aS'238'
p857
aasS'1GGD'
p858
(lp859
(lp860
I2879
aS'16'
p861
aS'145'
p862
aa(lp863
I2879
aS'151'
p864
aS'238'
p865
aasS'4WWY'
p866
(lp867
(lp868
I2879
aS'16'
p869
aS'238'
p870
aa(lp871
I5507
aS'4'
aS'55'
p872
aasS'3SHC'
p873
(lp874
(lp875
I2879
aS'16'
p876
aS'238'
p877
aa(lp878
I4359
aS'1C'
p879
aS'14K'
p880
aasS'4N3L'
p881
(lp882
(lp883
I2879
aS'16'
p884
aS'238'
p885
aa(lp886
I4359
aS'1B'
p887
aS'14J'
p888
aasS'3QDZ'
p889
(lp890
(lp891
I2879
aS'16'
p892
aS'238'
p893
aa(lp894
I4359
aS'1C'
p895
aS'14L'
p896
aasS'1O5E'
p897
(lp898
(lp899
I2879
aS'16'
p900
aS'238'
p901
aa(lp902
I5609
aS'5'
aS'114'
p903
aasS'4NA7'
p904
(lp905
(lp906
I2879
aS'16'
p907
aS'238'
p908
aasS'4NA9'
p909
(lp910
(lp911
I2879
aS'16'
p912
aS'238'
p913
aa(lp914
I2939
aS'91'
p915
aS'127'
p916
aasS'4NA8'
p917
(lp918
(lp919
I2879
aS'16'
p920
aS'238'
p921
aasS'4X1S'
p922
(lp923
(lp924
I2879
aS'16'
p925
aS'242'
p926
aasS'1AB9'
p927
(lp928
(lp929
I2879
aS'16'
p930
aS'145'
p931
aa(lp932
I2879
aS'151'
p933
aS'238'
p934
aasS'4X1Q'
p935
(lp936
(lp937
I2879
aS'16'
p938
aS'238'
p939
aasS'4X1P'
p940
(lp941
(lp942
I2879
aS'16'
p943
aS'238'
p944
aasS'1UCY'
p945
(lp946
(lp947
I2879
aS'16'
p948
aS'148'
p949
aa(lp950
I2879
aS'151'
p951
aS'238'
p952
aa(lp953
I2879
aS'16'
p954
aS'238'
p955
aa(lp956
I4359
aS'1H'
p957
aS'15'
p958
aasS'1F0S'
p959
(lp960
(lp961
I2879
aS'16'
p962
aS'238'
p963
aa(lp964
I2939
aS'1'
aS'36'
p965
aasS'1F0R'
p966
(lp967
(lp968
I2879
aS'16'
p969
aS'238'
p970
aa(lp971
I2939
aS'1'
aS'36'
p972
aasS'1F0U'
p973
(lp974
(lp975
I2879
aS'16'
p976
aS'238'
p977
aasS'1F0T'
p978
(lp979
(lp980
I2879
aS'16'
p981
aS'238'
p982
aasS'2TGD'
p983
(lp984
(lp985
I2879
aS'17'
p986
aS'238'
p987
aasS'1A5I'
p988
(lp989
(lp990
I2879
aS'18'
p991
aS'238'
p992
aasS'1A5H'
p993
(lp994
(lp995
I2879
aS'16'
p996
aS'238'
p997
aasS'2TGA'
p998
(lp999
(lp1000
I2879
aS'16'
p1001
aS'238'
p1002
aasS'1A5G'
p1003
(lp1004
(lp1005
I2879
aS'16'
p1006
aS'238'
p1007
aa(lp1008
I4359
aS'1B'
p1009
aS'14K'
p1010
aasS'1C9T'
p1011
(lp1012
(lp1013
I2879
aS'16'
p1014
aS'238'
p1015
aa(lp1016
I4333
aS'28'
p1017
aS'54'
p1018
aasS'1C9P'
p1019
(lp1020
(lp1021
I2879
aS'16'
p1022
aS'238'
p1023
aa(lp1024
I4333
aS'28'
p1025
aS'54'
p1026
aasS'2VGC'
p1027
(lp1028
(lp1029
I2879
aS'16'
p1030
aS'145'
p1031
aa(lp1032
I2879
aS'151'
p1033
aS'238'
p1034
aasS'2TGT'
p1035
(lp1036
(lp1037
I2879
aS'16'
p1038
aS'238'
p1039
aasS'2TGP'
p1040
(lp1041
(lp1042
I2879
aS'16'
p1043
aS'238'
p1044
aa(lp1045
I5507
aS'4'
aS'55'
p1046
aasS'4DG4'
p1047
(lp1048
(lp1049
I2879
aS'16'
p1050
aS'238'
p1051
aa(lp1052
I5507
aS'4'
aS'55'
p1053
aasS'1W7X'
p1054
(lp1055
(lp1056
I2879
aS'16'
p1057
aS'238'
p1058
aa(lp1059
I2939
aS'91'
p1060
aS'127'
p1061
aasS'2ZNK'
p1062
(lp1063
(lp1064
I2879
aS'16'
p1065
aS'238'
p1066
aa(lp1067
I4359
aS'1C'
p1068
aS'14K'
p1069
aasS'1W7G'
p1070
(lp1071
(lp1072
I2879
aS'16'
p1073
aS'238'
p1074
aa(lp1075
I4359
aS'1A'
p1076
aS'15'
p1077
aasS'2OTV'
p1078
(lp1079
(lp1080
I2879
aS'16'
p1081
aS'244'
p1082
aasS'1XKB'
p1083
(lp1084
(lp1085
I2879
aS'16'
p1086
aS'238'
p1087
aa(lp1088
I2939
aS'89'
p1089
aS'124'
p1090
aa(lp1091
I3392
aS'50'
p1092
aS'80'
p1093
aasS'2PGB'
p1094
(lp1095
(lp1096
I2879
aS'16'
p1097
aS'238'
p1098
aa(lp1099
I4359
aS'1H'
p1100
aS'14M'
p1101
aasS'2XXL'
p1102
(lp1103
(lp1104
I1793
aS'32'
p1105
aS'89'
p1106
aa(lp1107
I2879
aS'121'
p1108
aS'368'
p1109
aasS'4DGJ'
p1110
(lp1111
(lp1112
I2879
aS'1'
aS'230'
p1113
aasS'1LPG'
p1114
(lp1115
(lp1116
I2879
aS'16'
p1117
aS'238'
p1118
aa(lp1119
I2939
aS'1'
aS'36'
p1120
aasS'1LPK'
p1121
(lp1122
(lp1123
I2879
aS'16'
p1124
aS'238'
p1125
aa(lp1126
I2939
aS'1'
aS'36'
p1127
aasS'3QX5'
p1128
(lp1129
(lp1130
I2879
aS'16'
p1131
aS'238'
p1132
aa(lp1133
I2879
aS'16'
p1134
aS'238'
p1135
aa(lp1136
I4359
aS'1C'
p1137
aS'14K'
p1138
aa(lp1139
I4359
aS'1C'
p1140
aS'14K'
p1141
aasS'1LPZ'
p1142
(lp1143
(lp1144
I2879
aS'16'
p1145
aS'238'
p1146
aa(lp1147
I2939
aS'1'
aS'36'
p1148
aasS'2CMY'
p1149
(lp1150
(lp1151
I2879
aS'16'
p1152
aS'238'
p1153
aasS'2ALP'
p1154
(lp1155
(lp1156
I2879
aS'52'
p1157
aS'222'
p1158
aasS'2STA'
p1159
(lp1160
(lp1161
I2879
aS'16'
p1162
aS'238'
p1163
aa(lp1164
I3295
aS'501'
p1165
aS'529'
p1166
aasS'2STB'
p1167
(lp1168
(lp1169
I2879
aS'16'
p1170
aS'238'
p1171
aa(lp1172
I3295
aS'501'
p1173
aS'529'
p1174
aasS'1MBQ'
p1175
(lp1176
(lp1177
I2879
aS'16'
p1178
aS'238'
p1179
aasS'1SG8'
p1180
(lp1181
(lp1182
I2879
aS'16'
p1183
aS'238'
p1184
aa(lp1185
I4359
aS'1B'
p1186
aS'14K'
p1187
aasS'2GMT'
p1188
(lp1189
(lp1190
I2879
aS'16'
p1191
aS'145'
p1192
aa(lp1193
I2879
aS'151'
p1194
aS'238'
p1195
aasS'3DA9'
p1196
(lp1197
(lp1198
I2879
aS'37'
p1199
aS'280'
p1200
aa(lp1201
I4359
aS'7'
aS'33'
p1202
aasS'1SGQ'
p1203
(lp1204
(lp1205
I1504
aS'8'
aS'56'
p1206
aa(lp1207
I2879
aS'48D'
p1208
aS'234'
p1209
aasS'1SGP'
p1210
(lp1211
(lp1212
I1504
aS'8'
aS'56'
p1213
aa(lp1214
I2879
aS'48D'
p1215
aS'234'
p1216
aasS'1SGR'
p1217
(lp1218
(lp1219
I1504
aS'8'
aS'56'
p1220
aa(lp1221
I2879
aS'48D'
p1222
aS'234'
p1223
aasS'1NRO'
p1224
(lp1225
(lp1226
I2879
aS'16'
p1227
aS'238'
p1228
aa(lp1229
I4359
aS'1A'
p1230
aS'15'
p1231
aasS'1NRN'
p1232
(lp1233
(lp1234
I2879
aS'16'
p1235
aS'238'
p1236
aa(lp1237
I4359
aS'1A'
p1238
aS'15'
p1239
aasS'1SGY'
p1240
(lp1241
(lp1242
I1504
aS'8'
aS'56'
p1243
aa(lp1244
I2879
aS'48D'
p1245
aS'235'
p1246
aasS'4DII'
p1247
(lp1248
(lp1249
I2879
aS'16'
p1250
aS'238'
p1251
aa(lp1252
I4359
aS'1B'
p1253
aS'14K'
p1254
aasS'4DIH'
p1255
(lp1256
(lp1257
I2879
aS'16'
p1258
aS'238'
p1259
aa(lp1260
I4359
aS'1B'
p1261
aS'14K'
p1262
aasS'1SGC'
p1263
(lp1264
(lp1265
I2879
aS'100'
p1266
aS'235'
p1267
aasS'1SGE'
p1268
(lp1269
(lp1270
I1504
aS'8'
aS'56'
p1271
aa(lp1272
I2879
aS'48D'
p1273
aS'235'
p1274
aasS'1SGD'
p1275
(lp1276
(lp1277
I1504
aS'8'
aS'56'
p1278
aa(lp1279
I2879
aS'48D'
p1280
aS'235'
p1281
aasS'1NRS'
p1282
(lp1283
(lp1284
I2879
aS'16'
p1285
aS'238'
p1286
aa(lp1287
I4359
aS'1B'
p1288
aS'14K'
p1289
aasS'1NRR'
p1290
(lp1291
(lp1292
I2879
aS'16'
p1293
aS'238'
p1294
aa(lp1295
I4359
aS'1B'
p1296
aS'14J'
p1297
aasS'1NRQ'
p1298
(lp1299
(lp1300
I2879
aS'16'
p1301
aS'238'
p1302
aa(lp1303
I4359
aS'1A'
p1304
aS'14H'
p1305
aasS'1NRP'
p1306
(lp1307
(lp1308
I2879
aS'16'
p1309
aS'238'
p1310
aa(lp1311
I2879
aS'16'
p1312
aS'238'
p1313
aa(lp1314
I4359
aS'1A'
p1315
aS'15'
p1316
aa(lp1317
I4359
aS'1A'
p1318
aS'15'
p1319
aasS'1AE8'
p1320
(lp1321
(lp1322
I2879
aS'16'
p1323
aS'238'
p1324
aa(lp1325
I4359
aS'1H'
p1326
aS'15'
p1327
aasS'1BB0'
p1328
(lp1329
(lp1330
I2879
aS'16'
p1331
aS'238'
p1332
aa(lp1333
I4359
aS'1B'
p1334
aS'14J'
p1335
aasS'1FZZ'
p1336
(lp1337
(lp1338
I2879
aS'16'
p1339
aS'238'
p1340
aasS'2GCT'
p1341
(lp1342
(lp1343
I2879
aS'16'
p1344
aS'145'
p1345
aa(lp1346
I2879
aS'151'
p1347
aS'238'
p1348
aasS'1KTS'
p1349
(lp1350
(lp1351
I2879
aS'16'
p1352
aS'238'
p1353
aa(lp1354
I4359
aS'1C'
p1355
aS'14J'
p1356
aasS'1KTT'
p1357
(lp1358
(lp1359
I2879
aS'16'
p1360
aS'238'
p1361
aa(lp1362
I4359
aS'1C'
p1363
aS'14J'
p1364
aasS'2GCH'
p1365
(lp1366
(lp1367
I2879
aS'16'
p1368
aS'145'
p1369
aa(lp1370
I2879
aS'151'
p1371
aS'238'
p1372
aasS'6EST'
p1373
(lp1374
(lp1375
I2879
aS'16'
p1376
aS'238'
p1377
aasS'3EGK'
p1378
(lp1379
(lp1380
I2879
aS'16'
p1381
aS'238'
p1382
aa(lp1383
I4359
aS'1C'
p1384
aS'14J'
p1385
aasS'3C27'
p1386
(lp1387
(lp1388
I2879
aS'37'
p1389
aS'280'
p1390
aa(lp1391
I4359
aS'7'
aS'32'
p1392
aasS'3HGP'
p1393
(lp1394
(lp1395
I2879
aS'16'
p1396
aS'238'
p1397
aasS'3UIR'
p1398
(lp1399
(lp1400
I2879
aS'562'
p1401
aS'784'
p1402
aa(lp1403
I5507
aS'6'
aS'58'
p1404
aasS'1DLK'
p1405
(lp1406
(lp1407
I2879
aS'16'
p1408
aS'238'
p1409
aasS'3HGN'
p1410
(lp1411
(lp1412
I2879
aS'16'
p1413
aS'238'
p1414
aasS'1DLE'
p1415
(lp1416
(lp1417
I2879
aS'20'
p1418
aS'237'
p1419
aasS'2B7D'
p1420
(lp1421
(lp1422
I1362
aS'6'
aS'83'
p1423
aa(lp1424
I2879
aS'16'
p1425
aS'238'
p1426
aa(lp1427
I2939
aS'91'
p1428
aS'127'
p1429
aa(lp1430
I3392
aS'50'
p1431
aS'79'
p1432
aa(lp1433
I6386
aS'106'
p1434
aS'205'
p1435
aasS'1QHR'
p1436
(lp1437
(lp1438
I2879
aS'16'
p1439
aS'238'
p1440
aa(lp1441
I4359
aS'1H'
p1442
aS'15'
p1443
aasS'2EST'
p1444
(lp1445
(lp1446
I2879
aS'16'
p1447
aS'238'
p1448
aasS'1QB9'
p1449
(lp1450
(lp1451
I2879
aS'7'
aS'222'
p1452
aasS'3TU7'
p1453
(lp1454
(lp1455
I2879
aS'16'
p1456
aS'238'
p1457
aa(lp1458
I4359
aS'1G'
p1459
aS'14J'
p1460
aasS'3CEN'
p1461
(lp1462
(lp1463
I2879
aS'16'
p1464
aS'238'
p1465
aa(lp1466
I2939
aS'89'
p1467
aS'124'
p1468
aasS'3MU4'
p1469
(lp1470
(lp1471
I2879
aS'16'
p1472
aS'238'
p1473
aasS'2ULL'
p1474
(lp1475
(lp1476
I2879
aS'52'
p1477
aS'222'
p1478
aasS'6GCH'
p1479
(lp1480
(lp1481
I2879
aS'16'
p1482
aS'145'
p1483
aa(lp1484
I2879
aS'151'
p1485
aS'238'
p1486
aasS'4U30'
p1487
(lp1488
(lp1489
I2879
aS'16'
p1490
aS'238'
p1491
aa(lp1492
I5507
aS'6'
aS'55'
p1493
aasS'4U32'
p1494
(lp1495
(lp1496
I2879
aS'16'
p1497
aS'238'
p1498
aa(lp1499
I5507
aS'4'
aS'55'
p1500
aasS'2F9P'
p1501
(lp1502
(lp1503
I2879
aS'16'
p1504
aS'238'
p1505
aasS'2F9O'
p1506
(lp1507
(lp1508
I2879
aS'16'
p1509
aS'238'
p1510
aasS'2F9N'
p1511
(lp1512
(lp1513
I2879
aS'16'
p1514
aS'238'
p1515
aasS'1K9O'
p1516
(lp1517
(lp1518
I2879
aS'16'
p1519
aS'238'
p1520
aa(lp1521
I6874
aS'22'
p1522
aS'386'
p1523
aasS'2F9B'
p1524
(lp1525
(lp1526
I1362
aS'6'
aS'83'
p1527
aa(lp1528
I2879
aS'16'
p1529
aS'238'
p1530
aa(lp1531
I2939
aS'91'
p1532
aS'127'
p1533
aa(lp1534
I3392
aS'50'
p1535
aS'79'
p1536
aa(lp1537
I6386
aS'106'
p1538
aS'205'
p1539
aasS'3SI3'
p1540
(lp1541
(lp1542
I2879
aS'16'
p1543
aS'238'
p1544
aa(lp1545
I4359
aS'1C'
p1546
aS'14K'
p1547
aasS'3SI4'
p1548
(lp1549
(lp1550
I2879
aS'16'
p1551
aS'238'
p1552
aa(lp1553
I4359
aS'1C'
p1554
aS'14K'
p1555
aasS'3EQ0'
p1556
(lp1557
(lp1558
I2879
aS'16'
p1559
aS'238'
p1560
aa(lp1561
I4359
aS'1B'
p1562
aS'14K'
p1563
aasS'3MNS'
p1564
(lp1565
(lp1566
I2879
aS'16'
p1567
aS'238'
p1568
aasS'2VVC'
p1569
(lp1570
(lp1571
I2879
aS'16'
p1572
aS'238'
p1573
aa(lp1574
I2939
aS'89'
p1575
aS'124'
p1576
aasS'1UVO'
p1577
(lp1578
(lp1579
I2879
aS'1'
aS'233'
p1580
aasS'3MNX'
p1581
(lp1582
(lp1583
I2879
aS'16'
p1584
aS'238'
p1585
aasS'2VVV'
p1586
(lp1587
(lp1588
I2879
aS'16'
p1589
aS'238'
p1590
aa(lp1591
I2939
aS'89'
p1592
aS'124'
p1593
aasS'3MNC'
p1594
(lp1595
(lp1596
I2879
aS'16'
p1597
aS'238'
p1598
aasS'2VVU'
p1599
(lp1600
(lp1601
I2879
aS'16'
p1602
aS'238'
p1603
aa(lp1604
I2939
aS'89'
p1605
aS'124'
p1606
aasS'1UVP'
p1607
(lp1608
(lp1609
I2879
aS'1'
aS'233'
p1610
aasS'1UVS'
p1611
(lp1612
(lp1613
I2879
aS'16'
p1614
aS'238'
p1615
aa(lp1616
I4359
aS'1B'
p1617
aS'14K'
p1618
aasS'1UVT'
p1619
(lp1620
(lp1621
I2879
aS'16'
p1622
aS'238'
p1623
aa(lp1624
I4359
aS'1'
aS'14K'
p1625
aasS'1UVU'
p1626
(lp1627
(lp1628
I2879
aS'16'
p1629
aS'237'
p1630
aa(lp1631
I4359
aS'1'
aS'14J'
p1632
aasS'3SW2'
p1633
(lp1634
(lp1635
I2879
aS'16'
p1636
aS'238'
p1637
aa(lp1638
I2939
aS'129'
p1639
aS'164'
p1640
aasS'2PV9'
p1641
(lp1642
(lp1643
I2879
aS'16'
p1644
aS'238'
p1645
aa(lp1646
I4359
aS'1P'
p1647
aS'14M'
p1648
aasS'1ZJD'
p1649
(lp1650
(lp1651
I2879
aS'16'
p1652
aS'238'
p1653
aa(lp1654
I5507
aS'4'
aS'55'
p1655
aasS'1ZJK'
p1656
(lp1657
(lp1658
I2879
aS'445'
p1659
aS'679'
p1660
aa(lp1661
I4067
aS'300'
p1662
aS'361'
p1663
aa(lp1664
I4067
aS'366'
p1665
aS'422'
p1666
aasS'1AQ7'
p1667
(lp1668
(lp1669
I2879
aS'16'
p1670
aS'238'
p1671
aasS'1WTG'
p1672
(lp1673
(lp1674
I1362
aS'6'
aS'79'
p1675
aa(lp1676
I2879
aS'16'
p1677
aS'238'
p1678
aa(lp1679
I2939
aS'91'
p1680
aS'127'
p1681
aa(lp1682
I3392
aS'50'
p1683
aS'79'
p1684
aa(lp1685
I6386
aS'106'
p1686
aS'210'
p1687
aa(lp1688
I6715
aS'5'
aS'44'
p1689
aasS'1NC6'
p1690
(lp1691
(lp1692
I2879
aS'16'
p1693
aS'238'
p1694
aasS'4CBO'
p1695
(lp1696
(lp1697
I2879
aS'1'
aS'223'
p1698
aasS'4CBN'
p1699
(lp1700
(lp1701
I2879
aS'1'
aS'223'
p1702
aasS'3M35'
p1703
(lp1704
(lp1705
I2879
aS'16'
p1706
aS'238'
p1707
aasS'3M37'
p1708
(lp1709
(lp1710
I2879
aS'16'
p1711
aS'238'
p1712
aa(lp1713
I2939
aS'89'
p1714
aS'124'
p1715
aasS'3M36'
p1716
(lp1717
(lp1718
I2879
aS'16'
p1719
aS'238'
p1720
aa(lp1721
I2939
aS'89'
p1722
aS'124'
p1723
aasS'3QWC'
p1724
(lp1725
(lp1726
I2879
aS'16'
p1727
aS'238'
p1728
aa(lp1729
I4359
aS'1C'
p1730
aS'14K'
p1731
aasS'3D65'
p1732
(lp1733
(lp1734
I2879
aS'16'
p1735
aS'238'
p1736
aa(lp1737
I5507
aS'6'
aS'58'
p1738
aasS'4TY7'
p1739
(lp1740
(lp1741
I2879
aS'16'
p1742
aS'238'
p1743
aasS'4WVP'
p1744
(lp1745
(lp1746
I2879
aS'16'
p1747
aS'238'
p1748
aasS'3PO1'
p1749
(lp1750
(lp1751
I2879
aS'37'
p1752
aS'181'
p1753
aa(lp1754
I2879
aS'186'
p1755
aS'280'
p1756
aa(lp1757
I4359
aS'7'
aS'33'
p1758
aasS'1SHH'
p1759
(lp1760
(lp1761
I2879
aS'16'
p1762
aS'238'
p1763
aa(lp1764
I4359
aS'1C'
p1765
aS'14L'
p1766
aasS'4DJZ'
p1767
(lp1768
(lp1769
I2879
aS'449'
p1770
aS'691'
p1771
aa(lp1772
I4067
aS'301'
p1773
aS'362'
p1774
aa(lp1775
I4067
aS'367'
p1776
aS'432'
p1777
aa(lp1778
I7286
aS'6'
aS'38'
p1779
aasS'1VR1'
p1780
(lp1781
(lp1782
I2879
aS'16'
p1783
aS'238'
p1784
aa(lp1785
I4359
aS'1B'
p1786
aS'14K'
p1787
aasS'2VH6'
p1788
(lp1789
(lp1790
I2879
aS'16'
p1791
aS'238'
p1792
aa(lp1793
I2939
aS'1'
aS'36'
p1794
aasS'2VH0'
p1795
(lp1796
(lp1797
I2879
aS'16'
p1798
aS'238'
p1799
aa(lp1800
I2939
aS'1'
aS'36'
p1801
aasS'1EKB'
p1802
(lp1803
(lp1804
I2879
aS'16'
p1805
aS'238'
p1806
aasS'1TB6'
p1807
(lp1808
(lp1809
I2879
aS'16'
p1810
aS'238'
p1811
aa(lp1812
I4359
aS'1R'
p1813
aS'14K'
p1814
aa(lp1815
I6874
aS'54'
p1816
aS'429'
p1817
aasS'1FY4'
p1818
(lp1819
(lp1820
I2879
aS'16'
p1821
aS'238'
p1822
aasS'1FY5'
p1823
(lp1824
(lp1825
I2879
aS'16'
p1826
aS'238'
p1827
aasS'1FY3'
p1828
(lp1829
(lp1830
I2879
aS'1'
aS'213'
p1831
aa(lp1832
I2879
aS'1'
aS'213'
p1833
aasS'1FY1'
p1834
(lp1835
(lp1836
I2879
aS'1'
aS'213'
p1837
aasS'3W94'
p1838
(lp1839
(lp1840
I2879
aS'795'
p1841
aS'1022'
p1842
aasS'1A2C'
p1843
(lp1844
(lp1845
I2879
aS'16'
p1846
aS'238'
p1847
aa(lp1848
I4359
aS'1H'
p1849
aS'15'
p1850
aasS'1FY8'
p1851
(lp1852
(lp1853
I2879
aS'18'
p1854
aS'238'
p1855
aa(lp1856
I5507
aS'4'
aS'55'
p1857
aasS'1TBQ'
p1858
(lp1859
(lp1860
I1503
aS'8'
aS'48'
p1861
aa(lp1862
I1503
aS'60'
p1863
aS'101'
p1864
aa(lp1865
I2879
aS'16'
p1866
aS'238'
p1867
aa(lp1868
I4359
aS'1S'
p1869
aS'15'
p1870
aasS'1TBR'
p1871
(lp1872
(lp1873
I1503
aS'8'
aS'48'
p1874
aa(lp1875
I1503
aS'60'
p1876
aS'101'
p1877
aa(lp1878
I2879
aS'16'
p1879
aS'238'
p1880
aa(lp1881
I4359
aS'1S'
p1882
aS'15'
p1883
aasS'1TBZ'
p1884
(lp1885
(lp1886
I2879
aS'16'
p1887
aS'238'
p1888
aa(lp1889
I4359
aS'1'
aS'14K'
p1890
aasS'1P10'
p1891
(lp1892
(lp1893
I2879
aS'52'
p1894
aS'221A'
p1895
aasS'1P11'
p1896
(lp1897
(lp1898
I2879
aS'52'
p1899
aS'221A'
p1900
aasS'1W0Y'
p1901
(lp1902
(lp1903
I1362
aS'6'
aS'79'
p1904
aa(lp1905
I2879
aS'16'
p1906
aS'238'
p1907
aa(lp1908
I2939
aS'91'
p1909
aS'127'
p1910
aa(lp1911
I3392
aS'50'
p1912
aS'79'
p1913
aa(lp1914
I6386
aS'106'
p1915
aS'210'
p1916
aa(lp1917
I6715
aS'5'
aS'44'
p1918
aasS'1W0Z'
p1919
(lp1920
(lp1921
I2879
aS'16'
p1922
aS'238'
p1923
aasS'4X6M'
p1924
(lp1925
(lp1926
I2879
aS'16'
p1927
aS'238'
p1928
aasS'2ZO3'
p1929
(lp1930
(lp1931
I2879
aS'16'
p1932
aS'238'
p1933
aa(lp1934
I4359
aS'1B'
p1935
aS'14K'
p1936
aasS'4Q80'
p1937
(lp1938
(lp1939
I2879
aS'16'
p1940
aS'238'
p1941
aa(lp1942
I2879
aS'16'
p1943
aS'238'
p1944
aasS'4GPG'
p1945
(lp1946
(lp1947
I2879
aS'28'
p1948
aS'221'
p1949
aasS'4K5Z'
p1950
(lp1951
(lp1952
I2879
aS'16'
p1953
aS'238'
p1954
aasS'1DOJ'
p1955
(lp1956
(lp1957
I2879
aS'16'
p1958
aS'238'
p1959
aa(lp1960
I4359
aS'1H'
p1961
aS'14M'
p1962
aasS'1JOU'
p1963
(lp1964
(lp1965
I2879
aS'16'
p1966
aS'238'
p1967
aa(lp1968
I4359
aS'1R'
p1969
aS'14M'
p1970
aasS'1BA8'
p1971
(lp1972
(lp1973
I2879
aS'16'
p1974
aS'238'
p1975
aa(lp1976
I4359
aS'1E'
p1977
aS'14K'
p1978
aasS'1OKX'
p1979
(lp1980
(lp1981
I2879
aS'16'
p1982
aS'248'
p1983
aasS'1RXP'
p1984
(lp1985
(lp1986
I2879
aS'16'
p1987
aS'238'
p1988
aasS'1MQ5'
p1989
(lp1990
(lp1991
I2879
aS'16'
p1992
aS'238'
p1993
aa(lp1994
I2939
aS'89'
p1995
aS'124'
p1996
aasS'1MQ6'
p1997
(lp1998
(lp1999
I2879
aS'16'
p2000
aS'238'
p2001
aa(lp2002
I2939
aS'89'
p2003
aS'124'
p2004
aasS'4Y8X'
p2005
(lp2006
(lp2007
I2879
aS'16'
p2008
aS'238'
p2009
aasS'1MCV'
p2010
(lp2011
(lp2012
I2879
aS'16'
p2013
aS'238'
p2014
aa(lp2015
I3295
aS'6'
aS'28'
p2016
aasS'1MCT'
p2017
(lp2018
(lp2019
I2879
aS'16'
p2020
aS'238'
p2021
aa(lp2022
I3295
aS'1'
aS'28'
p2023
aasS'1LQE'
p2024
(lp2025
(lp2026
I2879
aS'16'
p2027
aS'238'
p2028
aasS'1C1V'
p2029
(lp2030
(lp2031
I2879
aS'16'
p2032
aS'244'
p2033
aa(lp2034
I4359
aS'1H'
p2035
aS'15'
p2036
aasS'4BAQ'
p2037
(lp2038
(lp2039
I2879
aS'37'
p2040
aS'280'
p2041
aa(lp2042
I4359
aS'7'
aS'34'
p2043
aasS'1OWH'
p2044
(lp2045
(lp2046
I2879
aS'1'
aS'254'
p2047
aasS'1OWK'
p2048
(lp2049
(lp2050
I2879
aS'1'
aS'240'
p2051
aasS'1OWJ'
p2052
(lp2053
(lp2054
I2879
aS'1'
aS'240'
p2055
aasS'4IW4'
p2056
(lp2057
(lp2058
I81
aS'10'
p2059
aS'132'
p2060
aa(lp2061
I2879
aS'431'
p2062
aS'692'
p2063
aasS'1OWD'
p2064
(lp2065
(lp2066
I2879
aS'1'
aS'240'
p2067
aasS'2BB4'
p2068
(lp2069
(lp2070
I2879
aS'16'
p2071
aS'238'
p2072
aasS'2HPQ'
p2073
(lp2074
(lp2075
I2879
aS'16'
p2076
aS'238'
p2077
aa(lp2078
I4359
aS'1D'
p2079
aS'14L'
p2080
aa(lp2081
I5155
aS'301'
p2082
aS'379'
p2083
aasS'1CT0'
p2084
(lp2085
(lp2086
I1504
aS'8'
aS'56'
p2087
aa(lp2088
I2879
aS'48D'
p2089
aS'234'
p2090
aasS'4BAM'
p2091
(lp2092
(lp2093
I2879
aS'37'
p2094
aS'280'
p2095
aa(lp2096
I4359
aS'7'
aS'34'
p2097
aasS'4BAO'
p2098
(lp2099
(lp2100
I2879
aS'37'
p2101
aS'280'
p2102
aa(lp2103
I4359
aS'7'
aS'34'
p2104
aasS'4BAN'
p2105
(lp2106
(lp2107
I2879
aS'37'
p2108
aS'280'
p2109
aa(lp2110
I4359
aS'7'
aS'34'
p2111
aasS'4BAH'
p2112
(lp2113
(lp2114
I2879
aS'37'
p2115
aS'280'
p2116
aa(lp2117
I4359
aS'6'
aS'35'
p2118
aasS'4BAK'
p2119
(lp2120
(lp2121
I2879
aS'37'
p2122
aS'280'
p2123
aa(lp2124
I4359
aS'7'
aS'34'
p2125
aasS'3RXO'
p2126
(lp2127
(lp2128
I2879
aS'19'
p2129
aS'234'
p2130
aasS'3RXM'
p2131
(lp2132
(lp2133
I2879
aS'19'
p2134
aS'234'
p2135
aasS'3RXL'
p2136
(lp2137
(lp2138
I2879
aS'19'
p2139
aS'234'
p2140
aasS'3RXK'
p2141
(lp2142
(lp2143
I2879
aS'19'
p2144
aS'234'
p2145
aasS'3RXJ'
p2146
(lp2147
(lp2148
I2879
aS'19'
p2149
aS'234'
p2150
aasS'3RXI'
p2151
(lp2152
(lp2153
I2879
aS'19'
p2154
aS'234'
p2155
aasS'3RXH'
p2156
(lp2157
(lp2158
I2879
aS'19'
p2159
aS'234'
p2160
aasS'3RXG'
p2161
(lp2162
(lp2163
I2879
aS'19'
p2164
aS'234'
p2165
aasS'3RXF'
p2166
(lp2167
(lp2168
I2879
aS'19'
p2169
aS'234'
p2170
aasS'1GBT'
p2171
(lp2172
(lp2173
I2879
aS'16'
p2174
aS'238'
p2175
aasS'3RXD'
p2176
(lp2177
(lp2178
I2879
aS'19'
p2179
aS'234'
p2180
aasS'5SGA'
p2181
(lp2182
(lp2183
I2879
aS'100'
p2184
aS'235'
p2185
aasS'3RXB'
p2186
(lp2187
(lp2188
I2879
aS'19'
p2189
aS'234'
p2190
aasS'3RXA'
p2191
(lp2192
(lp2193
I2879
aS'19'
p2194
aS'234'
p2195
aasS'1GBL'
p2196
(lp2197
(lp2198
I2879
aS'52'
p2199
aS'222'
p2200
aasS'1GBM'
p2201
(lp2202
(lp2203
I2879
aS'52'
p2204
aS'222'
p2205
aasS'1GBJ'
p2206
(lp2207
(lp2208
I2879
aS'52'
p2209
aS'222'
p2210
aasS'1GBK'
p2211
(lp2212
(lp2213
I2879
aS'52'
p2214
aS'222'
p2215
aasS'1GBH'
p2216
(lp2217
(lp2218
I2879
aS'52'
p2219
aS'222'
p2220
aasS'1GBI'
p2221
(lp2222
(lp2223
I2879
aS'52'
p2224
aS'222'
p2225
aasS'1GBF'
p2226
(lp2227
(lp2228
I2879
aS'52'
p2229
aS'222'
p2230
aasS'3RXV'
p2231
(lp2232
(lp2233
I2879
aS'19'
p2234
aS'234'
p2235
aasS'3RXU'
p2236
(lp2237
(lp2238
I2879
aS'19'
p2239
aS'234'
p2240
aasS'2R0K'
p2241
(lp2242
(lp2243
I1690
aS'120'
p2244
aS'205'
p2245
aa(lp2246
I1690
aS'126'
p2247
aS'206'
p2248
aa(lp2249
I2388
aS'6'
aS'106'
p2250
aa(lp2251
I2388
aS'12'
p2252
aS'111'
p2253
aa(lp2254
I2879
aS'16'
p2255
aS'238'
p2256
aasS'2R0L'
p2257
(lp2258
(lp2259
I1690
aS'120'
p2260
aS'205'
p2261
aa(lp2262
I1690
aS'126'
p2263
aS'206'
p2264
aa(lp2265
I2388
aS'6'
aS'106'
p2266
aa(lp2267
I2388
aS'12'
p2268
aS'111'
p2269
aa(lp2270
I2879
aS'16'
p2271
aS'238'
p2272
aasS'1GBC'
p2273
(lp2274
(lp2275
I2879
aS'52'
p2276
aS'222'
p2277
aasS'3RXQ'
p2278
(lp2279
(lp2280
I2879
aS'19'
p2281
aS'234'
p2282
aasS'1GBA'
p2283
(lp2284
(lp2285
I2879
aS'52'
p2286
aS'222'
p2287
aasS'2WYJ'
p2288
(lp2289
(lp2290
I2879
aS'16'
p2291
aS'238'
p2292
aa(lp2293
I2939
aS'1'
aS'36'
p2294
aasS'2WYG'
p2295
(lp2296
(lp2297
I2879
aS'16'
p2298
aS'238'
p2299
aa(lp2300
I2939
aS'1'
aS'36'
p2301
aasS'2GP9'
p2302
(lp2303
(lp2304
I2879
aS'16'
p2305
aS'238'
p2306
aa(lp2307
I4359
aS'1E'
p2308
aS'14M'
p2309
aasS'1O2V'
p2310
(lp2311
(lp2312
I2879
aS'16'
p2313
aS'238'
p2314
aasS'1O2W'
p2315
(lp2316
(lp2317
I2879
aS'16'
p2318
aS'238'
p2319
aasS'1O2T'
p2320
(lp2321
(lp2322
I2879
aS'16'
p2323
aS'238'
p2324
aasS'1O2U'
p2325
(lp2326
(lp2327
I2879
aS'16'
p2328
aS'238'
p2329
aasS'1O2R'
p2330
(lp2331
(lp2332
I2879
aS'16'
p2333
aS'238'
p2334
aasS'1O2S'
p2335
(lp2336
(lp2337
I2879
aS'16'
p2338
aS'238'
p2339
aasS'1O2P'
p2340
(lp2341
(lp2342
I2879
aS'16'
p2343
aS'238'
p2344
aasS'1O2Q'
p2345
(lp2346
(lp2347
I2879
aS'16'
p2348
aS'238'
p2349
aasS'1O2Z'
p2350
(lp2351
(lp2352
I2879
aS'16'
p2353
aS'238'
p2354
aasS'1O2X'
p2355
(lp2356
(lp2357
I2879
aS'16'
p2358
aS'238'
p2359
aasS'1YKT'
p2360
(lp2361
(lp2362
I2879
aS'16'
p2363
aS'238'
p2364
aa(lp2365
I5507
aS'4'
aS'55'
p2366
aasS'1O2G'
p2367
(lp2368
(lp2369
I2879
aS'16'
p2370
aS'238'
p2371
aa(lp2372
I4359
aS'1H'
p2373
aS'15'
p2374
aasS'3HTC'
p2375
(lp2376
(lp2377
I1247
aS'1'
aS'64'
p2378
aa(lp2379
I2879
aS'16'
p2380
aS'238'
p2381
aa(lp2382
I4359
aS'1F'
p2383
aS'15'
p2384
aasS'1O2N'
p2385
(lp2386
(lp2387
I2879
aS'16'
p2388
aS'238'
p2389
aasS'1O2O'
p2390
(lp2391
(lp2392
I2879
aS'16'
p2393
aS'238'
p2394
aasS'1O2L'
p2395
(lp2396
(lp2397
I2879
aS'16'
p2398
aS'238'
p2399
aasS'1O2M'
p2400
(lp2401
(lp2402
I2879
aS'16'
p2403
aS'238'
p2404
aasS'1O2J'
p2405
(lp2406
(lp2407
I2879
aS'16'
p2408
aS'238'
p2409
aasS'1O2K'
p2410
(lp2411
(lp2412
I2879
aS'16'
p2413
aS'238'
p2414
aasS'2D26'
p2415
(lp2416
(lp2417
I2879
aS'20'
p2418
aS'238'
p2419
aa(lp2420
I2879
aS'20'
p2421
aS'238'
p2422
aa(lp2423
I6874
aS'31'
p2424
aS'351'
p2425
aa(lp2426
I6874
aS'362'
p2427
aS'391'
p2428
aa(lp2429
I6874
aS'31'
p2430
aS'351'
p2431
aa(lp2432
I6874
aS'362'
p2433
aS'391'
p2434
aasS'1O2I'
p2435
(lp2436
(lp2437
I2879
aS'16'
p2438
aS'238'
p2439
aasS'1WUN'
p2440
(lp2441
(lp2442
I1362
aS'6'
aS'79'
p2443
aa(lp2444
I2879
aS'16'
p2445
aS'238'
p2446
aa(lp2447
I2939
aS'91'
p2448
aS'127'
p2449
aa(lp2450
I3392
aS'50'
p2451
aS'79'
p2452
aa(lp2453
I6386
aS'106'
p2454
aS'210'
p2455
aa(lp2456
I6715
aS'5'
aS'44'
p2457
aasS'6CHA'
p2458
(lp2459
(lp2460
I2879
aS'16'
p2461
aS'145'
p2462
aa(lp2463
I2879
aS'151'
p2464
aS'238'
p2465
aasS'2CGA'
p2466
(lp2467
(lp2468
I2879
aS'16'
p2469
aS'238'
p2470
aasS'1OWI'
p2471
(lp2472
(lp2473
I2879
aS'1'
aS'240'
p2474
aasS'4LOY'
p2475
(lp2476
(lp2477
I2879
aS'16'
p2478
aS'238'
p2479
aa(lp2480
I4359
aS'1B'
p2481
aS'14K'
p2482
aasS'2ZFS'
p2483
(lp2484
(lp2485
I2879
aS'16'
p2486
aS'238'
p2487
aasS'1OWE'
p2488
(lp2489
(lp2490
I2879
aS'1'
aS'254'
p2491
aasS'2HPP'
p2492
(lp2493
(lp2494
I2879
aS'16'
p2495
aS'238'
p2496
aa(lp2497
I4359
aS'1D'
p2498
aS'14L'
p2499
aa(lp2500
I5155
aS'301'
p2501
aS'379'
p2502
aasS'2BLV'
p2503
(lp2504
(lp2505
I2879
aS'16'
p2506
aS'238'
p2507
aasS'2BLW'
p2508
(lp2509
(lp2510
I2879
aS'16'
p2511
aS'238'
p2512
aasS'2BLQ'
p2513
(lp2514
(lp2515
I2879
aS'16'
p2516
aS'238'
p2517
aasS'5EST'
p2518
(lp2519
(lp2520
I2879
aS'16'
p2521
aS'238'
p2522
aasS'1YYY'
p2523
(lp2524
(lp2525
I2879
aS'16'
p2526
aS'238'
p2527
aasS'2RG3'
p2528
(lp2529
(lp2530
I2879
aS'16'
p2531
aS'238'
p2532
aasS'3A80'
p2533
(lp2534
(lp2535
I2879
aS'19'
p2536
aS'234'
p2537
aasS'2BLO'
p2538
(lp2539
(lp2540
I2879
aS'16'
p2541
aS'238'
p2542
aasS'2FLR'
p2543
(lp2544
(lp2545
I1362
aS'6'
aS'83'
p2546
aa(lp2547
I2879
aS'16'
p2548
aS'238'
p2549
aa(lp2550
I2939
aS'91'
p2551
aS'127'
p2552
aa(lp2553
I3392
aS'50'
p2554
aS'79'
p2555
aa(lp2556
I6386
aS'106'
p2557
aS'205'
p2558
aasS'3A82'
p2559
(lp2560
(lp2561
I2879
aS'19'
p2562
aS'234'
p2563
aasS'4U2W'
p2564
(lp2565
(lp2566
I2879
aS'24'
p2567
aS'239'
p2568
aa(lp2569
I7451
aS'4'
aS'16'
p2570
aasS'4DW2'
p2571
(lp2572
(lp2573
I1690
aS'129'
p2574
aS'199'
p2575
aa(lp2576
I1690
aS'120'
p2577
aS'205'
p2578
aa(lp2579
I2388
aS'12'
p2580
aS'111'
p2581
aa(lp2582
I2388
aS'6'
aS'106'
p2583
aa(lp2584
I2879
aS'21'
p2585
aS'238'
p2586
aasS'2FLB'
p2587
(lp2588
(lp2589
I1362
aS'6'
aS'83'
p2590
aa(lp2591
I2879
aS'16'
p2592
aS'238'
p2593
aa(lp2594
I2939
aS'91'
p2595
aS'127'
p2596
aa(lp2597
I3392
aS'50'
p2598
aS'79'
p2599
aa(lp2600
I6386
aS'106'
p2601
aS'205'
p2602
aasS'2PW8'
p2603
(lp2604
(lp2605
I1247
aS'1'
aS'64'
p2606
aa(lp2607
I2879
aS'16'
p2608
aS'238'
p2609
aa(lp2610
I4359
aS'1B'
p2611
aS'14K'
p2612
aasS'3BEF'
p2613
(lp2614
(lp2615
I2879
aS'16'
p2616
aS'238'
p2617
aa(lp2618
I4359
aS'1Q'
p2619
aS'14L'
p2620
aasS'4THN'
p2621
(lp2622
(lp2623
I2879
aS'16'
p2624
aS'238'
p2625
aa(lp2626
I4359
aS'1H'
p2627
aS'15'
p2628
aasS'1WU1'
p2629
(lp2630
(lp2631
I2879
aS'16'
p2632
aS'238'
p2633
aa(lp2634
I2939
aS'89'
p2635
aS'124'
p2636
aasS'4DY7'
p2637
(lp2638
(lp2639
I2879
aS'16'
p2640
aS'238'
p2641
aa(lp2642
I4359
aS'1Q'
p2643
aS'15'
p2644
aa(lp2645
I6874
aS'15'
p2646
aS'379'
p2647
aasS'1Y5A'
p2648
(lp2649
(lp2650
I2879
aS'16'
p2651
aS'238'
p2652
aasS'1Y5B'
p2653
(lp2654
(lp2655
I2879
aS'16'
p2656
aS'238'
p2657
aasS'2VIW'
p2658
(lp2659
(lp2660
I2879
aS'16'
p2661
aS'238'
p2662
aasS'1A3B'
p2663
(lp2664
(lp2665
I2879
aS'16'
p2666
aS'238'
p2667
aa(lp2668
I4359
aS'1B'
p2669
aS'14K'
p2670
aasS'2VIQ'
p2671
(lp2672
(lp2673
I2879
aS'16'
p2674
aS'238'
p2675
aasS'2VIP'
p2676
(lp2677
(lp2678
I2879
aS'16'
p2679
aS'238'
p2680
aasS'1Y5U'
p2681
(lp2682
(lp2683
I2879
aS'16'
p2684
aS'238'
p2685
aasS'2VIN'
p2686
(lp2687
(lp2688
I2879
aS'16'
p2689
aS'238'
p2690
aasS'1HJA'
p2691
(lp2692
(lp2693
I1504
aS'8'
aS'56'
p2694
aa(lp2695
I2879
aS'16'
p2696
aS'145'
p2697
aa(lp2698
I2879
aS'151'
p2699
aS'238'
p2700
aasS'2VID'
p2701
(lp2702
(lp2703
I2879
aS'9'
aS'189'
p2704
aasS'4AOQ'
p2705
(lp2706
(lp2707
I2879
aS'24'
p2708
aS'239'
p2709
aasS'4AOR'
p2710
(lp2711
(lp2712
I2879
aS'24'
p2713
aS'239'
p2714
aasS'2J2U'
p2715
(lp2716
(lp2717
I2879
aS'16'
p2718
aS'238'
p2719
aa(lp2720
I2939
aS'1'
aS'36'
p2721
aasS'3MO9'
p2722
(lp2723
(lp2724
I2879
aS'16'
p2725
aS'238'
p2726
aasS'3MO6'
p2727
(lp2728
(lp2729
I2879
aS'16'
p2730
aS'238'
p2731
aasS'3MO3'
p2732
(lp2733
(lp2734
I2879
aS'16'
p2735
aS'238'
p2736
aasS'3MYW'
p2737
(lp2738
(lp2739
I2879
aS'16'
p2740
aS'238'
p2741
aa(lp2742
I2971
aS'39'
p2743
aS'57'
p2744
aasS'2FPZ'
p2745
(lp2746
(lp2747
I2879
aS'16'
p2748
aS'238'
p2749
aasS'1W13'
p2750
(lp2751
(lp2752
I2879
aS'16'
p2753
aS'238'
p2754
aasS'1W12'
p2755
(lp2756
(lp2757
I2879
aS'16'
p2758
aS'238'
p2759
aasS'1W11'
p2760
(lp2761
(lp2762
I2879
aS'16'
p2763
aS'238'
p2764
aasS'1W10'
p2765
(lp2766
(lp2767
I2879
aS'16'
p2768
aS'238'
p2769
aasS'1W14'
p2770
(lp2771
(lp2772
I2879
aS'16'
p2773
aS'238'
p2774
aasS'2VWM'
p2775
(lp2776
(lp2777
I2879
aS'16'
p2778
aS'238'
p2779
aa(lp2780
I2939
aS'89'
p2781
aS'124'
p2782
aasS'2VWL'
p2783
(lp2784
(lp2785
I2879
aS'16'
p2786
aS'238'
p2787
aa(lp2788
I2939
aS'89'
p2789
aS'124'
p2790
aasS'2VWO'
p2791
(lp2792
(lp2793
I2879
aS'16'
p2794
aS'238'
p2795
aa(lp2796
I2879
aS'16'
p2797
aS'238'
p2798
aa(lp2799
I2939
aS'89'
p2800
aS'124'
p2801
aa(lp2802
I2939
aS'89'
p2803
aS'124'
p2804
aasS'2VWN'
p2805
(lp2806
(lp2807
I2879
aS'16'
p2808
aS'238'
p2809
aa(lp2810
I2939
aS'89'
p2811
aS'124'
p2812
aasS'2W3I'
p2813
(lp2814
(lp2815
I2879
aS'16'
p2816
aS'238'
p2817
aa(lp2818
I2939
aS'1'
aS'36'
p2819
aasS'3MOC'
p2820
(lp2821
(lp2822
I2879
aS'16'
p2823
aS'238'
p2824
aasS'2W3K'
p2825
(lp2826
(lp2827
I2879
aS'16'
p2828
aS'238'
p2829
aa(lp2830
I2939
aS'1'
aS'36'
p2831
aasS'1HJ9'
p2832
(lp2833
(lp2834
I2879
aS'16'
p2835
aS'238'
p2836
aasS'1HJ8'
p2837
(lp2838
(lp2839
I2879
aS'16'
p2840
aS'238'
p2841
aasS'1Y59'
p2842
(lp2843
(lp2844
I2879
aS'16'
p2845
aS'238'
p2846
aasS'3RXE'
p2847
(lp2848
(lp2849
I2879
aS'19'
p2850
aS'234'
p2851
aasS'1A4W'
p2852
(lp2853
(lp2854
I2879
aS'16'
p2855
aS'238'
p2856
aa(lp2857
I4359
aS'1A'
p2858
aS'14K'
p2859
aasS'1Q3X'
p2860
(lp2861
(lp2862
I2879
aS'445'
p2863
aS'679'
p2864
aa(lp2865
I4067
aS'366'
p2866
aS'422'
p2867
aasS'3H7O'
p2868
(lp2869
(lp2870
I2879
aS'3'
aS'222'
p2871
aasS'3RXC'
p2872
(lp2873
(lp2874
I2879
aS'19'
p2875
aS'234'
p2876
aasS'3UY9'
p2877
(lp2878
(lp2879
I2879
aS'16'
p2880
aS'238'
p2881
aasS'3P17'
p2882
(lp2883
(lp2884
I2879
aS'16'
p2885
aS'238'
p2886
aa(lp2887
I4359
aS'1B'
p2888
aS'14K'
p2889
aasS'1P09'
p2890
(lp2891
(lp2892
I2879
aS'52'
p2893
aS'221A'
p2894
aasS'1P06'
p2895
(lp2896
(lp2897
I2879
aS'52'
p2898
aS'221A'
p2899
aasS'1P05'
p2900
(lp2901
(lp2902
I2879
aS'52'
p2903
aS'221A'
p2904
aasS'1P04'
p2905
(lp2906
(lp2907
I2879
aS'52'
p2908
aS'221A'
p2909
aasS'1P03'
p2910
(lp2911
(lp2912
I2879
aS'52'
p2913
aS'221A'
p2914
aasS'1P02'
p2915
(lp2916
(lp2917
I2879
aS'52'
p2918
aS'221A'
p2919
aasS'1P01'
p2920
(lp2921
(lp2922
I2879
aS'52'
p2923
aS'221A'
p2924
aasS'2ANM'
p2925
(lp2926
(lp2927
I2879
aS'16'
p2928
aS'238'
p2929
aa(lp2930
I4359
aS'1F'
p2931
aS'15'
p2932
aasS'4JK6'
p2933
(lp2934
(lp2935
I2879
aS'16'
p2936
aS'238'
p2937
aasS'4JK5'
p2938
(lp2939
(lp2940
I2879
aS'16'
p2941
aS'238'
p2942
aasS'2ANK'
p2943
(lp2944
(lp2945
I2879
aS'16'
p2946
aS'238'
p2947
aa(lp2948
I4359
aS'1F'
p2949
aS'15'
p2950
aasS'2ANW'
p2951
(lp2952
(lp2953
I2879
aS'16'
p2954
aS'238'
p2955
aasS'2ANY'
p2956
(lp2957
(lp2958
I2879
aS'16'
p2959
aS'238'
p2960
aasS'3S0N'
p2961
(lp2962
(lp2963
I2879
aS'1'
aS'219'
p2964
aasS'3LU9'
p2965
(lp2966
(lp2967
I2879
aS'16'
p2968
aS'238'
p2969
aa(lp2970
I4359
aS'1Q'
p2971
aS'14L'
p2972
aasS'2ZHD'
p2973
(lp2974
(lp2975
I2879
aS'16'
p2976
aS'238'
p2977
aasS'2ZHE'
p2978
(lp2979
(lp2980
I2879
aS'16'
p2981
aS'238'
p2982
aa(lp2983
I4359
aS'1B'
p2984
aS'14K'
p2985
aasS'2ZHF'
p2986
(lp2987
(lp2988
I2879
aS'16'
p2989
aS'238'
p2990
aa(lp2991
I4359
aS'1B'
p2992
aS'14K'
p2993
aasS'1T8O'
p2994
(lp2995
(lp2996
I2879
aS'16'
p2997
aS'238'
p2998
aa(lp2999
I5507
aS'4'
aS'55'
p3000
aasS'1T8M'
p3001
(lp3002
(lp3003
I2879
aS'16'
p3004
aS'238'
p3005
aa(lp3006
I5507
aS'4'
aS'55'
p3007
aasS'1T8L'
p3008
(lp3009
(lp3010
I2879
aS'16'
p3011
aS'238'
p3012
aa(lp3013
I5507
aS'4'
aS'55'
p3014
aasS'2ZHQ'
p3015
(lp3016
(lp3017
I2879
aS'16'
p3018
aS'238'
p3019
aa(lp3020
I4359
aS'1C'
p3021
aS'14K'
p3022
aasS'2EC9'
p3023
(lp3024
(lp3025
I1362
aS'7'
aS'79'
p3026
aa(lp3027
I2879
aS'16'
p3028
aS'238'
p3029
aa(lp3030
I2939
aS'91'
p3031
aS'127'
p3032
aa(lp3033
I3392
aS'50'
p3034
aS'79'
p3035
aa(lp3036
I6386
aS'106'
p3037
aS'210'
p3038
aa(lp3039
I6715
aS'5'
aS'44'
p3040
aasS'7KME'
p3041
(lp3042
(lp3043
I2879
aS'16'
p3044
aS'238'
p3045
aa(lp3046
I4359
aS'1A'
p3047
aS'14J'
p3048
aasS'2ZHW'
p3049
(lp3050
(lp3051
I2879
aS'16'
p3052
aS'238'
p3053
aa(lp3054
I4359
aS'1B'
p3055
aS'14K'
p3056
aasS'1NPM'
p3057
(lp3058
(lp3059
I2879
aS'16'
p3060
aS'238'
p3061
aasS'1GBD'
p3062
(lp3063
(lp3064
I2879
aS'52'
p3065
aS'222'
p3066
aasS'4GAW'
p3067
(lp3068
(lp3069
I2879
aS'16'
p3070
aS'234'
p3071
aasS'1FXY'
p3072
(lp3073
(lp3074
I2879
aS'16'
p3075
aS'238'
p3076
aasS'1GBB'
p3077
(lp3078
(lp3079
I2879
aS'52'
p3080
aS'222'
p3081
aasS'3RXR'
p3082
(lp3083
(lp3084
I2879
aS'19'
p3085
aS'234'
p3086
aasS'3RXP'
p3087
(lp3088
(lp3089
I2879
aS'19'
p3090
aS'234'
p3091
aasS'1P0S'
p3092
(lp3093
(lp3094
I81
aS'10'
p3095
aS'132'
p3096
aa(lp3097
I2879
aS'16'
p3098
aS'238'
p3099
aa(lp3100
I2939
aS'89'
p3101
aS'124'
p3102
aa(lp3103
I3392
aS'87'
p3104
aS'49'
p3105
aa(lp3106
I6715
aS'5'
aS'44'
p3107
aasS'2JKH'
p3108
(lp3109
(lp3110
I2879
aS'16'
p3111
aS'238'
p3112
aa(lp3113
I2939
aS'89'
p3114
aS'124'
p3115
aasS'3BSQ'
p3116
(lp3117
(lp3118
I2879
aS'16'
p3119
aS'231'
p3120
aasS'1O3P'
p3121
(lp3122
(lp3123
I2879
aS'16'
p3124
aS'238'
p3125
aasS'3NKK'
p3126
(lp3127
(lp3128
I2879
aS'16'
p3129
aS'238'
p3130
aasS'2B9L'
p3131
(lp3132
(lp3133
I2879
aS'155'
p3134
aS'399'
p3135
aasS'1XVM'
p3136
(lp3137
(lp3138
I2879
aS'16'
p3139
aS'235'
p3140
aasS'1XVO'
p3141
(lp3142
(lp3143
I2879
aS'16'
p3144
aS'235'
p3145
aasS'1O3A'
p3146
(lp3147
(lp3148
I2879
aS'16'
p3149
aS'238'
p3150
aasS'1O3C'
p3151
(lp3152
(lp3153
I2879
aS'16'
p3154
aS'238'
p3155
aasS'1O3B'
p3156
(lp3157
(lp3158
I2879
aS'16'
p3159
aS'238'
p3160
aasS'1O3E'
p3161
(lp3162
(lp3163
I2879
aS'16'
p3164
aS'238'
p3165
aasS'1O3D'
p3166
(lp3167
(lp3168
I2879
aS'16'
p3169
aS'238'
p3170
aasS'1O3G'
p3171
(lp3172
(lp3173
I2879
aS'16'
p3174
aS'238'
p3175
aasS'1O3F'
p3176
(lp3177
(lp3178
I2879
aS'16'
p3179
aS'238'
p3180
aasS'1O3I'
p3181
(lp3182
(lp3183
I2879
aS'16'
p3184
aS'238'
p3185
aasS'1O3H'
p3186
(lp3187
(lp3188
I2879
aS'16'
p3189
aS'238'
p3190
aasS'1O3K'
p3191
(lp3192
(lp3193
I2879
aS'16'
p3194
aS'238'
p3195
aasS'1O3J'
p3196
(lp3197
(lp3198
I2879
aS'16'
p3199
aS'238'
p3200
aasS'1O3M'
p3201
(lp3202
(lp3203
I2879
aS'16'
p3204
aS'238'
p3205
aasS'1O3L'
p3206
(lp3207
(lp3208
I2879
aS'16'
p3209
aS'238'
p3210
aasS'1O3O'
p3211
(lp3212
(lp3213
I2879
aS'16'
p3214
aS'238'
p3215
aasS'1O3N'
p3216
(lp3217
(lp3218
I2879
aS'16'
p3219
aS'238'
p3220
aasS'1O31'
p3221
(lp3222
(lp3223
I2879
aS'16'
p3224
aS'238'
p3225
aasS'1O30'
p3226
(lp3227
(lp3228
I2879
aS'16'
p3229
aS'238'
p3230
aasS'1O33'
p3231
(lp3232
(lp3233
I2879
aS'16'
p3234
aS'238'
p3235
aasS'1O32'
p3236
(lp3237
(lp3238
I2879
aS'16'
p3239
aS'238'
p3240
aasS'1O35'
p3241
(lp3242
(lp3243
I2879
aS'16'
p3244
aS'238'
p3245
aasS'1O34'
p3246
(lp3247
(lp3248
I2879
aS'16'
p3249
aS'238'
p3250
aasS'1O37'
p3251
(lp3252
(lp3253
I2879
aS'16'
p3254
aS'238'
p3255
aasS'1O36'
p3256
(lp3257
(lp3258
I2879
aS'16'
p3259
aS'238'
p3260
aasS'1O39'
p3261
(lp3262
(lp3263
I2879
aS'16'
p3264
aS'238'
p3265
aasS'2Y82'
p3266
(lp3267
(lp3268
I2879
aS'16'
p3269
aS'238'
p3270
aa(lp3271
I2939
aS'1'
aS'36'
p3272
aasS'2Y81'
p3273
(lp3274
(lp3275
I2879
aS'16'
p3276
aS'238'
p3277
aa(lp3278
I2939
aS'1'
aS'36'
p3279
aasS'2Y80'
p3280
(lp3281
(lp3282
I2879
aS'16'
p3283
aS'238'
p3284
aa(lp3285
I2939
aS'1'
aS'36'
p3286
aasS'4GSO'
p3287
(lp3288
(lp3289
I2879
aS'2'
aS'218'
p3290
aasS'3NK8'
p3291
(lp3292
(lp3293
I2879
aS'16'
p3294
aS'238'
p3295
aasS'7GCH'
p3296
(lp3297
(lp3298
I2879
aS'16'
p3299
aS'145'
p3300
aa(lp3301
I2879
aS'151'
p3302
aS'238'
p3303
aasS'4KKD'
p3304
(lp3305
(lp3306
I2879
aS'453'
p3307
aS'711'
p3308
aa(lp3309
I4067
aS'301'
p3310
aS'362'
p3311
aa(lp3312
I4067
aS'367'
p3313
aS'432'
p3314
aasS'1BMA'
p3315
(lp3316
(lp3317
I2879
aS'16'
p3318
aS'248'
p3319
aasS'3EST'
p3320
(lp3321
(lp3322
I2879
aS'16'
p3323
aS'238'
p3324
aasS'3SGB'
p3325
(lp3326
(lp3327
I1504
aS'8'
aS'56'
p3328
aa(lp3329
I2879
aS'48D'
p3330
aS'234'
p3331
aasS'3SGA'
p3332
(lp3333
(lp3334
I2879
aS'100'
p3335
aS'235'
p3336
aasS'2BMG'
p3337
(lp3338
(lp3339
I2879
aS'16'
p3340
aS'238'
p3341
aa(lp3342
I2939
aS'1'
aS'36'
p3343
aasS'1ETT'
p3344
(lp3345
(lp3346
I2879
aS'16'
p3347
aS'238'
p3348
aa(lp3349
I4359
aS'1H'
p3350
aS'15'
p3351
aasS'3QGJ'
p3352
(lp3353
(lp3354
I2879
aS'32'
p3355
aS'173'
p3356
aasS'1ETR'
p3357
(lp3358
(lp3359
I2879
aS'16'
p3360
aS'238'
p3361
aa(lp3362
I4359
aS'1H'
p3363
aS'15'
p3364
aasS'1ETS'
p3365
(lp3366
(lp3367
I2879
aS'16'
p3368
aS'238'
p3369
aa(lp3370
I4359
aS'1H'
p3371
aS'15'
p3372
aasS'3QGN'
p3373
(lp3374
(lp3375
I2879
aS'16'
p3376
aS'238'
p3377
aa(lp3378
I4359
aS'1C'
p3379
aS'14L'
p3380
aasS'3SGQ'
p3381
(lp3382
(lp3383
I1504
aS'8'
aS'56'
p3384
aa(lp3385
I2879
aS'48D'
p3386
aS'235'
p3387
aasS'1N8O'
p3388
(lp3389
(lp3390
I81
aS'10'
p3391
aS'132'
p3392
aa(lp3393
I2879
aS'16'
p3394
aS'145'
p3395
aa(lp3396
I2879
aS'151'
p3397
aS'238'
p3398
aasS'4BTI'
p3399
(lp3400
(lp3401
I2879
aS'16'
p3402
aS'238'
p3403
aa(lp3404
I2939
aS'1'
aS'36'
p3405
aasS'1ID5'
p3406
(lp3407
(lp3408
I81
aS'10'
p3409
aS'132'
p3410
aa(lp3411
I2879
aS'16'
p3412
aS'238'
p3413
aa(lp3414
I4359
aS'1D'
p3415
aS'14L'
p3416
aasS'1OP8'
p3417
(lp3418
(lp3419
I2879
aS'16'
p3420
aS'238'
p3421
aasS'4MTB'
p3422
(lp3423
(lp3424
I2879
aS'16'
p3425
aS'238'
p3426
aasS'1OP0'
p3427
(lp3428
(lp3429
I2879
aS'16'
p3430
aS'238'
p3431
aasS'2FMJ'
p3432
(lp3433
(lp3434
I2879
aS'16'
p3435
aS'238'
p3436
aasS'4BTT'
p3437
(lp3438
(lp3439
I2879
aS'16'
p3440
aS'238'
p3441
aa(lp3442
I2939
aS'1'
aS'36'
p3443
aasS'4BTU'
p3444
(lp3445
(lp3446
I2879
aS'16'
p3447
aS'238'
p3448
aa(lp3449
I2939
aS'1'
aS'36'
p3450
aasS'1OPH'
p3451
(lp3452
(lp3453
I2879
aS'16'
p3454
aS'238'
p3455
aa(lp3456
I6874
aS'31'
p3457
aS'391'
p3458
aasS'4VGC'
p3459
(lp3460
(lp3461
I2879
aS'16'
p3462
aS'145'
p3463
aa(lp3464
I2879
aS'151'
p3465
aS'238'
p3466
aasS'2NU3'
p3467
(lp3468
(lp3469
I1504
aS'8'
aS'56'
p3470
aa(lp3471
I2879
aS'48D'
p3472
aS'235'
p3473
aasS'2NU2'
p3474
(lp3475
(lp3476
I1504
aS'8'
aS'56'
p3477
aa(lp3478
I2879
aS'48D'
p3479
aS'235'
p3480
aasS'2NU1'
p3481
(lp3482
(lp3483
I1504
aS'8'
aS'56'
p3484
aa(lp3485
I2879
aS'48D'
p3486
aS'235'
p3487
aasS'2NU0'
p3488
(lp3489
(lp3490
I1504
aS'8'
aS'56'
p3491
aa(lp3492
I2879
aS'48D'
p3493
aS'235'
p3494
aasS'2BM2'
p3495
(lp3496
(lp3497
I2879
aS'16'
p3498
aS'238'
p3499
aasS'2NU4'
p3500
(lp3501
(lp3502
I1504
aS'8'
aS'56'
p3503
aa(lp3504
I2879
aS'48D'
p3505
aS'235'
p3506
aasS'1GCT'
p3507
(lp3508
(lp3509
I2879
aS'16'
p3510
aS'145'
p3511
aa(lp3512
I2879
aS'151'
p3513
aS'238'
p3514
aasS'5AHG'
p3515
(lp3516
(lp3517
I2879
aS'16'
p3518
aS'265'
p3519
aa(lp3520
I4359
aS'1C'
p3521
aS'29C'
p3522
aasS'1GCD'
p3523
(lp3524
(lp3525
I2879
aS'16'
p3526
aS'238'
p3527
aasS'1UTP'
p3528
(lp3529
(lp3530
I2879
aS'16'
p3531
aS'238'
p3532
aasS'1UTQ'
p3533
(lp3534
(lp3535
I2879
aS'16'
p3536
aS'238'
p3537
aasS'2H5C'
p3538
(lp3539
(lp3540
I2879
aS'52'
p3541
aS'222'
p3542
aasS'2H5D'
p3543
(lp3544
(lp3545
I2879
aS'52'
p3546
aS'222'
p3547
aasS'3MHW'
p3548
(lp3549
(lp3550
I2879
aS'16'
p3551
aS'238'
p3552
aasS'1UTN'
p3553
(lp3554
(lp3555
I2879
aS'16'
p3556
aS'238'
p3557
aasS'1UTO'
p3558
(lp3559
(lp3560
I2879
aS'16'
p3561
aS'238'
p3562
aasS'1UTL'
p3563
(lp3564
(lp3565
I2879
aS'16'
p3566
aS'238'
p3567
aasS'1UTM'
p3568
(lp3569
(lp3570
I2879
aS'16'
p3571
aS'238'
p3572
aasS'1UTJ'
p3573
(lp3574
(lp3575
I2879
aS'16'
p3576
aS'238'
p3577
aasS'1UTK'
p3578
(lp3579
(lp3580
I2879
aS'16'
p3581
aS'238'
p3582
aasS'1LMW'
p3583
(lp3584
(lp3585
I2879
aS'16'
p3586
aS'238'
p3587
aasS'4TPI'
p3588
(lp3589
(lp3590
I2879
aS'16'
p3591
aS'238'
p3592
aa(lp3593
I5507
aS'4'
aS'55'
p3594
aasS'1ZHP'
p3595
(lp3596
(lp3597
I2879
aS'16'
p3598
aS'238'
p3599
aasS'1ZHR'
p3600
(lp3601
(lp3602
I2879
aS'16'
p3603
aS'238'
p3604
aasS'1ZHM'
p3605
(lp3606
(lp3607
I2879
aS'16'
p3608
aS'238'
p3609
aasS'3RM2'
p3610
(lp3611
(lp3612
I2879
aS'16'
p3613
aS'238'
p3614
aa(lp3615
I4359
aS'1C'
p3616
aS'14K'
p3617
aasS'1QTF'
p3618
(lp3619
(lp3620
I2879
aS'39'
p3621
aS'215'
p3622
aasS'1WV7'
p3623
(lp3624
(lp3625
I1362
aS'6'
aS'79'
p3626
aa(lp3627
I2879
aS'16'
p3628
aS'238'
p3629
aa(lp3630
I2939
aS'91'
p3631
aS'127'
p3632
aa(lp3633
I3392
aS'50'
p3634
aS'79'
p3635
aa(lp3636
I6386
aS'106'
p3637
aS'210'
p3638
aa(lp3639
I6715
aS'5'
aS'44'
p3640
aasS'4HZH'
p3641
(lp3642
(lp3643
I2879
aS'321'
p3644
aS'570'
p3645
aa(lp3646
I4359
aS'274'
p3647
aS'320'
p3648
aa(lp3649
I5155
aS'170'
p3650
aS'248'
p3651
aasS'2WPK'
p3652
(lp3653
(lp3654
I2879
aS'16'
p3655
aS'238'
p3656
aa(lp3657
I2939
aS'88'
p3658
aS'124'
p3659
aasS'3RML'
p3660
(lp3661
(lp3662
I2879
aS'16'
p3663
aS'238'
p3664
aa(lp3665
I4359
aS'1C'
p3666
aS'14K'
p3667
aasS'3RMM'
p3668
(lp3669
(lp3670
I2879
aS'16'
p3671
aS'238'
p3672
aa(lp3673
I4359
aS'1C'
p3674
aS'14K'
p3675
aasS'3RMN'
p3676
(lp3677
(lp3678
I2879
aS'16'
p3679
aS'238'
p3680
aa(lp3681
I4359
aS'1C'
p3682
aS'14K'
p3683
aasS'3RMO'
p3684
(lp3685
(lp3686
I2879
aS'16'
p3687
aS'238'
p3688
aa(lp3689
I4359
aS'1C'
p3690
aS'14K'
p3691
aasS'1EJM'
p3692
(lp3693
(lp3694
I2879
aS'16'
p3695
aS'238'
p3696
aa(lp3697
I5507
aS'504'
p3698
aS'555'
p3699
aasS'1EJN'
p3700
(lp3701
(lp3702
I2879
aS'16'
p3703
aS'238'
p3704
aasS'1GMD'
p3705
(lp3706
(lp3707
I2879
aS'16'
p3708
aS'145'
p3709
aa(lp3710
I2879
aS'151'
p3711
aS'238'
p3712
aasS'1GMC'
p3713
(lp3714
(lp3715
I2879
aS'16'
p3716
aS'145'
p3717
aa(lp3718
I2879
aS'151'
p3719
aS'238'
p3720
aasS'2PTC'
p3721
(lp3722
(lp3723
I2879
aS'16'
p3724
aS'238'
p3725
aa(lp3726
I5507
aS'4'
aS'55'
p3727
aasS'1D9I'
p3728
(lp3729
(lp3730
I2879
aS'16'
p3731
aS'238'
p3732
aa(lp3733
I4359
aS'1B'
p3734
aS'14L'
p3735
aasS'2PTN'
p3736
(lp3737
(lp3738
I2879
aS'16'
p3739
aS'238'
p3740
aasS'3KL6'
p3741
(lp3742
(lp3743
I2879
aS'16'
p3744
aS'238'
p3745
aa(lp3746
I2939
aS'1'
aS'36'
p3747
aasS'1EJA'
p3748
(lp3749
(lp3750
I2879
aS'16'
p3751
aS'238'
p3752
aa(lp3753
I4333
aS'28'
p3754
aS'54'
p3755
aasS'1GMH'
p3756
(lp3757
(lp3758
I2879
aS'16'
p3759
aS'145'
p3760
aa(lp3761
I2879
aS'151'
p3762
aS'238'
p3763
aasS'2W26'
p3764
(lp3765
(lp3766
I2879
aS'16'
p3767
aS'238'
p3768
aa(lp3769
I2939
aS'1'
aS'36'
p3770
aasS'1G2L'
p3771
(lp3772
(lp3773
I2879
aS'16'
p3774
aS'243'
p3775
aa(lp3776
I2939
aS'255'
p3777
aS'290'
p3778
aasS'1G2M'
p3779
(lp3780
(lp3781
I2879
aS'16'
p3782
aS'238'
p3783
aa(lp3784
I2939
aS'389'
p3785
aS'424'
p3786
aasS'4WXI'
p3787
(lp3788
(lp3789
I2879
aS'16'
p3790
aS'238'
p3791
aasS'4Q7X'
p3792
(lp3793
(lp3794
I2879
aS'16'
p3795
aS'238'
p3796
aa(lp3797
I2879
aS'16'
p3798
aS'238'
p3799
aasS'4Q7Y'
p3800
(lp3801
(lp3802
I2879
aS'16'
p3803
aS'238'
p3804
aasS'4Q7Z'
p3805
(lp3806
(lp3807
I2879
aS'16'
p3808
aS'238'
p3809
aasS'1O2H'
p3810
(lp3811
(lp3812
I2879
aS'16'
p3813
aS'238'
p3814
aasS'4WXV'
p3815
(lp3816
(lp3817
I2879
aS'16'
p3818
aS'238'
p3819
aa(lp3820
I5507
aS'4'
aS'55'
p3821
aasS'3PMB'
p3822
(lp3823
(lp3824
I2879
aS'16'
p3825
aS'238'
p3826
aa(lp3827
I4359
aS'1C'
p3828
aS'14L'
p3829
aasS'2J34'
p3830
(lp3831
(lp3832
I2879
aS'16'
p3833
aS'238'
p3834
aa(lp3835
I2939
aS'1'
aS'36'
p3836
aasS'1QBN'
p3837
(lp3838
(lp3839
I2879
aS'7'
aS'222'
p3840
aasS'3PMA'
p3841
(lp3842
(lp3843
I2879
aS'16'
p3844
aS'238'
p3845
aa(lp3846
I4359
aS'1C'
p3847
aS'14L'
p3848
aasS'2J38'
p3849
(lp3850
(lp3851
I2879
aS'16'
p3852
aS'238'
p3853
aa(lp3854
I2939
aS'1'
aS'36'
p3855
aasS'3PMJ'
p3856
(lp3857
(lp3858
I2879
aS'16'
p3859
aS'238'
p3860
aasS'2ZIQ'
p3861
(lp3862
(lp3863
I2879
aS'16'
p3864
aS'238'
p3865
aa(lp3866
I4359
aS'1C'
p3867
aS'14K'
p3868
aasS'9EST'
p3869
(lp3870
(lp3871
I2879
aS'16'
p3872
aS'238'
p3873
aasS'1QBV'
p3874
(lp3875
(lp3876
I2879
aS'16'
p3877
aS'238'
p3878
aa(lp3879
I4359
aS'1A'
p3880
aS'14J'
p3881
aasS'1P3C'
p3882
(lp3883
(lp3884
I2879
aS'22'
p3885
aS'197'
p3886
aasS'1P3E'
p3887
(lp3888
(lp3889
I2879
aS'22'
p3890
aS'197'
p3891
aasS'1F5R'
p3892
(lp3893
(lp3894
I2879
aS'18'
p3895
aS'238'
p3896
aa(lp3897
I5507
aS'4'
aS'55'
p3898
aasS'4AN7'
p3899
(lp3900
(lp3901
I2879
aS'16'
p3902
aS'238'
p3903
aa(lp3904
I4686
aS'4'
aS'173'
p3905
aasS'4JZ1'
p3906
(lp3907
(lp3908
I2879
aS'16'
p3909
aS'238'
p3910
aasS'4JZI'
p3911
(lp3912
(lp3913
I2879
aS'16'
p3914
aS'238'
p3915
aasS'4JZD'
p3916
(lp3917
(lp3918
I2879
aS'16'
p3919
aS'238'
p3920
aa(lp3921
I2939
aS'91'
p3922
aS'127'
p3923
aasS'4JZE'
p3924
(lp3925
(lp3926
I2879
aS'16'
p3927
aS'238'
p3928
aa(lp3929
I2939
aS'91'
p3930
aS'127'
p3931
aasS'4JZF'
p3932
(lp3933
(lp3934
I2879
aS'16'
p3935
aS'238'
p3936
aa(lp3937
I2939
aS'91'
p3938
aS'127'
p3939
aasS'1TLD'
p3940
(lp3941
(lp3942
I2879
aS'16'
p3943
aS'238'
p3944
aasS'4NZL'
p3945
(lp3946
(lp3947
I1885
aS'47'
p3948
aS'134'
p3949
aa(lp3950
I2879
aS'30'
p3951
aS'242'
p3952
aasS'4NZQ'
p3953
(lp3954
(lp3955
I2879
aS'321'
p3956
aS'570'
p3957
aa(lp3958
I4359
aS'274'
p3959
aS'320'
p3960
aa(lp3961
I5155
aS'65'
p3962
aS'143'
p3963
aa(lp3964
I5155
aS'170'
p3965
aS'248'
p3966
aa(lp3967
I6715
aS'34'
p3968
aS'45'
p3969
aasS'1A0L'
p3970
(lp3971
(lp3972
I2879
aS'16'
p3973
aS'238'
p3974
aasS'2TBS'
p3975
(lp3976
(lp3977
I2879
aS'16'
p3978
aS'238'
p3979
aasS'1A0J'
p3980
(lp3981
(lp3982
I2879
aS'16'
p3983
aS'238'
p3984
aasS'1A0H'
p3985
(lp3986
(lp3987
I2879
aS'321'
p3988
aS'570'
p3989
aa(lp3990
I4359
aS'274'
p3991
aS'320'
p3992
aa(lp3993
I5155
aS'170'
p3994
aS'248'
p3995
aasS'3BN9'
p3996
(lp3997
(lp3998
I1690
aS'120'
p3999
aS'205'
p4000
aa(lp4001
I1690
aS'126'
p4002
aS'206'
p4003
aa(lp4004
I2388
aS'6'
aS'106'
p4005
aa(lp4006
I2388
aS'12'
p4007
aS'97'
p4008
aa(lp4009
I2879
aS'16'
p4010
aS'238'
p4011
aasS'1FIW'
p4012
(lp4013
(lp4014
I2879
aS'16'
p4015
aS'238'
p4016
aasS'1W2K'
p4017
(lp4018
(lp4019
I1362
aS'6'
aS'79'
p4020
aa(lp4021
I2879
aS'16'
p4022
aS'238'
p4023
aa(lp4024
I2939
aS'91'
p4025
aS'127'
p4026
aa(lp4027
I3392
aS'50'
p4028
aS'79'
p4029
aa(lp4030
I6386
aS'106'
p4031
aS'210'
p4032
aa(lp4033
I6715
aS'5'
aS'44'
p4034
aasS'1QB1'
p4035
(lp4036
(lp4037
I2879
aS'7'
aS'222'
p4038
aasS'1FIZ'
p4039
(lp4040
(lp4041
I2879
aS'16'
p4042
aS'238'
p4043
aasS'1QB6'
p4044
(lp4045
(lp4046
I2879
aS'7'
aS'222'
p4047
aasS'3UTU'
p4048
(lp4049
(lp4050
I2879
aS'17'
p4051
aS'238'
p4052
aa(lp4053
I4359
aS'1B'
p4054
aS'14J'
p4055
aasS'4XE4'
p4056
(lp4057
(lp4058
I2879
aS'359'
p4059
aS'590'
p4060
aasS'3T62'
p4061
(lp4062
(lp4063
I2879
aS'16'
p4064
aS'238'
p4065
aa(lp4066
I5507
aS'4'
aS'56'
p4067
aasS'1JMO'
p4068
(lp4069
(lp4070
I2879
aS'16'
p4071
aS'238'
p4072
aa(lp4073
I4359
aS'1S'
p4074
aS'14M'
p4075
aa(lp4076
I6874
aS'111'
p4077
aS'477'
p4078
aasS'1DIC'
p4079
(lp4080
(lp4081
I2879
aS'16'
p4082
aS'238'
p4083
aasS'4OGX'
p4084
(lp4085
(lp4086
I1690
aS'135'
p4087
aS'215'
p4088
aa(lp4089
I1690
aS'119'
p4090
aS'204'
p4091
aa(lp4092
I2388
aS'12'
p4093
aS'120'
p4094
aa(lp4095
I2388
aS'6'
aS'105'
p4096
aa(lp4097
I2879
aS'391'
p4098
aS'621'
p4099
aasS'4OGY'
p4100
(lp4101
(lp4102
I1690
aS'135'
p4103
aS'215'
p4104
aa(lp4105
I1690
aS'119'
p4106
aS'204'
p4107
aa(lp4108
I2388
aS'12'
p4109
aS'120'
p4110
aa(lp4111
I2388
aS'6'
aS'105'
p4112
aa(lp4113
I2879
aS'391'
p4114
aS'621'
p4115
aasS'4IGD'
p4116
(lp4117
(lp4118
I2879
aS'451'
p4119
aS'691'
p4120
aa(lp4121
I4067
aS'301'
p4122
aS'362'
p4123
aa(lp4124
I4067
aS'367'
p4125
aS'432'
p4126
aasS'1DIT'
p4127
(lp4128
(lp4129
I2879
aS'16'
p4130
aS'238'
p4131
aa(lp4132
I4359
aS'1D'
p4133
aS'14K'
p4134
aasS'3VPK'
p4135
(lp4136
(lp4137
I2879
aS'16'
p4138
aS'238'
p4139
aasS'1BUI'
p4140
(lp4141
(lp4142
I2879
aS'16'
p4143
aS'238'
p4144
aa(lp4145
I3249
aS'19'
p4146
aS'119'
p4147
aasS'3MFJ'
p4148
(lp4149
(lp4150
I2879
aS'16'
p4151
aS'238'
p4152
aasS'1E36'
p4153
(lp4154
(lp4155
I2879
aS'16'
p4156
aS'238'
p4157
aasS'1MAY'
p4158
(lp4159
(lp4160
I2879
aS'16'
p4161
aS'238'
p4162
aasS'1MAX'
p4163
(lp4164
(lp4165
I2879
aS'16'
p4166
aS'238'
p4167
aasS'2CJI'
p4168
(lp4169
(lp4170
I2879
aS'16'
p4171
aS'238'
p4172
aa(lp4173
I2939
aS'1'
aS'36'
p4174
aasS'3ITI'
p4175
(lp4176
(lp4177
I2879
aS'1'
aS'216'
p4178
aasS'4A7I'
p4179
(lp4180
(lp4181
I2879
aS'16'
p4182
aS'238'
p4183
aa(lp4184
I2939
aS'1'
aS'36'
p4185
aasS'2AIP'
p4186
(lp4187
(lp4188
I2879
aS'16'
p4189
aS'238'
p4190
aasS'2AIQ'
p4191
(lp4192
(lp4193
I2879
aS'16'
p4194
aS'238'
p4195
aasS'4I8G'
p4196
(lp4197
(lp4198
I2879
aS'16'
p4199
aS'238'
p4200
aasS'4I8H'
p4201
(lp4202
(lp4203
I2879
aS'16'
p4204
aS'238'
p4205
aasS'4I8K'
p4206
(lp4207
(lp4208
I2879
aS'16'
p4209
aS'238'
p4210
aasS'4I8J'
p4211
(lp4212
(lp4213
I2879
aS'16'
p4214
aS'238'
p4215
aasS'3JZ1'
p4216
(lp4217
(lp4218
I2879
aS'16'
p4219
aS'238'
p4220
aa(lp4221
I4359
aS'1C'
p4222
aS'14M'
p4223
aasS'4I8L'
p4224
(lp4225
(lp4226
I2879
aS'16'
p4227
aS'238'
p4228
aasS'3JZ2'
p4229
(lp4230
(lp4231
I2879
aS'16'
p4232
aS'238'
p4233
aa(lp4234
I4359
aS'1D'
p4235
aS'14K'
p4236
aasS'2R2W'
p4237
(lp4238
(lp4239
I2879
aS'16'
p4240
aS'238'
p4241
aasS'2PGQ'
p4242
(lp4243
(lp4244
I2879
aS'16'
p4245
aS'238'
p4246
aa(lp4247
I4359
aS'1Q'
p4248
aS'14L'
p4249
aasS'2R2M'
p4250
(lp4251
(lp4252
I2879
aS'37'
p4253
aS'280'
p4254
aa(lp4255
I4359
aS'7'
aS'32'
p4256
aasS'2HVX'
p4257
(lp4258
(lp4259
I2879
aS'16'
p4260
aS'238'
p4261
aasS'1KYN'
p4262
(lp4263
(lp4264
I2879
aS'16'
p4265
aS'238'
p4266
aasS'1XKA'
p4267
(lp4268
(lp4269
I2879
aS'16'
p4270
aS'238'
p4271
aa(lp4272
I2939
aS'89'
p4273
aS'124'
p4274
aa(lp4275
I3392
aS'50'
p4276
aS'80'
p4277
aasS'2EI7'
p4278
(lp4279
(lp4280
I2879
aS'16'
p4281
aS'238'
p4282
aa(lp4283
I2939
aS'89'
p4284
aS'124'
p4285
aasS'2GV7'
p4286
(lp4287
(lp4288
I2879
aS'16'
p4289
aS'238'
p4290
aasS'2GV6'
p4291
(lp4292
(lp4293
I2879
aS'16'
p4294
aS'238'
p4295
aasS'3UFA'
p4296
(lp4297
(lp4298
I2879
aS'12'
p4299
aS'185'
p4300
aasS'3C1K'
p4301
(lp4302
(lp4303
I2879
aS'16'
p4304
aS'238'
p4305
aa(lp4306
I4359
aS'1A'
p4307
aS'14K'
p4308
aasS'2PUQ'
p4309
(lp4310
(lp4311
I1362
aS'7'
aS'83'
p4312
aa(lp4313
I2879
aS'153'
p4314
aS'387'
p4315
aa(lp4316
I2939
aS'91'
p4317
aS'127'
p4318
aa(lp4319
I3392
aS'50'
p4320
aS'79'
p4321
aa(lp4322
I6386
aS'106'
p4323
aS'209'
p4324
aasS'2PUX'
p4325
(lp4326
(lp4327
I2879
aS'16'
p4328
aS'238'
p4329
aa(lp4330
I4359
aS'1P'
p4331
aS'14M'
p4332
aasS'4FUE'
p4333
(lp4334
(lp4335
I2879
aS'1'
aS'241'
p4336
aasS'4FUD'
p4337
(lp4338
(lp4339
I2879
aS'1'
aS'241'
p4340
aasS'4FUG'
p4341
(lp4342
(lp4343
I2879
aS'1'
aS'242'
p4344
aasS'4FUF'
p4345
(lp4346
(lp4347
I2879
aS'1'
aS'241'
p4348
aasS'3RLW'
p4349
(lp4350
(lp4351
I2879
aS'16'
p4352
aS'238'
p4353
aa(lp4354
I4359
aS'1C'
p4355
aS'14K'
p4356
aasS'4FUC'
p4357
(lp4358
(lp4359
I2879
aS'1'
aS'241'
p4360
aasS'4FUB'
p4361
(lp4362
(lp4363
I2879
aS'1'
aS'241'
p4364
aasS'3RLY'
p4365
(lp4366
(lp4367
I2879
aS'16'
p4368
aS'238'
p4369
aa(lp4370
I4359
aS'1C'
p4371
aS'14K'
p4372
aasS'4FUI'
p4373
(lp4374
(lp4375
I2879
aS'1'
aS'241'
p4376
aasS'4FUH'
p4377
(lp4378
(lp4379
I2879
aS'1'
aS'241'
p4380
aasS'4FUJ'
p4381
(lp4382
(lp4383
I2879
aS'1'
aS'241'
p4384
aasS'3FP8'
p4385
(lp4386
(lp4387
I2879
aS'16'
p4388
aS'238'
p4389
aa(lp4390
I5507
aS'4'
aS'55'
p4391
aasS'1AND'
p4392
(lp4393
(lp4394
I2879
aS'16'
p4395
aS'238'
p4396
aasS'1ANE'
p4397
(lp4398
(lp4399
I2879
aS'16'
p4400
aS'238'
p4401
aasS'1G3C'
p4402
(lp4403
(lp4404
I2879
aS'16'
p4405
aS'238'
p4406
aasS'1G3B'
p4407
(lp4408
(lp4409
I2879
aS'16'
p4410
aS'238'
p4411
aasS'1G3E'
p4412
(lp4413
(lp4414
I2879
aS'16'
p4415
aS'238'
p4416
aa(lp4417
I2879
aS'16'
p4418
aS'238'
p4419
aasS'1G3D'
p4420
(lp4421
(lp4422
I2879
aS'16'
p4423
aS'238'
p4424
aasS'1ANB'
p4425
(lp4426
(lp4427
I2879
aS'16'
p4428
aS'238'
p4429
aasS'1ANC'
p4430
(lp4431
(lp4432
I2879
aS'16'
p4433
aS'238'
p4434
aasS'4Y8Y'
p4435
(lp4436
(lp4437
I2879
aS'16'
p4438
aS'238'
p4439
aasS'2ILN'
p4440
(lp4441
(lp4442
I2879
aS'16'
p4443
aS'238'
p4444
aa(lp4445
I2971
aS'8'
aS'29'
p4446
aa(lp4447
I2971
aS'34'
p4448
aS'57'
p4449
aasS'4Y8Z'
p4450
(lp4451
(lp4452
I2879
aS'16'
p4453
aS'238'
p4454
aasS'2BXT'
p4455
(lp4456
(lp4457
I2879
aS'16'
p4458
aS'238'
p4459
aa(lp4460
I4359
aS'0B'
p4461
aS'15'
p4462
aasS'2BXU'
p4463
(lp4464
(lp4465
I2879
aS'16'
p4466
aS'238'
p4467
aa(lp4468
I4359
aS'0B'
p4469
aS'15'
p4470
aasS'1EUF'
p4471
(lp4472
(lp4473
I2879
aS'16'
p4474
aS'238'
p4475
aasS'2RA3'
p4476
(lp4477
(lp4478
I2879
aS'16'
p4479
aS'238'
p4480
aa(lp4481
I5507
aS'4'
aS'55'
p4482
aasS'2RA0'
p4483
(lp4484
(lp4485
I2879
aS'16'
p4486
aS'238'
p4487
aa(lp4488
I2939
aS'89'
p4489
aS'124'
p4490
aasS'1G30'
p4491
(lp4492
(lp4493
I2879
aS'16'
p4494
aS'238'
p4495
aa(lp4496
I4359
aS'1C'
p4497
aS'14J'
p4498
aasS'1G32'
p4499
(lp4500
(lp4501
I2879
aS'16'
p4502
aS'238'
p4503
aa(lp4504
I4359
aS'1C'
p4505
aS'14J'
p4506
aasS'1AN1'
p4507
(lp4508
(lp4509
I1504
aS'5'
aS'30'
p4510
aa(lp4511
I2879
aS'16'
p4512
aS'238'
p4513
aasS'1G37'
p4514
(lp4515
(lp4516
I2879
aS'16'
p4517
aS'238'
p4518
aa(lp4519
I4359
aS'1B'
p4520
aS'14K'
p4521
aasS'1G36'
p4522
(lp4523
(lp4524
I2879
aS'16'
p4525
aS'238'
p4526
aasS'4FU7'
p4527
(lp4528
(lp4529
I2879
aS'1'
aS'241'
p4530
aasS'4FU9'
p4531
(lp4532
(lp4533
I2879
aS'1'
aS'241'
p4534
aasS'4FU8'
p4535
(lp4536
(lp4537
I2879
aS'1'
aS'241'
p4538
aasS'2P8O'
p4539
(lp4540
(lp4541
I2879
aS'16'
p4542
aS'145'
p4543
aa(lp4544
I2879
aS'151'
p4545
aS'238'
p4546
aasS'3OX7'
p4547
(lp4548
(lp4549
I2879
aS'16'
p4550
aS'238'
p4551
aasS'1TON'
p4552
(lp4553
(lp4554
I2879
aS'16'
p4555
aS'238'
p4556
aasS'1TOM'
p4557
(lp4558
(lp4559
I2879
aS'16'
p4560
aS'238'
p4561
aa(lp4562
I4359
aS'1B'
p4563
aS'14J'
p4564
aasS'1Y3W'
p4565
(lp4566
(lp4567
I2879
aS'16'
p4568
aS'238'
p4569
aasS'1Y3V'
p4570
(lp4571
(lp4572
I2879
aS'16'
p4573
aS'238'
p4574
aasS'1Y3U'
p4575
(lp4576
(lp4577
I2879
aS'16'
p4578
aS'238'
p4579
aasS'1Y3Y'
p4580
(lp4581
(lp4582
I2879
aS'16'
p4583
aS'238'
p4584
aasS'1Y3X'
p4585
(lp4586
(lp4587
I2879
aS'16'
p4588
aS'238'
p4589
aasS'2XBX'
p4590
(lp4591
(lp4592
I2879
aS'16'
p4593
aS'238'
p4594
aa(lp4595
I2939
aS'89'
p4596
aS'124'
p4597
aasS'2XBY'
p4598
(lp4599
(lp4600
I2879
aS'16'
p4601
aS'238'
p4602
aa(lp4603
I2939
aS'89'
p4604
aS'124'
p4605
aasS'2XBV'
p4606
(lp4607
(lp4608
I2879
aS'16'
p4609
aS'238'
p4610
aa(lp4611
I2939
aS'89'
p4612
aS'124'
p4613
aasS'2XBW'
p4614
(lp4615
(lp4616
I2879
aS'16'
p4617
aS'238'
p4618
aa(lp4619
I2939
aS'89'
p4620
aS'124'
p4621
aasS'2ZDV'
p4622
(lp4623
(lp4624
I2879
aS'16'
p4625
aS'238'
p4626
aa(lp4627
I4359
aS'1C'
p4628
aS'14K'
p4629
aasS'3MI4'
p4630
(lp4631
(lp4632
I2879
aS'16'
p4633
aS'238'
p4634
aasS'1A61'
p4635
(lp4636
(lp4637
I2879
aS'16'
p4638
aS'238'
p4639
aa(lp4640
I4359
aS'1B'
p4641
aS'14K'
p4642
aasS'4ZXX'
p4643
(lp4644
(lp4645
I2879
aS'16'
p4646
aS'238'
p4647
aa(lp4648
I2939
aS'91'
p4649
aS'127'
p4650
aasS'1QUR'
p4651
(lp4652
(lp4653
I2879
aS'16'
p4654
aS'238'
p4655
aa(lp4656
I4359
aS'1B'
p4657
aS'14K'
p4658
aasS'1ZOM'
p4659
(lp4660
(lp4661
I2879
aS'16'
p4662
aS'238'
p4663
aasS'1WAY'
p4664
(lp4665
(lp4666
I2879
aS'16'
p4667
aS'238'
p4668
aa(lp4669
I4359
aS'1D'
p4670
aS'14K'
p4671
aasS'4E05'
p4672
(lp4673
(lp4674
I2879
aS'321'
p4675
aS'570'
p4676
aa(lp4677
I4359
aS'290'
p4678
aS'318'
p4679
aasS'3U8R'
p4680
(lp4681
(lp4682
I2879
aS'321'
p4683
aS'570'
p4684
aa(lp4685
I4359
aS'291'
p4686
aS'317'
p4687
aasS'4E06'
p4688
(lp4689
(lp4690
I2879
aS'321'
p4691
aS'570'
p4692
aa(lp4693
I4359
aS'291'
p4694
aS'318'
p4695
aasS'3U8T'
p4696
(lp4697
(lp4698
I2879
aS'321'
p4699
aS'570'
p4700
aa(lp4701
I4359
aS'291'
p4702
aS'317'
p4703
aasS'1FV9'
p4704
(lp4705
(lp4706
I2879
aS'1'
aS'240'
p4707
aasS'1PQA'
p4708
(lp4709
(lp4710
I2879
aS'16'
p4711
aS'235'
p4712
aasS'3PRO'
p4713
(lp4714
(lp4715
I2879
aS'31'
p4716
aS'172'
p4717
aa(lp4718
I6394
aS'86'
p4719
aS'150'
p4720
aasS'3H5C'
p4721
(lp4722
(lp4723
I2879
aS'146'
p4724
aS'354'
p4725
aa(lp4726
I2939
aS'94'
p4727
aS'125'
p4728
aa(lp4729
I3392
aS'53'
p4730
aS'81'
p4731
aa(lp4732
I6874
aS'58'
p4733
aS'420'
p4734
aasS'2OLG'
p4735
(lp4736
(lp4737
I2879
aS'110'
p4738
aS'359'
p4739
aasS'4EST'
p4740
(lp4741
(lp4742
I2879
aS'16'
p4743
aS'238'
p4744
aasS'3U8O'
p4745
(lp4746
(lp4747
I2879
aS'321'
p4748
aS'570'
p4749
aa(lp4750
I4359
aS'291'
p4751
aS'320'
p4752
aasS'8LPR'
p4753
(lp4754
(lp4755
I2879
aS'52'
p4756
aS'221A'
p4757
aasS'2ZDA'
p4758
(lp4759
(lp4760
I2879
aS'16'
p4761
aS'238'
p4762
aa(lp4763
I4359
aS'1C'
p4764
aS'14L'
p4765
aasS'2ZDL'
p4766
(lp4767
(lp4768
I2879
aS'16'
p4769
aS'238'
p4770
aasS'2ZDM'
p4771
(lp4772
(lp4773
I2879
aS'16'
p4774
aS'238'
p4775
aasS'2ZDN'
p4776
(lp4777
(lp4778
I2879
aS'16'
p4779
aS'238'
p4780
aasS'4A6L'
p4781
(lp4782
(lp4783
I2879
aS'16'
p4784
aS'257'
p4785
aasS'2ZDK'
p4786
(lp4787
(lp4788
I2879
aS'16'
p4789
aS'238'
p4790
aasS'1T4V'
p4791
(lp4792
(lp4793
I2879
aS'37'
p4794
aS'280'
p4795
aa(lp4796
I4359
aS'7'
aS'32'
p4797
aasS'1T4U'
p4798
(lp4799
(lp4800
I2879
aS'37'
p4801
aS'280'
p4802
aa(lp4803
I4359
aS'7'
aS'32'
p4804
aasS'3T5F'
p4805
(lp4806
(lp4807
I2879
aS'16'
p4808
aS'238'
p4809
aa(lp4810
I4359
aS'1C'
p4811
aS'14K'
p4812
aasS'2EEK'
p4813
(lp4814
(lp4815
I2879
aS'16'
p4816
aS'238'
p4817
aasS'3PLB'
p4818
(lp4819
(lp4820
I2879
aS'16'
p4821
aS'238'
p4822
aasS'1B0E'
p4823
(lp4824
(lp4825
I2879
aS'16'
p4826
aS'238'
p4827
aasS'3PLK'
p4828
(lp4829
(lp4830
I2879
aS'16'
p4831
aS'238'
p4832
aasS'1B0F'
p4833
(lp4834
(lp4835
I2879
aS'16'
p4836
aS'238'
p4837
aasS'3Q00'
p4838
(lp4839
(lp4840
I2879
aS'16'
p4841
aS'238'
p4842
aasS'3PLP'
p4843
(lp4844
(lp4845
I2879
aS'16'
p4846
aS'238'
p4847
aasS'2AH4'
p4848
(lp4849
(lp4850
I2879
aS'16'
p4851
aS'238'
p4852
aasS'1QCP'
p4853
(lp4854
(lp4855
I2879
aS'16'
p4856
aS'238'
p4857
aasS'1ELT'
p4858
(lp4859
(lp4860
I2879
aS'16'
p4861
aS'238'
p4862
aasS'3V7T'
p4863
(lp4864
(lp4865
I2879
aS'16'
p4866
aS'252'
p4867
aasS'3E3T'
p4868
(lp4869
(lp4870
I2879
aS'1'
aS'233'
p4871
aasS'1P2Q'
p4872
(lp4873
(lp4874
I2879
aS'16'
p4875
aS'238'
p4876
aa(lp4877
I5507
aS'4'
aS'55'
p4878
aasS'1H1B'
p4879
(lp4880
(lp4881
I2879
aS'16'
p4882
aS'238'
p4883
aasS'1TYN'
p4884
(lp4885
(lp4886
I2879
aS'16'
p4887
aS'238'
p4888
aasS'3P70'
p4889
(lp4890
(lp4891
I2879
aS'364'
p4892
aS'613'
p4893
aa(lp4894
I4359
aS'334'
p4895
aS'362'
p4896
aasS'1P2M'
p4897
(lp4898
(lp4899
I2879
aS'16'
p4900
aS'238'
p4901
aa(lp4902
I5507
aS'4'
aS'55'
p4903
aasS'1PQ5'
p4904
(lp4905
(lp4906
I2879
aS'16'
p4907
aS'235'
p4908
aasS'1P2O'
p4909
(lp4910
(lp4911
I2879
aS'16'
p4912
aS'238'
p4913
aa(lp4914
I5507
aS'4'
aS'55'
p4915
aasS'1P2N'
p4916
(lp4917
(lp4918
I2879
aS'16'
p4919
aS'238'
p4920
aa(lp4921
I5507
aS'4'
aS'55'
p4922
aasS'1P2I'
p4923
(lp4924
(lp4925
I2879
aS'16'
p4926
aS'238'
p4927
aa(lp4928
I5507
aS'4'
aS'55'
p4929
aasS'1P2K'
p4930
(lp4931
(lp4932
I2879
aS'16'
p4933
aS'238'
p4934
aa(lp4935
I5507
aS'4'
aS'55'
p4936
aasS'1P2J'
p4937
(lp4938
(lp4939
I2879
aS'16'
p4940
aS'238'
p4941
aa(lp4942
I5507
aS'4'
aS'55'
p4943
aasS'1RS0'
p4944
(lp4945
(lp4946
I2829
aS'245'
p4947
aS'442'
p4948
aa(lp4949
I2879
aS'458'
p4950
aS'717'
p4951
aasS'3HK6'
p4952
(lp4953
(lp4954
I2879
aS'16'
p4955
aS'238'
p4956
aa(lp4957
I4359
aS'1P'
p4958
aS'14M'
p4959
aasS'3HK3'
p4960
(lp4961
(lp4962
I2879
aS'16'
p4963
aS'238'
p4964
aa(lp4965
I4359
aS'1C'
p4966
aS'14M'
p4967
aasS'4K69'
p4968
(lp4969
(lp4970
I2879
aS'16'
p4971
aS'238'
p4972
aasS'1XXF'
p4973
(lp4974
(lp4975
I81
aS'10'
p4976
aS'132'
p4977
aa(lp4978
I2879
aS'16'
p4979
aS'238'
p4980
aasS'1XXD'
p4981
(lp4982
(lp4983
I81
aS'10'
p4984
aS'132'
p4985
aa(lp4986
I2879
aS'16'
p4987
aS'238'
p4988
aasS'4K60'
p4989
(lp4990
(lp4991
I2879
aS'16'
p4992
aS'238'
p4993
aasS'1FJS'
p4994
(lp4995
(lp4996
I2879
aS'16'
p4997
aS'238'
p4998
aa(lp4999
I2939
aS'89'
p5000
aS'124'
p5001
aasS'2VIV'
p5002
(lp5003
(lp5004
I2879
aS'16'
p5005
aS'238'
p5006
aasS'1M9U'
p5007
(lp5008
(lp5009
I2879
aS'16'
p5010
aS'238'
p5011
aasS'3I29'
p5012
(lp5013
(lp5014
I2879
aS'16'
p5015
aS'238'
p5016
aa(lp5017
I4686
aS'5'
aS'171'
p5018
aasS'3UUZ'
p5019
(lp5020
(lp5021
I2879
aS'16'
p5022
aS'238'
p5023
aasS'4GUX'
p5024
(lp5025
(lp5026
I2879
aS'21'
p5027
aS'236'
p5028
aa(lp5029
I3295
aS'7'
aS'34'
p5030
aasS'1A3E'
p5031
(lp5032
(lp5033
I2879
aS'16'
p5034
aS'238'
p5035
aa(lp5036
I4359
aS'1B'
p5037
aS'14K'
p5038
aasS'1XX9'
p5039
(lp5040
(lp5041
I81
aS'10'
p5042
aS'132'
p5043
aa(lp5044
I2879
aS'16'
p5045
aS'238'
p5046
aasS'1MTN'
p5047
(lp5048
(lp5049
I2879
aS'16'
p5050
aS'145'
p5051
aa(lp5052
I2879
aS'151'
p5053
aS'238'
p5054
aa(lp5055
I5507
aS'304'
p5056
aS'355'
p5057
aasS'1BTP'
p5058
(lp5059
(lp5060
I2879
aS'16'
p5061
aS'238'
p5062
aasS'1BTU'
p5063
(lp5064
(lp5065
I2879
aS'16'
p5066
aS'238'
p5067
aasS'3HKI'
p5068
(lp5069
(lp5070
I2879
aS'16'
p5071
aS'238'
p5072
aa(lp5073
I4359
aS'1P'
p5074
aS'14J'
p5075
aasS'3HKJ'
p5076
(lp5077
(lp5078
I2879
aS'16'
p5079
aS'238'
p5080
aa(lp5081
I4359
aS'1C'
p5082
aS'15'
p5083
aasS'1BTY'
p5084
(lp5085
(lp5086
I2879
aS'16'
p5087
aS'238'
p5088
aasS'1BTX'
p5089
(lp5090
(lp5091
I2879
aS'16'
p5092
aS'238'
p5093
aasS'1BTZ'
p5094
(lp5095
(lp5096
I2879
aS'16'
p5097
aS'238'
p5098
aasS'1MTV'
p5099
(lp5100
(lp5101
I2879
aS'16'
p5102
aS'238'
p5103
aasS'1MTW'
p5104
(lp5105
(lp5106
I2879
aS'16'
p5107
aS'238'
p5108
aasS'1MTU'
p5109
(lp5110
(lp5111
I2879
aS'16'
p5112
aS'238'
p5113
aasS'1MTS'
p5114
(lp5115
(lp5116
I2879
aS'16'
p5117
aS'238'
p5118
aasS'3GYM'
p5119
(lp5120
(lp5121
I2879
aS'16'
p5122
aS'238'
p5123
aa(lp5124
I5507
aS'4'
aS'55'
p5125
aasS'3GYL'
p5126
(lp5127
(lp5128
I2879
aS'16'
p5129
aS'238'
p5130
aasS'1D4P'
p5131
(lp5132
(lp5133
I2879
aS'37'
p5134
aS'286'
p5135
aa(lp5136
I4359
aS'6'
aS'33'
p5137
aasS'3E8L'
p5138
(lp5139
(lp5140
I2879
aS'16'
p5141
aS'231'
p5142
aa(lp5143
I4686
aS'3'
aS'175'
p5144
aasS'1EZX'
p5145
(lp5146
(lp5147
I2879
aS'42'
p5148
aS'238'
p5149
aa(lp5150
I6874
aS'31'
p5151
aS'351'
p5152
aa(lp5153
I6874
aS'361'
p5154
aS'391'
p5155
aasS'2BOH'
p5156
(lp5157
(lp5158
I2879
aS'16'
p5159
aS'238'
p5160
aa(lp5161
I2939
aS'1'
aS'36'
p5162
aasS'2BOK'
p5163
(lp5164
(lp5165
I2879
aS'16'
p5166
aS'238'
p5167
aa(lp5168
I2879
aS'16'
p5169
aS'238'
p5170
aa(lp5171
I2939
aS'89'
p5172
aS'124'
p5173
aa(lp5174
I2939
aS'89'
p5175
aS'124'
p5176
aasS'2NWN'
p5177
(lp5178
(lp5179
I2879
aS'16'
p5180
aS'238'
p5181
aasS'1EZU'
p5182
(lp5183
(lp5184
I81
aS'10'
p5185
aS'132'
p5186
aa(lp5187
I2879
aS'416'
p5188
aS'638'
p5189
aasS'1EZQ'
p5190
(lp5191
(lp5192
I2879
aS'16'
p5193
aS'238'
p5194
aa(lp5195
I2939
aS'1'
aS'36'
p5196
aasS'1EZS'
p5197
(lp5198
(lp5199
I81
aS'12'
p5200
aS'132'
p5201
aa(lp5202
I2879
aS'416'
p5203
aS'638'
p5204
aasS'3CS7'
p5205
(lp5206
(lp5207
I2879
aS'16'
p5208
aS'238'
p5209
aa(lp5210
I2939
aS'89'
p5211
aS'124'
p5212
aasS'2FOH'
p5213
(lp5214
(lp5215
I2879
aS'16'
p5216
aS'248'
p5217
aasS'2FOA'
p5218
(lp5219
(lp5220
I2879
aS'16'
p5221
aS'248'
p5222
aasS'2FOC'
p5223
(lp5224
(lp5225
I2879
aS'16'
p5226
aS'248'
p5227
aasS'2FOB'
p5228
(lp5229
(lp5230
I2879
aS'16'
p5231
aS'248'
p5232
aasS'2FOE'
p5233
(lp5234
(lp5235
I2879
aS'16'
p5236
aS'248'
p5237
aasS'2FOD'
p5238
(lp5239
(lp5240
I2879
aS'16'
p5241
aS'248'
p5242
aasS'2FOG'
p5243
(lp5244
(lp5245
I2879
aS'16'
p5246
aS'248'
p5247
aasS'2FOF'
p5248
(lp5249
(lp5250
I2879
aS'16'
p5251
aS'248'
p5252
aasS'1MZD'
p5253
(lp5254
(lp5255
I2879
aS'16'
p5256
aS'238'
p5257
aasS'4KGA'
p5258
(lp5259
(lp5260
I2879
aS'17'
p5261
aS'233'
p5262
aasS'4I7Y'
p5263
(lp5264
(lp5265
I2879
aS'16'
p5266
aS'238'
p5267
aa(lp5268
I4359
aS'1B'
p5269
aS'14K'
p5270
aasS'1ORF'
p5271
(lp5272
(lp5273
I2879
aS'16'
p5274
aS'238'
p5275
aasS'2ZCH'
p5276
(lp5277
(lp5278
I1690
aS'120'
p5279
aS'205'
p5280
aa(lp5281
I1690
aS'130'
p5282
aS'205'
p5283
aa(lp5284
I2388
aS'6'
aS'106'
p5285
aa(lp5286
I2388
aS'8'
aS'111'
p5287
aa(lp5288
I2879
aS'16'
p5289
aS'238'
p5290
aasS'2D1J'
p5291
(lp5292
(lp5293
I2879
aS'16'
p5294
aS'238'
p5295
aa(lp5296
I2939
aS'89'
p5297
aS'124'
p5298
aasS'4GCH'
p5299
(lp5300
(lp5301
I2879
aS'16'
p5302
aS'145'
p5303
aa(lp5304
I2879
aS'151'
p5305
aS'238'
p5306
aasS'1PQ7'
p5307
(lp5308
(lp5309
I2879
aS'16'
p5310
aS'235'
p5311
aasS'4AFQ'
p5312
(lp5313
(lp5314
I729
aS'6'
aS'54'
p5315
aa(lp5316
I2879
aS'1'
aS'219'
p5317
aasS'2HWL'
p5318
(lp5319
(lp5320
I2879
aS'16'
p5321
aS'238'
p5322
aa(lp5323
I4359
aS'1D'
p5324
aS'14I'
p5325
aasS'3GY8'
p5326
(lp5327
(lp5328
I2879
aS'16'
p5329
aS'238'
p5330
aasS'3GY5'
p5331
(lp5332
(lp5333
I2879
aS'16'
p5334
aS'238'
p5335
aasS'3GY4'
p5336
(lp5337
(lp5338
I2879
aS'16'
p5339
aS'238'
p5340
aasS'3GY7'
p5341
(lp5342
(lp5343
I2879
aS'16'
p5344
aS'238'
p5345
aasS'3GY6'
p5346
(lp5347
(lp5348
I2879
aS'16'
p5349
aS'238'
p5350
aasS'1H4W'
p5351
(lp5352
(lp5353
I2879
aS'16'
p5354
aS'238'
p5355
aasS'2G00'
p5356
(lp5357
(lp5358
I2879
aS'16'
p5359
aS'238'
p5360
aa(lp5361
I2939
aS'89'
p5362
aS'124'
p5363
aasS'3GY3'
p5364
(lp5365
(lp5366
I2879
aS'16'
p5367
aS'238'
p5368
aasS'3GY2'
p5369
(lp5370
(lp5371
I2879
aS'16'
p5372
aS'238'
p5373
aasS'4X8S'
p5374
(lp5375
(lp5376
I2879
aS'16'
p5377
aS'238'
p5378
aa(lp5379
I2939
aS'91'
p5380
aS'127'
p5381
aasS'3QK1'
p5382
(lp5383
(lp5384
I2879
aS'16'
p5385
aS'238'
p5386
aasS'4X8U'
p5387
(lp5388
(lp5389
I2879
aS'16'
p5390
aS'238'
p5391
aa(lp5392
I2939
aS'91'
p5393
aS'127'
p5394
aasS'4X8V'
p5395
(lp5396
(lp5397
I2879
aS'16'
p5398
aS'238'
p5399
aa(lp5400
I2939
aS'91'
p5401
aS'127'
p5402
aasS'4BXS'
p5403
(lp5404
(lp5405
I826
aS'1132'
p5406
aS'1260'
p5407
aa(lp5408
I826
aS'1289'
p5409
aS'1424'
p5410
aa(lp5411
I2879
aS'174'
p5412
aS'405'
p5413
aa(lp5414
I2939
aS'89'
p5415
aS'124'
p5416
aa(lp5417
I3227
aS'58'
p5418
aS'167'
p5419
aa(lp5420
I3227
aS'383'
p5421
aS'500'
p5422
aa(lp5423
I3227
aS'854'
p5424
aS'928'
p5425
aasS'2BY9'
p5426
(lp5427
(lp5428
I2879
aS'16'
p5429
aS'238'
p5430
aasS'2BY8'
p5431
(lp5432
(lp5433
I2879
aS'16'
p5434
aS'238'
p5435
aasS'4Y79'
p5436
(lp5437
(lp5438
I2879
aS'16'
p5439
aS'243'
p5440
aa(lp5441
I2939
aS'81'
p5442
aS'106'
p5443
aa(lp5444
I3392
aS'42'
p5445
aS'72'
p5446
aa(lp5447
I6715
aS'-2'
p5448
aS'36'
p5449
aasS'1AO5'
p5450
(lp5451
(lp5452
I2879
aS'16'
p5453
aS'238'
p5454
aasS'2BY7'
p5455
(lp5456
(lp5457
I2879
aS'16'
p5458
aS'238'
p5459
aasS'4Y71'
p5460
(lp5461
(lp5462
I2879
aS'16'
p5463
aS'243'
p5464
aa(lp5465
I2939
aS'81'
p5466
aS'90'
p5467
aa(lp5468
I3392
aS'42'
p5469
aS'72'
p5470
aa(lp5471
I6715
aS'-2'
p5472
aS'36'
p5473
aasS'2BY5'
p5474
(lp5475
(lp5476
I2879
aS'16'
p5477
aS'238'
p5478
aasS'1QRX'
p5479
(lp5480
(lp5481
I2879
aS'31'
p5482
aS'172'
p5483
aasS'1QRZ'
p5484
(lp5485
(lp5486
I2879
aS'562'
p5487
aS'784'
p5488
aasS'3OY6'
p5489
(lp5490
(lp5491
I2879
aS'16'
p5492
aS'238'
p5493
aasS'1WBG'
p5494
(lp5495
(lp5496
I2879
aS'16'
p5497
aS'238'
p5498
aa(lp5499
I4359
aS'1D'
p5500
aS'15'
p5501
aasS'1QRW'
p5502
(lp5503
(lp5504
I2879
aS'31'
p5505
aS'172'
p5506
aasS'2P95'
p5507
(lp5508
(lp5509
I2879
aS'16'
p5510
aS'238'
p5511
aa(lp5512
I2939
aS'89'
p5513
aS'124'
p5514
aasS'2P94'
p5515
(lp5516
(lp5517
I2879
aS'16'
p5518
aS'238'
p5519
aa(lp5520
I2939
aS'89'
p5521
aS'124'
p5522
aasS'4O97'
p5523
(lp5524
(lp5525
I2879
aS'16'
p5526
aS'238'
p5527
aasS'2P93'
p5528
(lp5529
(lp5530
I2879
aS'16'
p5531
aS'238'
p5532
aa(lp5533
I2939
aS'89'
p5534
aS'124'
p5535
aasS'4CHA'
p5536
(lp5537
(lp5538
I2879
aS'16'
p5539
aS'145'
p5540
aa(lp5541
I2879
aS'151'
p5542
aS'238'
p5543
aasS'4HTC'
p5544
(lp5545
(lp5546
I1247
aS'1'
aS'64'
p5547
aa(lp5548
I2879
aS'16'
p5549
aS'238'
p5550
aa(lp5551
I4359
aS'1F'
p5552
aS'14M'
p5553
aasS'1KLI'
p5554
(lp5555
(lp5556
I2879
aS'16'
p5557
aS'238'
p5558
aa(lp5559
I2939
aS'91'
p5560
aS'127'
p5561
aasS'1KLJ'
p5562
(lp5563
(lp5564
I2879
aS'16'
p5565
aS'238'
p5566
aa(lp5567
I2939
aS'91'
p5568
aS'127'
p5569
aasS'1LO6'
p5570
(lp5571
(lp5572
I2879
aS'17'
p5573
aS'238'
p5574
aa(lp5575
I2879
aS'17'
p5576
aS'238'
p5577
aasS'1QR3'
p5578
(lp5579
(lp5580
I2879
aS'16'
p5581
aS'238'
p5582
aasS'4O9V'
p5583
(lp5584
(lp5585
I2879
aS'16'
p5586
aS'238'
p5587
aasS'1KLT'
p5588
(lp5589
(lp5590
I2879
aS'16'
p5591
aS'238'
p5592
aasS'1F92'
p5593
(lp5594
(lp5595
I2879
aS'16'
p5596
aS'238'
p5597
aasS'2IOT'
p5598
(lp5599
(lp5600
I2879
aS'16'
p5601
aS'238'
p5602
aasS'2BYA'
p5603
(lp5604
(lp5605
I2879
aS'16'
p5606
aS'238'
p5607
aasS'4Y7A'
p5608
(lp5609
(lp5610
I2879
aS'16'
p5611
aS'243'
p5612
aa(lp5613
I2939
aS'81'
p5614
aS'96'
p5615
aa(lp5616
I3392
aS'42'
p5617
aS'72'
p5618
aa(lp5619
I6715
aS'-2'
p5620
aS'36'
p5621
aasS'4Y7B'
p5622
(lp5623
(lp5624
I2879
aS'16'
p5625
aS'243'
p5626
aa(lp5627
I2939
aS'81'
p5628
aS'116'
p5629
aa(lp5630
I3392
aS'42'
p5631
aS'72'
p5632
aa(lp5633
I6715
aS'-2'
p5634
aS'36'
p5635
aasS'2TRM'
p5636
(lp5637
(lp5638
I2879
aS'16'
p5639
aS'238'
p5640
aasS'1AY6'
p5641
(lp5642
(lp5643
I2879
aS'16'
p5644
aS'238'
p5645
aa(lp5646
I4359
aS'1D'
p5647
aS'14K'
p5648
aasS'2AYW'
p5649
(lp5650
(lp5651
I2879
aS'16'
p5652
aS'238'
p5653
aasS'4O03'
p5654
(lp5655
(lp5656
I2879
aS'321'
p5657
aS'570'
p5658
aa(lp5659
I4359
aS'274'
p5660
aS'320'
p5661
aa(lp5662
I5155
aS'65'
p5663
aS'143'
p5664
aa(lp5665
I5155
aS'170'
p5666
aS'248'
p5667
aa(lp5668
I6715
aS'5'
aS'45'
p5669
aasS'2XC5'
p5670
(lp5671
(lp5672
I2879
aS'16'
p5673
aS'238'
p5674
aa(lp5675
I2939
aS'89'
p5676
aS'124'
p5677
aasS'2XC4'
p5678
(lp5679
(lp5680
I2879
aS'16'
p5681
aS'238'
p5682
aa(lp5683
I2939
aS'89'
p5684
aS'124'
p5685
aasS'2XC0'
p5686
(lp5687
(lp5688
I2879
aS'16'
p5689
aS'238'
p5690
aa(lp5691
I2939
aS'89'
p5692
aS'124'
p5693
aasS'1B7X'
p5694
(lp5695
(lp5696
I2879
aS'16'
p5697
aS'238'
p5698
aa(lp5699
I4359
aS'1B'
p5700
aS'14J'
p5701
aasS'2FS9'
p5702
(lp5703
(lp5704
I2879
aS'16'
p5705
aS'238'
p5706
aasS'2FS8'
p5707
(lp5708
(lp5709
I2879
aS'16'
p5710
aS'238'
p5711
aasS'1CSO'
p5712
(lp5713
(lp5714
I1504
aS'8'
aS'56'
p5715
aa(lp5716
I2879
aS'48D'
p5717
aS'234'
p5718
aasS'1HAP'
p5719
(lp5720
(lp5721
I2879
aS'16'
p5722
aS'238'
p5723
aa(lp5724
I4359
aS'1B'
p5725
aS'14K'
p5726
aasS'1CA0'
p5727
(lp5728
(lp5729
I2879
aS'16'
p5730
aS'145'
p5731
aa(lp5732
I2879
aS'151'
p5733
aS'238'
p5734
aa(lp5735
I5507
aS'4'
aS'55'
p5736
aasS'4JNI'
p5737
(lp5738
(lp5739
I2879
aS'16'
p5740
aS'238'
p5741
aasS'4JNL'
p5742
(lp5743
(lp5744
I2879
aS'16'
p5745
aS'238'
p5746
aasS'3LDX'
p5747
(lp5748
(lp5749
I2879
aS'16'
p5750
aS'238'
p5751
aa(lp5752
I4359
aS'1B'
p5753
aS'14J'
p5754
aasS'1HAZ'
p5755
(lp5756
(lp5757
I2879
aS'16'
p5758
aS'238'
p5759
aasS'1CA8'
p5760
(lp5761
(lp5762
I2879
aS'16'
p5763
aS'238'
p5764
aa(lp5765
I4359
aS'1B'
p5766
aS'14J'
p5767
aasS'1FUJ'
p5768
(lp5769
(lp5770
I2879
aS'16'
p5771
aS'238'
p5772
aa(lp5773
I2879
aS'16'
p5774
aS'238'
p5775
aasS'1HAG'
p5776
(lp5777
(lp5778
I2879
aS'16'
p5779
aS'238'
p5780
aa(lp5781
I4359
aS'1H'
p5782
aS'15'
p5783
aasS'1SLU'
p5784
(lp5785
(lp5786
I81
aS'10'
p5787
aS'132'
p5788
aa(lp5789
I2879
aS'16'
p5790
aS'238'
p5791
aasS'1SLV'
p5792
(lp5793
(lp5794
I81
aS'10'
p5795
aS'132'
p5796
aa(lp5797
I2879
aS'16'
p5798
aS'238'
p5799
aasS'1SLW'
p5800
(lp5801
(lp5802
I81
aS'11'
p5803
aS'132'
p5804
aa(lp5805
I2879
aS'16'
p5806
aS'238'
p5807
aasS'1SLX'
p5808
(lp5809
(lp5810
I81
aS'10'
p5811
aS'132'
p5812
aa(lp5813
I2879
aS'16'
p5814
aS'238'
p5815
aasS'1HAO'
p5816
(lp5817
(lp5818
I2879
aS'16'
p5819
aS'238'
p5820
aa(lp5821
I4359
aS'1B'
p5822
aS'14K'
p5823
aasS'1HAH'
p5824
(lp5825
(lp5826
I2879
aS'16'
p5827
aS'238'
p5828
aa(lp5829
I4359
aS'1H'
p5830
aS'15'
p5831
aasS'1HAI'
p5832
(lp5833
(lp5834
I2879
aS'16'
p5835
aS'238'
p5836
aa(lp5837
I4359
aS'1H'
p5838
aS'15'
p5839
aasS'4E7N'
p5840
(lp5841
(lp5842
I2879
aS'16'
p5843
aS'238'
p5844
aasS'1P57'
p5845
(lp5846
(lp5847
I2879
aS'16'
p5848
aS'238'
p5849
aa(lp5850
I5609
aS'5'
aS'114'
p5851
aasS'4AZ2'
p5852
(lp5853
(lp5854
I2879
aS'1'
aS'250'
p5855
aa(lp5856
I4359
aS'5'
aS'34'
p5857
aasS'1TNG'
p5858
(lp5859
(lp5860
I2879
aS'16'
p5861
aS'238'
p5862
aasS'1SL3'
p5863
(lp5864
(lp5865
I2879
aS'16'
p5866
aS'238'
p5867
aa(lp5868
I4359
aS'1'
aS'14L'
p5869
aasS'1TX7'
p5870
(lp5871
(lp5872
I2879
aS'16'
p5873
aS'238'
p5874
aasS'1TX6'
p5875
(lp5876
(lp5877
I2879
aS'16'
p5878
aS'238'
p5879
aa(lp5880
I2971
aS'9'
aS'32'
p5881
aa(lp5882
I2971
aS'68'
p5883
aS'91'
p5884
aa(lp5885
I2971
aS'95'
p5886
aS'116'
p5887
aasS'1TNL'
p5888
(lp5889
(lp5890
I2879
aS'16'
p5891
aS'238'
p5892
aasS'1TX8'
p5893
(lp5894
(lp5895
I2879
aS'16'
p5896
aS'238'
p5897
aasS'1TNI'
p5898
(lp5899
(lp5900
I2879
aS'16'
p5901
aS'238'
p5902
aasS'1TNH'
p5903
(lp5904
(lp5905
I2879
aS'16'
p5906
aS'238'
p5907
aasS'1TNK'
p5908
(lp5909
(lp5910
I2879
aS'16'
p5911
aS'238'
p5912
aasS'1TNJ'
p5913
(lp5914
(lp5915
I2879
aS'16'
p5916
aS'238'
p5917
aasS'3MTY'
p5918
(lp5919
(lp5920
I2879
aS'16'
p5921
aS'238'
p5922
aasS'2H9E'
p5923
(lp5924
(lp5925
I2879
aS'16'
p5926
aS'238'
p5927
aa(lp5928
I2939
aS'89'
p5929
aS'124'
p5930
aa(lp5931
I3608
aS'6'
aS'70'
p5932
aasS'8GCH'
p5933
(lp5934
(lp5935
I2879
aS'16'
p5936
aS'145'
p5937
aa(lp5938
I2879
aS'151'
p5939
aS'238'
p5940
aasS'2H9T'
p5941
(lp5942
(lp5943
I2879
aS'16'
p5944
aS'238'
p5945
aa(lp5946
I4359
aS'1C'
p5947
aS'14K'
p5948
aasS'1VJA'
p5949
(lp5950
(lp5951
I2879
aS'16'
p5952
aS'238'
p5953
aasS'4K1S'
p5954
(lp5955
(lp5956
I2879
aS'9'
aS'189'
p5957
aasS'4K1T'
p5958
(lp5959
(lp5960
I2879
aS'9'
aS'189'
p5961
aasS'2A45'
p5962
(lp5963
(lp5964
I2282
aS'30'
p5965
aS'73'
p5966
aa(lp5967
I2282
aS'61'
p5968
aS'105'
p5969
aa(lp5970
I2282
aS'6'
aS'45'
p5971
aa(lp5972
I2879
aS'16'
p5973
aS'238'
p5974
aa(lp5975
I4359
aS'1D'
p5976
aS'15'
p5977
aasS'4KTS'
p5978
(lp5979
(lp5980
I2879
aS'16'
p5981
aS'238'
p5982
aa(lp5983
I5934
aS'2'
aS'13'
p5984
aasS'2QYI'
p5985
(lp5986
(lp5987
I2879
aS'16'
p5988
aS'238'
p5989
aa(lp5990
I4686
aS'608'
p5991
aS'774'
p5992
aasS'3U98'
p5993
(lp5994
(lp5995
I2879
aS'16'
p5996
aS'238'
p5997
aa(lp5998
I4359
aS'1C'
p5999
aS'14K'
p6000
aasS'1MUE'
p6001
(lp6002
(lp6003
I2879
aS'16'
p6004
aS'238'
p6005
aa(lp6006
I4359
aS'1A'
p6007
aS'14K'
p6008
aasS'1RRK'
p6009
(lp6010
(lp6011
I2829
aS'245'
p6012
aS'442'
p6013
aa(lp6014
I2879
aS'458'
p6015
aS'717'
p6016
aasS'1PPH'
p6017
(lp6018
(lp6019
I2879
aS'16'
p6020
aS'238'
p6021
aasS'1PPG'
p6022
(lp6023
(lp6024
I2879
aS'16'
p6025
aS'238'
p6026
aasS'1PPF'
p6027
(lp6028
(lp6029
I1504
aS'8'
aS'56'
p6030
aa(lp6031
I2879
aS'16'
p6032
aS'238'
p6033
aasS'2OCV'
p6034
(lp6035
(lp6036
I2879
aS'16'
p6037
aS'238'
p6038
aa(lp6039
I4359
aS'1N'
p6040
aS'14K'
p6041
aasS'3FZZ'
p6042
(lp6043
(lp6044
I2879
aS'21'
p6045
aS'241'
p6046
aasS'1PPC'
p6047
(lp6048
(lp6049
I2879
aS'16'
p6050
aS'238'
p6051
aasS'1PPB'
p6052
(lp6053
(lp6054
I2879
aS'16'
p6055
aS'238'
p6056
aa(lp6057
I4359
aS'1H'
p6058
aS'15'
p6059
aasS'2QY0'
p6060
(lp6061
(lp6062
I2879
aS'447'
p6063
aS'680'
p6064
aa(lp6065
I4067
aS'292'
p6066
aS'354'
p6067
aa(lp6068
I4067
aS'359'
p6069
aS'430'
p6070
aasS'1MU8'
p6071
(lp6072
(lp6073
I2879
aS'16'
p6074
aS'238'
p6075
aa(lp6076
I4359
aS'1A'
p6077
aS'14K'
p6078
aasS'3U9A'
p6079
(lp6080
(lp6081
I2879
aS'16'
p6082
aS'238'
p6083
aa(lp6084
I4359
aS'1C'
p6085
aS'14K'
p6086
aasS'1PPZ'
p6087
(lp6088
(lp6089
I2879
aS'16'
p6090
aS'235'
p6091
aasS'3P6Z'
p6092
(lp6093
(lp6094
I2879
aS'364'
p6095
aS'613'
p6096
aa(lp6097
I4359
aS'333'
p6098
aS'362'
p6099
aasS'1MU6'
p6100
(lp6101
(lp6102
I2879
aS'16'
p6103
aS'238'
p6104
aa(lp6105
I4359
aS'1A'
p6106
aS'14K'
p6107
aasS'2CHA'
p6108
(lp6109
(lp6110
I2879
aS'16'
p6111
aS'145'
p6112
aa(lp6113
I2879
aS'151'
p6114
aS'238'
p6115
aasS'1T7C'
p6116
(lp6117
(lp6118
I2879
aS'16'
p6119
aS'238'
p6120
aa(lp6121
I5507
aS'4'
aS'55'
p6122
aasS'2ZEC'
p6123
(lp6124
(lp6125
I2879
aS'16'
p6126
aS'252'
p6127
aa(lp6128
I2879
aS'16'
p6129
aS'252'
p6130
aasS'2ZEB'
p6131
(lp6132
(lp6133
I2879
aS'1'
aS'237'
p6134
aasS'1VJ9'
p6135
(lp6136
(lp6137
I2879
aS'16'
p6138
aS'238'
p6139
aasS'4A5T'
p6140
(lp6141
(lp6142
I2879
aS'563'
p6143
aS'784'
p6144
aa(lp6145
I4426
aS'6'
aS'77'
p6146
aa(lp6147
I5155
aS'84'
p6148
aS'162'
p6149
aa(lp6150
I5155
aS'166'
p6151
aS'243'
p6152
aa(lp6153
I5155
aS'256'
p6154
aS'333'
p6155
aa(lp6156
I5155
aS'358'
p6157
aS'435'
p6158
aa(lp6159
I5155
aS'462'
p6160
aS'541'
p6161
aasS'1OSS'
p6162
(lp6163
(lp6164
I2879
aS'16'
p6165
aS'238'
p6166
aasS'2Y5H'
p6167
(lp6168
(lp6169
I2879
aS'16'
p6170
aS'238'
p6171
aa(lp6172
I2939
aS'89'
p6173
aS'124'
p6174
aasS'4ISH'
p6175
(lp6176
(lp6177
I2879
aS'16'
p6178
aS'238'
p6179
aa(lp6180
I2939
aS'91'
p6181
aS'127'
p6182
aasS'4ISI'
p6183
(lp6184
(lp6185
I2879
aS'16'
p6186
aS'238'
p6187
aa(lp6188
I2939
aS'91'
p6189
aS'127'
p6190
aasS'2Y5F'
p6191
(lp6192
(lp6193
I2879
aS'16'
p6194
aS'238'
p6195
aa(lp6196
I2939
aS'89'
p6197
aS'124'
p6198
aasS'2Y5G'
p6199
(lp6200
(lp6201
I2879
aS'16'
p6202
aS'238'
p6203
aa(lp6204
I2939
aS'89'
p6205
aS'124'
p6206
aasS'4ISL'
p6207
(lp6208
(lp6209
I2879
aS'16'
p6210
aS'238'
p6211
aa(lp6212
I5507
aS'250'
p6213
aS'301'
p6214
aasS'3ELA'
p6215
(lp6216
(lp6217
I1362
aS'6'
aS'83'
p6218
aa(lp6219
I2879
aS'153'
p6220
aS'387'
p6221
aa(lp6222
I2939
aS'91'
p6223
aS'127'
p6224
aa(lp6225
I3392
aS'50'
p6226
aS'79'
p6227
aa(lp6228
I6386
aS'106'
p6229
aS'209'
p6230
aasS'4ISN'
p6231
(lp6232
(lp6233
I2879
aS'16'
p6234
aS'238'
p6235
aa(lp6236
I5507
aS'250'
p6237
aS'301'
p6238
aasS'4ISO'
p6239
(lp6240
(lp6241
I2879
aS'16'
p6242
aS'238'
p6243
aa(lp6244
I5507
aS'250'
p6245
aS'301'
p6246
aasS'3F6U'
p6247
(lp6248
(lp6249
I2879
aS'17'
p6250
aS'238'
p6251
aa(lp6252
I2939
aS'98'
p6253
aS'133'
p6254
aa(lp6255
I3392
aS'58'
p6256
aS'87'
p6257
aasS'1J16'
p6258
(lp6259
(lp6260
I2879
aS'16'
p6261
aS'238'
p6262
aasS'1J17'
p6263
(lp6264
(lp6265
I2879
aS'16'
p6266
aS'238'
p6267
aasS'1J14'
p6268
(lp6269
(lp6270
I2879
aS'16'
p6271
aS'238'
p6272
aasS'1J15'
p6273
(lp6274
(lp6275
I2879
aS'16'
p6276
aS'238'
p6277
aasS'2C93'
p6278
(lp6279
(lp6280
I2879
aS'16'
p6281
aS'238'
p6282
aa(lp6283
I4359
aS'-3'
p6284
aS'14K'
p6285
aasS'2C90'
p6286
(lp6287
(lp6288
I2879
aS'16'
p6289
aS'238'
p6290
aa(lp6291
I4359
aS'-3'
p6292
aS'14K'
p6293
aasS'3TPI'
p6294
(lp6295
(lp6296
I2879
aS'16'
p6297
aS'238'
p6298
aa(lp6299
I5507
aS'4'
aS'55'
p6300
aasS'8EST'
p6301
(lp6302
(lp6303
I2879
aS'16'
p6304
aS'238'
p6305
aasS'3PYH'
p6306
(lp6307
(lp6308
I2879
aS'16'
p6309
aS'238'
p6310
aasS'3BTK'
p6311
(lp6312
(lp6313
I2879
aS'16'
p6314
aS'238'
p6315
aa(lp6316
I5507
aS'504'
p6317
aS'555'
p6318
aasS'3BTH'
p6319
(lp6320
(lp6321
I2879
aS'16'
p6322
aS'238'
p6323
aa(lp6324
I5507
aS'504'
p6325
aS'555'
p6326
aasS'1S0Q'
p6327
(lp6328
(lp6329
I2879
aS'660'
p6330
aS'875'
p6331
aasS'3BTM'
p6332
(lp6333
(lp6334
I2879
aS'16'
p6335
aS'238'
p6336
aa(lp6337
I5507
aS'504'
p6338
aS'555'
p6339
aasS'3BTG'
p6340
(lp6341
(lp6342
I2879
aS'16'
p6343
aS'238'
p6344
aa(lp6345
I5507
aS'504'
p6346
aS'555'
p6347
aasS'3BTF'
p6348
(lp6349
(lp6350
I2879
aS'16'
p6351
aS'238'
p6352
aa(lp6353
I5507
aS'504'
p6354
aS'555'
p6355
aasS'3BTE'
p6356
(lp6357
(lp6358
I2879
aS'16'
p6359
aS'238'
p6360
aa(lp6361
I5507
aS'504'
p6362
aS'555'
p6363
aasS'3BTD'
p6364
(lp6365
(lp6366
I2879
aS'16'
p6367
aS'238'
p6368
aa(lp6369
I5507
aS'504'
p6370
aS'555'
p6371
aasS'2AER'
p6372
(lp6373
(lp6374
I1362
aS'7'
aS'82'
p6375
aa(lp6376
I2879
aS'16'
p6377
aS'238'
p6378
aa(lp6379
I2939
aS'91'
p6380
aS'127'
p6381
aa(lp6382
I3392
aS'50'
p6383
aS'79'
p6384
aa(lp6385
I6386
aS'106'
p6386
aS'210'
p6387
aa(lp6388
I6715
aS'5'
aS'44'
p6389
aasS'3BTQ'
p6390
(lp6391
(lp6392
I2879
aS'16'
p6393
aS'238'
p6394
aa(lp6395
I2879
aS'16'
p6396
aS'238'
p6397
aa(lp6398
I5507
aS'504'
p6399
aS'555'
p6400
aa(lp6401
I5507
aS'504'
p6402
aS'555'
p6403
aasS'3BTW'
p6404
(lp6405
(lp6406
I2879
aS'16'
p6407
aS'238'
p6408
aa(lp6409
I5507
aS'504'
p6410
aS'555'
p6411
aasS'3BTT'
p6412
(lp6413
(lp6414
I2879
aS'16'
p6415
aS'238'
p6416
aa(lp6417
I5507
aS'504'
p6418
aS'555'
p6419
aasS'1OS8'
p6420
(lp6421
(lp6422
I2879
aS'16'
p6423
aS'238'
p6424
aasS'4YZU'
p6425
(lp6426
(lp6427
I2879
aS'16'
p6428
aS'238'
p6429
aa(lp6430
I2939
aS'88'
p6431
aS'124'
p6432
aasS'1GI3'
p6433
(lp6434
(lp6435
I2879
aS'16'
p6436
aS'238'
p6437
aasS'1DE7'
p6438
(lp6439
(lp6440
I2879
aS'16'
p6441
aS'238'
p6442
aa(lp6443
I4359
aS'1A'
p6444
aS'14K'
p6445
aasS'4IS5'
p6446
(lp6447
(lp6448
I2879
aS'16'
p6449
aS'238'
p6450
aasS'3F68'
p6451
(lp6452
(lp6453
I2879
aS'16'
p6454
aS'238'
p6455
aa(lp6456
I4359
aS'1B'
p6457
aS'14K'
p6458
aasS'1GHX'
p6459
(lp6460
(lp6461
I2879
aS'16'
p6462
aS'238'
p6463
aa(lp6464
I4359
aS'1H'
p6465
aS'15'
p6466
aasS'1GHY'
p6467
(lp6468
(lp6469
I2879
aS'16'
p6470
aS'238'
p6471
aa(lp6472
I4359
aS'1H'
p6473
aS'15'
p6474
aasS'1GHZ'
p6475
(lp6476
(lp6477
I2879
aS'16'
p6478
aS'238'
p6479
aasS'5A09'
p6480
(lp6481
(lp6482
I2879
aS'16'
p6483
aS'238'
p6484
aasS'1WQV'
p6485
(lp6486
(lp6487
I1362
aS'6'
aS'79'
p6488
aa(lp6489
I2879
aS'16'
p6490
aS'238'
p6491
aa(lp6492
I2939
aS'91'
p6493
aS'127'
p6494
aa(lp6495
I3392
aS'50'
p6496
aS'79'
p6497
aa(lp6498
I6386
aS'106'
p6499
aS'210'
p6500
aa(lp6501
I6715
aS'5'
aS'44'
p6502
aasS'4ZHL'
p6503
(lp6504
(lp6505
I2879
aS'16'
p6506
aS'238'
p6507
aasS'4ZHM'
p6508
(lp6509
(lp6510
I2879
aS'16'
p6511
aS'238'
p6512
aasS'1GHV'
p6513
(lp6514
(lp6515
I2879
aS'16'
p6516
aS'238'
p6517
aa(lp6518
I4359
aS'1H'
p6519
aS'15'
p6520
aasS'1GHW'
p6521
(lp6522
(lp6523
I2879
aS'16'
p6524
aS'238'
p6525
aa(lp6526
I4359
aS'1H'
p6527
aS'15'
p6528
aasS'3D49'
p6529
(lp6530
(lp6531
I2879
aS'16'
p6532
aS'238'
p6533
aa(lp6534
I4359
aS'1C'
p6535
aS'14K'
p6536
aasS'1GHA'
p6537
(lp6538
(lp6539
I2879
aS'16'
p6540
aS'145'
p6541
aa(lp6542
I2879
aS'151'
p6543
aS'238'
p6544
aasS'1GHB'
p6545
(lp6546
(lp6547
I2879
aS'16'
p6548
aS'145'
p6549
aa(lp6550
I2879
aS'151'
p6551
aS'238'
p6552
aasS'5E8E'
p6553
(lp6554
(lp6555
I2879
aS'321'
p6556
aS'570'
p6557
aa(lp6558
I4359
aS'285'
p6559
aS'320'
p6560
aasS'3QLP'
p6561
(lp6562
(lp6563
I2879
aS'16'
p6564
aS'238'
p6565
aa(lp6566
I4359
aS'1H'
p6567
aS'14L'
p6568
aasS'4Y6D'
p6569
(lp6570
(lp6571
I2879
aS'16'
p6572
aS'243'
p6573
aa(lp6574
I2939
aS'81'
p6575
aS'116'
p6576
aa(lp6577
I3392
aS'42'
p6578
aS'72'
p6579
aa(lp6580
I6715
aS'-2'
p6581
aS'36'
p6582
aasS'1XM1'
p6583
(lp6584
(lp6585
I2879
aS'16'
p6586
aS'238'
p6587
aa(lp6588
I4359
aS'1B'
p6589
aS'14K'
p6590
aasS'2BZA'
p6591
(lp6592
(lp6593
I2879
aS'16'
p6594
aS'238'
p6595
aasS'2BZ6'
p6596
(lp6597
(lp6598
I2879
aS'16'
p6599
aS'238'
p6600
aa(lp6601
I2939
aS'91'
p6602
aS'127'
p6603
aasS'1XMN'
p6604
(lp6605
(lp6606
I2879
aS'16'
p6607
aS'238'
p6608
aa(lp6609
I4359
aS'1E'
p6610
aS'14L'
p6611
aasS'3SBK'
p6612
(lp6613
(lp6614
I2879
aS'16'
p6615
aS'238'
p6616
aasS'1BTW'
p6617
(lp6618
(lp6619
I2879
aS'16'
p6620
aS'238'
p6621
aasS'5A0B'
p6622
(lp6623
(lp6624
I2879
aS'16'
p6625
aS'238'
p6626
aasS'5A0C'
p6627
(lp6628
(lp6629
I2879
aS'16'
p6630
aS'228'
p6631
aasS'5A0A'
p6632
(lp6633
(lp6634
I2879
aS'16'
p6635
aS'228'
p6636
aasS'4JYU'
p6637
(lp6638
(lp6639
I2879
aS'16'
p6640
aS'238'
p6641
aa(lp6642
I2939
aS'91'
p6643
aS'127'
p6644
aasS'4JYT'
p6645
(lp6646
(lp6647
I2879
aS'16'
p6648
aS'238'
p6649
aasS'4JYV'
p6650
(lp6651
(lp6652
I2879
aS'16'
p6653
aS'238'
p6654
aa(lp6655
I2939
aS'91'
p6656
aS'127'
p6657
aasS'1CBW'
p6658
(lp6659
(lp6660
I2879
aS'16'
p6661
aS'145'
p6662
aa(lp6663
I2879
aS'151'
p6664
aS'238'
p6665
aa(lp6666
I5507
aS'4'
aS'55'
p6667
aasS'1ZMN'
p6668
(lp6669
(lp6670
I2879
aS'16'
p6671
aS'238'
p6672
aasS'1ZML'
p6673
(lp6674
(lp6675
I2879
aS'16'
p6676
aS'238'
p6677
aasS'1ZMJ'
p6678
(lp6679
(lp6680
I2879
aS'16'
p6681
aS'238'
p6682
aasS'2V0B'
p6683
(lp6684
(lp6685
I2879
aS'1'
aS'233'
p6686
aasS'1AZZ'
p6687
(lp6688
(lp6689
I81
aS'10'
p6690
aS'132'
p6691
aa(lp6692
I2879
aS'16'
p6693
aS'238'
p6694
aasS'1HNE'
p6695
(lp6696
(lp6697
I2879
aS'16'
p6698
aS'238'
p6699
aasS'1TIO'
p6700
(lp6701
(lp6702
I2879
aS'16'
p6703
aS'238'
p6704
aasS'2FTL'
p6705
(lp6706
(lp6707
I2879
aS'16'
p6708
aS'238'
p6709
aa(lp6710
I5507
aS'4'
aS'55'
p6711
aasS'2FTM'
p6712
(lp6713
(lp6714
I2879
aS'16'
p6715
aS'238'
p6716
aa(lp6717
I5507
aS'4'
aS'55'
p6718
aasS'3H7T'
p6719
(lp6720
(lp6721
I2879
aS'1'
aS'220'
p6722
aasS'3SHA'
p6723
(lp6724
(lp6725
I2879
aS'16'
p6726
aS'238'
p6727
aa(lp6728
I4359
aS'1C'
p6729
aS'14K'
p6730
aasS'5GCH'
p6731
(lp6732
(lp6733
I2879
aS'16'
p6734
aS'145'
p6735
aa(lp6736
I2879
aS'151'
p6737
aS'238'
p6738
aasS'3MU8'
p6739
(lp6740
(lp6741
I2879
aS'16'
p6742
aS'238'
p6743
aasS'3MU5'
p6744
(lp6745
(lp6746
I2879
aS'16'
p6747
aS'238'
p6748
aasS'2W7S'
p6749
(lp6750
(lp6751
I2879
aS'12'
p6752
aS'185'
p6753
aasS'2W7U'
p6754
(lp6755
(lp6756
I2879
aS'12'
p6757
aS'185'
p6758
aasS'3MU1'
p6759
(lp6760
(lp6761
I2879
aS'16'
p6762
aS'238'
p6763
aasS'3MU0'
p6764
(lp6765
(lp6766
I2879
aS'16'
p6767
aS'238'
p6768
aasS'1BTH'
p6769
(lp6770
(lp6771
I2879
aS'16'
p6772
aS'238'
p6773
aa(lp6774
I4359
aS'1D'
p6775
aS'14M'
p6776
aa(lp6777
I5507
aS'4'
aS'55'
p6778
aasS'2ZZU'
p6779
(lp6780
(lp6781
I1362
aS'6'
aS'79'
p6782
aa(lp6783
I2879
aS'16'
p6784
aS'238'
p6785
aa(lp6786
I2939
aS'91'
p6787
aS'127'
p6788
aa(lp6789
I3392
aS'50'
p6790
aS'79'
p6791
aa(lp6792
I6386
aS'106'
p6793
aS'210'
p6794
aa(lp6795
I6715
aS'5'
aS'44'
p6796
aasS'2XRC'
p6797
(lp6798
(lp6799
I606
aS'209'
p6800
aS'238'
p6801
aa(lp6802
I606
aS'240'
p6803
aS'275'
p6804
aa(lp6805
I2879
aS'332'
p6806
aS'551'
p6807
aa(lp6808
I5945
aS'100'
p6809
aS'196'
p6810
aasS'1AZ8'
p6811
(lp6812
(lp6813
I2879
aS'16'
p6814
aS'238'
p6815
aa(lp6816
I2879
aS'16'
p6817
aS'238'
p6818
aasS'1NN6'
p6819
(lp6820
(lp6821
I2879
aS'18'
p6822
aS'234'
p6823
aasS'1SI5'
p6824
(lp6825
(lp6826
I2879
aS'501'
p6827
aS'716'
p6828
aa(lp6829
I2879
aS'501'
p6830
aS'716'
p6831
aasS'3LC3'
p6832
(lp6833
(lp6834
I2879
aS'16'
p6835
aS'238'
p6836
aa(lp6837
I2939
aS'88'
p6838
aS'124'
p6839
aasS'3LC5'
p6840
(lp6841
(lp6842
I2879
aS'16'
p6843
aS'238'
p6844
aa(lp6845
I2939
aS'88'
p6846
aS'124'
p6847
aasS'1C1O'
p6848
(lp6849
(lp6850
I2879
aS'16'
p6851
aS'238'
p6852
aasS'1C1N'
p6853
(lp6854
(lp6855
I2879
aS'16'
p6856
aS'238'
p6857
aasS'1C1M'
p6858
(lp6859
(lp6860
I2879
aS'16'
p6861
aS'238'
p6862
aasS'1C1W'
p6863
(lp6864
(lp6865
I2879
aS'16'
p6866
aS'244'
p6867
aa(lp6868
I4359
aS'1H'
p6869
aS'15'
p6870
aasS'2A7C'
p6871
(lp6872
(lp6873
I2879
aS'1'
aS'233'
p6874
aasS'1C1U'
p6875
(lp6876
(lp6877
I2879
aS'16'
p6878
aS'244'
p6879
aa(lp6880
I4359
aS'1H'
p6881
aS'15'
p6882
aasS'1C1T'
p6883
(lp6884
(lp6885
I2879
aS'16'
p6886
aS'238'
p6887
aasS'1C1S'
p6888
(lp6889
(lp6890
I2879
aS'16'
p6891
aS'238'
p6892
aasS'1C1R'
p6893
(lp6894
(lp6895
I2879
aS'16'
p6896
aS'238'
p6897
aasS'1C1Q'
p6898
(lp6899
(lp6900
I2879
aS'16'
p6901
aS'238'
p6902
aasS'1C1P'
p6903
(lp6904
(lp6905
I2879
aS'16'
p6906
aS'238'
p6907
aasS'2A7J'
p6908
(lp6909
(lp6910
I2879
aS'1'
aS'233'
p6911
aasS'1CT2'
p6912
(lp6913
(lp6914
I1504
aS'8'
aS'56'
p6915
aa(lp6916
I2879
aS'48D'
p6917
aS'234'
p6918
aasS'1CT4'
p6919
(lp6920
(lp6921
I1504
aS'8'
aS'56'
p6922
aa(lp6923
I2879
aS'48D'
p6924
aS'234'
p6925
aasS'1BDA'
p6926
(lp6927
(lp6928
I2879
aS'16'
p6929
aS'238'
p6930
aasS'1QA0'
p6931
(lp6932
(lp6933
I2879
aS'7'
aS'222'
p6934
aasS'3V12'
p6935
(lp6936
(lp6937
I2879
aS'16'
p6938
aS'238'
p6939
aasS'3V13'
p6940
(lp6941
(lp6942
I2879
aS'16'
p6943
aS'238'
p6944
aasS'1PFX'
p6945
(lp6946
(lp6947
I2879
aS'16'
p6948
aS'238'
p6949
aa(lp6950
I2939
aS'88'
p6951
aS'124'
p6952
aa(lp6953
I3392
aS'51'
p6954
aS'81'
p6955
aa(lp6956
I6715
aS'6'
aS'46'
p6957
aasS'3BEU'
p6958
(lp6959
(lp6960
I2879
aS'16'
p6961
aS'238'
p6962
aasS'2ZFR'
p6963
(lp6964
(lp6965
I2879
aS'16'
p6966
aS'238'
p6967
aa(lp6968
I4359
aS'1C'
p6969
aS'14K'
p6970
aasS'3BEI'
p6971
(lp6972
(lp6973
I2879
aS'16'
p6974
aS'238'
p6975
aa(lp6976
I4359
aS'1P'
p6977
aS'14K'
p6978
aasS'2ZFP'
p6979
(lp6980
(lp6981
I2879
aS'16'
p6982
aS'238'
p6983
aa(lp6984
I4359
aS'1C'
p6985
aS'14K'
p6986
aasS'2ZFQ'
p6987
(lp6988
(lp6989
I2879
aS'16'
p6990
aS'238'
p6991
aa(lp6992
I4359
aS'1B'
p6993
aS'14K'
p6994
aasS'2ZFT'
p6995
(lp6996
(lp6997
I2879
aS'16'
p6998
aS'238'
p6999
aasS'3PB1'
p7000
(lp7001
(lp7002
I2879
aS'16'
p7003
aS'238'
p7004
aa(lp7005
I6874
aS'13'
p7006
aS'379'
p7007
aasS'4DOQ'
p7008
(lp7009
(lp7010
I2879
aS'16'
p7011
aS'238'
p7012
aa(lp7013
I6473
aS'60'
p7014
aS'104'
p7015
aasS'4X1R'
p7016
(lp7017
(lp7018
I2879
aS'16'
p7019
aS'238'
p7020
aasS'1ZSL'
p7021
(lp7022
(lp7023
I2879
aS'16'
p7024
aS'238'
p7025
aasS'2ZF0'
p7026
(lp7027
(lp7028
I2879
aS'16'
p7029
aS'238'
p7030
aa(lp7031
I4359
aS'1C'
p7032
aS'14K'
p7033
aasS'1ZSJ'
p7034
(lp7035
(lp7036
I2879
aS'16'
p7037
aS'238'
p7038
aasS'1ZSK'
p7039
(lp7040
(lp7041
I2879
aS'16'
p7042
aS'238'
p7043
aasS'1QIX'
p7044
(lp7045
(lp7046
I2879
aS'16'
p7047
aS'238'
p7048
aasS'2QN5'
p7049
(lp7050
(lp7051
I2879
aS'19'
p7052
aS'238'
p7053
aa(lp7054
I2971
aS'38'
p7055
aS'60'
p7056
aa(lp7057
I2971
aS'75'
p7058
aS'98'
p7059
aa(lp7060
I2971
aS'101'
p7061
aS'124'
p7062
aasS'1SMF'
p7063
(lp7064
(lp7065
I2879
aS'16'
p7066
aS'238'
p7067
aa(lp7068
I2971
aS'9'
aS'17'
p7069
aasS'1MD8'
p7070
(lp7071
(lp7072
I2879
aS'447'
p7073
aS'680'
p7074
aa(lp7075
I4067
aS'359'
p7076
aS'430'
p7077
aasS'1MD7'
p7078
(lp7079
(lp7080
I2879
aS'447'
p7081
aS'680'
p7082
aa(lp7083
I4067
aS'359'
p7084
aS'430'
p7085
aasS'4AYY'
p7086
(lp7087
(lp7088
I2879
aS'1'
aS'250'
p7089
aa(lp7090
I4359
aS'5'
aS'34'
p7091
aasS'4AYV'
p7092
(lp7093
(lp7094
I2879
aS'1'
aS'250'
p7095
aa(lp7096
I4359
aS'5'
aS'34'
p7097
aasS'2C8W'
p7098
(lp7099
(lp7100
I2879
aS'16'
p7101
aS'238'
p7102
aa(lp7103
I4359
aS'-3'
p7104
aS'14K'
p7105
aasS'2HGT'
p7106
(lp7107
(lp7108
I2879
aS'16'
p7109
aS'238'
p7110
aa(lp7111
I4359
aS'1E'
p7112
aS'15'
p7113
aasS'2C8Y'
p7114
(lp7115
(lp7116
I2879
aS'16'
p7117
aS'238'
p7118
aa(lp7119
I4359
aS'-3'
p7120
aS'14K'
p7121
aasS'2C8X'
p7122
(lp7123
(lp7124
I2879
aS'16'
p7125
aS'238'
p7126
aa(lp7127
I4359
aS'-3'
p7128
aS'14K'
p7129
aasS'2C8Z'
p7130
(lp7131
(lp7132
I2879
aS'16'
p7133
aS'238'
p7134
aa(lp7135
I4359
aS'-3'
p7136
aS'14K'
p7137
aasS'3SV2'
p7138
(lp7139
(lp7140
I2879
aS'16'
p7141
aS'238'
p7142
aa(lp7143
I4359
aS'1C'
p7144
aS'14K'
p7145
aasS'3GIC'
p7146
(lp7147
(lp7148
I2879
aS'16'
p7149
aS'238'
p7150
aa(lp7151
I4359
aS'1C'
p7152
aS'14K'
p7153
aasS'1VIT'
p7154
(lp7155
(lp7156
I2879
aS'16'
p7157
aS'238'
p7158
aa(lp7159
I2879
aS'16'
p7160
aS'148'
p7161
aa(lp7162
I2879
aS'151'
p7163
aS'238'
p7164
aa(lp7165
I4359
aS'1H'
p7166
aS'15'
p7167
aasS'1JBU'
p7168
(lp7169
(lp7170
I2879
aS'20'
p7171
aS'238'
p7172
aa(lp7173
I2939
aS'91'
p7174
aS'127'
p7175
aasS'4Y0Z'
p7176
(lp7177
(lp7178
I2879
aS'16'
p7179
aS'240'
p7180
aa(lp7181
I5507
aS'4'
aS'55'
p7182
aasS'3UWI'
p7183
(lp7184
(lp7185
I2879
aS'16'
p7186
aS'238'
p7187
aasS'3UWJ'
p7188
(lp7189
(lp7190
I2879
aS'16'
p7191
aS'238'
p7192
aa(lp7193
I4359
aS'1C'
p7194
aS'14K'
p7195
aasS'1HRT'
p7196
(lp7197
(lp7198
I1247
aS'1'
aS'64'
p7199
aa(lp7200
I2879
aS'16'
p7201
aS'238'
p7202
aa(lp7203
I4359
aS'1H'
p7204
aS'15'
p7205
aasS'2EI6'
p7206
(lp7207
(lp7208
I2879
aS'16'
p7209
aS'238'
p7210
aa(lp7211
I2939
aS'89'
p7212
aS'124'
p7213
aasS'4SGA'
p7214
(lp7215
(lp7216
I2879
aS'100'
p7217
aS'235'
p7218
aasS'2QXG'
p7219
(lp7220
(lp7221
I2879
aS'16'
p7222
aS'238'
p7223
aasS'1L4Z'
p7224
(lp7225
(lp7226
I2879
aS'562'
p7227
aS'784'
p7228
aa(lp7229
I3249
aS'27'
p7230
aS'140'
p7231
aasS'1BZX'
p7232
(lp7233
(lp7234
I2879
aS'16'
p7235
aS'238'
p7236
aa(lp7237
I5507
aS'504'
p7238
aS'555'
p7239
aasS'2QXJ'
p7240
(lp7241
(lp7242
I2879
aS'16'
p7243
aS'238'
p7244
aasS'2QXI'
p7245
(lp7246
(lp7247
I2879
aS'16'
p7248
aS'238'
p7249
aa(lp7250
I2879
aS'16'
p7251
aS'238'
p7252
aasS'2QXH'
p7253
(lp7254
(lp7255
I2879
aS'16'
p7256
aS'238'
p7257
aasS'2EI8'
p7258
(lp7259
(lp7260
I2879
aS'16'
p7261
aS'238'
p7262
aa(lp7263
I2939
aS'89'
p7264
aS'124'
p7265
aasS'4X1N'
p7266
(lp7267
(lp7268
I2879
aS'16'
p7269
aS'238'
p7270
aasS'1L4D'
p7271
(lp7272
(lp7273
I2879
aS'562'
p7274
aS'784'
p7275
aa(lp7276
I3249
aS'27'
p7277
aS'140'
p7278
aasS'1D6W'
p7279
(lp7280
(lp7281
I2879
aS'16'
p7282
aS'238'
p7283
aa(lp7284
I4359
aS'1B'
p7285
aS'14L'
p7286
aasS'1EXF'
p7287
(lp7288
(lp7289
I2879
aS'22'
p7290
aS'236'
p7291
aasS'1D6R'
p7292
(lp7293
(lp7294
I2879
aS'16'
p7295
aS'238'
p7296
aa(lp7297
I2971
aS'8'
aS'31'
p7298
aa(lp7299
I2971
aS'35'
p7300
aS'58'
p7301
aasS'5CHA'
p7302
(lp7303
(lp7304
I2879
aS'16'
p7305
aS'145'
p7306
aa(lp7307
I2879
aS'151'
p7308
aS'238'
p7309
aasS'3V0X'
p7310
(lp7311
(lp7312
I2879
aS'16'
p7313
aS'238'
p7314
aasS'1DDJ'
p7315
(lp7316
(lp7317
I2879
aS'562'
p7318
aS'784'
p7319
aasS'3F1S'
p7320
(lp7321
(lp7322
I2879
aS'147'
p7323
aS'354'
p7324
aa(lp7325
I2939
aS'94'
p7326
aS'125'
p7327
aa(lp7328
I6874
aS'58'
p7329
aS'420'
p7330
aasS'3B9F'
p7331
(lp7332
(lp7333
I2879
aS'16'
p7334
aS'238'
p7335
aa(lp7336
I4359
aS'1R'
p7337
aS'14L'
p7338
aa(lp7339
I6874
aS'28'
p7340
aS'387'
p7341
aasS'5LPR'
p7342
(lp7343
(lp7344
I2879
aS'52'
p7345
aS'221A'
p7346
aasS'4PRO'
p7347
(lp7348
(lp7349
I2879
aS'31'
p7350
aS'172'
p7351
aa(lp7352
I6394
aS'86'
p7353
aS'150'
p7354
aasS'1EX3'
p7355
(lp7356
(lp7357
I2879
aS'16'
p7358
aS'238'
p7359
aasS'1N6Y'
p7360
(lp7361
(lp7362
I2879
aS'16'
p7363
aS'238'
p7364
aasS'1N6X'
p7365
(lp7366
(lp7367
I2879
aS'16'
p7368
aS'238'
p7369
aasS'2FO9'
p7370
(lp7371
(lp7372
I2879
aS'16'
p7373
aS'248'
p7374
aasS'1F7Z'
p7375
(lp7376
(lp7377
I2879
aS'16'
p7378
aS'238'
p7379
aa(lp7380
I5507
aS'4'
aS'55'
p7381
aasS'3AAV'
p7382
(lp7383
(lp7384
I2879
aS'1'
aS'216'
p7385
aasS'3AAU'
p7386
(lp7387
(lp7388
I2879
aS'1'
aS'216'
p7389
aasS'3AAS'
p7390
(lp7391
(lp7392
I2879
aS'1'
aS'216'
p7393
aasS'2TPI'
p7394
(lp7395
(lp7396
I2879
aS'19'
p7397
aS'238'
p7398
aa(lp7399
I5507
aS'4'
aS'55'
p7400
aasS'1MZA'
p7401
(lp7402
(lp7403
I2879
aS'16'
p7404
aS'238'
p7405
aasS'1GI9'
p7406
(lp7407
(lp7408
I2879
aS'16'
p7409
aS'238'
p7410
aasS'1GI8'
p7411
(lp7412
(lp7413
I2879
aS'16'
p7414
aS'238'
p7415
aasS'3KHV'
p7416
(lp7417
(lp7418
I2879
aS'16'
p7419
aS'238'
p7420
aasS'1GI2'
p7421
(lp7422
(lp7423
I2879
aS'16'
p7424
aS'238'
p7425
aasS'1GI1'
p7426
(lp7427
(lp7428
I2879
aS'16'
p7429
aS'238'
p7430
aasS'1GI0'
p7431
(lp7432
(lp7433
I2879
aS'16'
p7434
aS'238'
p7435
aasS'1GI7'
p7436
(lp7437
(lp7438
I2879
aS'16'
p7439
aS'238'
p7440
aasS'1GI6'
p7441
(lp7442
(lp7443
I2879
aS'16'
p7444
aS'238'
p7445
aasS'1GI5'
p7446
(lp7447
(lp7448
I2879
aS'16'
p7449
aS'238'
p7450
aasS'1GI4'
p7451
(lp7452
(lp7453
I2879
aS'16'
p7454
aS'238'
p7455
aasS'1SB1'
p7456
(lp7457
(lp7458
I2879
aS'16'
p7459
aS'238'
p7460
aa(lp7461
I4359
aS'1C'
p7462
aS'14L'
p7463
aasS'1INC'
p7464
(lp7465
(lp7466
I2879
aS'16'
p7467
aS'238'
p7468
aasS'3SQH'
p7469
(lp7470
(lp7471
I2879
aS'16'
p7472
aS'238'
p7473
aa(lp7474
I4359
aS'1C'
p7475
aS'15'
p7476
aasS'3SQE'
p7477
(lp7478
(lp7479
I2879
aS'16'
p7480
aS'238'
p7481
aa(lp7482
I4359
aS'1C'
p7483
aS'15'
p7484
aasS'1AMH'
p7485
(lp7486
(lp7487
I2879
aS'16'
p7488
aS'238'
p7489
aasS'1Z7K'
p7490
(lp7491
(lp7492
I1504
aS'6'
aS'63'
p7493
aa(lp7494
I2879
aS'16'
p7495
aS'238'
p7496
aasS'1B5G'
p7497
(lp7498
(lp7499
I2879
aS'16'
p7500
aS'238'
p7501
aa(lp7502
I4359
aS'1C'
p7503
aS'14L'
p7504
aasS'1ZRK'
p7505
(lp7506
(lp7507
I2879
aS'16'
p7508
aS'238'
p7509
aasS'1QNJ'
p7510
(lp7511
(lp7512
I2879
aS'16'
p7513
aS'238'
p7514
aasS'1ZRB'
p7515
(lp7516
(lp7517
I2879
aS'16'
p7518
aS'238'
p7519
aa(lp7520
I4359
aS'1A'
p7521
aS'14K'
p7522
aasS'1VZQ'
p7523
(lp7524
(lp7525
I2879
aS'16'
p7526
aS'238'
p7527
aa(lp7528
I4359
aS'1B'
p7529
aS'14K'
p7530
aasS'1HCG'
p7531
(lp7532
(lp7533
I2879
aS'16'
p7534
aS'238'
p7535
aa(lp7536
I2939
aS'1'
aS'36'
p7537
aasS'1NM6'
p7538
(lp7539
(lp7540
I2879
aS'16'
p7541
aS'238'
p7542
aa(lp7543
I4359
aS'1A'
p7544
aS'14K'
p7545
aasS'4B2A'
p7546
(lp7547
(lp7548
I2879
aS'16'
p7549
aS'238'
p7550
aa(lp7551
I5789
aS'9'
aS'70'
p7552
aasS'4B2B'
p7553
(lp7554
(lp7555
I2879
aS'16'
p7556
aS'238'
p7557
aa(lp7558
I5789
aS'9'
aS'70'
p7559
aasS'4B2C'
p7560
(lp7561
(lp7562
I2879
aS'16'
p7563
aS'238'
p7564
aa(lp7565
I5789
aS'9'
aS'70'
p7566
aasS'1THS'
p7567
(lp7568
(lp7569
I2879
aS'16'
p7570
aS'238'
p7571
aa(lp7572
I4359
aS'1E'
p7573
aS'15'
p7574
aasS'1THR'
p7575
(lp7576
(lp7577
I2879
aS'16'
p7578
aS'238'
p7579
aa(lp7580
I4359
aS'1B'
p7581
aS'14K'
p7582
aasS'1THP'
p7583
(lp7584
(lp7585
I2879
aS'16'
p7586
aS'238'
p7587
aa(lp7588
I4359
aS'1B'
p7589
aS'14K'
p7590
aasS'4AX9'
p7591
(lp7592
(lp7593
I2879
aS'16'
p7594
aS'238'
p7595
aa(lp7596
I4359
aS'1A'
p7597
aS'15'
p7598
aasS'4NFE'
p7599
(lp7600
(lp7601
I2879
aS'16'
p7602
aS'238'
p7603
aasS'4NFF'
p7604
(lp7605
(lp7606
I2879
aS'16'
p7607
aS'238'
p7608
aasS'1ZLR'
p7609
(lp7610
(lp7611
I2879
aS'16'
p7612
aS'238'
p7613
aasS'4Z0K'
p7614
(lp7615
(lp7616
I2879
aS'16'
p7617
aS'238'
p7618
aa(lp7619
I2939
aS'88'
p7620
aS'124'
p7621
aasS'1ZR0'
p7622
(lp7623
(lp7624
I2879
aS'16'
p7625
aS'238'
p7626
aa(lp7627
I5507
aS'4'
aS'55'
p7628
aasS'1Z71'
p7629
(lp7630
(lp7631
I2879
aS'16'
p7632
aS'238'
p7633
aa(lp7634
I4359
aS'1A'
p7635
aS'14K'
p7636
aasS'5GDS'
p7637
(lp7638
(lp7639
I2879
aS'16'
p7640
aS'238'
p7641
aa(lp7642
I4359
aS'1H'
p7643
aS'15'
p7644
aasS'4LXB'
p7645
(lp7646
(lp7647
I2879
aS'16'
p7648
aS'238'
p7649
aa(lp7650
I4359
aS'1B'
p7651
aS'14K'
p7652
aasS'2VNT'
p7653
(lp7654
(lp7655
I2879
aS'10'
p7656
aS'250'
p7657
aasS'3T29'
p7658
(lp7659
(lp7660
I2879
aS'16'
p7661
aS'238'
p7662
aasS'3T28'
p7663
(lp7664
(lp7665
I2879
aS'16'
p7666
aS'238'
p7667
aasS'4GVU'
p7668
(lp7669
(lp7670
I2879
aS'16'
p7671
aS'248'
p7672
aasS'3T27'
p7673
(lp7674
(lp7675
I2879
aS'16'
p7676
aS'238'
p7677
aasS'3T26'
p7678
(lp7679
(lp7680
I2879
aS'16'
p7681
aS'238'
p7682
aasS'3Q3K'
p7683
(lp7684
(lp7685
I2879
aS'16'
p7686
aS'238'
p7687
aa(lp7688
I2939
aS'89'
p7689
aS'124'
p7690
aasS'2CF9'
p7691
(lp7692
(lp7693
I2879
aS'16'
p7694
aS'238'
p7695
aa(lp7696
I4359
aS'1B'
p7697
aS'14L'
p7698
aasS'2CF8'
p7699
(lp7700
(lp7701
I2879
aS'16'
p7702
aS'238'
p7703
aa(lp7704
I4359
aS'1B'
p7705
aS'14L'
p7706
aasS'3LPR'
p7707
(lp7708
(lp7709
I2879
aS'52'
p7710
aS'221A'
p7711
aasS'1HUT'
p7712
(lp7713
(lp7714
I2879
aS'16'
p7715
aS'238'
p7716
aa(lp7717
I4359
aS'1H'
p7718
aS'15'
p7719
aasS'2ZG0'
p7720
(lp7721
(lp7722
I2879
aS'16'
p7723
aS'238'
p7724
aa(lp7725
I4359
aS'1B'
p7726
aS'14K'
p7727
aasS'1MKW'
p7728
(lp7729
(lp7730
I2879
aS'16'
p7731
aS'238'
p7732
aa(lp7733
I2879
aS'16'
p7734
aS'238'
p7735
aa(lp7736
I4359
aS'1C'
p7737
aS'14L'
p7738
aa(lp7739
I4359
aS'1D'
p7740
aS'15'
p7741
aasS'1MKX'
p7742
(lp7743
(lp7744
I2879
aS'16'
p7745
aS'238'
p7746
aa(lp7747
I2879
aS'16'
p7748
aS'238'
p7749
aa(lp7750
I4359
aS'1C'
p7751
aS'14L'
p7752
aa(lp7753
I4359
aS'1D'
p7754
aS'15'
p7755
aasS'1SFI'
p7756
(lp7757
(lp7758
I2879
aS'16'
p7759
aS'238'
p7760
aasS'1DUE'
p7761
(lp7762
(lp7763
I2879
aS'33'
p7764
aS'235'
p7765
aasS'1DUA'
p7766
(lp7767
(lp7768
I2879
aS'33'
p7769
aS'235'
p7770
aasS'1AE5'
p7771
(lp7772
(lp7773
I2879
aS'1'
aS'213'
p7774
aasS'1C2F'
p7775
(lp7776
(lp7777
I2879
aS'16'
p7778
aS'238'
p7779
aasS'1C2G'
p7780
(lp7781
(lp7782
I2879
aS'16'
p7783
aS'238'
p7784
aasS'1C2D'
p7785
(lp7786
(lp7787
I2879
aS'16'
p7788
aS'238'
p7789
aasS'1C2E'
p7790
(lp7791
(lp7792
I2879
aS'16'
p7793
aS'238'
p7794
aasS'1C2J'
p7795
(lp7796
(lp7797
I2879
aS'16'
p7798
aS'238'
p7799
aasS'1C2K'
p7800
(lp7801
(lp7802
I2879
aS'16'
p7803
aS'238'
p7804
aasS'1C2H'
p7805
(lp7806
(lp7807
I2879
aS'16'
p7808
aS'238'
p7809
aasS'1C2I'
p7810
(lp7811
(lp7812
I2879
aS'16'
p7813
aS'238'
p7814
aasS'1C2L'
p7815
(lp7816
(lp7817
I2879
aS'16'
p7818
aS'238'
p7819
aasS'1C2M'
p7820
(lp7821
(lp7822
I2879
aS'16'
p7823
aS'238'
p7824
aasS'1W8B'
p7825
(lp7826
(lp7827
I2879
aS'16'
p7828
aS'238'
p7829
aa(lp7830
I2939
aS'91'
p7831
aS'127'
p7832
aasS'3PWB'
p7833
(lp7834
(lp7835
I2879
aS'16'
p7836
aS'238'
p7837
aasS'3PWC'
p7838
(lp7839
(lp7840
I2879
aS'16'
p7841
aS'238'
p7842
aasS'2ZGH'
p7843
(lp7844
(lp7845
I2879
aS'1'
aS'224'
p7846
aasS'2ZGJ'
p7847
(lp7848
(lp7849
I2879
aS'1'
aS'224'
p7850
aasS'2ZGC'
p7851
(lp7852
(lp7853
I2879
aS'1'
aS'224'
p7854
aasS'2ZGB'
p7855
(lp7856
(lp7857
I2879
aS'16'
p7858
aS'238'
p7859
aa(lp7860
I4359
aS'1B'
p7861
aS'14K'
p7862
aasS'3T2N'
p7863
(lp7864
(lp7865
I1690
aS'126'
p7866
aS'206'
p7867
aa(lp7868
I1690
aS'121'
p7869
aS'202'
p7870
aa(lp7871
I2388
aS'7'
aS'111'
p7872
aa(lp7873
I2388
aS'6'
aS'107'
p7874
aa(lp7875
I2879
aS'167'
p7876
aS'400'
p7877
aa(lp7878
I5609
aS'50'
p7879
aS'159'
p7880
aasS'1RFN'
p7881
(lp7882
(lp7883
I2879
aS'16'
p7884
aS'238'
p7885
aa(lp7886
I2939
aS'88'
p7887
aS'124'
p7888
aasS'2B8O'
p7889
(lp7890
(lp7891
I1362
aS'7'
aS'82'
p7892
aa(lp7893
I2879
aS'16'
p7894
aS'238'
p7895
aa(lp7896
I2939
aS'91'
p7897
aS'127'
p7898
aa(lp7899
I3392
aS'50'
p7900
aS'79'
p7901
aa(lp7902
I6386
aS'106'
p7903
aS'210'
p7904
aa(lp7905
I6715
aS'5'
aS'44'
p7906
aasS'2Y7Z'
p7907
(lp7908
(lp7909
I2879
aS'16'
p7910
aS'238'
p7911
aa(lp7912
I2939
aS'1'
aS'36'
p7913
aasS'2Y7X'
p7914
(lp7915
(lp7916
I2879
aS'16'
p7917
aS'238'
p7918
aa(lp7919
I2939
aS'1'
aS'36'
p7920
aasS'2GD4'
p7921
(lp7922
(lp7923
I2879
aS'16'
p7924
aS'238'
p7925
aa(lp7926
I2939
aS'89'
p7927
aS'124'
p7928
aa(lp7929
I6874
aS'54'
p7930
aS'429'
p7931
aasS'3ENS'
p7932
(lp7933
(lp7934
I2879
aS'16'
p7935
aS'238'
p7936
aa(lp7937
I2939
aS'129'
p7938
aS'164'
p7939
aa(lp7940
I3392
aS'90'
p7941
aS'120'
p7942
aasS'3RXT'
p7943
(lp7944
(lp7945
I2879
aS'19'
p7946
aS'234'
p7947
aasS'3BV9'
p7948
(lp7949
(lp7950
I2879
aS'16'
p7951
aS'238'
p7952
aa(lp7953
I4359
aS'1C'
p7954
aS'14L'
p7955
aasS'1H9L'
p7956
(lp7957
(lp7958
I2879
aS'16'
p7959
aS'238'
p7960
aasS'1H9H'
p7961
(lp7962
(lp7963
I2879
aS'16'
p7964
aS'238'
p7965
aa(lp7966
I3295
aS'2'
aS'28'
p7967
aasS'1H9I'
p7968
(lp7969
(lp7970
I2879
aS'16'
p7971
aS'238'
p7972
aa(lp7973
I3295
aS'2'
aS'28'
p7974
aasS'1IAU'
p7975
(lp7976
(lp7977
I2879
aS'16'
p7978
aS'238'
p7979
aasS'3RXS'
p7980
(lp7981
(lp7982
I2879
aS'19'
p7983
aS'234'
p7984
aasS'2AGG'
p7985
(lp7986
(lp7987
I2879
aS'16'
p7988
aS'238'
p7989
aasS'2AGE'
p7990
(lp7991
(lp7992
I2879
aS'16'
p7993
aS'238'
p7994
aasS'4X8T'
p7995
(lp7996
(lp7997
I2879
aS'16'
p7998
aS'238'
p7999
aa(lp8000
I2939
aS'91'
p8001
aS'127'
p8002
aasS'2AGI'
p8003
(lp8004
(lp8005
I2879
aS'16'
p8006
aS'238'
p8007
aasS'1CO7'
p8008
(lp8009
(lp8010
I2879
aS'16'
p8011
aS'238'
p8012
aa(lp8013
I5507
aS'9'
aS'53'
p8014
aasS'2GDE'
p8015
(lp8016
(lp8017
I2879
aS'16'
p8018
aS'238'
p8019
aa(lp8020
I4359
aS'1B'
p8021
aS'14K'
p8022
aasS'2GDD'
p8023
(lp8024
(lp8025
I2879
aS'16'
p8026
aS'238'
p8027
aasS'4BXW'
p8028
(lp8029
(lp8030
I2879
aS'170'
p8031
aS'405'
p8032
aa(lp8033
I2939
aS'89'
p8034
aS'124'
p8035
aasS'1IOE'
p8036
(lp8037
(lp8038
I2879
aS'16'
p8039
aS'238'
p8040
aa(lp8041
I2939
aS'89'
p8042
aS'124'
p8043
aasS'1WSS'
p8044
(lp8045
(lp8046
I1362
aS'6'
aS'79'
p8047
aa(lp8048
I2879
aS'16'
p8049
aS'238'
p8050
aa(lp8051
I2939
aS'91'
p8052
aS'127'
p8053
aa(lp8054
I3392
aS'50'
p8055
aS'79'
p8056
aa(lp8057
I6386
aS'106'
p8058
aS'210'
p8059
aa(lp8060
I6715
aS'5'
aS'44'
p8061
aasS'1ZGI'
p8062
(lp8063
(lp8064
I2879
aS'16'
p8065
aS'238'
p8066
aa(lp8067
I4359
aS'1A'
p8068
aS'14K'
p8069
aasS'4Y76'
p8070
(lp8071
(lp8072
I2879
aS'16'
p8073
aS'243'
p8074
aa(lp8075
I2939
aS'81'
p8076
aS'101'
p8077
aa(lp8078
I3392
aS'42'
p8079
aS'72'
p8080
aa(lp8081
I6715
aS'-2'
p8082
aS'36'
p8083
aasS'4NIY'
p8084
(lp8085
(lp8086
I81
aS'10'
p8087
aS'132'
p8088
aa(lp8089
I2879
aS'16'
p8090
aS'238'
p8091
aasS'4NIX'
p8092
(lp8093
(lp8094
I2879
aS'18'
p8095
aS'238'
p8096
aasS'1GJD'
p8097
(lp8098
(lp8099
I2879
aS'16'
p8100
aS'238'
p8101
aasS'2G55'
p8102
(lp8103
(lp8104
I2879
aS'7'
aS'222'
p8105
aasS'1GJB'
p8106
(lp8107
(lp8108
I2879
aS'16'
p8109
aS'238'
p8110
aasS'1GJC'
p8111
(lp8112
(lp8113
I2879
aS'16'
p8114
aS'238'
p8115
aasS'1GJA'
p8116
(lp8117
(lp8118
I2879
aS'16'
p8119
aS'238'
p8120
aasS'1EOJ'
p8121
(lp8122
(lp8123
I2879
aS'16'
p8124
aS'238'
p8125
aa(lp8126
I4359
aS'1D'
p8127
aS'14K'
p8128
aasS'4NIW'
p8129
(lp8130
(lp8131
I2879
aS'18'
p8132
aS'238'
p8133
aasS'1EOL'
p8134
(lp8135
(lp8136
I2879
aS'16'
p8137
aS'238'
p8138
aa(lp8139
I4359
aS'1D'
p8140
aS'14K'
p8141
aasS'4Q2K'
p8142
(lp8143
(lp8144
I2879
aS'16'
p8145
aS'238'
p8146
aasS'2PSY'
p8147
(lp8148
(lp8149
I2879
aS'16'
p8150
aS'238'
p8151
aasS'1O38'
p8152
(lp8153
(lp8154
I2879
aS'16'
p8155
aS'238'
p8156
aasS'2BTC'
p8157
(lp8158
(lp8159
I2879
aS'16'
p8160
aS'238'
p8161
aa(lp8162
I3295
aS'501'
p8163
aS'529'
p8164
aasS'2G5V'
p8165
(lp8166
(lp8167
I2879
aS'7'
aS'222'
p8168
aasS'3OY5'
p8169
(lp8170
(lp8171
I2879
aS'16'
p8172
aS'238'
p8173
aasS'2PKA'
p8174
(lp8175
(lp8176
I2879
aS'16'
p8177
aS'95'
p8178
aa(lp8179
I2879
aS'97'
p8180
aS'238'
p8181
aasS'1GJ6'
p8182
(lp8183
(lp8184
I2879
aS'16'
p8185
aS'238'
p8186
aasS'1GJ7'
p8187
(lp8188
(lp8189
I2879
aS'16'
p8190
aS'238'
p8191
aasS'1GJ4'
p8192
(lp8193
(lp8194
I2879
aS'16'
p8195
aS'238'
p8196
aa(lp8197
I4359
aS'1C'
p8198
aS'14K'
p8199
aasS'1GJ5'
p8200
(lp8201
(lp8202
I2879
aS'16'
p8203
aS'238'
p8204
aa(lp8205
I4359
aS'1H'
p8206
aS'15'
p8207
aasS'2G5N'
p8208
(lp8209
(lp8210
I2879
aS'7'
aS'222'
p8211
aasS'2PKS'
p8212
(lp8213
(lp8214
I2879
aS'37'
p8215
aS'181'
p8216
aa(lp8217
I2879
aS'186'
p8218
aS'280'
p8219
aa(lp8220
I4359
aS'7'
aS'33'
p8221
aasS'1GJ8'
p8222
(lp8223
(lp8224
I2879
aS'16'
p8225
aS'238'
p8226
aasS'1GJ9'
p8227
(lp8228
(lp8229
I2879
aS'16'
p8230
aS'238'
p8231
aasS'3RP2'
p8232
(lp8233
(lp8234
I2879
aS'16'
p8235
aS'238'
p8236
aasS'1TAW'
p8237
(lp8238
(lp8239
I2879
aS'16'
p8240
aS'238'
p8241
aa(lp8242
I5507
aS'4'
aS'55'
p8243
aasS'1G9I'
p8244
(lp8245
(lp8246
I2879
aS'16'
p8247
aS'238'
p8248
aa(lp8249
I2971
aS'303'
p8250
aS'319'
p8251
aasS'1QQU'
p8252
(lp8253
(lp8254
I2879
aS'16'
p8255
aS'238'
p8256
aasS'4NGA'
p8257
(lp8258
(lp8259
I2879
aS'16'
p8260
aS'238'
p8261
aa(lp8262
I2939
aS'91'
p8263
aS'127'
p8264
aasS'1K21'
p8265
(lp8266
(lp8267
I2879
aS'16'
p8268
aS'238'
p8269
aa(lp8270
I4359
aS'1B'
p8271
aS'14K'
p8272
aasS'1FDP'
p8273
(lp8274
(lp8275
I2879
aS'16'
p8276
aS'238'
p8277
aasS'3QN7'
p8278
(lp8279
(lp8280
I2879
aS'1'
aS'241'
p8281
aasS'3L3T'
p8282
(lp8283
(lp8284
I2879
aS'16'
p8285
aS'238'
p8286
aa(lp8287
I5507
aS'4'
aS'55'
p8288
aasS'9LPR'
p8289
(lp8290
(lp8291
I2879
aS'52'
p8292
aS'221A'
p8293
aasS'4TPY'
p8294
(lp8295
(lp8296
I2879
aS'1'
aS'216'
p8297
aasS'3L33'
p8298
(lp8299
(lp8300
I2879
aS'16'
p8301
aS'238'
p8302
aa(lp8303
I5507
aS'4'
aS'55'
p8304
aasS'3T25'
p8305
(lp8306
(lp8307
I2879
aS'16'
p8308
aS'238'
p8309
aasS'2FDA'
p8310
(lp8311
(lp8312
I2879
aS'16'
p8313
aS'238'
p8314
aasS'3LIW'
p8315
(lp8316
(lp8317
I2879
aS'16'
p8318
aS'238'
p8319
aa(lp8320
I2939
aS'2'
aS'37'
p8321
aasS'4NG9'
p8322
(lp8323
(lp8324
I2879
aS'16'
p8325
aS'238'
p8326
aa(lp8327
I2939
aS'91'
p8328
aS'127'
p8329
aasS'1QQ4'
p8330
(lp8331
(lp8332
I2879
aS'31'
p8333
aS'172'
p8334
aasS'1LHC'
p8335
(lp8336
(lp8337
I2879
aS'16'
p8338
aS'238'
p8339
aa(lp8340
I4359
aS'1B'
p8341
aS'14J'
p8342
aasS'1LHG'
p8343
(lp8344
(lp8345
I2879
aS'16'
p8346
aS'238'
p8347
aa(lp8348
I4359
aS'1B'
p8349
aS'14J'
p8350
aasS'3KID'
p8351
(lp8352
(lp8353
I2879
aS'16'
p8354
aS'238'
p8355
aasS'1LHE'
p8356
(lp8357
(lp8358
I2879
aS'16'
p8359
aS'238'
p8360
aa(lp8361
I4359
aS'1B'
p8362
aS'14J'
p8363
aasS'1LHD'
p8364
(lp8365
(lp8366
I2879
aS'16'
p8367
aS'238'
p8368
aa(lp8369
I4359
aS'1B'
p8370
aS'14J'
p8371
aasS'4AG1'
p8372
(lp8373
(lp8374
I729
aS'6'
aS'53'
p8375
aa(lp8376
I2879
aS'1'
aS'219'
p8377
aasS'4AG2'
p8378
(lp8379
(lp8380
I729
aS'6'
aS'53'
p8381
aa(lp8382
I2879
aS'1'
aS'219'
p8383
aasS'1HB0'
p8384
(lp8385
(lp8386
I2879
aS'16'
p8387
aS'238'
p8388
aasS'3IG6'
p8389
(lp8390
(lp8391
I2879
aS'16'
p8392
aS'238'
p8393
aasS'1JRT'
p8394
(lp8395
(lp8396
I2879
aS'16'
p8397
aS'238'
p8398
aasS'2A1D'
p8399
(lp8400
(lp8401
I1126
aS'3'
aS'281'
p8402
aa(lp8403
I2879
aS'16'
p8404
aS'238'
p8405
aa(lp8406
I4359
aS'1M'
p8407
aS'15'
p8408
aasS'3UPE'
p8409
(lp8410
(lp8411
I2879
aS'16'
p8412
aS'238'
p8413
aasS'1BJV'
p8414
(lp8415
(lp8416
I2879
aS'16'
p8417
aS'238'
p8418
aasS'1BJU'
p8419
(lp8420
(lp8421
I2879
aS'16'
p8422
aS'238'
p8423
aasS'1Z6E'
p8424
(lp8425
(lp8426
I2879
aS'16'
p8427
aS'238'
p8428
aa(lp8429
I2939
aS'89'
p8430
aS'124'
p8431
aasS'3KGP'
p8432
(lp8433
(lp8434
I2879
aS'16'
p8435
aS'238'
p8436
aasS'1Z6J'
p8437
(lp8438
(lp8439
I1362
aS'3'
aS'83'
p8440
aa(lp8441
I2879
aS'16'
p8442
aS'238'
p8443
aa(lp8444
I2939
aS'91'
p8445
aS'127'
p8446
aa(lp8447
I3392
aS'50'
p8448
aS'79'
p8449
aa(lp8450
I6386
aS'106'
p8451
aS'210'
p8452
aa(lp8453
I6715
aS'5'
aS'44'
p8454
aasS'3MWI'
p8455
(lp8456
(lp8457
I2879
aS'16'
p8458
aS'238'
p8459
aasS'1CVW'
p8460
(lp8461
(lp8462
I2879
aS'16'
p8463
aS'238'
p8464
aa(lp8465
I2939
aS'91'
p8466
aS'127'
p8467
aasS'1AVG'
p8468
(lp8469
(lp8470
I862
aS'2'
aS'142'
p8471
aa(lp8472
I2879
aS'16'
p8473
aS'238'
p8474
aa(lp8475
I4359
aS'1M'
p8476
aS'15'
p8477
aasS'1HBT'
p8478
(lp8479
(lp8480
I2879
aS'16'
p8481
aS'238'
p8482
aa(lp8483
I4359
aS'1B'
p8484
aS'14K'
p8485
aasS'1V6D'
p8486
(lp8487
(lp8488
I2879
aS'16'
p8489
aS'238'
p8490
aasS'1NZQ'
p8491
(lp8492
(lp8493
I2879
aS'16'
p8494
aS'238'
p8495
aa(lp8496
I4359
aS'1B'
p8497
aS'15'
p8498
aasS'1MH0'
p8499
(lp8500
(lp8501
I2879
aS'16'
p8502
aS'238'
p8503
aa(lp8504
I4359
aS'1B'
p8505
aS'14K'
p8506
aasS'4J1Y'
p8507
(lp8508
(lp8509
I2879
aS'439'
p8510
aS'675'
p8511
aa(lp8512
I4067
aS'294'
p8513
aS'354'
p8514
aa(lp8515
I4067
aS'359'
p8516
aS'413'
p8517
aasS'1DT2'
p8518
(lp8519
(lp8520
I2879
aS'39'
p8521
aS'215'
p8522
aasS'3U69'
p8523
(lp8524
(lp8525
I2879
aS'321'
p8526
aS'570'
p8527
aa(lp8528
I2879
aS'321'
p8529
aS'570'
p8530
aa(lp8531
I4359
aS'291'
p8532
aS'320'
p8533
aa(lp8534
I4359
aS'291'
p8535
aS'320'
p8536
aasS'3P92'
p8537
(lp8538
(lp8539
I2879
aS'16'
p8540
aS'238'
p8541
aa(lp8542
I5507
aS'4'
aS'55'
p8543
aasS'3P95'
p8544
(lp8545
(lp8546
I2879
aS'16'
p8547
aS'238'
p8548
aa(lp8549
I5507
aS'4'
aS'55'
p8550
aasS'3DUX'
p8551
(lp8552
(lp8553
I2879
aS'16'
p8554
aS'238'
p8555
aa(lp8556
I4359
aS'1B'
p8557
aS'14K'
p8558
aasS'2AFQ'
p8559
(lp8560
(lp8561
I2879
aS'16'
p8562
aS'238'
p8563
aa(lp8564
I4359
aS'1D'
p8565
aS'14K'
p8566
aasS'1GBE'
p8567
(lp8568
(lp8569
I2879
aS'52'
p8570
aS'222'
p8571
aasS'3GOV'
p8572
(lp8573
(lp8574
I2879
aS'449'
p8575
aS'691'
p8576
aa(lp8577
I4067
aS'301'
p8578
aS'362'
p8579
aa(lp8580
I4067
aS'367'
p8581
aS'432'
p8582
aasS'3K65'
p8583
(lp8584
(lp8585
I2879
aS'321'
p8586
aS'570'
p8587
aa(lp8588
I4359
aS'279'
p8589
aS'320'
p8590
aa(lp8591
I5155
aS'170'
p8592
aS'248'
p8593
aasS'3BG4'
p8594
(lp8595
(lp8596
I2879
aS'16'
p8597
aS'145'
p8598
aa(lp8599
I2879
aS'151'
p8600
aS'238'
p8601
aa(lp8602
I4333
aS'30'
p8603
aS'56'
p8604
aasS'2GKV'
p8605
(lp8606
(lp8607
I1504
aS'8'
aS'56'
p8608
aa(lp8609
I2879
aS'48D'
p8610
aS'235'
p8611
aasS'3BG8'
p8612
(lp8613
(lp8614
I2879
aS'370'
p8615
aS'600'
p8616
aasS'3UQV'
p8617
(lp8618
(lp8619
I2879
aS'16'
p8620
aS'238'
p8621
aasS'3UQO'
p8622
(lp8623
(lp8624
I2879
aS'16'
p8625
aS'238'
p8626
aasS'1TWX'
p8627
(lp8628
(lp8629
I2879
aS'16'
p8630
aS'238'
p8631
aa(lp8632
I4359
aS'1B'
p8633
aS'14L'
p8634
aasS'1VGC'
p8635
(lp8636
(lp8637
I2879
aS'16'
p8638
aS'145'
p8639
aa(lp8640
I2879
aS'151'
p8641
aS'238'
p8642
aasS'4RKO'
p8643
(lp8644
(lp8645
I2879
aS'16'
p8646
aS'238'
p8647
aa(lp8648
I4359
aS'1N'
p8649
aS'14L'
p8650
aasS'4RKJ'
p8651
(lp8652
(lp8653
I2879
aS'16'
p8654
aS'238'
p8655
aa(lp8656
I4359
aS'1F'
p8657
aS'14L'
p8658
aasS'4TY6'
p8659
(lp8660
(lp8661
I2879
aS'16'
p8662
aS'238'
p8663
aasS'4K2Y'
p8664
(lp8665
(lp8666
I2879
aS'16'
p8667
aS'238'
p8668
aasS'1E0F'
p8669
(lp8670
(lp8671
I2216
aS'19'
p8672
aS'45'
p8673
aa(lp8674
I2879
aS'16'
p8675
aS'238'
p8676
aa(lp8677
I4359
aS'1H'
p8678
aS'15'
p8679
aasS'1AD8'
p8680
(lp8681
(lp8682
I2879
aS'16'
p8683
aS'238'
p8684
aa(lp8685
I4359
aS'1C'
p8686
aS'14K'
p8687
aasS'4IBL'
p8688
(lp8689
(lp8690
I1362
aS'6'
aS'82'
p8691
aa(lp8692
I2879
aS'16'
p8693
aS'238'
p8694
aa(lp8695
I2939
aS'91'
p8696
aS'127'
p8697
aa(lp8698
I3392
aS'50'
p8699
aS'79'
p8700
aa(lp8701
I6386
aS'106'
p8702
aS'210'
p8703
aa(lp8704
I6715
aS'5'
aS'44'
p8705
aasS'2G4U'
p8706
(lp8707
(lp8708
I2879
aS'1'
aS'233'
p8709
aasS'2G4T'
p8710
(lp8711
(lp8712
I2879
aS'1'
aS'233'
p8713
aasS'1QGF'
p8714
(lp8715
(lp8716
I2879
aS'16'
p8717
aS'238'
p8718
aasS'2PHB'
p8719
(lp8720
(lp8721
I2879
aS'16'
p8722
aS'238'
p8723
aa(lp8724
I2939
aS'1'
aS'36'
p8725
aasS'4YES'
p8726
(lp8727
(lp8728
I2879
aS'364'
p8729
aS'613'
p8730
aa(lp8731
I4359
aS'332'
p8732
aS'360'
p8733
aasS'3G01'
p8734
(lp8735
(lp8736
I2879
aS'21'
p8737
aS'241'
p8738
aasS'2BD4'
p8739
(lp8740
(lp8741
I2879
aS'16'
p8742
aS'238'
p8743
aasS'3NCL'
p8744
(lp8745
(lp8746
I2879
aS'11'
p8747
aS'252'
p8748
aasS'5ABW'
p8749
(lp8750
(lp8751
I2879
aS'16'
p8752
aS'238'
p8753
aasS'1SGT'
p8754
(lp8755
(lp8756
I2879
aS'16'
p8757
aS'238'
p8758
aasS'1YPL'
p8759
(lp8760
(lp8761
I2879
aS'16'
p8762
aS'238'
p8763
aa(lp8764
I4359
aS'1B'
p8765
aS'14K'
p8766
aasS'1YPM'
p8767
(lp8768
(lp8769
I2879
aS'16'
p8770
aS'238'
p8771
aa(lp8772
I4359
aS'1B'
p8773
aS'14K'
p8774
aasS'1YPJ'
p8775
(lp8776
(lp8777
I2879
aS'16'
p8778
aS'238'
p8779
aa(lp8780
I4359
aS'1B'
p8781
aS'14K'
p8782
aasS'1YPK'
p8783
(lp8784
(lp8785
I2879
aS'16'
p8786
aS'238'
p8787
aa(lp8788
I4359
aS'1B'
p8789
aS'14K'
p8790
aasS'1YPH'
p8791
(lp8792
(lp8793
I2879
aS'16'
p8794
aS'145'
p8795
aa(lp8796
I2879
aS'151'
p8797
aS'238'
p8798
aasS'1YPG'
p8799
(lp8800
(lp8801
I2879
aS'16'
p8802
aS'238'
p8803
aa(lp8804
I4359
aS'1B'
p8805
aS'14K'
p8806
aasS'4BNR'
p8807
(lp8808
(lp8809
I2879
aS'16'
p8810
aS'239'
p8811
aa(lp8812
I5507
aS'4'
aS'55'
p8813
aasS'1YPE'
p8814
(lp8815
(lp8816
I2879
aS'16'
p8817
aS'238'
p8818
aa(lp8819
I4359
aS'1B'
p8820
aS'14K'
p8821
aasS'2Y6T'
p8822
(lp8823
(lp8824
I81
aS'36'
p8825
aS'159'
p8826
aa(lp8827
I2879
aS'16'
p8828
aS'238'
p8829
aasS'1YBW'
p8830
(lp8831
(lp8832
I2879
aS'408'
p8833
aS'641'
p8834
aasS'2BVX'
p8835
(lp8836
(lp8837
I2879
aS'16'
p8838
aS'238'
p8839
aa(lp8840
I4359
aS'0B'
p8841
aS'15'
p8842
aasS'1YP9'
p8843
(lp8844
(lp8845
I2879
aS'253'
p8846
aS'238'
p8847
aasS'5BRR'
p8848
(lp8849
(lp8850
I2879
aS'16'
p8851
aS'238'
p8852
aa(lp8853
I6874
aS'13'
p8854
aS'379'
p8855
aasS'1DFP'
p8856
(lp8857
(lp8858
I2879
aS'16'
p8859
aS'238'
p8860
aasS'1K1O'
p8861
(lp8862
(lp8863
I2879
aS'16'
p8864
aS'238'
p8865
aasS'1K1N'
p8866
(lp8867
(lp8868
I2879
aS'16'
p8869
aS'238'
p8870
aasS'1K1M'
p8871
(lp8872
(lp8873
I2879
aS'16'
p8874
aS'238'
p8875
aasS'1K1L'
p8876
(lp8877
(lp8878
I2879
aS'16'
p8879
aS'238'
p8880
aasS'1K1J'
p8881
(lp8882
(lp8883
I2879
aS'16'
p8884
aS'238'
p8885
aasS'1K1I'
p8886
(lp8887
(lp8888
I2879
aS'16'
p8889
aS'238'
p8890
aasS'4H42'
p8891
(lp8892
(lp8893
I2879
aS'16'
p8894
aS'238'
p8895
aasS'2WPM'
p8896
(lp8897
(lp8898
I2879
aS'16'
p8899
aS'238'
p8900
aa(lp8901
I2939
aS'88'
p8902
aS'124'
p8903
aasS'2WPL'
p8904
(lp8905
(lp8906
I2879
aS'16'
p8907
aS'238'
p8908
aa(lp8909
I2939
aS'88'
p8910
aS'124'
p8911
aasS'2WPI'
p8912
(lp8913
(lp8914
I2879
aS'16'
p8915
aS'238'
p8916
aa(lp8917
I2939
aS'88'
p8918
aS'124'
p8919
aasS'2WPH'
p8920
(lp8921
(lp8922
I2879
aS'16'
p8923
aS'238'
p8924
aa(lp8925
I2939
aS'88'
p8926
aS'124'
p8927
aasS'1H8I'
p8928
(lp8929
(lp8930
I2879
aS'16'
p8931
aS'238'
p8932
aa(lp8933
I4359
aS'1B'
p8934
aS'14K'
p8935
aasS'2WPJ'
p8936
(lp8937
(lp8938
I2879
aS'16'
p8939
aS'238'
p8940
aa(lp8941
I2939
aS'88'
p8942
aS'124'
p8943
aasS'1H8D'
p8944
(lp8945
(lp8946
I2879
aS'16'
p8947
aS'238'
p8948
aa(lp8949
I4359
aS'1A'
p8950
aS'14K'
p8951
aasS'1K1P'
p8952
(lp8953
(lp8954
I2879
aS'16'
p8955
aS'238'
p8956
aasS'3SO3'
p8957
(lp8958
(lp8959
I1690
aS'120'
p8960
aS'205'
p8961
aa(lp8962
I1690
aS'126'
p8963
aS'206'
p8964
aa(lp8965
I2388
aS'6'
aS'106'
p8966
aa(lp8967
I2388
aS'12'
p8968
aS'111'
p8969
aa(lp8970
I2879
aS'16'
p8971
aS'238'
p8972
aasS'2FES'
p8973
(lp8974
(lp8975
I2879
aS'16'
p8976
aS'238'
p8977
aa(lp8978
I4359
aS'1F'
p8979
aS'14K'
p8980
aasS'2FEQ'
p8981
(lp8982
(lp8983
I2879
aS'16'
p8984
aS'238'
p8985
aa(lp8986
I4359
aS'1B'
p8987
aS'15'
p8988
aasS'1F5K'
p8989
(lp8990
(lp8991
I2879
aS'16'
p8992
aS'238'
p8993
aasS'1F5L'
p8994
(lp8995
(lp8996
I2879
aS'16'
p8997
aS'238'
p8998
aasS'1E37'
p8999
(lp9000
(lp9001
I2879
aS'16'
p9002
aS'238'
p9003
aasS'2P3F'
p9004
(lp9005
(lp9006
I2879
aS'16'
p9007
aS'238'
p9008
aa(lp9009
I2939
aS'89'
p9010
aS'124'
p9011
aa(lp9012
I3608
aS'6'
aS'69'
p9013
aasS'1E35'
p9014
(lp9015
(lp9016
I2879
aS'16'
p9017
aS'238'
p9018
aasS'1E34'
p9019
(lp9020
(lp9021
I2879
aS'16'
p9022
aS'238'
p9023
aasS'4XOJ'
p9024
(lp9025
(lp9026
I2879
aS'16'
p9027
aS'231'
p9028
aasS'1E38'
p9029
(lp9030
(lp9031
I2879
aS'16'
p9032
aS'238'
p9033
aasS'2P3U'
p9034
(lp9035
(lp9036
I2879
aS'16'
p9037
aS'238'
p9038
aa(lp9039
I2939
aS'89'
p9040
aS'124'
p9041
aasS'2P3T'
p9042
(lp9043
(lp9044
I2879
aS'16'
p9045
aS'238'
p9046
aa(lp9047
I2939
aS'89'
p9048
aS'124'
p9049
aasS'3TK5'
p9050
(lp9051
(lp9052
I2879
aS'16'
p9053
aS'238'
p9054
aa(lp9055
I2939
aS'89'
p9056
aS'124'
p9057
aasS'3TK6'
p9058
(lp9059
(lp9060
I2879
aS'16'
p9061
aS'238'
p9062
aa(lp9063
I2939
aS'89'
p9064
aS'124'
p9065
aasS'3TK9'
p9066
(lp9067
(lp9068
I2879
aS'16'
p9069
aS'234'
p9070
aasS'2EA3'
p9071
(lp9072
(lp9073
I2879
aS'54'
p9074
aS'173'
p9075
aasS'1UHB'
p9076
(lp9077
(lp9078
I2879
aS'16'
p9079
aS'144'
p9080
aa(lp9081
I2879
aS'151'
p9082
aS'238'
p9083
aasS'2R9P'
p9084
(lp9085
(lp9086
I2879
aS'16'
p9087
aS'238'
p9088
aa(lp9089
I5507
aS'4'
aS'55'
p9090
aasS'2F3C'
p9091
(lp9092
(lp9093
I1503
aS'8'
aS'48'
p9094
aa(lp9095
I2879
aS'16'
p9096
aS'231'
p9097
aasS'7LPR'
p9098
(lp9099
(lp9100
I2879
aS'52'
p9101
aS'221A'
p9102
aasS'1OP2'
p9103
(lp9104
(lp9105
I2879
aS'16'
p9106
aS'238'
p9107
aasS'1AKS'
p9108
(lp9109
(lp9110
I2879
aS'16'
p9111
aS'144'
p9112
aa(lp9113
I2879
aS'151'
p9114
aS'238'
p9115
aasS'3SOS'
p9116
(lp9117
(lp9118
I2879
aS'388'
p9119
aS'618'
p9120
aasS'3SOR'
p9121
(lp9122
(lp9123
I2879
aS'388'
p9124
aS'618'
p9125
aasS'1ELF'
p9126
(lp9127
(lp9128
I2879
aS'16'
p9129
aS'248'
p9130
aasS'1ELG'
p9131
(lp9132
(lp9133
I2879
aS'16'
p9134
aS'248'
p9135
aasS'1ELD'
p9136
(lp9137
(lp9138
I2879
aS'16'
p9139
aS'248'
p9140
aasS'1ELE'
p9141
(lp9142
(lp9143
I2879
aS'16'
p9144
aS'248'
p9145
aasS'1ELB'
p9146
(lp9147
(lp9148
I2879
aS'16'
p9149
aS'248'
p9150
aasS'1ELC'
p9151
(lp9152
(lp9153
I2879
aS'16'
p9154
aS'248'
p9155
aasS'1ELA'
p9156
(lp9157
(lp9158
I2879
aS'16'
p9159
aS'248'
p9160
aasS'3E6P'
p9161
(lp9162
(lp9163
I2879
aS'16'
p9164
aS'238'
p9165
aa(lp9166
I4359
aS'274'
p9167
aS'414L'
p9168
aa(lp9169
I5155
aS'170'
p9170
aS'248'
p9171
aasS'1ELV'
p9172
(lp9173
(lp9174
I2879
aS'423'
p9175
aS'660'
p9176
aa(lp9177
I4067
aS'344'
p9178
aS'398'
p9179
aasS'4HFP'
p9180
(lp9181
(lp9182
I2879
aS'16'
p9183
aS'238'
p9184
aa(lp9185
I4359
aS'1C'
p9186
aS'14L'
p9187
aasS'2J9N'
p9188
(lp9189
(lp9190
I2879
aS'16'
p9191
aS'231'
p9192
aasS'2ZWL'
p9193
(lp9194
(lp9195
I1362
aS'6'
aS'79'
p9196
aa(lp9197
I2879
aS'16'
p9198
aS'238'
p9199
aa(lp9200
I2939
aS'91'
p9201
aS'127'
p9202
aa(lp9203
I3392
aS'50'
p9204
aS'79'
p9205
aa(lp9206
I6386
aS'106'
p9207
aS'210'
p9208
aa(lp9209
I6715
aS'5'
aS'44'
p9210
aasS'3DHK'
p9211
(lp9212
(lp9213
I2879
aS'16'
p9214
aS'238'
p9215
aa(lp9216
I4359
aS'1B'
p9217
aS'14K'
p9218
aasS'1DPO'
p9219
(lp9220
(lp9221
I2879
aS'16'
p9222
aS'238'
p9223
aasS'2OQU'
p9224
(lp9225
(lp9226
I2879
aS'1'
aS'233'
p9227
aasS'1AWF'
p9228
(lp9229
(lp9230
I2879
aS'16'
p9231
aS'238'
p9232
aa(lp9233
I4359
aS'1B'
p9234
aS'14K'
p9235
aasS'4AFU'
p9236
(lp9237
(lp9238
I729
aS'6'
aS'54'
p9239
aa(lp9240
I2879
aS'1'
aS'219'
p9241
aasS'4AFS'
p9242
(lp9243
(lp9244
I729
aS'6'
aS'54'
p9245
aa(lp9246
I2879
aS'1'
aS'219'
p9247
aasS'1ZPC'
p9248
(lp9249
(lp9250
I2879
aS'16'
p9251
aS'238'
p9252
aasS'1ZPB'
p9253
(lp9254
(lp9255
I2879
aS'16'
p9256
aS'238'
p9257
aasS'2V35'
p9258
(lp9259
(lp9260
I2879
aS'16'
p9261
aS'238'
p9262
aasS'4AFZ'
p9263
(lp9264
(lp9265
I729
aS'6'
aS'53'
p9266
aa(lp9267
I2879
aS'1'
aS'219'
p9268
aasS'1CE5'
p9269
(lp9270
(lp9271
I2879
aS'16'
p9272
aS'238'
p9273
aasS'1AWH'
p9274
(lp9275
(lp9276
I2879
aS'16'
p9277
aS'238'
p9278
aa(lp9279
I4359
aS'1H'
p9280
aS'15'
p9281
aasS'3K9X'
p9282
(lp9283
(lp9284
I2879
aS'16'
p9285
aS'238'
p9286
aa(lp9287
I2939
aS'129'
p9288
aS'164'
p9289
aa(lp9290
I3392
aS'90'
p9291
aS'120'
p9292
aasS'1EB1'
p9293
(lp9294
(lp9295
I2879
aS'16'
p9296
aS'238'
p9297
aa(lp9298
I4359
aS'1B'
p9299
aS'14K'
p9300
aasS'1EB2'
p9301
(lp9302
(lp9303
I2879
aS'16'
p9304
aS'238'
p9305
aasS'1SPJ'
p9306
(lp9307
(lp9308
I2879
aS'16'
p9309
aS'238'
p9310
aasS'2ZGX'
p9311
(lp9312
(lp9313
I2879
aS'16'
p9314
aS'238'
p9315
aa(lp9316
I4359
aS'1B'
p9317
aS'14K'
p9318
aasS'1LKB'
p9319
(lp9320
(lp9321
I2879
aS'1'
aS'233'
p9322
aasS'1LKA'
p9323
(lp9324
(lp9325
I2879
aS'1'
aS'233'
p9326
aasS'4LZ1'
p9327
(lp9328
(lp9329
I2879
aS'16'
p9330
aS'238'
p9331
aa(lp9332
I4359
aS'1B'
p9333
aS'14L'
p9334
aasS'4E7R'
p9335
(lp9336
(lp9337
I2879
aS'1016'
p9338
aS'1238'
p9339
aa(lp9340
I4359
aS'1C'
p9341
aS'14K'
p9342
aasS'4LZ4'
p9343
(lp9344
(lp9345
I2879
aS'16'
p9346
aS'238'
p9347
aa(lp9348
I4359
aS'1H'
p9349
aS'14L'
p9350
aasS'2V3O'
p9351
(lp9352
(lp9353
I2879
aS'16'
p9354
aS'238'
p9355
aa(lp9356
I4359
aS'1B'
p9357
aS'14L'
p9358
aasS'2I6Q'
p9359
(lp9360
(lp9361
I2829
aS'234'
p9362
aS'430'
p9363
aa(lp9364
I2879
aS'453'
p9365
aS'683'
p9366
aasS'2V3H'
p9367
(lp9368
(lp9369
I2879
aS'16'
p9370
aS'238'
p9371
aa(lp9372
I4359
aS'1B'
p9373
aS'14L'
p9374
aasS'2I6S'
p9375
(lp9376
(lp9377
I2829
aS'234'
p9378
aS'430'
p9379
aa(lp9380
I2879
aS'453'
p9381
aS'683'
p9382
aasS'2TLD'
p9383
(lp9384
(lp9385
I2879
aS'16'
p9386
aS'238'
p9387
aa(lp9388
I3917
aS'8'
aS'99'
p9389
aasS'1QL8'
p9390
(lp9391
(lp9392
I2879
aS'16'
p9393
aS'238'
p9394
aasS'1QL9'
p9395
(lp9396
(lp9397
I2879
aS'16'
p9398
aS'238'
p9399
aasS'2FWW'
p9400
(lp9401
(lp9402
I2879
aS'16'
p9403
aS'238'
p9404
aasS'1Z8J'
p9405
(lp9406
(lp9407
I2879
aS'16'
p9408
aS'238'
p9409
aa(lp9410
I4359
aS'1N'
p9411
aS'14L'
p9412
aasS'1QL7'
p9413
(lp9414
(lp9415
I2879
aS'16'
p9416
aS'238'
p9417
aasS'2J95'
p9418
(lp9419
(lp9420
I2879
aS'16'
p9421
aS'238'
p9422
aa(lp9423
I2939
aS'1'
aS'36'
p9424
aasS'2J94'
p9425
(lp9426
(lp9427
I2879
aS'16'
p9428
aS'238'
p9429
aa(lp9430
I2939
aS'1'
aS'36'
p9431
aasS'2OQ5'
p9432
(lp9433
(lp9434
I2879
aS'16'
p9435
aS'238'
p9436
aasS'1T32'
p9437
(lp9438
(lp9439
I2879
aS'16'
p9440
aS'238'
p9441
aasS'1T31'
p9442
(lp9443
(lp9444
I2879
aS'16'
p9445
aS'238'
p9446
aasS'1HAX'
p9447
(lp9448
(lp9449
I2879
aS'16'
p9450
aS'238'
p9451
aasS'1HAY'
p9452
(lp9453
(lp9454
I2879
aS'16'
p9455
aS'238'
p9456
aasS'1SBW'
p9457
(lp9458
(lp9459
I2879
aS'16'
p9460
aS'238'
p9461
aa(lp9462
I2971
aS'15'
p9463
aS'28'
p9464
aasS'2ZA5'
p9465
(lp9466
(lp9467
I2879
aS'16'
p9468
aS'252'
p9469
aasS'3URD'
p9470
(lp9471
(lp9472
I2879
aS'31'
p9473
aS'172'
p9474
aasS'3URE'
p9475
(lp9476
(lp9477
I2879
aS'52'
p9478
aS'222'
p9479
aasS'3P8G'
p9480
(lp9481
(lp9482
I2879
aS'16'
p9483
aS'238'
p9484
aasS'1DWB'
p9485
(lp9486
(lp9487
I2879
aS'16'
p9488
aS'238'
p9489
aa(lp9490
I4359
aS'1C'
p9491
aS'14L'
p9492
aasS'1DWC'
p9493
(lp9494
(lp9495
I2879
aS'16'
p9496
aS'238'
p9497
aa(lp9498
I4359
aS'1C'
p9499
aS'14L'
p9500
aasS'1DWD'
p9501
(lp9502
(lp9503
I2879
aS'16'
p9504
aS'238'
p9505
aa(lp9506
I4359
aS'1C'
p9507
aS'14L'
p9508
aasS'1DWE'
p9509
(lp9510
(lp9511
I2879
aS'16'
p9512
aS'238'
p9513
aa(lp9514
I4359
aS'1C'
p9515
aS'14K'
p9516
aasS'1FQ3'
p9517
(lp9518
(lp9519
I2879
aS'16'
p9520
aS'238'
p9521
aasS'1NO9'
p9522
(lp9523
(lp9524
I2879
aS'16'
p9525
aS'238'
p9526
aa(lp9527
I4359
aS'1H'
p9528
aS'15'
p9529
aasS'2BD9'
p9530
(lp9531
(lp9532
I2879
aS'16'
p9533
aS'238'
p9534
aasS'2A0Q'
p9535
(lp9536
(lp9537
I2879
aS'16'
p9538
aS'238'
p9539
aa(lp9540
I4359
aS'1B'
p9541
aS'14N'
p9542
aasS'4KP0'
p9543
(lp9544
(lp9545
I2879
aS'16'
p9546
aS'238'
p9547
aasS'1C4Y'
p9548
(lp9549
(lp9550
I2879
aS'16'
p9551
aS'238'
p9552
aa(lp9553
I4359
aS'1B'
p9554
aS'14K'
p9555
aasS'2JET'
p9556
(lp9557
(lp9558
I2879
aS'19'
p9559
aS'145'
p9560
aa(lp9561
I2879
aS'151'
p9562
aS'238'
p9563
aasS'1C4U'
p9564
(lp9565
(lp9566
I2879
aS'16'
p9567
aS'238'
p9568
aa(lp9569
I4359
aS'1E'
p9570
aS'14K'
p9571
aasS'1C4V'
p9572
(lp9573
(lp9574
I2879
aS'16'
p9575
aS'238'
p9576
aa(lp9577
I4359
aS'1H'
p9578
aS'15'
p9579
aasS'3FVF'
p9580
(lp9581
(lp9582
I2879
aS'16'
p9583
aS'238'
p9584
aasS'1BIO'
p9585
(lp9586
(lp9587
I2879
aS'16'
p9588
aS'238'
p9589
aa(lp9590
I2879
aS'16'
p9591
aS'238'
p9592
aasS'3I77'
p9593
(lp9594
(lp9595
I2879
aS'16'
p9596
aS'238'
p9597
aasS'3I78'
p9598
(lp9599
(lp9600
I2879
aS'16'
p9601
aS'238'
p9602
aasS'3S9A'
p9603
(lp9604
(lp9605
I2879
aS'16'
p9606
aS'238'
p9607
aasS'3S9C'
p9608
(lp9609
(lp9610
I2879
aS'16'
p9611
aS'238'
p9612
aasS'3S9B'
p9613
(lp9614
(lp9615
I2879
aS'16'
p9616
aS'238'
p9617
aasS'3BF6'
p9618
(lp9619
(lp9620
I2879
aS'16'
p9621
aS'238'
p9622
aa(lp9623
I4359
aS'1C'
p9624
aS'14K'
p9625
aasS'3DFL'
p9626
(lp9627
(lp9628
I2879
aS'45'
p9629
aS'281'
p9630
aasS'3DFJ'
p9631
(lp9632
(lp9633
I2879
aS'45'
p9634
aS'281'
p9635
aasS'1BIT'
p9636
(lp9637
(lp9638
I2879
aS'16'
p9639
aS'238'
p9640
aasS'1DAN'
p9641
(lp9642
(lp9643
I1362
aS'7'
aS'80'
p9644
aa(lp9645
I2879
aS'16'
p9646
aS'238'
p9647
aa(lp9648
I2939
aS'91'
p9649
aS'127'
p9650
aa(lp9651
I3392
aS'50'
p9652
aS'79'
p9653
aa(lp9654
I6386
aS'106'
p9655
aS'210'
p9656
aa(lp9657
I6715
aS'5'
aS'44'
p9658
aasS'2SGP'
p9659
(lp9660
(lp9661
I1504
aS'8'
aS'56'
p9662
aa(lp9663
I2879
aS'48D'
p9664
aS'235'
p9665
aasS'2SGQ'
p9666
(lp9667
(lp9668
I1504
aS'8'
aS'56'
p9669
aa(lp9670
I2879
aS'48D'
p9671
aS'235'
p9672
aasS'2SGD'
p9673
(lp9674
(lp9675
I1504
aS'8'
aS'56'
p9676
aa(lp9677
I2879
aS'48D'
p9678
aS'235'
p9679
aasS'2SGE'
p9680
(lp9681
(lp9682
I1504
aS'8'
aS'56'
p9683
aa(lp9684
I2879
aS'48D'
p9685
aS'235'
p9686
aasS'2SGF'
p9687
(lp9688
(lp9689
I1504
aS'8'
aS'56'
p9690
aa(lp9691
I2879
aS'48D'
p9692
aS'235'
p9693
aasS'3VXF'
p9694
(lp9695
(lp9696
I2879
aS'16'
p9697
aS'238'
p9698
aa(lp9699
I4359
aS'1C'
p9700
aS'14K'
p9701
aasS'3VXE'
p9702
(lp9703
(lp9704
I2879
aS'16'
p9705
aS'238'
p9706
aa(lp9707
I4359
aS'1C'
p9708
aS'14J'
p9709
aasS'1K2I'
p9710
(lp9711
(lp9712
I2879
aS'16'
p9713
aS'238'
p9714
aasS'3DT0'
p9715
(lp9716
(lp9717
I2879
aS'16'
p9718
aS'238'
p9719
aa(lp9720
I4359
aS'1B'
p9721
aS'14J'
p9722
aasS'1L1G'
p9723
(lp9724
(lp9725
I2879
aS'1'
aS'233'
p9726
aasS'2UUY'
p9727
(lp9728
(lp9729
I2879
aS'21'
p9730
aS'236'
p9731
aasS'1IQI'
p9732
(lp9733
(lp9734
I2879
aS'16'
p9735
aS'238'
p9736
aa(lp9737
I2939
aS'89'
p9738
aS'124'
p9739
aasS'1IQH'
p9740
(lp9741
(lp9742
I2879
aS'16'
p9743
aS'238'
p9744
aa(lp9745
I2939
aS'89'
p9746
aS'124'
p9747
aasS'1IQK'
p9748
(lp9749
(lp9750
I2879
aS'16'
p9751
aS'238'
p9752
aa(lp9753
I2939
aS'89'
p9754
aS'124'
p9755
aasS'1IQJ'
p9756
(lp9757
(lp9758
I2879
aS'16'
p9759
aS'238'
p9760
aa(lp9761
I2939
aS'89'
p9762
aS'124'
p9763
aasS'1IQM'
p9764
(lp9765
(lp9766
I2879
aS'16'
p9767
aS'238'
p9768
aa(lp9769
I2939
aS'89'
p9770
aS'124'
p9771
aasS'1IQL'
p9772
(lp9773
(lp9774
I2879
aS'16'
p9775
aS'238'
p9776
aa(lp9777
I2939
aS'89'
p9778
aS'124'
p9779
aasS'2UUF'
p9780
(lp9781
(lp9782
I2879
aS'16'
p9783
aS'238'
p9784
aa(lp9785
I4359
aS'1B'
p9786
aS'14L'
p9787
aasS'1IQN'
p9788
(lp9789
(lp9790
I2879
aS'16'
p9791
aS'238'
p9792
aa(lp9793
I2939
aS'89'
p9794
aS'124'
p9795
aasS'1K22'
p9796
(lp9797
(lp9798
I2879
aS'16'
p9799
aS'238'
p9800
aa(lp9801
I4359
aS'1C'
p9802
aS'14L'
p9803
aasS'2UUJ'
p9804
(lp9805
(lp9806
I2879
aS'16'
p9807
aS'238'
p9808
aa(lp9809
I4359
aS'1B'
p9810
aS'14L'
p9811
aasS'2UUK'
p9812
(lp9813
(lp9814
I2879
aS'16'
p9815
aS'238'
p9816
aa(lp9817
I4359
aS'1B'
p9818
aS'14L'
p9819
aasS'1IQE'
p9820
(lp9821
(lp9822
I2879
aS'16'
p9823
aS'238'
p9824
aa(lp9825
I2939
aS'89'
p9826
aS'124'
p9827
aasS'1IQG'
p9828
(lp9829
(lp9830
I2879
aS'16'
p9831
aS'238'
p9832
aa(lp9833
I2939
aS'89'
p9834
aS'124'
p9835
aasS'1IQF'
p9836
(lp9837
(lp9838
I2879
aS'16'
p9839
aS'238'
p9840
aa(lp9841
I2939
aS'89'
p9842
aS'124'
p9843
aasS'1RD3'
p9844
(lp9845
(lp9846
I2879
aS'16'
p9847
aS'238'
p9848
aa(lp9849
I4359
aS'1H'
p9850
aS'14K'
p9851
aasS'1YC0'
p9852
(lp9853
(lp9854
I2879
aS'408'
p9855
aS'641'
p9856
aa(lp9857
I5507
aS'250'
p9858
aS'301'
p9859
aasS'3NPS'
p9860
(lp9861
(lp9862
I1690
aS'126'
p9863
aS'206'
p9864
aa(lp9865
I1690
aS'120'
p9866
aS'205'
p9867
aa(lp9868
I2388
aS'9'
aS'111'
p9869
aa(lp9870
I2388
aS'5'
aS'106A'
p9871
aa(lp9872
I2879
aS'16'
p9873
aS'238'
p9874
aasS'2BD8'
p9875
(lp9876
(lp9877
I2879
aS'16'
p9878
aS'238'
p9879
aasS'3TJV'
p9880
(lp9881
(lp9882
I2879
aS'16'
p9883
aS'234'
p9884
aasS'3TJU'
p9885
(lp9886
(lp9887
I2879
aS'16'
p9888
aS'234'
p9889
aasS'6LPR'
p9890
(lp9891
(lp9892
I2879
aS'52'
p9893
aS'221A'
p9894
aasS'2BD5'
p9895
(lp9896
(lp9897
I2879
aS'16'
p9898
aS'238'
p9899
aasS'2BD7'
p9900
(lp9901
(lp9902
I2879
aS'16'
p9903
aS'238'
p9904
aasS'2BD2'
p9905
(lp9906
(lp9907
I2879
aS'16'
p9908
aS'238'
p9909
aasS'2BD3'
p9910
(lp9911
(lp9912
I2879
aS'16'
p9913
aS'238'
p9914
aasS'1GDN'
p9915
(lp9916
(lp9917
I2879
aS'16'
p9918
aS'238'
p9919
aasS'2BVR'
p9920
(lp9921
(lp9922
I2879
aS'16'
p9923
aS'238'
p9924
aa(lp9925
I4359
aS'0B'
p9926
aS'15'
p9927
aasS'2BVS'
p9928
(lp9929
(lp9930
I2879
aS'16'
p9931
aS'238'
p9932
aa(lp9933
I4359
aS'0'
aS'15'
p9934
aasS'1AHT'
p9935
(lp9936
(lp9937
I2879
aS'16'
p9938
aS'238'
p9939
aa(lp9940
I4359
aS'1C'
p9941
aS'14K'
p9942
aasS'4HGC'
p9943
(lp9944
(lp9945
I2879
aS'16'
p9946
aS'238'
p9947
aasS'1GDU'
p9948
(lp9949
(lp9950
I2879
aS'16'
p9951
aS'238'
p9952
aasS'1GDQ'
p9953
(lp9954
(lp9955
I2879
aS'16'
p9956
aS'238'
p9957
aasS'1V2S'
p9958
(lp9959
(lp9960
I2879
aS'16'
p9961
aS'238'
p9962
aasS'1FN6'
p9963
(lp9964
(lp9965
I2879
aS'16'
p9966
aS'238'
p9967
aasS'2LPR'
p9968
(lp9969
(lp9970
I2879
aS'52'
p9971
aS'221A'
p9972
aasS'1V2Q'
p9973
(lp9974
(lp9975
I2879
aS'16'
p9976
aS'238'
p9977
aasS'2KAI'
p9978
(lp9979
(lp9980
I2879
aS'16'
p9981
aS'95'
p9982
aa(lp9983
I2879
aS'97'
p9984
aS'238'
p9985
aa(lp9986
I5507
aS'4'
aS'55'
p9987
aasS'1V2V'
p9988
(lp9989
(lp9990
I2879
aS'16'
p9991
aS'238'
p9992
aasS'1D3D'
p9993
(lp9994
(lp9995
I2879
aS'37'
p9996
aS'286'
p9997
aa(lp9998
I4359
aS'6'
aS'33'
p9999
aasS'2BDH'
p10000
(lp10001
(lp10002
I2879
aS'16'
p10003
aS'238'
p10004
aasS'2BDI'
p10005
(lp10006
(lp10007
I2879
aS'16'
p10008
aS'238'
p10009
aasS'2BDG'
p10010
(lp10011
(lp10012
I2879
aS'16'
p10013
aS'238'
p10014
aasS'2BDA'
p10015
(lp10016
(lp10017
I2879
aS'16'
p10018
aS'238'
p10019
aasS'2BDB'
p10020
(lp10021
(lp10022
I2879
aS'16'
p10023
aS'238'
p10024
aasS'2BDC'
p10025
(lp10026
(lp10027
I2879
aS'16'
p10028
aS'238'
p10029
aasS'1D3T'
p10030
(lp10031
(lp10032
I2879
aS'37'
p10033
aS'286'
p10034
aa(lp10035
I4359
aS'6'
aS'33'
p10036
aasS'4BOH'
p10037
(lp10038
(lp10039
I2879
aS'321'
p10040
aS'570'
p10041
aa(lp10042
I4359
aS'291'
p10043
aS'318'
p10044
aa(lp10045
I7410
aS'51'
p10046
aS'55'
p10047
aasS'2BDY'
p10048
(lp10049
(lp10050
I2879
aS'37'
p10051
aS'280'
p10052
aa(lp10053
I4359
aS'7'
aS'33'
p10054
aasS'1D3P'
p10055
(lp10056
(lp10057
I2879
aS'37'
p10058
aS'286'
p10059
aa(lp10060
I4359
aS'6'
aS'33'
p10061
aasS'1D3Q'
p10062
(lp10063
(lp10064
I2879
aS'37'
p10065
aS'286'
p10066
aa(lp10067
I4359
aS'6'
aS'33'
p10068
aasS'1AFQ'
p10069
(lp10070
(lp10071
I2879
aS'16'
p10072
aS'145'
p10073
aa(lp10074
I2879
aS'151'
p10075
aS'238'
p10076
aasS'1AFE'
p10077
(lp10078
(lp10079
I2879
aS'16'
p10080
aS'238'
p10081
aa(lp10082
I4359
aS'1H'
p10083
aS'15'
p10084
aasS'2A7H'
p10085
(lp10086
(lp10087
I2879
aS'7'
aS'222'
p10088
aasS'1NFX'
p10089
(lp10090
(lp10091
I2879
aS'16'
p10092
aS'238'
p10093
aa(lp10094
I2939
aS'1'
aS'36'
p10095
aasS'2FXR'
p10096
(lp10097
(lp10098
I2879
aS'16'
p10099
aS'238'
p10100
aasS'2FX4'
p10101
(lp10102
(lp10103
I2879
aS'16'
p10104
aS'238'
p10105
aasS'2FX6'
p10106
(lp10107
(lp10108
I2879
aS'16'
p10109
aS'238'
p10110
aasS'1GVZ'
p10111
(lp10112
(lp10113
I2879
aS'16'
p10114
aS'238'
p10115
aasS'1V2O'
p10116
(lp10117
(lp10118
I2879
aS'16'
p10119
aS'238'
p10120
aasS'1GVK'
p10121
(lp10122
(lp10123
I2879
aS'16'
p10124
aS'238'
p10125
aasS'1GVL'
p10126
(lp10127
(lp10128
I2879
aS'17'
p10129
aS'238'
p10130
aasS'1FPH'
p10131
(lp10132
(lp10133
I2879
aS'16'
p10134
aS'238'
p10135
aa(lp10136
I4359
aS'1H'
p10137
aS'15'
p10138
aasS'1EAW'
p10139
(lp10140
(lp10141
I2879
aS'16'
p10142
aS'238'
p10143
aa(lp10144
I2879
aS'16'
p10145
aS'238'
p10146
aa(lp10147
I5507
aS'4'
aS'55'
p10148
aa(lp10149
I5507
aS'4'
aS'55'
p10150
aasS'1C5O'
p10151
(lp10152
(lp10153
I2879
aS'16'
p10154
aS'238'
p10155
aa(lp10156
I4359
aS'1H'
p10157
aS'15'
p10158
aasS'1C5N'
p10159
(lp10160
(lp10161
I2879
aS'16'
p10162
aS'238'
p10163
aa(lp10164
I4359
aS'1H'
p10165
aS'15'
p10166
aasS'1C5M'
p10167
(lp10168
(lp10169
I2879
aS'16'
p10170
aS'238'
p10171
aa(lp10172
I2939
aS'1'
aS'36'
p10173
aasS'1C5L'
p10174
(lp10175
(lp10176
I2879
aS'16'
p10177
aS'238'
p10178
aa(lp10179
I4359
aS'1H'
p10180
aS'15'
p10181
aasS'1FPC'
p10182
(lp10183
(lp10184
I2879
aS'16'
p10185
aS'238'
p10186
aa(lp10187
I4359
aS'1A'
p10188
aS'14K'
p10189
aasS'4B1T'
p10190
(lp10191
(lp10192
I2879
aS'16'
p10193
aS'238'
p10194
aa(lp10195
I5789
aS'9'
aS'70'
p10196
aasS'1C5Y'
p10197
(lp10198
(lp10199
I2879
aS'16'
p10200
aS'238'
p10201
aasS'1C5X'
p10202
(lp10203
(lp10204
I2879
aS'16'
p10205
aS'238'
p10206
aasS'1C5S'
p10207
(lp10208
(lp10209
I2879
aS'16'
p10210
aS'238'
p10211
aasS'1C5R'
p10212
(lp10213
(lp10214
I2879
aS'16'
p10215
aS'238'
p10216
aasS'1C5Q'
p10217
(lp10218
(lp10219
I2879
aS'16'
p10220
aS'238'
p10221
aasS'1C5P'
p10222
(lp10223
(lp10224
I2879
aS'16'
p10225
aS'238'
p10226
aasS'1C5W'
p10227
(lp10228
(lp10229
I2879
aS'16'
p10230
aS'238'
p10231
aasS'1C5V'
p10232
(lp10233
(lp10234
I2879
aS'16'
p10235
aS'238'
p10236
aasS'1C5U'
p10237
(lp10238
(lp10239
I2879
aS'16'
p10240
aS'238'
p10241
aasS'1C5T'
p10242
(lp10243
(lp10244
I2879
aS'16'
p10245
aS'238'
p10246
aasS'3RM0'
p10247
(lp10248
(lp10249
I2879
aS'16'
p10250
aS'238'
p10251
aa(lp10252
I4359
aS'1C'
p10253
aS'14K'
p10254
aasS'3PTN'
p10255
(lp10256
(lp10257
I2879
aS'16'
p10258
aS'238'
p10259
aasS'2ZP0'
p10260
(lp10261
(lp10262
I1362
aS'6'
aS'79'
p10263
aa(lp10264
I2879
aS'16'
p10265
aS'238'
p10266
aa(lp10267
I2939
aS'91'
p10268
aS'127'
p10269
aa(lp10270
I3392
aS'50'
p10271
aS'79'
p10272
aa(lp10273
I6386
aS'106'
p10274
aS'210'
p10275
aa(lp10276
I6715
aS'5'
aS'44'
p10277
aasS'3PTB'
p10278
(lp10279
(lp10280
I2879
aS'16'
p10281
aS'238'
p10282
aasS'2J4I'
p10283
(lp10284
(lp10285
I2879
aS'16'
p10286
aS'238'
p10287
aa(lp10288
I2939
aS'1'
aS'36'
p10289
aasS'3S69'
p10290
(lp10291
(lp10292
I2879
aS'16'
p10293
aS'235'
p10294
aasS'2ZPQ'
p10295
(lp10296
(lp10297
I2879
aS'1'
aS'215'
p10298
aasS'2ZPR'
p10299
(lp10300
(lp10301
I2879
aS'1'
aS'215'
p10302
aasS'2ZPS'
p10303
(lp10304
(lp10305
I2879
aS'1'
aS'215'
p10306
aasS'1LTO'
p10307
(lp10308
(lp10309
I2879
aS'16'
p10310
aS'238'
p10311
aasS'2A32'
p10312
(lp10313
(lp10314
I2879
aS'16'
p10315
aS'238'
p10316
aasS'2A31'
p10317
(lp10318
(lp10319
I2879
aS'16'
p10320
aS'238'
p10321
aasS'4XDE'
p10322
(lp10323
(lp10324
I2879
aS'359'
p10325
aS'590'
p10326
aasS'1TGS'
p10327
(lp10328
(lp10329
I1504
aS'8'
aS'56'
p10330
aa(lp10331
I2879
aS'16'
p10332
aS'238'
p10333
aasS'1SQT'
p10334
(lp10335
(lp10336
I2879
aS'1'
aS'240'
p10337
aasS'1TGT'
p10338
(lp10339
(lp10340
I2879
aS'16'
p10341
aS'238'
p10342
aasS'1HDT'
p10343
(lp10344
(lp10345
I2879
aS'16'
p10346
aS'238'
p10347
aa(lp10348
I4359
aS'1E'
p10349
aS'15'
p10350
aasS'1TGB'
p10351
(lp10352
(lp10353
I2879
aS'16'
p10354
aS'238'
p10355
aasS'1TGC'
p10356
(lp10357
(lp10358
I2879
aS'16'
p10359
aS'238'
p10360
aa(lp10361
I2879
aS'16'
p10362
aS'238'
p10363
aasS'1SQA'
p10364
(lp10365
(lp10366
I2879
aS'1'
aS'254'
p10367
aasS'1SQO'
p10368
(lp10369
(lp10370
I2879
aS'1'
aS'254'
p10371
aasS'3IIT'
p10372
(lp10373
(lp10374
I2879
aS'16'
p10375
aS'238'
p10376
aa(lp10377
I2939
aS'89'
p10378
aS'124'
p10379
aasS'1TGN'
p10380
(lp10381
(lp10382
I2879
aS'17'
p10383
aS'238'
p10384
aasS'1S5S'
p10385
(lp10386
(lp10387
I2879
aS'16'
p10388
aS'238'
p10389
aasS'7EST'
p10390
(lp10391
(lp10392
I2879
aS'16'
p10393
aS'238'
p10394
aasS'1L0Z'
p10395
(lp10396
(lp10397
I2879
aS'1'
aS'233'
p10398
aasS'2C4F'
p10399
(lp10400
(lp10401
I1362
aS'7'
aS'79'
p10402
aa(lp10403
I2879
aS'16'
p10404
aS'238'
p10405
aa(lp10406
I2939
aS'91'
p10407
aS'127'
p10408
aa(lp10409
I3392
aS'50'
p10410
aS'79'
p10411
aa(lp10412
I6386
aS'106'
p10413
aS'210'
p10414
aa(lp10415
I6715
aS'5'
aS'44'
p10416
aasS'1HV7'
p10417
(lp10418
(lp10419
I2879
aS'16'
p10420
aS'248'
p10421
aasS'1SC8'
p10422
(lp10423
(lp10424
I2879
aS'16'
p10425
aS'238'
p10426
aasS'1TQ0'
p10427
(lp10428
(lp10429
I2879
aS'16'
p10430
aS'238'
p10431
aa(lp10432
I4359
aS'1C'
p10433
aS'15'
p10434
aasS'1TQ7'
p10435
(lp10436
(lp10437
I2879
aS'16'
p10438
aS'238'
p10439
aa(lp10440
I4359
aS'1P'
p10441
aS'15'
p10442
aasS'4KTU'
p10443
(lp10444
(lp10445
I2879
aS'16'
p10446
aS'238'
p10447
aa(lp10448
I5934
aS'2'
aS'13'
p10449
aasS'3BIU'
p10450
(lp10451
(lp10452
I2879
aS'16'
p10453
aS'238'
p10454
aa(lp10455
I4359
aS'1B'
p10456
aS'14L'
p10457
aasS'3BIV'
p10458
(lp10459
(lp10460
I2879
aS'16'
p10461
aS'238'
p10462
aa(lp10463
I4359
aS'1C'
p10464
aS'14L'
p10465
aasS'4M7G'
p10466
(lp10467
(lp10468
I2879
aS'1'
aS'217'
p10469
aasS'1DVA'
p10470
(lp10471
(lp10472
I2879
aS'16'
p10473
aS'238'
p10474
aa(lp10475
I2939
aS'91'
p10476
aS'127'
p10477
aa(lp10478
I3392
aS'50'
p10479
aS'79'
p10480
aasS'4H6S'
p10481
(lp10482
(lp10483
I2879
aS'16'
p10484
aS'238'
p10485
aa(lp10486
I4359
aS'1C'
p10487
aS'15'
p10488
aasS'4H6T'
p10489
(lp10490
(lp10491
I2879
aS'16'
p10492
aS'238'
p10493
aa(lp10494
I4359
aS'1S'
p10495
aS'15'
p10496
aasS'1OX1'
p10497
(lp10498
(lp10499
I2879
aS'16'
p10500
aS'238'
p10501
aasS'1O5G'
p10502
(lp10503
(lp10504
I2879
aS'16'
p10505
aS'238'
p10506
aa(lp10507
I4359
aS'1H'
p10508
aS'14K'
p10509
aasS'1O5F'
p10510
(lp10511
(lp10512
I2879
aS'16'
p10513
aS'238'
p10514
aa(lp10515
I5609
aS'5'
aS'114'
p10516
aasS'2VIO'
p10517
(lp10518
(lp10519
I2879
aS'16'
p10520
aS'238'
p10521
aasS'1O5D'
p10522
(lp10523
(lp10524
I1362
aS'6'
aS'83'
p10525
aa(lp10526
I2879
aS'16'
p10527
aS'238'
p10528
aa(lp10529
I2939
aS'91'
p10530
aS'127'
p10531
aa(lp10532
I3392
aS'50'
p10533
aS'79'
p10534
aa(lp10535
I6386
aS'106'
p10536
aS'205'
p10537
aasS'1O5C'
p10538
(lp10539
(lp10540
I2879
aS'16'
p10541
aS'238'
p10542
aasS'1O5B'
p10543
(lp10544
(lp10545
I2879
aS'16'
p10546
aS'238'
p10547
aasS'1O5A'
p10548
(lp10549
(lp10550
I2879
aS'16'
p10551
aS'238'
p10552
aasS'3VEQ'
p10553
(lp10554
(lp10555
I2879
aS'16'
p10556
aS'231'
p10557
aa(lp10558
I4686
aS'608'
p10559
aS'774'
p10560
aasS'3N7O'
p10561
(lp10562
(lp10563
I2879
aS'16'
p10564
aS'238'
p10565
aasS'2SGA'
p10566
(lp10567
(lp10568
I2879
aS'100'
p10569
aS'235'
p10570
aasS'5PTP'
p10571
(lp10572
(lp10573
I2879
aS'16'
p10574
aS'238'
p10575
aasS'2SFA'
p10576
(lp10577
(lp10578
I2879
aS'29'
p10579
aS'183'
p10580
aasS'1OXG'
p10581
(lp10582
(lp10583
I2879
aS'16'
p10584
aS'238'
p10585
aasS'1AI8'
p10586
(lp10587
(lp10588
I2879
aS'16'
p10589
aS'238'
p10590
aa(lp10591
I4359
aS'1B'
p10592
aS'14K'
p10593
aasS'4Y10'
p10594
(lp10595
(lp10596
I2879
aS'16'
p10597
aS'236'
p10598
aa(lp10599
I5507
aS'4'
aS'55'
p10600
aasS'4Y11'
p10601
(lp10602
(lp10603
I2879
aS'16'
p10604
aS'236'
p10605
aa(lp10606
I5507
aS'4'
aS'55'
p10607
aasS'3A8D'
p10608
(lp10609
(lp10610
I2879
aS'19'
p10611
aS'234'
p10612
aasS'3A8A'
p10613
(lp10614
(lp10615
I2879
aS'19'
p10616
aS'234'
p10617
aasS'3A8B'
p10618
(lp10619
(lp10620
I2879
aS'19'
p10621
aS'234'
p10622
aasS'3A8C'
p10623
(lp10624
(lp10625
I2879
aS'19'
p10626
aS'234'
p10627
aasS'4X6N'
p10628
(lp10629
(lp10630
I2879
aS'16'
p10631
aS'238'
p10632
aasS'4X6O'
p10633
(lp10634
(lp10635
I2879
aS'16'
p10636
aS'238'
p10637
aasS'3RDZ'
p10638
(lp10639
(lp10640
I2879
aS'19'
p10641
aS'234'
p10642
aa(lp10643
I5789
aS'7'
aS'68'
p10644
aasS'1X7A'
p10645
(lp10646
(lp10647
I2879
aS'16'
p10648
aS'238'
p10649
aa(lp10650
I2939
aS'88'
p10651
aS'124'
p10652
aa(lp10653
I3392
aS'51'
p10654
aS'81'
p10655
aasS'3RU4'
p10656
(lp10657
(lp10658
I2879
aS'16'
p10659
aS'231'
p10660
aa(lp10661
I2879
aS'16'
p10662
aS'145'
p10663
aa(lp10664
I2879
aS'151'
p10665
aS'238'
p10666
aa(lp10667
I2971
aS'18'
p10668
aS'42'
p10669
aasS'3TGI'
p10670
(lp10671
(lp10672
I2879
aS'16'
p10673
aS'238'
p10674
aa(lp10675
I5507
aS'4'
aS'55'
p10676
aasS'3TGJ'
p10677
(lp10678
(lp10679
I2879
aS'16'
p10680
aS'238'
p10681
aa(lp10682
I5507
aS'4'
aS'55'
p10683
aasS'3TGK'
p10684
(lp10685
(lp10686
I2879
aS'18'
p10687
aS'238'
p10688
aa(lp10689
I5507
aS'4'
aS'55'
p10690
aasS'2XWB'
p10691
(lp10692
(lp10693
I2539
aS'436'
p10694
aS'583'
p10695
aa(lp10696
I2829
aS'245'
p10697
aS'442'
p10698
aa(lp10699
I2879
aS'458'
p10700
aS'717'
p10701
aa(lp10702
I2879
aS'1'
aS'223'
p10703
aa(lp10704
I3054
aS'1377'
p10705
aS'1471'
p10706
aa(lp10707
I3069
aS'748'
p10708
aS'844'
p10709
aa(lp10710
I4067
aS'28'
p10711
aS'59'
p10712
aa(lp10713
I4067
aS'78'
p10714
aS'133'
p10715
aa(lp10716
I4067
aS'151'
p10717
aS'193'
p10718
aa(lp10719
I4736
aS'978'
p10720
aS'1006'
p10721
aa(lp10722
I5512
aS'1029'
p10723
aS'1261'
p10724
aa(lp10725
I6554
aS'108'
p10726
aS'202'
p10727
aa(lp10728
I7153
aS'1512'
p10729
aS'1622'
p10730
aasS'2XWA'
p10731
(lp10732
(lp10733
I2879
aS'1'
aS'223'
p10734
aasS'4X6P'
p10735
(lp10736
(lp10737
I2879
aS'16'
p10738
aS'238'
p10739
aasS'1PPE'
p10740
(lp10741
(lp10742
I2879
aS'16'
p10743
aS'238'
p10744
aa(lp10745
I3295
aS'1'
aS'29'
p10746
aasS'2CV3'
p10747
(lp10748
(lp10749
I2879
aS'16'
p10750
aS'248'
p10751
aasS'2XW9'
p10752
(lp10753
(lp10754
I2879
aS'1'
aS'223'
p10755
aasS'2Q1J'
p10756
(lp10757
(lp10758
I2879
aS'16'
p10759
aS'238'
p10760
aa(lp10761
I2939
aS'1'
aS'36'
p10762
aasS'2G52'
p10763
(lp10764
(lp10765
I2879
aS'16'
p10766
aS'235'
p10767
aasS'4MVN'
p10768
(lp10769
(lp10770
I2879
aS'12'
p10771
aS'185'
p10772
aasS'3A84'
p10773
(lp10774
(lp10775
I2879
aS'19'
p10776
aS'234'
p10777
aasS'3A85'
p10778
(lp10779
(lp10780
I2879
aS'19'
p10781
aS'234'
p10782
aasS'3A86'
p10783
(lp10784
(lp10785
I2879
aS'19'
p10786
aS'234'
p10787
aasS'3A87'
p10788
(lp10789
(lp10790
I2879
aS'19'
p10791
aS'234'
p10792
aasS'5AVD'
p10793
(lp10794
(lp10795
I2879
aS'16'
p10796
aS'248'
p10797
aasS'3A81'
p10798
(lp10799
(lp10800
I2879
aS'19'
p10801
aS'234'
p10802
aasS'3E0N'
p10803
(lp10804
(lp10805
I2879
aS'16'
p10806
aS'238'
p10807
aasS'3A83'
p10808
(lp10809
(lp10810
I2879
aS'19'
p10811
aS'234'
p10812
aasS'2G51'
p10813
(lp10814
(lp10815
I2879
aS'16'
p10816
aS'235'
p10817
aasS'3A88'
p10818
(lp10819
(lp10820
I2879
aS'19'
p10821
aS'234'
p10822
aasS'3A89'
p10823
(lp10824
(lp10825
I2879
aS'19'
p10826
aS'234'
p10827
aasS'3E0P'
p10828
(lp10829
(lp10830
I2879
aS'16'
p10831
aS'238'
p10832
aasS'3FFG'
p10833
(lp10834
(lp10835
I2879
aS'16'
p10836
aS'238'
p10837
aa(lp10838
I2939
aS'89'
p10839
aS'124'
p10840
aasS'4NIV'
p10841
(lp10842
(lp10843
I2879
aS'20'
p10844
aS'238'
p10845
aasS'1TFX'
p10846
(lp10847
(lp10848
I2879
aS'16'
p10849
aS'238'
p10850
aa(lp10851
I5507
aS'4'
aS'56'
p10852
aasS'1AUJ'
p10853
(lp10854
(lp10855
I2879
aS'16'
p10856
aS'238'
p10857
aasS'1V3X'
p10858
(lp10859
(lp10860
I2879
aS'16'
p10861
aS'238'
p10862
aa(lp10863
I2939
aS'89'
p10864
aS'124'
p10865
aasS'1QBO'
p10866
(lp10867
(lp10868
I2879
aS'7'
aS'222'
p10869
aasS'1NTP'
p10870
(lp10871
(lp10872
I2879
aS'16'
p10873
aS'238'
p10874
aasS'3M7U'
p10875
(lp10876
(lp10877
I2879
aS'30'
p10878
aS'172'
p10879
aasS'3M7T'
p10880
(lp10881
(lp10882
I2879
aS'31'
p10883
aS'172'
p10884
aasS'3M7Q'
p10885
(lp10886
(lp10887
I2879
aS'1'
aS'216'
p10888
aa(lp10889
I5507
aS'2'
aS'54'
p10890
aasS'2PR3'
p10891
(lp10892
(lp10893
I2879
aS'16'
p10894
aS'238'
p10895
aa(lp10896
I2939
aS'1'
aS'36'
p10897
aasS'1AUT'
p10898
(lp10899
(lp10900
I2879
aS'17'
p10901
aS'238'
p10902
aa(lp10903
I2939
aS'98'
p10904
aS'133'
p10905
aa(lp10906
I3392
aS'58'
p10907
aS'87'
p10908
aasS'1GWA'
p10909
(lp10910
(lp10911
I2879
aS'16'
p10912
aS'238'
p10913
aasS'1SR5'
p10914
(lp10915
(lp10916
I2879
aS'16'
p10917
aS'238'
p10918
aa(lp10919
I4359
aS'1G'
p10920
aS'14K'
p10921
aa(lp10922
I6874
aS'54'
p10923
aS'429'
p10924
aasS'1QJ1'
p10925
(lp10926
(lp10927
I2879
aS'16'
p10928
aS'238'
p10929
aa(lp10930
I4359
aS'1H'
p10931
aS'15'
p10932
aasS'1AU8'
p10933
(lp10934
(lp10935
I2879
aS'16'
p10936
aS'238'
p10937
aasS'1QJ6'
p10938
(lp10939
(lp10940
I2879
aS'16'
p10941
aS'238'
p10942
aa(lp10943
I4359
aS'1H'
p10944
aS'15'
p10945
aasS'1QJ7'
p10946
(lp10947
(lp10948
I2879
aS'16'
p10949
aS'238'
p10950
aa(lp10951
I4359
aS'1H'
p10952
aS'15'
p10953
aasS'1AGJ'
p10954
(lp10955
(lp10956
I2879
aS'33'
p10957
aS'235'
p10958
aasS'1FAX'
p10959
(lp10960
(lp10961
I2879
aS'16'
p10962
aS'238'
p10963
aa(lp10964
I2939
aS'89'
p10965
aS'124'
p10966
aasS'1C5Z'
p10967
(lp10968
(lp10969
I2879
aS'16'
p10970
aS'238'
p10971
aasS'1CGI'
p10972
(lp10973
(lp10974
I1504
aS'9'
aS'56'
p10975
aa(lp10976
I2879
aS'16'
p10977
aS'238'
p10978
aasS'2ZQ2'
p10979
(lp10980
(lp10981
I2879
aS'16'
p10982
aS'238'
p10983
aasS'2ZQ1'
p10984
(lp10985
(lp10986
I2879
aS'16'
p10987
aS'238'
p10988
aasS'1CGJ'
p10989
(lp10990
(lp10991
I1504
aS'9'
aS'56'
p10992
aa(lp10993
I2879
aS'16'
p10994
aS'238'
p10995
aasS'1FAK'
p10996
(lp10997
(lp10998
I1362
aS'7'
aS'80'
p10999
aa(lp11000
I2879
aS'16'
p11001
aS'238'
p11002
aa(lp11003
I2939
aS'91'
p11004
aS'127'
p11005
aa(lp11006
I3392
aS'50'
p11007
aS'79'
p11008
aa(lp11009
I5507
aS'4'
aS'55'
p11010
aa(lp11011
I6386
aS'106'
p11012
aS'210'
p11013
aa(lp11014
I6715
aS'36'
p11015
aS'44'
p11016
aasS'1TPO'
p11017
(lp11018
(lp11019
I2879
aS'16'
p11020
aS'238'
p11021
aasS'2ZC9'
p11022
(lp11023
(lp11024
I2879
aS'16'
p11025
aS'238'
p11026
aa(lp11027
I4359
aS'1C'
p11028
aS'14K'
p11029
aasS'1TPA'
p11030
(lp11031
(lp11032
I2879
aS'16'
p11033
aS'238'
p11034
aa(lp11035
I5507
aS'4'
aS'55'
p11036
aasS'3DD2'
p11037
(lp11038
(lp11039
I2879
aS'16'
p11040
aS'238'
p11041
aa(lp11042
I4359
aS'1D'
p11043
aS'14L'
p11044
aasS'1HYL'
p11045
(lp11046
(lp11047
I2879
aS'16'
p11048
aS'238'
p11049
aasS'3FP7'
p11050
(lp11051
(lp11052
I2879
aS'16'
p11053
aS'238'
p11054
aa(lp11055
I5507
aS'18'
p11056
aS'55'
p11057
aasS'3FP6'
p11058
(lp11059
(lp11060
I2879
aS'16'
p11061
aS'238'
p11062
aa(lp11063
I5507
aS'4'
aS'55'
p11064
aasS'1TPS'
p11065
(lp11066
(lp11067
I2879
aS'16'
p11068
aS'238'
p11069
aasS'1TPP'
p11070
(lp11071
(lp11072
I2879
aS'16'
p11073
aS'238'
p11074
aasS'1FI8'
p11075
(lp11076
(lp11077
I81
aS'10'
p11078
aS'81'
p11079
aa(lp11080
I81
aS'95'
p11081
aS'132'
p11082
aa(lp11083
I2879
aS'16'
p11084
aS'238'
p11085
aasS'1U6Q'
p11086
(lp11087
(lp11088
I2879
aS'1'
aS'240'
p11089
aasS'1JWT'
p11090
(lp11091
(lp11092
I2879
aS'37'
p11093
aS'280'
p11094
aa(lp11095
I4359
aS'1'
aS'36'
p11096
aasS'1HGT'
p11097
(lp11098
(lp11099
I2879
aS'16'
p11100
aS'238'
p11101
aa(lp11102
I4359
aS'1H'
p11103
aS'15'
p11104
aasS'1FON'
p11105
(lp11106
(lp11107
I2879
aS'9'
aS'233'
p11108
aasS'4RN6'
p11109
(lp11110
(lp11111
I2879
aS'16'
p11112
aS'238'
p11113
aa(lp11114
I4359
aS'1C'
p11115
aS'15'
p11116
aasS'1BOQ'
p11117
(lp11118
(lp11119
I2879
aS'31'
p11120
aS'172'
p11121
aasS'2A2Q'
p11122
(lp11123
(lp11124
I1362
aS'7'
aS'82'
p11125
aa(lp11126
I2879
aS'16'
p11127
aS'238'
p11128
aa(lp11129
I2939
aS'91'
p11130
aS'127'
p11131
aa(lp11132
I3392
aS'50'
p11133
aS'79'
p11134
aa(lp11135
I6386
aS'106'
p11136
aS'210'
p11137
aa(lp11138
I6715
aS'5'
aS'44'
p11139
aasS'3S7K'
p11140
(lp11141
(lp11142
I2879
aS'16'
p11143
aS'238'
p11144
aa(lp11145
I4359
aS'1C'
p11146
aS'15'
p11147
aasS'1NU7'
p11148
(lp11149
(lp11150
I1126
aS'3'
aS'281'
p11151
aa(lp11152
I2879
aS'16'
p11153
aS'238'
p11154
aa(lp11155
I4359
aS'1D'
p11156
aS'14J'
p11157
aasS'3S7H'
p11158
(lp11159
(lp11160
I2879
aS'16'
p11161
aS'238'
p11162
aa(lp11163
I4359
aS'1B'
p11164
aS'14K'
p11165
aasS'2A2X'
p11166
(lp11167
(lp11168
I2879
aS'16'
p11169
aS'238'
p11170
aa(lp11171
I2879
aS'16'
p11172
aS'238'
p11173
aa(lp11174
I4359
aS'1F'
p11175
aS'15'
p11176
aa(lp11177
I4359
aS'1F'
p11178
aS'15'
p11179
aasS'2ZCK'
p11180
(lp11181
(lp11182
I1690
aS'120'
p11183
aS'205'
p11184
aa(lp11185
I1690
aS'130'
p11186
aS'205'
p11187
aa(lp11188
I2388
aS'6'
aS'106'
p11189
aa(lp11190
I2388
aS'8'
aS'111'
p11191
aa(lp11192
I2879
aS'16'
p11193
aS'239'
p11194
aasS'1NU9'
p11195
(lp11196
(lp11197
I1126
aS'3'
aS'281'
p11198
aa(lp11199
I2879
aS'16'
p11200
aS'238'
p11201
aa(lp11202
I4359
aS'1D'
p11203
aS'15'
p11204
aasS'2ZCL'
p11205
(lp11206
(lp11207
I1690
aS'120'
p11208
aS'205'
p11209
aa(lp11210
I1690
aS'130'
p11211
aS'205'
p11212
aa(lp11213
I2388
aS'6'
aS'106'
p11214
aa(lp11215
I2388
aS'8'
aS'111'
p11216
aa(lp11217
I2879
aS'16'
p11218
aS'238'
p11219
aasS'3Q77'
p11220
(lp11221
(lp11222
I2879
aS'16'
p11223
aS'238'
p11224
aasS'3Q76'
p11225
(lp11226
(lp11227
I2879
aS'16'
p11228
aS'238'
p11229
aasS'3M61'
p11230
(lp11231
(lp11232
I2879
aS'16'
p11233
aS'238'
p11234
aasS'1RJX'
p11235
(lp11236
(lp11237
I2879
aS'562'
p11238
aS'784'
p11239
aasS'1BHX'
p11240
(lp11241
(lp11242
I2879
aS'16'
p11243
aS'145'
p11244
aa(lp11245
I2879
aS'151'
p11246
aS'238'
p11247
aa(lp11248
I4359
aS'1E'
p11249
aS'14K'
p11250
aasS'4YTA'
p11251
(lp11252
(lp11253
I2879
aS'16'
p11254
aS'238'
p11255
aasS'1PJP'
p11256
(lp11257
(lp11258
I2879
aS'16'
p11259
aS'238'
p11260
aasS'2HNT'
p11261
(lp11262
(lp11263
I2879
aS'16'
p11264
aS'72'
p11265
aa(lp11266
I2879
aS'85'
p11267
aS'142'
p11268
aa(lp11269
I2879
aS'152'
p11270
aS'238'
p11271
aa(lp11272
I4359
aS'1B'
p11273
aS'14L'
p11274
aasS'2OK5'
p11275
(lp11276
(lp11277
I2829
aS'245'
p11278
aS'442'
p11279
aa(lp11280
I2879
aS'458'
p11281
aS'717'
p11282
aa(lp11283
I4067
aS'28'
p11284
aS'59'
p11285
aa(lp11286
I4067
aS'78'
p11287
aS'133'
p11288
aa(lp11289
I4067
aS'151'
p11290
aS'193'
p11291
aasS'1OYQ'
p11292
(lp11293
(lp11294
I2879
aS'16'
p11295
aS'238'
p11296
aasS'1OYT'
p11297
(lp11298
(lp11299
I2879
aS'16'
p11300
aS'238'
p11301
aa(lp11302
I4359
aS'1B'
p11303
aS'14K'
p11304
aasS'2D8W'
p11305
(lp11306
(lp11307
I2879
aS'7'
aS'222'
p11308
aasS'1AIX'
p11309
(lp11310
(lp11311
I2879
aS'16'
p11312
aS'238'
p11313
aa(lp11314
I4359
aS'1B'
p11315
aS'14K'
p11316
aasS'1RTF'
p11317
(lp11318
(lp11319
I2879
aS'16'
p11320
aS'238'
p11321
aasS'1YGC'
p11322
(lp11323
(lp11324
I2879
aS'16'
p11325
aS'238'
p11326
aa(lp11327
I2939
aS'91'
p11328
aS'127'
p11329
aasS'1RTK'
p11330
(lp11331
(lp11332
I2829
aS'245'
p11333
aS'442'
p11334
aa(lp11335
I2879
aS'458'
p11336
aS'717'
p11337
aasS'2UWP'
p11338
(lp11339
(lp11340
I2879
aS'16'
p11341
aS'238'
p11342
aa(lp11343
I2939
aS'1'
aS'36'
p11344
aasS'2UWO'
p11345
(lp11346
(lp11347
I2879
aS'16'
p11348
aS'238'
p11349
aa(lp11350
I2939
aS'1'
aS'36'
p11351
aasS'2UWL'
p11352
(lp11353
(lp11354
I2879
aS'16'
p11355
aS'238'
p11356
aa(lp11357
I2939
aS'1'
aS'36'
p11358
aasS'4D8N'
p11359
(lp11360
(lp11361
I2879
aS'17'
p11362
aS'238'
p11363
aasS'1S6F'
p11364
(lp11365
(lp11366
I2879
aS'16'
p11367
aS'238'
p11368
aasS'4YT7'
p11369
(lp11370
(lp11371
I2879
aS'16'
p11372
aS'238'
p11373
aa(lp11374
I2939
aS'91'
p11375
aS'127'
p11376
aasS'4YT6'
p11377
(lp11378
(lp11379
I2879
aS'16'
p11380
aS'238'
p11381
aa(lp11382
I2939
aS'91'
p11383
aS'127'
p11384
aasS'3UNR'
p11385
(lp11386
(lp11387
I2879
aS'16'
p11388
aS'238'
p11389
aasS'3UNS'
p11390
(lp11391
(lp11392
I2879
aS'16'
p11393
aS'238'
p11394
aasS'3UNQ'
p11395
(lp11396
(lp11397
I2879
aS'16'
p11398
aS'238'
p11399
aasS'1S6H'
p11400
(lp11401
(lp11402
I2879
aS'16'
p11403
aS'238'
p11404
aasS'4OS2'
p11405
(lp11406
(lp11407
I2879
aS'16'
p11408
aS'238'
p11409
aasS'4J2Y'
p11410
(lp11411
(lp11412
I2879
aS'16'
p11413
aS'238'
p11414
aa(lp11415
I4686
aS'4'
aS'171'
p11416
aasS'4OS1'
p11417
(lp11418
(lp11419
I2879
aS'16'
p11420
aS'238'
p11421
aasS'4OS6'
p11422
(lp11423
(lp11424
I2879
aS'16'
p11425
aS'238'
p11426
aasS'4OS7'
p11427
(lp11428
(lp11429
I2879
aS'16'
p11430
aS'238'
p11431
aasS'4OS4'
p11432
(lp11433
(lp11434
I2879
aS'16'
p11435
aS'238'
p11436
aasS'4OS5'
p11437
(lp11438
(lp11439
I2879
aS'16'
p11440
aS'238'
p11441
aasS'3ATI'
p11442
(lp11443
(lp11444
I2879
aS'19'
p11445
aS'234'
p11446
aasS'3ATK'
p11447
(lp11448
(lp11449
I2879
aS'19'
p11450
aS'234'
p11451
aasS'3ATL'
p11452
(lp11453
(lp11454
I2879
aS'19'
p11455
aS'234'
p11456
aasS'3ATM'
p11457
(lp11458
(lp11459
I2879
aS'19'
p11460
aS'234'
p11461
aasS'4NZE'
p11462
(lp11463
(lp11464
I2879
aS'16'
p11465
aS'238'
p11466
aa(lp11467
I4359
aS'1B'
p11468
aS'14J'
p11469
aasS'4Y0Y'
p11470
(lp11471
(lp11472
I2879
aS'16'
p11473
aS'236'
p11474
aa(lp11475
I5507
aS'4'
aS'55'
p11476
aasS'1EST'
p11477
(lp11478
(lp11479
I2879
aS'16'
p11480
aS'238'
p11481
aasS'3E1X'
p11482
(lp11483
(lp11484
I2879
aS'16'
p11485
aS'238'
p11486
aasS'1ESB'
p11487
(lp11488
(lp11489
I2879
aS'16'
p11490
aS'248'
p11491
aasS'1ESA'
p11492
(lp11493
(lp11494
I2879
aS'16'
p11495
aS'248'
p11496
aasS'2WUB'
p11497
(lp11498
(lp11499
I1690
aS'126'
p11500
aS'206'
p11501
aa(lp11502
I1690
aS'120'
p11503
aS'205'
p11504
aa(lp11505
I2388
aS'12'
p11506
aS'111'
p11507
aa(lp11508
I2388
aS'6'
aS'106'
p11509
aa(lp11510
I2879
aS'16'
p11511
aS'238'
p11512
aasS'2WUC'
p11513
(lp11514
(lp11515
I1690
aS'126'
p11516
aS'206'
p11517
aa(lp11518
I1690
aS'120'
p11519
aS'205'
p11520
aa(lp11521
I2388
aS'12'
p11522
aS'111'
p11523
aa(lp11524
I2388
aS'6'
aS'106'
p11525
aa(lp11526
I2879
aS'16'
p11527
aS'238'
p11528
aasS'1J9C'
p11529
(lp11530
(lp11531
I1362
aS'3'
aS'83'
p11532
aa(lp11533
I2879
aS'16'
p11534
aS'238'
p11535
aa(lp11536
I2939
aS'91'
p11537
aS'127'
p11538
aa(lp11539
I3392
aS'50'
p11540
aS'79'
p11541
aa(lp11542
I6386
aS'106'
p11543
aS'210'
p11544
aasS'3E16'
p11545
(lp11546
(lp11547
I2879
aS'16'
p11548
aS'238'
p11549
aasS'3A7Y'
p11550
(lp11551
(lp11552
I2879
aS'19'
p11553
aS'234'
p11554
aasS'3A7X'
p11555
(lp11556
(lp11557
I2879
aS'19'
p11558
aS'234'
p11559
aasS'3A7Z'
p11560
(lp11561
(lp11562
I2879
aS'19'
p11563
aS'234'
p11564
aasS'1UO6'
p11565
(lp11566
(lp11567
I2879
aS'1'
aS'233'
p11568
aasS'3EDX'
p11569
(lp11570
(lp11571
I2879
aS'16'
p11572
aS'238'
p11573
aa(lp11574
I4359
aS'1P'
p11575
aS'14L'
p11576
aasS'3A7T'
p11577
(lp11578
(lp11579
I2879
aS'19'
p11580
aS'234'
p11581
aasS'3A7W'
p11582
(lp11583
(lp11584
I2879
aS'19'
p11585
aS'234'
p11586
aasS'3A7V'
p11587
(lp11588
(lp11589
I2879
aS'19'
p11590
aS'234'
p11591
aasS'3HPT'
p11592
(lp11593
(lp11594
I2879
aS'16'
p11595
aS'238'
p11596
aa(lp11597
I2939
aS'129'
p11598
aS'164'
p11599
aa(lp11600
I3392
aS'90'
p11601
aS'120'
p11602
aasS'3TH3'
p11603
(lp11604
(lp11605
I1362
aS'7'
aS'82'
p11606
aa(lp11607
I2879
aS'16'
p11608
aS'238'
p11609
aa(lp11610
I2939
aS'91'
p11611
aS'127'
p11612
aa(lp11613
I3392
aS'50'
p11614
aS'79'
p11615
aa(lp11616
I6386
aS'106'
p11617
aS'209'
p11618
aasS'3TH2'
p11619
(lp11620
(lp11621
I1362
aS'7'
aS'82'
p11622
aa(lp11623
I2879
aS'16'
p11624
aS'238'
p11625
aa(lp11626
I2939
aS'91'
p11627
aS'127'
p11628
aa(lp11629
I3392
aS'50'
p11630
aS'79'
p11631
aa(lp11632
I6386
aS'106'
p11633
aS'210'
p11634
aa(lp11635
I6715
aS'5'
aS'44'
p11636
aasS'3TH4'
p11637
(lp11638
(lp11639
I1362
aS'7'
aS'82'
p11640
aa(lp11641
I2879
aS'16'
p11642
aS'238'
p11643
aa(lp11644
I2939
aS'91'
p11645
aS'127'
p11646
aa(lp11647
I3392
aS'50'
p11648
aS'79'
p11649
aa(lp11650
I6386
aS'106'
p11651
aS'210'
p11652
aa(lp11653
I6715
aS'5'
aS'44'
p11654
aasS'4NCY'
p11655
(lp11656
(lp11657
I2879
aS'1'
aS'216'
p11658
aasS'1EAI'
p11659
(lp11660
(lp11661
I2879
aS'16'
p11662
aS'238'
p11663
aa(lp11664
I3608
aS'5'
aS'60'
p11665
aasS'1ZGV'
p11666
(lp11667
(lp11668
I2879
aS'16'
p11669
aS'238'
p11670
aa(lp11671
I4359
aS'1A'
p11672
aS'14K'
p11673
aasS'1EAX'
p11674
(lp11675
(lp11676
I2879
aS'16'
p11677
aS'238'
p11678
aasS'1EAU'
p11679
(lp11680
(lp11681
I2879
aS'16'
p11682
aS'238'
p11683
aasS'1EAT'
p11684
(lp11685
(lp11686
I2879
aS'16'
p11687
aS'238'
p11688
aasS'1GPZ'
p11689
(lp11690
(lp11691
I2879
aS'447'
p11692
aS'680'
p11693
aa(lp11694
I4067
aS'292'
p11695
aS'354'
p11696
aa(lp11697
I4067
aS'359'
p11698
aS'430'
p11699
aasS'1LDT'
p11700
(lp11701
(lp11702
I1504
aS'5I'
p11703
aS'30I'
p11704
aa(lp11705
I2879
aS'16'
p11706
aS'238'
p11707
aasS'1EAS'
p11708
(lp11709
(lp11710
I2879
aS'16'
p11711
aS'238'
p11712
aasS'2PSX'
p11713
(lp11714
(lp11715
I2879
aS'16'
p11716
aS'238'
p11717
aasS'2FZZ'
p11718
(lp11719
(lp11720
I2879
aS'16'
p11721
aS'238'
p11722
aa(lp11723
I2879
aS'16'
p11724
aS'238'
p11725
aa(lp11726
I2939
aS'89'
p11727
aS'124'
p11728
aa(lp11729
I2939
aS'89'
p11730
aS'124'
p11731
aasS'1CHO'
p11732
(lp11733
(lp11734
I1504
aS'8'
aS'56'
p11735
aa(lp11736
I2879
aS'16'
p11737
aS'145'
p11738
aa(lp11739
I2879
aS'151'
p11740
aS'238'
p11741
aasS'1YLC'
p11742
(lp11743
(lp11744
I2879
aS'16'
p11745
aS'238'
p11746
aa(lp11747
I5507
aS'7'
aS'50'
p11748
aasS'1CHG'
p11749
(lp11750
(lp11751
I2879
aS'16'
p11752
aS'238'
p11753
aasS'8KME'
p11754
(lp11755
(lp11756
I2879
aS'16'
p11757
aS'238'
p11758
aa(lp11759
I4359
aS'1B'
p11760
aS'14J'
p11761
aasS'3QTO'
p11762
(lp11763
(lp11764
I2879
aS'16'
p11765
aS'238'
p11766
aa(lp11767
I4359
aS'1C'
p11768
aS'14K'
p11769
aasS'3QTV'
p11770
(lp11771
(lp11772
I2879
aS'16'
p11773
aS'238'
p11774
aa(lp11775
I4359
aS'1C'
p11776
aS'14K'
p11777
aasS'4LK4'
p11778
(lp11779
(lp11780
I2879
aS'33'
p11781
aS'263'
p11782
aasS'3MNB'
p11783
(lp11784
(lp11785
I2879
aS'16'
p11786
aS'238'
p11787
aasS'4MQA'
p11788
(lp11789
(lp11790
I2879
aS'31'
p11791
aS'267'
p11792
aasS'2XTT'
p11793
(lp11794
(lp11795
I2879
aS'16'
p11796
aS'238'
p11797
aa(lp11798
I7286
aS'3'
aS'35'
p11799
aasS'1F2S'
p11800
(lp11801
(lp11802
I2879
aS'16'
p11803
aS'238'
p11804
aa(lp11805
I3295
aS'301'
p11806
aS'328'
p11807
aasS'2O9Q'
p11808
(lp11809
(lp11810
I2879
aS'19'
p11811
aS'234'
p11812
aa(lp11813
I7451
aS'3'
aS'15'
p11814
aasS'1HFD'
p11815
(lp11816
(lp11817
I2879
aS'16'
p11818
aS'238'
p11819
aasS'1TA2'
p11820
(lp11821
(lp11822
I2879
aS'16'
p11823
aS'238'
p11824
aa(lp11825
I4359
aS'1A'
p11826
aS'14K'
p11827
aasS'1TA6'
p11828
(lp11829
(lp11830
I2879
aS'16'
p11831
aS'238'
p11832
aa(lp11833
I4359
aS'1A'
p11834
aS'14K'
p11835
aasS'1A7S'
p11836
(lp11837
(lp11838
I2879
aS'1'
aS'213'
p11839
aasS'1FNI'
p11840
(lp11841
(lp11842
I2879
aS'16'
p11843
aS'238'
p11844
aasS'1Z8I'
p11845
(lp11846
(lp11847
I2879
aS'16'
p11848
aS'238'
p11849
aa(lp11850
I4359
aS'1L'
p11851
aS'14L'
p11852
aasS'1S0R'
p11853
(lp11854
(lp11855
I2879
aS'1'
aS'216'
p11856
aasS'2ZI2'
p11857
(lp11858
(lp11859
I2879
aS'16'
p11860
aS'238'
p11861
aa(lp11862
I4359
aS'1B'
p11863
aS'14K'
p11864
aasS'1Z8G'
p11865
(lp11866
(lp11867
I2879
aS'163'
p11868
aS'400'
p11869
aa(lp11870
I5609
aS'50'
p11871
aS'159'
p11872
aasS'3EE0'
p11873
(lp11874
(lp11875
I2879
aS'16'
p11876
aS'238'
p11877
aa(lp11878
I4359
aS'1C'
p11879
aS'14M'
p11880
aasS'2ODY'
p11881
(lp11882
(lp11883
I2879
aS'16'
p11884
aS'238'
p11885
aa(lp11886
I4359
aS'1P'
p11887
aS'15'
p11888
aa(lp11889
I5507
aS'20'
p11890
aS'71'
p11891
aa(lp11892
I5507
aS'89'
p11893
aS'140'
p11894
aasS'3KQC'
p11895
(lp11896
(lp11897
I2879
aS'16'
p11898
aS'238'
p11899
aa(lp11900
I2939
aS'89'
p11901
aS'124'
p11902
aasS'3KQB'
p11903
(lp11904
(lp11905
I2879
aS'16'
p11906
aS'238'
p11907
aa(lp11908
I2939
aS'89'
p11909
aS'124'
p11910
aasS'3KQE'
p11911
(lp11912
(lp11913
I2879
aS'16'
p11914
aS'238'
p11915
aa(lp11916
I2939
aS'89'
p11917
aS'124'
p11918
aasS'3KQD'
p11919
(lp11920
(lp11921
I2879
aS'16'
p11922
aS'238'
p11923
aa(lp11924
I2939
aS'89'
p11925
aS'124'
p11926
aasS'2ODQ'
p11927
(lp11928
(lp11929
I2829
aS'234'
p11930
aS'430'
p11931
aa(lp11932
I2879
aS'453'
p11933
aS'683'
p11934
aasS'2ODP'
p11935
(lp11936
(lp11937
I2829
aS'234'
p11938
aS'430'
p11939
aa(lp11940
I2879
aS'453'
p11941
aS'683'
p11942
aasS'3PM3'
p11943
(lp11944
(lp11945
I2879
aS'16'
p11946
aS'238'
p11947
aasS'2AEI'
p11948
(lp11949
(lp11950
I1362
aS'5'
aS'81'
p11951
aa(lp11952
I2879
aS'16'
p11953
aS'238'
p11954
aa(lp11955
I2939
aS'91'
p11956
aS'127'
p11957
aa(lp11958
I3392
aS'50'
p11959
aS'79'
p11960
aa(lp11961
I6386
aS'106'
p11962
aS'210'
p11963
aa(lp11964
I6715
aS'5'
aS'44'
p11965
aasS'3ODF'
p11966
(lp11967
(lp11968
I2879
aS'16'
p11969
aS'238'
p11970
aasS'3ODD'
p11971
(lp11972
(lp11973
I2879
aS'16'
p11974
aS'238'
p11975
aasS'2OD3'
p11976
(lp11977
(lp11978
I2879
aS'16'
p11979
aS'238'
p11980
aa(lp11981
I4359
aS'1B'
p11982
aS'14L'
p11983
aasS'3KCG'
p11984
(lp11985
(lp11986
I2879
aS'16'
p11987
aS'238'
p11988
aa(lp11989
I2939
aS'88'
p11990
aS'124'
p11991
aa(lp11992
I6874
aS'54'
p11993
aS'429'
p11994
aasS'1NFW'
p11995
(lp11996
(lp11997
I2879
aS'16'
p11998
aS'238'
p11999
aa(lp12000
I2939
aS'1'
aS'36'
p12001
aasS'1V2R'
p12002
(lp12003
(lp12004
I2879
aS'16'
p12005
aS'238'
p12006
aasS'1NFU'
p12007
(lp12008
(lp12009
I2879
aS'16'
p12010
aS'238'
p12011
aa(lp12012
I2939
aS'1'
aS'36'
p12013
aasS'1V2P'
p12014
(lp12015
(lp12016
I2879
aS'16'
p12017
aS'238'
p12018
aasS'1V2W'
p12019
(lp12020
(lp12021
I2879
aS'16'
p12022
aS'238'
p12023
aasS'1SSX'
p12024
(lp12025
(lp12026
I2879
aS'52'
p12027
aS'222'
p12028
aasS'1V2U'
p12029
(lp12030
(lp12031
I2879
aS'16'
p12032
aS'238'
p12033
aasS'1V2T'
p12034
(lp12035
(lp12036
I2879
aS'16'
p12037
aS'238'
p12038
aasS'1ARB'
p12039
(lp12040
(lp12041
I2879
aS'28'
p12042
aS'221'
p12043
aasS'1ARC'
p12044
(lp12045
(lp12046
I2879
aS'28'
p12047
aS'221'
p12048
aasS'1NFY'
p12049
(lp12050
(lp12051
I2879
aS'16'
p12052
aS'238'
p12053
aa(lp12054
I2939
aS'1'
aS'36'
p12055
aasS'1FN8'
p12056
(lp12057
(lp12058
I2879
aS'16'
p12059
aS'238'
p12060
aasS'1TAL'
p12061
(lp12062
(lp12063
I2879
aS'52'
p12064
aS'222'
p12065
aasS'1V2K'
p12066
(lp12067
(lp12068
I2879
aS'16'
p12069
aS'238'
p12070
aasS'1V2J'
p12071
(lp12072
(lp12073
I2879
aS'16'
p12074
aS'238'
p12075
aasS'1TAB'
p12076
(lp12077
(lp12078
I2879
aS'16'
p12079
aS'238'
p12080
aa(lp12081
I2971
aS'18'
p12082
aS'38'
p12083
aasS'1LVY'
p12084
(lp12085
(lp12086
I2879
aS'16'
p12087
aS'238'
p12088
aasS'1V2N'
p12089
(lp12090
(lp12091
I2879
aS'16'
p12092
aS'238'
p12093
aasS'1V2M'
p12094
(lp12095
(lp12096
I2879
aS'16'
p12097
aS'238'
p12098
aasS'1V2L'
p12099
(lp12100
(lp12101
I2879
aS'16'
p12102
aS'238'
p12103
aasS'4D9R'
p12104
(lp12105
(lp12106
I1690
aS'120'
p12107
aS'205'
p12108
aa(lp12109
I1690
aS'134'
p12110
aS'214'
p12111
aa(lp12112
I2388
aS'6'
aS'106'
p12113
aa(lp12114
I2388
aS'7'
aS'119'
p12115
aa(lp12116
I2879
aS'16'
p12117
aS'238'
p12118
aasS'4D9Q'
p12119
(lp12120
(lp12121
I1690
aS'120'
p12122
aS'205'
p12123
aa(lp12124
I1690
aS'134'
p12125
aS'214'
p12126
aa(lp12127
I2388
aS'6'
aS'106'
p12128
aa(lp12129
I2388
aS'7'
aS'119'
p12130
aa(lp12131
I2879
aS'16'
p12132
aS'238'
p12133
aasS'1L2E'
p12134
(lp12135
(lp12136
I2879
aS'17'
p12137
aS'238'
p12138
aasS'3NXP'
p12139
(lp12140
(lp12141
I2879
aS'416'
p12142
aS'638'
p12143
aa(lp12144
I4359
aS'274'
p12145
aS'320'
p12146
aa(lp12147
I5155
aS'170'
p12148
aS'248'
p12149
aasS'4UE7'
p12150
(lp12151
(lp12152
I2879
aS'16'
p12153
aS'265'
p12154
aa(lp12155
I4359
aS'1C'
p12156
aS'28C'
p12157
aasS'3R3G'
p12158
(lp12159
(lp12160
I2879
aS'16'
p12161
aS'238'
p12162
aa(lp12163
I4359
aS'1C'
p12164
aS'14L'
p12165
aasS'1NT1'
p12166
(lp12167
(lp12168
I2879
aS'16'
p12169
aS'238'
p12170
aa(lp12171
I4359
aS'1'
aS'14K'
p12172
aasS'4UEH'
p12173
(lp12174
(lp12175
I2879
aS'16'
p12176
aS'265'
p12177
aa(lp12178
I4359
aS'1B'
p12179
aS'29B'
p12180
aasS'1HXF'
p12181
(lp12182
(lp12183
I2879
aS'16'
p12184
aS'238'
p12185
aa(lp12186
I4359
aS'1A'
p12187
aS'14K'
p12188
aasS'1HXE'
p12189
(lp12190
(lp12191
I2879
aS'16'
p12192
aS'238'
p12193
aa(lp12194
I4359
aS'1A'
p12195
aS'14K'
p12196
aasS'3K2U'
p12197
(lp12198
(lp12199
I1690
aS'126'
p12200
aS'206'
p12201
aa(lp12202
I1690
aS'120'
p12203
aS'205'
p12204
aa(lp12205
I2388
aS'12'
p12206
aS'111'
p12207
aa(lp12208
I2388
aS'6'
aS'106'
p12209
aa(lp12210
I2879
aS'16'
p12211
aS'238'
p12212
aasS'1TMB'
p12213
(lp12214
(lp12215
I2879
aS'16'
p12216
aS'238'
p12217
aa(lp12218
I4359
aS'1D'
p12219
aS'14K'
p12220
aasS'1SGI'
p12221
(lp12222
(lp12223
I2879
aS'16'
p12224
aS'238'
p12225
aa(lp12226
I4359
aS'1D'
p12227
aS'15'
p12228
aasS'2PLX'
p12229
(lp12230
(lp12231
I2879
aS'16'
p12232
aS'238'
p12233
aasS'5AFY'
p12234
(lp12235
(lp12236
I2879
aS'16'
p12237
aS'265'
p12238
aa(lp12239
I4359
aS'1C'
p12240
aS'29C'
p12241
aasS'5AFZ'
p12242
(lp12243
(lp12244
I2879
aS'16'
p12245
aS'265'
p12246
aa(lp12247
I4359
aS'1C'
p12248
aS'29C'
p12249
aasS'1J8A'
p12250
(lp12251
(lp12252
I2879
aS'16'
p12253
aS'238'
p12254
aasS'2OXS'
p12255
(lp12256
(lp12257
I2879
aS'16'
p12258
aS'238'
p12259
aasS'2G8T'
p12260
(lp12261
(lp12262
I2879
aS'7'
aS'222'
p12263
aasS'1YLD'
p12264
(lp12265
(lp12266
I2879
aS'16'
p12267
aS'238'
p12268
aa(lp12269
I5507
aS'7'
aS'50'
p12270
aasS'3VGC'
p12271
(lp12272
(lp12273
I2879
aS'16'
p12274
aS'145'
p12275
aa(lp12276
I2879
aS'151'
p12277
aS'238'
p12278
aasS'3HAT'
p12279
(lp12280
(lp12281
I2879
aS'16'
p12282
aS'238'
p12283
aa(lp12284
I4359
aS'1H'
p12285
aS'15'
p12286
aasS'3GCH'
p12287
(lp12288
(lp12289
I2879
aS'16'
p12290
aS'145'
p12291
aa(lp12292
I2879
aS'151'
p12293
aS'238'
p12294
aasS'2B5T'
p12295
(lp12296
(lp12297
I2879
aS'16'
p12298
aS'238'
p12299
aa(lp12300
I4359
aS'1S'
p12301
aS'15'
p12302
aa(lp12303
I6874
aS'54'
p12304
aS'429'
p12305
aasS'1RIW'
p12306
(lp12307
(lp12308
I2879
aS'37'
p12309
aS'181'
p12310
aa(lp12311
I2879
aS'186'
p12312
aS'280'
p12313
aa(lp12314
I4359
aS'7'
aS'33'
p12315
aasS'3UOU'
p12316
(lp12317
(lp12318
I2879
aS'27'
p12319
aS'259'
p12320
aa(lp12321
I5507
aS'2'
aS'54'
p12322
aasS'2G81'
p12323
(lp12324
(lp12325
I2879
aS'16'
p12326
aS'238'
p12327
aa(lp12328
I2971
aS'18'
p12329
aS'42'
p12330
aasS'3UOP'
p12331
(lp12332
(lp12333
I2879
aS'16'
p12334
aS'238'
p12335
aasS'3GCT'
p12336
(lp12337
(lp12338
I2879
aS'16'
p12339
aS'145'
p12340
aa(lp12341
I2879
aS'151'
p12342
aS'238'
p12343
aasS'2BY6'
p12344
(lp12345
(lp12346
I2879
aS'16'
p12347
aS'238'
p12348
aasS'1BRC'
p12349
(lp12350
(lp12351
I2879
aS'16'
p12352
aS'238'
p12353
aa(lp12354
I5507
aS'4'
aS'55'
p12355
aasS'1BRB'
p12356
(lp12357
(lp12358
I2879
aS'16'
p12359
aS'238'
p12360
aa(lp12361
I5507
aS'8'
aS'53'
p12362
aasS'1BRA'
p12363
(lp12364
(lp12365
I2879
aS'16'
p12366
aS'238'
p12367
aasS'5AF9'
p12368
(lp12369
(lp12370
I2879
aS'16'
p12371
aS'265'
p12372
aa(lp12373
I4359
aS'1C'
p12374
aS'29C'
p12375
aasS'1BRU'
p12376
(lp12377
(lp12378
I2879
aS'16'
p12379
aS'238'
p12380
aasS'4MLF'
p12381
(lp12382
(lp12383
I1247
aS'301'
p12384
aS'364'
p12385
aa(lp12386
I2879
aS'16'
p12387
aS'238'
p12388
aa(lp12389
I4359
aS'1E'
p12390
aS'14M'
p12391
aas.