(dp1
S'4E9R'
p2
(lp3
(lp4
I2580
aS'227'
p5
aS'292'
p6
aa(lp7
I3227
aS'55'
p8
aS'165'
p9
aa(lp10
I3228
aS'402'
p11
aS'516'
p12
aasS'4E9S'
p13
(lp14
(lp15
I2580
aS'227'
p16
aS'292'
p17
aa(lp18
I3227
aS'55'
p19
aS'165'
p20
aa(lp21
I3228
aS'402'
p22
aS'516'
p23
aasS'4E9Q'
p24
(lp25
(lp26
I2580
aS'227'
p27
aS'292'
p28
aa(lp29
I3227
aS'55'
p30
aS'165'
p31
aa(lp32
I3228
aS'402'
p33
aS'516'
p34
aasS'4E9V'
p35
(lp36
(lp37
I3227
aS'1010'
p38
aS'1128'
p39
aa(lp40
I3228
aS'1166'
p41
aS'1262'
p42
aasS'4E9W'
p43
(lp44
(lp45
I3227
aS'1010'
p46
aS'1128'
p47
aa(lp48
I3228
aS'1166'
p49
aS'1262'
p50
aasS'4E9T'
p51
(lp52
(lp53
I2580
aS'227'
p54
aS'292'
p55
aa(lp56
I3227
aS'55'
p57
aS'165'
p58
aa(lp59
I3228
aS'402'
p60
aS'516'
p61
aasS'3TN8'
p62
(lp63
(lp64
I252
aS'19'
p65
aS'315'
p66
aa(lp67
I6787
aS'12'
p68
aS'148'
p69
aasS'4OGR'
p70
(lp71
(lp72
I252
aS'19'
p73
aS'315'
p74
aa(lp75
I461
aS'2'
aS'49'
p76
aa(lp77
I1198
aS'4'
aS'69'
p78
aa(lp79
I6787
aS'12'
p80
aS'148'
p81
aasS'4E9X'
p82
(lp83
(lp84
I3227
aS'1010'
p85
aS'1128'
p86
aa(lp87
I3228
aS'1166'
p88
aS'1262'
p89
aasS'4TL3'
p90
(lp91
(lp92
I6013
aS'7'
aS'219'
p93
aasS'2HZH'
p94
(lp95
(lp96
I2580
aS'144'
p97
aS'284'
p98
aa(lp99
I3227
aS'11'
p100
aS'130'
p101
aa(lp102
I3228
aS'345'
p103
aS'470'
p104
aasS'1KME'
p105
(lp106
(lp107
I6013
aS'10'
p108
aS'230'
p109
aasS'2Z72'
p110
(lp111
(lp112
I1697
aS'72'
p113
aS'287'
p114
aasS'3K7W'
p115
(lp116
(lp117
I88
aS'283'
p118
aS'313'
p119
aa(lp120
I1697
aS'51'
p121
aS'242'
p122
aa(lp123
I4185
aS'173'
p124
aS'263'
p125
aa(lp126
I4185
aS'366'
p127
aS'467'
p128
aasS'3K7V'
p129
(lp130
(lp131
I88
aS'283'
p132
aS'313'
p133
aa(lp134
I1697
aS'51'
p135
aS'242'
p136
aa(lp137
I4185
aS'173'
p138
aS'263'
p139
aa(lp140
I4185
aS'366'
p141
aS'467'
p142
aasS'4GXF'
p143
(lp144
(lp145
I3227
aS'73'
p146
aS'182'
p147
aa(lp148
I3228
aS'199'
p149
aS'306'
p150
aasS'3CGA'
p151
(lp152
(lp153
I580
aS'5'
aS'46'
p154
aasS'3JYF'
p155
(lp156
(lp157
I1697
aS'9'
aS'244'
p158
aasS'4TUG'
p159
(lp160
(lp161
I1697
aS'3'
aS'189'
p162
aasS'3MBV'
p163
(lp164
(lp165
I6013
aS'10'
p166
aS'231'
p167
aasS'1NP8'
p168
(lp169
(lp170
I964
aS'28'
p171
aS'84'
p172
aasS'4TUI'
p173
(lp174
(lp175
I1697
aS'3'
aS'189'
p176
aasS'3DF0'
p177
(lp178
(lp179
I564
aS'356'
p180
aS'506'
p181
aa(lp182
I964
aS'545'
p183
aS'602'
p184
aa(lp185
I964
aS'114'
p186
aS'170'
p187
aa(lp188
I1177
aS'137'
p189
aS'194'
p190
aa(lp191
I6302
aS'46'
p192
aS'342'
p193
aasS'2XUW'
p194
(lp195
(lp196
I2580
aS'197'
p197
aS'285'
p198
aa(lp199
I3227
aS'52'
p200
aS'158'
p201
aa(lp202
I3228
aS'348'
p203
aS'461'
p204
aasS'2MW9'
p205
(lp206
(lp207
I4465
aS'433'
p208
aS'460'
p209
aasS'4OR5'
p210
(lp211
(lp212
I252
aS'19'
p213
aS'315'
p214
aa(lp215
I461
aS'2'
aS'48'
p216
aa(lp217
I1198
aS'32'
p218
aS'69'
p219
aa(lp220
I6787
aS'12'
p221
aS'148'
p222
aasS'3KBP'
p223
(lp224
(lp225
I1697
aS'129'
p226
aS'327'
p227
aa(lp228
I2715
aS'353'
p229
aS'411'
p230
aa(lp231
I5593
aS'27'
p232
aS'118'
p233
aasS'1XIO'
p234
(lp235
(lp236
I6013
aS'7'
aS'224'
p237
aasS'4OR9'
p238
(lp239
(lp240
I1697
aS'93'
p241
aS'293'
p242
aa(lp243
I2637
aS'23'
p244
aS'77'
p245
aa(lp246
I2637
aS'91'
p247
aS'154'
p248
aasS'1ALW'
p249
(lp250
(lp251
I959
aS'177'
p252
aS'192'
p253
aa(lp254
I964
aS'110'
p255
aS'166'
p256
aasS'1IG5'
p257
(lp258
(lp259
I580
aS'9'
aS'41'
p260
aa(lp261
I2631
aS'46'
p262
aS'72'
p263
aasS'2XU9'
p264
(lp265
(lp266
I2580
aS'197'
p267
aS'285'
p268
aa(lp269
I3227
aS'52'
p270
aS'158'
p271
aa(lp272
I3228
aS'348'
p273
aS'461'
p274
aasS'4E9Y'
p275
(lp276
(lp277
I3227
aS'1010'
p278
aS'1128'
p279
aa(lp280
I3228
aS'1166'
p281
aS'1262'
p282
aasS'4ORA'
p283
(lp284
(lp285
I1697
aS'93'
p286
aS'293'
p287
aa(lp288
I2637
aS'23'
p289
aS'77'
p290
aa(lp291
I2637
aS'91'
p292
aS'154'
p293
aasS'3T71'
p294
(lp295
(lp296
I2580
aS'144'
p297
aS'287'
p298
aa(lp299
I3227
aS'14'
p300
aS'131'
p301
aa(lp302
I3228
aS'349'
p303
aS'470'
p304
aasS'4ORC'
p305
(lp306
(lp307
I1697
aS'93'
p308
aS'293'
p309
aa(lp310
I2637
aS'23'
p311
aS'77'
p312
aa(lp313
I2637
aS'91'
p314
aS'154'
p315
aasS'4ORB'
p316
(lp317
(lp318
I1697
aS'84'
p319
aS'284'
p320
aa(lp321
I2637
aS'23'
p322
aS'77'
p323
aa(lp324
I2637
aS'91'
p325
aS'154'
p326
aasS'3AUZ'
p327
(lp328
(lp329
I1697
aS'3'
aS'189'
p330
aasS'3DOG'
p331
(lp332
(lp333
I252
aS'4'
aS'286'
p334
aa(lp335
I252
aS'4'
aS'286'
p336
aa(lp337
I2963
aS'309'
p338
aS'426'
p339
aa(lp340
I2963
aS'309'
p341
aS'426'
p342
aa(lp343
I6787
aS'181'
p344
aS'306'
p345
aa(lp346
I6787
aS'181'
p347
aS'306'
p348
aasS'4H2B'
p349
(lp350
(lp351
I1583
aS'339'
p352
aS'512'
p353
aa(lp354
I1697
aS'29'
p355
aS'244'
p356
aasS'2LTZ'
p357
(lp358
(lp359
I4465
aS'299'
p360
aS'328'
p361
aasS'4F7J'
p362
(lp363
(lp364
I165
aS'154'
p365
aS'239'
p366
aa(lp367
I252
aS'26'
p368
aS'335'
p369
aa(lp370
I6787
aS'46'
p371
aS'148'
p372
aasS'2LB2'
p373
(lp374
(lp375
I4465
aS'367'
p376
aS'396'
p377
aasS'2LTY'
p378
(lp379
(lp380
I4465
aS'367'
p381
aS'396'
p382
aasS'2MWB'
p383
(lp384
(lp385
I4465
aS'433'
p386
aS'460'
p387
aasS'2MWA'
p388
(lp389
(lp390
I4465
aS'433'
p391
aS'460'
p392
aasS'1SMG'
p393
(lp394
(lp395
I964
aS'34'
p396
aS'85'
p397
aasS'1PF3'
p398
(lp399
(lp400
I2580
aS'227'
p401
aS'292'
p402
aa(lp403
I3227
aS'55'
p404
aS'165'
p405
aa(lp406
I3228
aS'403'
p407
aS'516'
p408
aasS'2LTV'
p409
(lp410
(lp411
I4465
aS'232'
p412
aS'261'
p413
aasS'2LTW'
p414
(lp415
(lp416
I4465
aS'173'
p417
aS'202'
p418
aasS'2BHF'
p419
(lp420
(lp421
I2580
aS'240'
p422
aS'318'
p423
aa(lp424
I3227
aS'45'
p425
aS'81'
p426
aa(lp427
I3227
aS'101'
p428
aS'178'
p429
aa(lp430
I3228
aS'378'
p431
aS'509'
p432
aasS'2ZAJ'
p433
(lp434
(lp435
I4465
aS'14'
p436
aS'43'
p437
aasS'2CXJ'
p438
(lp439
(lp440
I580
aS'9'
aS'51'
p441
aasS'2M3G'
p442
(lp443
(lp444
I6013
aS'7'
aS'224'
p445
aasS'3CG8'
p446
(lp447
(lp448
I3227
aS'73'
p449
aS'182'
p450
aa(lp451
I3228
aS'199'
p452
aS'306'
p453
aasS'3TNW'
p454
(lp455
(lp456
I252
aS'4'
aS'286'
p457
aa(lp458
I2963
aS'309'
p459
aS'426'
p460
aa(lp461
I6787
aS'181'
p462
aS'306'
p463
aasS'3H67'
p464
(lp465
(lp466
I264
aS'176'
p467
aS'228'
p468
aa(lp469
I1697
aS'236'
p470
aS'428'
p471
aasS'2WND'
p472
(lp473
(lp474
I580
aS'6'
aS'43'
p475
aasS'2M3O'
p476
(lp477
(lp478
I4465
aS'423'
p479
aS'452'
p480
aasS'3T45'
p481
(lp482
(lp483
I6013
aS'10'
p484
aS'230'
p485
aasS'3V9E'
p486
(lp487
(lp488
I2580
aS'161'
p489
aS'314'
p490
aa(lp491
I3227
aS'37'
p492
aS'151'
p493
aa(lp494
I3228
aS'378'
p495
aS'507'
p496
aasS'1YUU'
p497
(lp498
(lp499
I580
aS'9'
aS'51'
p500
aasS'1YUT'
p501
(lp502
(lp503
I580
aS'9'
aS'51'
p504
aasS'2M3W'
p505
(lp506
(lp507
I580
aS'4'
aS'45'
p508
aa(lp509
I2631
aS'54'
p510
aS'80'
p511
aasS'3TNI'
p512
(lp513
(lp514
I252
aS'19'
p515
aS'315'
p516
aa(lp517
I6787
aS'12'
p518
aS'148'
p519
aasS'3TNH'
p520
(lp521
(lp522
I252
aS'19'
p523
aS'315'
p524
aa(lp525
I6787
aS'12'
p526
aS'148'
p527
aasS'2BQ8'
p528
(lp529
(lp530
I1697
aS'5'
aS'222'
p531
aasS'4AKP'
p532
(lp533
(lp534
I2580
aS'240'
p535
aS'318'
p536
aa(lp537
I3227
aS'45'
p538
aS'81'
p539
aa(lp540
I3227
aS'101'
p541
aS'178'
p542
aa(lp543
I3228
aS'378'
p544
aS'509'
p545
aasS'4KBP'
p546
(lp547
(lp548
I1697
aS'129'
p549
aS'327'
p550
aa(lp551
I2715
aS'353'
p552
aS'411'
p553
aa(lp554
I5593
aS'27'
p555
aS'118'
p556
aasS'1OF0'
p557
(lp558
(lp559
I2580
aS'240'
p560
aS'318'
p561
aa(lp562
I3227
aS'45'
p563
aS'81'
p564
aa(lp565
I3227
aS'101'
p566
aS'178'
p567
aa(lp568
I3228
aS'378'
p569
aS'509'
p570
aasS'2WXV'
p571
(lp572
(lp573
I252
aS'4'
aS'286'
p574
aa(lp575
I2963
aS'309'
p576
aS'426'
p577
aa(lp578
I6787
aS'181'
p579
aS'306'
p580
aasS'2EUF'
p581
(lp582
(lp583
I252
aS'13'
p584
aS'300'
p585
aa(lp586
I6787
aS'32'
p587
aS'147'
p588
aa(lp589
I7043
aS'149'
p590
aS'254'
p591
aasS'3QG5'
p592
(lp593
(lp594
I1197
aS'733'
p595
aS'816'
p596
aa(lp597
I1697
aS'7'
aS'219'
p598
aa(lp599
I5251
aS'5'
aS'694'
p600
aasS'1J55'
p601
(lp602
(lp603
I580
aS'4'
aS'45'
p604
aasS'2DK1'
p605
(lp606
(lp607
I4465
aS'9'
aS'34'
p608
aasS'2I53'
p609
(lp610
(lp611
I2963
aS'160'
p612
aS'229'
p613
aa(lp614
I6787
aS'35'
p615
aS'155'
p616
aasS'4PE7'
p617
(lp618
(lp619
I580
aS'3'
aS'45'
p620
aa(lp621
I2631
aS'53'
p622
aS'79'
p623
aasS'3WH0'
p624
(lp625
(lp626
I1109
aS'59'
p627
aS'162'
p628
aa(lp629
I4465
aS'7'
aS'37'
p630
aasS'4PE4'
p631
(lp632
(lp633
I580
aS'3'
aS'45'
p634
aa(lp635
I2631
aS'53'
p636
aS'79'
p637
aasS'4PE1'
p638
(lp639
(lp640
I580
aS'3'
aS'45'
p641
aa(lp642
I2631
aS'53'
p643
aS'79'
p644
aasS'4PE0'
p645
(lp646
(lp647
I580
aS'3'
aS'45'
p648
aa(lp649
I2631
aS'53'
p650
aS'79'
p651
aasS'3QBI'
p652
(lp653
(lp654
I6013
aS'36'
p655
aS'272'
p656
aasS'1BU2'
p657
(lp658
(lp659
I6787
aS'31'
p660
aS'147'
p661
aa(lp662
I7043
aS'149'
p663
aS'250'
p664
aasS'4AKO'
p665
(lp666
(lp667
I2580
aS'240'
p668
aS'318'
p669
aa(lp670
I3227
aS'45'
p671
aS'81'
p672
aa(lp673
I3227
aS'101'
p674
aS'178'
p675
aa(lp676
I3228
aS'378'
p677
aS'509'
p678
aasS'4DT2'
p679
(lp680
(lp681
I1697
aS'129'
p682
aS'327'
p683
aa(lp684
I2715
aS'353'
p685
aS'411'
p686
aa(lp687
I5593
aS'27'
p688
aS'118'
p689
aasS'1QHJ'
p690
(lp691
(lp692
I6013
aS'10'
p693
aS'232'
p694
aasS'4EC9'
p695
(lp696
(lp697
I252
aS'19'
p698
aS'315'
p699
aa(lp700
I6787
aS'12'
p701
aS'148'
p702
aasS'4MOV'
p703
(lp704
(lp705
I1697
aS'60'
p706
aS'249'
p707
aa(lp708
I4386
aS'9'
aS'56'
p709
aasS'1WAR'
p710
(lp711
(lp712
I1697
aS'5'
aS'222'
p713
aasS'4FX3'
p714
(lp715
(lp716
I252
aS'4'
aS'286'
p717
aa(lp718
I2963
aS'309'
p719
aS'426'
p720
aa(lp721
I6787
aS'181'
p722
aS'306'
p723
aasS'2I21'
p724
(lp725
(lp726
I6013
aS'10'
p727
aS'231'
p728
aasS'1QHW'
p729
(lp730
(lp731
I1697
aS'28'
p732
aS'245'
p733
aasS'1ASQ'
p734
(lp735
(lp736
I2580
aS'138'
p737
aS'299'
p738
aa(lp739
I3227
aS'10'
p740
aS'125'
p741
aa(lp742
I3228
aS'408'
p743
aS'525'
p744
aasS'2BCB'
p745
(lp746
(lp747
I580
aS'9'
aS'41'
p748
aa(lp749
I2631
aS'46'
p750
aS'72'
p751
aasS'2BCD'
p752
(lp753
(lp754
I1697
aS'60'
p755
aS'249'
p756
aa(lp757
I4386
aS'9'
aS'56'
p758
aasS'2N4U'
p759
(lp760
(lp761
I4465
aS'433'
p762
aS'460'
p763
aasS'1ZFS'
p764
(lp765
(lp766
I580
aS'4'
aS'45'
p767
aa(lp768
I2631
aS'54'
p769
aS'80'
p770
aasS'2C5X'
p771
(lp772
(lp773
I252
aS'4'
aS'286'
p774
aa(lp775
I2963
aS'309'
p776
aS'426'
p777
aa(lp778
I6787
aS'181'
p779
aS'306'
p780
aasS'1M0M'
p781
(lp782
(lp783
I6013
aS'10'
p784
aS'231'
p785
aasS'2C5V'
p786
(lp787
(lp788
I252
aS'4'
aS'286'
p789
aa(lp790
I2963
aS'309'
p791
aS'426'
p792
aa(lp793
I6787
aS'181'
p794
aS'306'
p795
aasS'3MI9'
p796
(lp797
(lp798
I252
aS'19'
p799
aS'315'
p800
aa(lp801
I461
aS'2'
aS'49'
p802
aa(lp803
I6787
aS'12'
p804
aS'148'
p805
aasS'1GQM'
p806
(lp807
(lp808
I580
aS'3'
aS'45'
p809
aasS'1F8A'
p810
(lp811
(lp812
I1109
aS'63'
p813
aS'166'
p814
aa(lp815
I4465
aS'11'
p816
aS'41'
p817
aasS'2C5N'
p818
(lp819
(lp820
I252
aS'4'
aS'286'
p821
aa(lp822
I2963
aS'309'
p823
aS'426'
p824
aa(lp825
I6787
aS'181'
p826
aS'306'
p827
aasS'2UUE'
p828
(lp829
(lp830
I252
aS'4'
aS'286'
p831
aa(lp832
I2963
aS'309'
p833
aS'426'
p834
aa(lp835
I6787
aS'181'
p836
aS'306'
p837
aasS'4J6O'
p838
(lp839
(lp840
I1697
aS'181'
p841
aS'380'
p842
aasS'1OMV'
p843
(lp844
(lp845
I964
aS'40'
p846
aS'84'
p847
aa(lp848
I2637
aS'102'
p849
aS'174'
p850
aasS'1USH'
p851
(lp852
(lp853
I1583
aS'363'
p854
aS'509'
p855
aa(lp856
I1697
aS'35'
p857
aS'254'
p858
aasS'1OMR'
p859
(lp860
(lp861
I964
aS'40'
p862
aS'87'
p863
aa(lp864
I2637
aS'102'
p865
aS'174'
p866
aasS'3OLM'
p867
(lp868
(lp869
I2656
aS'6'
aS'74'
p870
aa(lp871
I4465
aS'389'
p872
aS'418'
p873
aa(lp874
I7366
aS'506'
p875
aS'804'
p876
aasS'1KV7'
p877
(lp878
(lp879
I2580
aS'227'
p880
aS'292'
p881
aa(lp882
I3227
aS'55'
p883
aS'165'
p884
aa(lp885
I3228
aS'403'
p886
aS'516'
p887
aasS'1ZCN'
p888
(lp889
(lp890
I1109
aS'59'
p891
aS'162'
p892
aa(lp893
I4465
aS'7'
aS'37'
p894
aasS'2L0P'
p895
(lp896
(lp897
I580
aS'4'
aS'45'
p898
aa(lp899
I2631
aS'54'
p900
aS'80'
p901
aasS'4H2F'
p902
(lp903
(lp904
I1583
aS'339'
p905
aS'512'
p906
aa(lp907
I1697
aS'29'
p908
aS'244'
p909
aasS'2ZZL'
p910
(lp911
(lp912
I6013
aS'10'
p913
aS'232'
p914
aasS'4KKZ'
p915
(lp916
(lp917
I1697
aS'129'
p918
aS'327'
p919
aa(lp920
I2715
aS'353'
p921
aS'411'
p922
aa(lp923
I5593
aS'27'
p924
aS'118'
p925
aasS'1MVW'
p926
(lp927
(lp928
I964
aS'39'
p929
aS'70'
p930
aa(lp931
I1461
aS'89'
p932
aS'768'
p933
aa(lp934
I2051
aS'3'
aS'372'
p935
aa(lp936
I5670
aS'35'
p937
aS'74'
p938
aasS'3T1I'
p939
(lp940
(lp941
I969
aS'295'
p942
aS'400'
p943
aa(lp944
I1697
aS'13'
p945
aS'248'
p946
aasS'5CYI'
p947
(lp948
(lp949
I252
aS'4'
aS'286'
p950
aa(lp951
I2963
aS'309'
p952
aS'426'
p953
aa(lp954
I6787
aS'181'
p955
aS'306'
p956
aasS'2WEV'
p957
(lp958
(lp959
I252
aS'4'
aS'286'
p960
aa(lp961
I2963
aS'309'
p962
aS'426'
p963
aa(lp964
I6787
aS'181'
p965
aS'306'
p966
aasS'1YTZ'
p967
(lp968
(lp969
I964
aS'33'
p970
aS'84'
p971
aa(lp972
I1916
aS'165'
p973
aS'203'
p974
aa(lp975
I1916
aS'14'
p976
aS'143'
p977
aa(lp978
I2637
aS'99'
p979
aS'157'
p980
aasS'1E0P'
p981
(lp982
(lp983
I6013
aS'10'
p984
aS'231'
p985
aasS'1QFC'
p986
(lp987
(lp988
I1697
aS'7'
aS'224'
p989
aasS'4DHL'
p990
(lp991
(lp992
I1697
aS'129'
p993
aS'327'
p994
aa(lp995
I2715
aS'353'
p996
aS'411'
p997
aa(lp998
I5593
aS'27'
p999
aS'118'
p1000
aasS'2IW6'
p1001
(lp1002
(lp1003
I252
aS'4'
aS'286'
p1004
aa(lp1005
I2963
aS'309'
p1006
aS'426'
p1007
aa(lp1008
I6787
aS'181'
p1009
aS'306'
p1010
aasS'4YKE'
p1011
(lp1012
(lp1013
I969
aS'290'
p1014
aS'412'
p1015
aa(lp1016
I1697
aS'11'
p1017
aS'244'
p1018
aasS'2ZWN'
p1019
(lp1020
(lp1021
I3227
aS'10'
p1022
aS'128'
p1023
aa(lp1024
I3228
aS'166'
p1025
aS'262'
p1026
aasS'1BM1'
p1027
(lp1028
(lp1029
I6013
aS'10'
p1030
aS'227'
p1031
aasS'4ENZ'
p1032
(lp1033
(lp1034
I2580
aS'204'
p1035
aS'338'
p1036
aa(lp1037
I3227
aS'73'
p1038
aS'183'
p1039
aa(lp1040
I3227
aS'788'
p1041
aS'880'
p1042
aa(lp1043
I3228
aS'937'
p1044
aS'1038'
p1045
aasS'1H28'
p1046
(lp1047
(lp1048
I252
aS'4'
aS'286'
p1049
aa(lp1050
I2963
aS'309'
p1051
aS'426'
p1052
aa(lp1053
I6787
aS'181'
p1054
aS'306'
p1055
aasS'4V0X'
p1056
(lp1057
(lp1058
I1697
aS'60'
p1059
aS'249'
p1060
aa(lp1061
I4386
aS'9'
aS'56'
p1062
aa(lp1063
I6040
aS'639'
p1064
aS'662'
p1065
aasS'1TRF'
p1066
(lp1067
(lp1068
I964
aS'34'
p1069
aS'85'
p1070
aasS'4V0V'
p1071
(lp1072
(lp1073
I1697
aS'60'
p1074
aS'249'
p1075
aa(lp1076
I4386
aS'9'
aS'56'
p1077
aa(lp1078
I6040
aS'639'
p1079
aS'658'
p1080
aasS'4V0W'
p1081
(lp1082
(lp1083
I1697
aS'60'
p1084
aS'249'
p1085
aa(lp1086
I4386
aS'9'
aS'56'
p1087
aa(lp1088
I6040
aS'639'
p1089
aS'654'
p1090
aasS'4V0U'
p1091
(lp1092
(lp1093
I1697
aS'60'
p1094
aS'249'
p1095
aa(lp1096
I2051
aS'3'
aS'375'
p1097
aa(lp1098
I4386
aS'9'
aS'56'
p1099
aa(lp1100
I6040
aS'639'
p1101
aS'658'
p1102
aasS'1E0L'
p1103
(lp1104
(lp1105
I4465
aS'6'
aS'33'
p1106
aasS'1E0M'
p1107
(lp1108
(lp1109
I4465
aS'4'
aS'33'
p1110
aa(lp1111
I4465
aS'4'
aS'33'
p1112
aasS'3TAS'
p1113
(lp1114
(lp1115
I3227
aS'68'
p1116
aS'177'
p1117
aa(lp1118
I3228
aS'194'
p1119
aS'301'
p1120
aasS'2ZFD'
p1121
(lp1122
(lp1123
I814
aS'309'
p1124
aS'366'
p1125
aa(lp1126
I959
aS'168'
p1127
aS'192'
p1128
aa(lp1129
I964
aS'64'
p1130
aS'109'
p1131
aasS'2ZFE'
p1132
(lp1133
(lp1134
I6013
aS'10'
p1135
aS'231'
p1136
aasS'3J04'
p1137
(lp1138
(lp1139
I964
aS'115'
p1140
aS'163'
p1141
aa(lp1142
I1461
aS'86'
p1143
aS'777'
p1144
aa(lp1145
I2638
aS'32'
p1146
aS'61'
p1147
aa(lp1148
I2638
aS'10'
p1149
aS'39'
p1150
aa(lp1151
I5670
aS'32'
p1152
aS'72'
p1153
aa(lp1154
I5842
aS'854'
p1155
aS'910'
p1156
aa(lp1157
I6491
aS'796'
p1158
aS'812'
p1159
aasS'2LP2'
p1160
(lp1161
(lp1162
I580
aS'4'
aS'45'
p1163
aa(lp1164
I2631
aS'54'
p1165
aS'80'
p1166
aasS'2LP3'
p1167
(lp1168
(lp1169
I580
aS'4'
aS'45'
p1170
aa(lp1171
I2631
aS'54'
p1172
aS'80'
p1173
aasS'3E7B'
p1174
(lp1175
(lp1176
I1697
aS'60'
p1177
aS'249'
p1178
aa(lp1179
I4386
aS'9'
aS'56'
p1180
aasS'3PPS'
p1181
(lp1182
(lp1183
I2580
aS'170'
p1184
aS'315'
p1185
aa(lp1186
I3227
aS'47'
p1187
aS'160'
p1188
aa(lp1189
I3228
aS'385'
p1190
aS'523'
p1191
aasS'4EON'
p1192
(lp1193
(lp1194
I252
aS'4'
aS'286'
p1195
aa(lp1196
I2963
aS'309'
p1197
aS'426'
p1198
aa(lp1199
I6787
aS'181'
p1200
aS'306'
p1201
aasS'4OV0'
p1202
(lp1203
(lp1204
I6013
aS'10'
p1205
aS'226'
p1206
aasS'2EGD'
p1207
(lp1208
(lp1209
I580
aS'9'
aS'51'
p1210
aasS'4F70'
p1211
(lp1212
(lp1213
I165
aS'154'
p1214
aS'239'
p1215
aa(lp1216
I252
aS'26'
p1217
aS'335'
p1218
aa(lp1219
I6787
aS'46'
p1220
aS'148'
p1221
aasS'3EGH'
p1222
(lp1223
(lp1224
I1697
aS'60'
p1225
aS'249'
p1226
aa(lp1227
I4386
aS'9'
aS'56'
p1228
aa(lp1229
I6338
aS'498'
p1230
aS'579'
p1231
aasS'3TA4'
p1232
(lp1233
(lp1234
I3227
aS'61'
p1235
aS'170'
p1236
aa(lp1237
I3228
aS'185'
p1238
aS'295'
p1239
aasS'1LXF'
p1240
(lp1241
(lp1242
I964
aS'32'
p1243
aS'83'
p1244
aasS'1C8R'
p1245
(lp1246
(lp1247
I6013
aS'10'
p1248
aS'231'
p1249
aasS'1C8S'
p1250
(lp1251
(lp1252
I6013
aS'10'
p1253
aS'153'
p1254
aasS'3KW7'
p1255
(lp1256
(lp1257
I2580
aS'143'
p1258
aS'284'
p1259
aa(lp1260
I3227
aS'10'
p1261
aS'130'
p1262
aa(lp1263
I3228
aS'345'
p1264
aS'474'
p1265
aasS'2KSY'
p1266
(lp1267
(lp1268
I6013
aS'5'
aS'222'
p1269
aasS'1A4P'
p1270
(lp1271
(lp1272
I580
aS'4'
aS'43'
p1273
aasS'4GJF'
p1274
(lp1275
(lp1276
I964
aS'32'
p1277
aS'83'
p1278
aa(lp1279
I964
aS'32'
p1280
aS'83'
p1281
aasS'4EOO'
p1282
(lp1283
(lp1284
I252
aS'4'
aS'286'
p1285
aa(lp1286
I2963
aS'309'
p1287
aS'426'
p1288
aa(lp1289
I6787
aS'181'
p1290
aS'306'
p1291
aasS'3DKH'
p1292
(lp1293
(lp1294
I2580
aS'169'
p1295
aS'315'
p1296
aa(lp1297
I3227
aS'48'
p1298
aS'159'
p1299
aa(lp1300
I3228
aS'387'
p1301
aS'522'
p1302
aasS'2N4T'
p1303
(lp1304
(lp1305
I4465
aS'433'
p1306
aS'460'
p1307
aasS'2O8G'
p1308
(lp1309
(lp1310
I1697
aS'60'
p1311
aS'249'
p1312
aa(lp1313
I4386
aS'9'
aS'56'
p1314
aa(lp1315
I4491
aS'46'
p1316
aS'169'
p1317
aasS'2O8A'
p1318
(lp1319
(lp1320
I1697
aS'60'
p1321
aS'249'
p1322
aa(lp1323
I4386
aS'9'
aS'56'
p1324
aa(lp1325
I4491
aS'46'
p1326
aS'169'
p1327
aasS'3KW8'
p1328
(lp1329
(lp1330
I3227
aS'73'
p1331
aS'182'
p1332
aa(lp1333
I3228
aS'199'
p1334
aS'306'
p1335
aasS'1KXU'
p1336
(lp1337
(lp1338
I165
aS'162'
p1339
aS'262'
p1340
aa(lp1341
I6787
aS'75'
p1342
aS'158'
p1343
aasS'3FU8'
p1344
(lp1345
(lp1346
I2580
aS'169'
p1347
aS'315'
p1348
aa(lp1349
I3227
aS'48'
p1350
aS'159'
p1351
aa(lp1352
I3228
aS'387'
p1353
aS'522'
p1354
aasS'3FU9'
p1355
(lp1356
(lp1357
I2580
aS'169'
p1358
aS'315'
p1359
aa(lp1360
I3227
aS'48'
p1361
aS'159'
p1362
aa(lp1363
I3228
aS'387'
p1364
aS'522'
p1365
aasS'1W6L'
p1366
(lp1367
(lp1368
I2580
aS'240'
p1369
aS'318'
p1370
aa(lp1371
I3227
aS'45'
p1372
aS'81'
p1373
aa(lp1374
I3227
aS'101'
p1375
aS'178'
p1376
aa(lp1377
I3228
aS'378'
p1378
aS'509'
p1379
aasS'4O5G'
p1380
(lp1381
(lp1382
I1697
aS'7'
aS'219'
p1383
aasS'3D0Y'
p1384
(lp1385
(lp1386
I580
aS'3'
aS'45'
p1387
aa(lp1388
I580
aS'3'
aS'45'
p1389
aa(lp1390
I2631
aS'53'
p1391
aS'79'
p1392
aa(lp1393
I2631
aS'53'
p1394
aS'79'
p1395
aasS'1ALV'
p1396
(lp1397
(lp1398
I959
aS'177'
p1399
aS'192'
p1400
aa(lp1401
I964
aS'110'
p1402
aS'166'
p1403
aasS'5AHY'
p1404
(lp1405
(lp1406
I6013
aS'32'
p1407
aS'258'
p1408
aasS'1YV0'
p1409
(lp1410
(lp1411
I964
aS'33'
p1412
aS'85'
p1413
aa(lp1414
I1916
aS'165'
p1415
aS'203'
p1416
aa(lp1417
I1916
aS'14'
p1418
aS'118'
p1419
aa(lp1420
I2637
aS'99'
p1421
aS'157'
p1422
aasS'4WAV'
p1423
(lp1424
(lp1425
I6013
aS'18'
p1426
aS'238'
p1427
aasS'2BDX'
p1428
(lp1429
(lp1430
I1697
aS'60'
p1431
aS'249'
p1432
aa(lp1433
I4386
aS'9'
aS'56'
p1434
aasS'3CZT'
p1435
(lp1436
(lp1437
I580
aS'3'
aS'45'
p1438
aa(lp1439
I2631
aS'53'
p1440
aS'79'
p1441
aasS'1W6W'
p1442
(lp1443
(lp1444
I2580
aS'240'
p1445
aS'318'
p1446
aa(lp1447
I3227
aS'45'
p1448
aS'81'
p1449
aa(lp1450
I3227
aS'101'
p1451
aS'178'
p1452
aa(lp1453
I3228
aS'378'
p1454
aS'509'
p1455
aasS'3WQJ'
p1456
(lp1457
(lp1458
I6013
aS'14'
p1459
aS'234'
p1460
aasS'1NPQ'
p1461
(lp1462
(lp1463
I964
aS'34'
p1464
aS'85'
p1465
aasS'1ZAC'
p1466
(lp1467
(lp1468
I964
aS'34'
p1469
aS'85'
p1470
aasS'5TNC'
p1471
(lp1472
(lp1473
I964
aS'34'
p1474
aS'85'
p1475
aa(lp1476
I2637
aS'98'
p1477
aS'158'
p1478
aasS'1PSR'
p1479
(lp1480
(lp1481
I580
aS'6'
aS'43'
p1482
aasS'2USH'
p1483
(lp1484
(lp1485
I1583
aS'363'
p1486
aS'509'
p1487
aa(lp1488
I1697
aS'35'
p1489
aS'254'
p1490
aasS'4NER'
p1491
(lp1492
(lp1493
I2580
aS'227'
p1494
aS'292'
p1495
aa(lp1496
I3227
aS'55'
p1497
aS'165'
p1498
aa(lp1499
I3228
aS'402'
p1500
aS'516'
p1501
aasS'2LLS'
p1502
(lp1503
(lp1504
I580
aS'4'
aS'45'
p1505
aa(lp1506
I2631
aS'54'
p1507
aS'80'
p1508
aasS'1S1E'
p1509
(lp1510
(lp1511
I964
aS'66'
p1512
aS'114'
p1513
aa(lp1514
I2637
aS'127'
p1515
aS'197'
p1516
aasS'1UTE'
p1517
(lp1518
(lp1519
I1697
aS'7'
aS'224'
p1520
aasS'2ITK'
p1521
(lp1522
(lp1523
I1109
aS'59'
p1524
aS'162'
p1525
aa(lp1526
I4465
aS'7'
aS'37'
p1527
aasS'2LLT'
p1528
(lp1529
(lp1530
I580
aS'4'
aS'45'
p1531
aa(lp1532
I2631
aS'54'
p1533
aS'80'
p1534
aasS'2LLU'
p1535
(lp1536
(lp1537
I580
aS'4'
aS'45'
p1538
aa(lp1539
I2631
aS'54'
p1540
aS'80'
p1541
aasS'2I1X'
p1542
(lp1543
(lp1544
I6013
aS'10'
p1545
aS'231'
p1546
aasS'4U84'
p1547
(lp1548
(lp1549
I1109
aS'59'
p1550
aS'162'
p1551
aa(lp1552
I4465
aS'7'
aS'37'
p1553
aasS'1IRJ'
p1554
(lp1555
(lp1556
I580
aS'8'
aS'50'
p1557
aasS'3T6X'
p1558
(lp1559
(lp1560
I2580
aS'144'
p1561
aS'287'
p1562
aa(lp1563
I3227
aS'14'
p1564
aS'131'
p1565
aa(lp1566
I3228
aS'349'
p1567
aS'470'
p1568
aasS'2H5U'
p1569
(lp1570
(lp1571
I2580
aS'143'
p1572
aS'284'
p1573
aa(lp1574
I3227
aS'11'
p1575
aS'130'
p1576
aa(lp1577
I3228
aS'345'
p1578
aS'470'
p1579
aasS'2KAX'
p1580
(lp1581
(lp1582
I580
aS'5'
aS'42'
p1583
aasS'2W2H'
p1584
(lp1585
(lp1586
I6787
aS'13'
p1587
aS'148'
p1588
aasS'1XZW'
p1589
(lp1590
(lp1591
I1697
aS'129'
p1592
aS'326'
p1593
aa(lp1594
I2715
aS'352'
p1595
aS'412'
p1596
aa(lp1597
I5593
aS'25'
p1598
aS'114'
p1599
aasS'4KNF'
p1600
(lp1601
(lp1602
I6013
aS'31'
p1603
aS'247'
p1604
aasS'3UAC'
p1605
(lp1606
(lp1607
I2580
aS'227'
p1608
aS'292'
p1609
aa(lp1610
I3227
aS'55'
p1611
aS'165'
p1612
aa(lp1613
I3228
aS'402'
p1614
aS'516'
p1615
aasS'3UAB'
p1616
(lp1617
(lp1618
I2580
aS'227'
p1619
aS'292'
p1620
aa(lp1621
I3227
aS'55'
p1622
aS'165'
p1623
aa(lp1624
I3228
aS'402'
p1625
aS'516'
p1626
aasS'1OI9'
p1627
(lp1628
(lp1629
I252
aS'4'
aS'286'
p1630
aa(lp1631
I2963
aS'309'
p1632
aS'426'
p1633
aa(lp1634
I6787
aS'181'
p1635
aS'306'
p1636
aasS'1OI8'
p1637
(lp1638
(lp1639
I1583
aS'363'
p1640
aS'509'
p1641
aa(lp1642
I1697
aS'35'
p1643
aS'254'
p1644
aasS'2L5X'
p1645
(lp1646
(lp1647
I580
aS'9'
aS'51'
p1648
aa(lp1649
I2649
aS'45'
p1650
aS'154'
p1651
aasS'3UAE'
p1652
(lp1653
(lp1654
I2580
aS'227'
p1655
aS'292'
p1656
aa(lp1657
I3227
aS'55'
p1658
aS'165'
p1659
aa(lp1660
I3228
aS'402'
p1661
aS'516'
p1662
aasS'1I6C'
p1663
(lp1664
(lp1665
I4465
aS'2'
aS'32'
p1666
aasS'2MDJ'
p1667
(lp1668
(lp1669
I4465
aS'17'
p1670
aS'46'
p1671
aasS'2MDI'
p1672
(lp1673
(lp1674
I4465
aS'17'
p1675
aS'46'
p1676
aasS'2L5F'
p1677
(lp1678
(lp1679
I4465
aS'15'
p1680
aS'41'
p1681
aa(lp1682
I4465
aS'55'
p1683
aS'82'
p1684
aasS'1CFP'
p1685
(lp1686
(lp1687
I580
aS'3'
aS'45'
p1688
aa(lp1689
I2631
aS'53'
p1690
aS'79'
p1691
aasS'3T9W'
p1692
(lp1693
(lp1694
I3227
aS'61'
p1695
aS'170'
p1696
aa(lp1697
I3228
aS'185'
p1698
aS'295'
p1699
aasS'2KXQ'
p1700
(lp1701
(lp1702
I4465
aS'253'
p1703
aS'282'
p1704
aa(lp1705
I4465
aS'299'
p1706
aS'328'
p1707
aasS'2JT0'
p1708
(lp1709
(lp1710
I964
aS'32'
p1711
aS'83'
p1712
aa(lp1713
I2637
aS'99'
p1714
aS'157'
p1715
aasS'4FBZ'
p1716
(lp1717
(lp1718
I6013
aS'10'
p1719
aS'231'
p1720
aa(lp1721
I6013
aS'10'
p1722
aS'231'
p1723
aasS'3LQ5'
p1724
(lp1725
(lp1726
I252
aS'19'
p1727
aS'315'
p1728
aa(lp1729
I6787
aS'12'
p1730
aS'148'
p1731
aasS'4GWV'
p1732
(lp1733
(lp1734
I4465
aS'7'
aS'37'
p1735
aasS'4N7F'
p1736
(lp1737
(lp1738
I4465
aS'423'
p1739
aS'452'
p1740
aasS'2WJL'
p1741
(lp1742
(lp1743
I6013
aS'10'
p1744
aS'231'
p1745
aasS'2CTN'
p1746
(lp1747
(lp1748
I964
aS'32'
p1749
aS'83'
p1750
aasS'2L51'
p1751
(lp1752
(lp1753
I580
aS'8'
aS'50'
p1754
aa(lp1755
I959
aS'61'
p1756
aS'82'
p1757
aasS'3ZTV'
p1758
(lp1759
(lp1760
I1583
aS'412'
p1761
aS'551'
p1762
aa(lp1763
I1697
aS'38'
p1764
aS'252'
p1765
aasS'1OIU'
p1766
(lp1767
(lp1768
I252
aS'4'
aS'286'
p1769
aa(lp1770
I2963
aS'309'
p1771
aS'426'
p1772
aa(lp1773
I6787
aS'181'
p1774
aS'306'
p1775
aasS'2CNP'
p1776
(lp1777
(lp1778
I580
aS'6'
aS'42'
p1779
aasS'1OIY'
p1780
(lp1781
(lp1782
I252
aS'4'
aS'286'
p1783
aa(lp1784
I2963
aS'309'
p1785
aS'426'
p1786
aa(lp1787
I6787
aS'181'
p1788
aS'306'
p1789
aasS'4PHK'
p1790
(lp1791
(lp1792
I959
aS'179'
p1793
aS'194'
p1794
aa(lp1795
I964
aS'112'
p1796
aS'168'
p1797
aasS'4PHM'
p1798
(lp1799
(lp1800
I959
aS'179'
p1801
aS'194'
p1802
aa(lp1803
I964
aS'112'
p1804
aS'168'
p1805
aasS'4PHN'
p1806
(lp1807
(lp1808
I959
aS'177'
p1809
aS'192'
p1810
aa(lp1811
I959
aS'177'
p1812
aS'192'
p1813
aa(lp1814
I964
aS'110'
p1815
aS'166'
p1816
aa(lp1817
I964
aS'110'
p1818
aS'166'
p1819
aasS'4N7H'
p1820
(lp1821
(lp1822
I4465
aS'423'
p1823
aS'452'
p1824
aasS'1ZR7'
p1825
(lp1826
(lp1827
I4465
aS'11'
p1828
aS'37'
p1829
aasS'2E45'
p1830
(lp1831
(lp1832
I4465
aS'15'
p1833
aS'43'
p1834
aasS'1OID'
p1835
(lp1836
(lp1837
I1583
aS'363'
p1838
aS'509'
p1839
aa(lp1840
I1697
aS'35'
p1841
aS'254'
p1842
aasS'1VIN'
p1843
(lp1844
(lp1845
I2963
aS'309'
p1846
aS'426'
p1847
aa(lp1848
I6787
aS'181'
p1849
aS'306'
p1850
aasS'1P8H'
p1851
(lp1852
(lp1853
I6013
aS'10'
p1854
aS'231'
p1855
aasS'2DFJ'
p1856
(lp1857
(lp1858
I1697
aS'4'
aS'164'
p1859
aasS'2EI4'
p1860
(lp1861
(lp1862
I6013
aS'14'
p1863
aS'238'
p1864
aasS'2MWF'
p1865
(lp1866
(lp1867
I4465
aS'433'
p1868
aS'460'
p1869
aasS'2M9E'
p1870
(lp1871
(lp1872
I4465
aS'2'
aS'31'
p1873
aasS'1S8J'
p1874
(lp1875
(lp1876
I6013
aS'10'
p1877
aS'232'
p1878
aasS'4U8D'
p1879
(lp1880
(lp1881
I964
aS'71'
p1882
aS'126'
p1883
aa(lp1884
I2638
aS'132'
p1885
aS'158'
p1886
aasS'1F4O'
p1887
(lp1888
(lp1889
I959
aS'128'
p1890
aS'146'
p1891
aa(lp1892
I964
aS'64'
p1893
aS'119'
p1894
aasS'2LTX'
p1895
(lp1896
(lp1897
I4465
aS'282'
p1898
aS'311'
p1899
aasS'4Q7F'
p1900
(lp1901
(lp1902
I1583
aS'313'
p1903
aS'471'
p1904
aa(lp1905
I1697
aS'6'
aS'234'
p1906
aasS'2LB3'
p1907
(lp1908
(lp1909
I4465
aS'11'
p1910
aS'41'
p1911
aasS'1F4Q'
p1912
(lp1913
(lp1914
I959
aS'128'
p1915
aS'146'
p1916
aa(lp1917
I964
aS'64'
p1918
aS'119'
p1919
aasS'2WJK'
p1920
(lp1921
(lp1922
I6013
aS'10'
p1923
aS'231'
p1924
aasS'3DW8'
p1925
(lp1926
(lp1927
I88
aS'283'
p1928
aS'313'
p1929
aa(lp1930
I1697
aS'51'
p1931
aS'242'
p1932
aa(lp1933
I4185
aS'175'
p1934
aS'263'
p1935
aa(lp1936
I4185
aS'366'
p1937
aS'467'
p1938
aasS'3AM6'
p1939
(lp1940
(lp1941
I6013
aS'14'
p1942
aS'222'
p1943
aasS'1F4Z'
p1944
(lp1945
(lp1946
I6013
aS'10'
p1947
aS'230'
p1948
aasS'4BCO'
p1949
(lp1950
(lp1951
I252
aS'4'
aS'286'
p1952
aa(lp1953
I2963
aS'309'
p1954
aS'426'
p1955
aa(lp1956
I6787
aS'181'
p1957
aS'306'
p1958
aasS'4BCN'
p1959
(lp1960
(lp1961
I252
aS'4'
aS'286'
p1962
aa(lp1963
I2963
aS'309'
p1964
aS'426'
p1965
aa(lp1966
I2963
aS'309'
p1967
aS'426'
p1968
aa(lp1969
I6787
aS'181'
p1970
aS'306'
p1971
aa(lp1972
I6787
aS'181'
p1973
aS'306'
p1974
aasS'4BCM'
p1975
(lp1976
(lp1977
I252
aS'4'
aS'286'
p1978
aa(lp1979
I2963
aS'309'
p1980
aS'426'
p1981
aa(lp1982
I2963
aS'309'
p1983
aS'426'
p1984
aa(lp1985
I6787
aS'181'
p1986
aS'306'
p1987
aa(lp1988
I6787
aS'181'
p1989
aS'306'
p1990
aasS'4BCK'
p1991
(lp1992
(lp1993
I252
aS'4'
aS'286'
p1994
aa(lp1995
I2963
aS'309'
p1996
aS'426'
p1997
aa(lp1998
I6787
aS'181'
p1999
aS'306'
p2000
aasS'4BCJ'
p2001
(lp2002
(lp2003
I252
aS'19'
p2004
aS'315'
p2005
aa(lp2006
I6787
aS'12'
p2007
aS'148'
p2008
aasS'4BCI'
p2009
(lp2010
(lp2011
I252
aS'19'
p2012
aS'315'
p2013
aa(lp2014
I6787
aS'12'
p2015
aS'148'
p2016
aasS'4BCH'
p2017
(lp2018
(lp2019
I252
aS'19'
p2020
aS'315'
p2021
aa(lp2022
I6787
aS'12'
p2023
aS'148'
p2024
aasS'4BCG'
p2025
(lp2026
(lp2027
I252
aS'19'
p2028
aS'315'
p2029
aa(lp2030
I6787
aS'12'
p2031
aS'148'
p2032
aasS'1H68'
p2033
(lp2034
(lp2035
I6013
aS'5'
aS'219'
p2036
aasS'4CXA'
p2037
(lp2038
(lp2039
I252
aS'729'
p2040
aS'1020'
p2041
aa(lp2042
I2963
aS'160'
p2043
aS'229'
p2044
aa(lp2045
I6787
aS'35'
p2046
aS'155'
p2047
aasS'4JHV'
p2048
(lp2049
(lp2050
I2580
aS'143'
p2051
aS'283'
p2052
aa(lp2053
I3227
aS'11'
p2054
aS'130'
p2055
aa(lp2056
I3228
aS'344'
p2057
aS'467'
p2058
aasS'2LUX'
p2059
(lp2060
(lp2061
I580
aS'4'
aS'45'
p2062
aa(lp2063
I2631
aS'54'
p2064
aS'80'
p2065
aasS'1WMV'
p2066
(lp2067
(lp2068
I4465
aS'12'
p2069
aS'41'
p2070
aasS'4JHU'
p2071
(lp2072
(lp2073
I2580
aS'143'
p2074
aS'283'
p2075
aa(lp2076
I3227
aS'11'
p2077
aS'130'
p2078
aa(lp2079
I3228
aS'344'
p2080
aS'467'
p2081
aasS'2EZ5'
p2082
(lp2083
(lp2084
I4465
aS'531'
p2085
aS'560'
p2086
aasS'2WIH'
p2087
(lp2088
(lp2089
I252
aS'4'
aS'286'
p2090
aa(lp2091
I2963
aS'309'
p2092
aS'426'
p2093
aa(lp2094
I6787
aS'181'
p2095
aS'306'
p2096
aasS'2HRH'
p2097
(lp2098
(lp2099
I2580
aS'143'
p2100
aS'283'
p2101
aa(lp2102
I3227
aS'11'
p2103
aS'130'
p2104
aa(lp2105
I3228
aS'344'
p2106
aS'467'
p2107
aasS'3V4Y'
p2108
(lp2109
(lp2110
I1697
aS'60'
p2111
aS'249'
p2112
aa(lp2113
I4386
aS'9'
aS'56'
p2114
aasS'1NX1'
p2115
(lp2116
(lp2117
I959
aS'177'
p2118
aS'192'
p2119
aa(lp2120
I964
aS'110'
p2121
aS'166'
p2122
aasS'1NX0'
p2123
(lp2124
(lp2125
I959
aS'177'
p2126
aS'192'
p2127
aa(lp2128
I964
aS'110'
p2129
aS'166'
p2130
aasS'2QJC'
p2131
(lp2132
(lp2133
I1697
aS'20'
p2134
aS'214'
p2135
aasS'1NX2'
p2136
(lp2137
(lp2138
I959
aS'177'
p2139
aS'192'
p2140
aa(lp2141
I964
aS'110'
p2142
aS'166'
p2143
aasS'4GWT'
p2144
(lp2145
(lp2146
I4465
aS'7'
aS'37'
p2147
aasS'1QM8'
p2148
(lp2149
(lp2150
I6013
aS'10'
p2151
aS'230'
p2152
aasS'4BCQ'
p2153
(lp2154
(lp2155
I252
aS'4'
aS'286'
p2156
aa(lp2157
I2963
aS'309'
p2158
aS'426'
p2159
aa(lp2160
I2963
aS'309'
p2161
aS'426'
p2162
aa(lp2163
I6787
aS'181'
p2164
aS'306'
p2165
aa(lp2166
I6787
aS'181'
p2167
aS'306'
p2168
aasS'4BCP'
p2169
(lp2170
(lp2171
I252
aS'4'
aS'286'
p2172
aa(lp2173
I2963
aS'309'
p2174
aS'426'
p2175
aa(lp2176
I6787
aS'181'
p2177
aS'306'
p2178
aasS'2OP7'
p2179
(lp2180
(lp2181
I4465
aS'5'
aS'34'
p2182
aasS'2DMV'
p2183
(lp2184
(lp2185
I4465
aS'8'
aS'37'
p2186
aasS'1A03'
p2187
(lp2188
(lp2189
I580
aS'6'
aS'42'
p2190
aasS'1FBB'
p2191
(lp2192
(lp2193
I6013
aS'10'
p2194
aS'227'
p2195
aasS'4LTY'
p2196
(lp2197
(lp2198
I853
aS'276'
p2199
aS'340'
p2200
aa(lp2201
I1697
aS'1'
aS'225'
p2202
aasS'1BHA'
p2203
(lp2204
(lp2205
I6013
aS'10'
p2206
aS'70'
p2207
aasS'1H1Q'
p2208
(lp2209
(lp2210
I252
aS'4'
aS'286'
p2211
aa(lp2212
I2963
aS'309'
p2213
aS'426'
p2214
aa(lp2215
I6787
aS'181'
p2216
aS'306'
p2217
aasS'1H1R'
p2218
(lp2219
(lp2220
I252
aS'4'
aS'286'
p2221
aa(lp2222
I2963
aS'309'
p2223
aS'426'
p2224
aa(lp2225
I6787
aS'181'
p2226
aS'306'
p2227
aasS'1BHB'
p2228
(lp2229
(lp2230
I6013
aS'10'
p2231
aS'70'
p2232
aasS'2CCH'
p2233
(lp2234
(lp2235
I252
aS'4'
aS'286'
p2236
aa(lp2237
I2963
aS'309'
p2238
aS'426'
p2239
aa(lp2240
I6787
aS'181'
p2241
aS'306'
p2242
aasS'2CCI'
p2243
(lp2244
(lp2245
I252
aS'4'
aS'286'
p2246
aa(lp2247
I2963
aS'309'
p2248
aS'426'
p2249
aa(lp2250
I6787
aS'181'
p2251
aS'306'
p2252
aasS'2ZBM'
p2253
(lp2254
(lp2255
I1697
aS'72'
p2256
aS'287'
p2257
aasS'3KF9'
p2258
(lp2259
(lp2260
I964
aS'113'
p2261
aS'164'
p2262
aa(lp2263
I2637
aS'29'
p2264
aS'89'
p2265
aasS'4X32'
p2266
(lp2267
(lp2268
I6013
aS'10'
p2269
aS'231'
p2270
aasS'3FGA'
p2271
(lp2272
(lp2273
I88
aS'283'
p2274
aS'313'
p2275
aa(lp2276
I1697
aS'51'
p2277
aS'242'
p2278
aa(lp2279
I4185
aS'174'
p2280
aS'263'
p2281
aa(lp2282
I4185
aS'366'
p2283
aS'467'
p2284
aa(lp2285
I7458
aS'25'
p2286
aS'425'
p2287
aasS'2YXW'
p2288
(lp2289
(lp2290
I2580
aS'227'
p2291
aS'292'
p2292
aa(lp2293
I3227
aS'55'
p2294
aS'165'
p2295
aa(lp2296
I3228
aS'357'
p2297
aS'517'
p2298
aasS'2YXV'
p2299
(lp2300
(lp2301
I2580
aS'227'
p2302
aS'292'
p2303
aa(lp2304
I3227
aS'55'
p2305
aS'165'
p2306
aa(lp2307
I3228
aS'357'
p2308
aS'517'
p2309
aasS'1MXL'
p2310
(lp2311
(lp2312
I964
aS'32'
p2313
aS'83'
p2314
aasS'1FBK'
p2315
(lp2316
(lp2317
I6013
aS'10'
p2318
aS'228'
p2319
aasS'4I5N'
p2320
(lp2321
(lp2322
I88
aS'283'
p2323
aS'313'
p2324
aa(lp2325
I1697
aS'51'
p2326
aS'242'
p2327
aa(lp2328
I2637
aS'320'
p2329
aS'417'
p2330
aa(lp2331
I4185
aS'175'
p2332
aS'263'
p2333
aa(lp2334
I4185
aS'366'
p2335
aS'467'
p2336
aasS'4I5L'
p2337
(lp2338
(lp2339
I88
aS'283'
p2340
aS'313'
p2341
aa(lp2342
I1697
aS'51'
p2343
aS'242'
p2344
aa(lp2345
I2637
aS'320'
p2346
aS'417'
p2347
aa(lp2348
I4185
aS'175'
p2349
aS'263'
p2350
aa(lp2351
I4185
aS'366'
p2352
aS'467'
p2353
aasS'3VI0'
p2354
(lp2355
(lp2356
I6013
aS'10'
p2357
aS'231'
p2358
aasS'1KSO'
p2359
(lp2360
(lp2361
I580
aS'5'
aS'46'
p2362
aasS'2KRD'
p2363
(lp2364
(lp2365
I964
aS'32'
p2366
aS'83'
p2367
aasS'3G5W'
p2368
(lp2369
(lp2370
I3227
aS'55'
p2371
aS'170'
p2372
aa(lp2373
I3228
aS'213'
p2374
aS'304'
p2375
aasS'2FQG'
p2376
(lp2377
(lp2378
I2580
aS'227'
p2379
aS'292'
p2380
aa(lp2381
I3227
aS'55'
p2382
aS'165'
p2383
aa(lp2384
I3228
aS'402'
p2385
aS'516'
p2386
aasS'2FQF'
p2387
(lp2388
(lp2389
I2580
aS'227'
p2390
aS'292'
p2391
aa(lp2392
I3227
aS'55'
p2393
aS'165'
p2394
aa(lp2395
I3228
aS'402'
p2396
aS'516'
p2397
aasS'3C5W'
p2398
(lp2399
(lp2400
I883
aS'79'
p2401
aS'362'
p2402
aa(lp2403
I1697
aS'51'
p2404
aS'242'
p2405
aa(lp2406
I4185
aS'14'
p2407
aS'467'
p2408
aa(lp2409
I4185
aS'484'
p2410
aS'583'
p2411
aasS'5DAO'
p2412
(lp2413
(lp2414
I2580
aS'142'
p2415
aS'286'
p2416
aa(lp2417
I3227
aS'12'
p2418
aS'130'
p2419
aa(lp2420
I3228
aS'347'
p2421
aS'468'
p2422
aasS'4F0Z'
p2423
(lp2424
(lp2425
I1697
aS'84'
p2426
aS'284'
p2427
aa(lp2428
I2637
aS'23'
p2429
aS'77'
p2430
aa(lp2431
I2637
aS'91'
p2432
aS'154'
p2433
aasS'3GVE'
p2434
(lp2435
(lp2436
I1697
aS'10'
p2437
aS'248'
p2438
aasS'1II7'
p2439
(lp2440
(lp2441
I1697
aS'1'
aS'209'
p2442
aasS'1YMZ'
p2443
(lp2444
(lp2445
I4465
aS'3'
aS'33'
p2446
aasS'1FIN'
p2447
(lp2448
(lp2449
I252
aS'4'
aS'286'
p2450
aa(lp2451
I2963
aS'309'
p2452
aS'426'
p2453
aa(lp2454
I6787
aS'181'
p2455
aS'306'
p2456
aasS'1O0A'
p2457
(lp2458
(lp2459
I6013
aS'10'
p2460
aS'231'
p2461
aasS'3IB8'
p2462
(lp2463
(lp2464
I1697
aS'16'
p2465
aS'209'
p2466
aasS'3AV0'
p2467
(lp2468
(lp2469
I1697
aS'3'
aS'189'
p2470
aa(lp2471
I5251
aS'7'
aS'845'
p2472
aasS'4H1S'
p2473
(lp2474
(lp2475
I1583
aS'339'
p2476
aS'512'
p2477
aa(lp2478
I1697
aS'29'
p2479
aS'244'
p2480
aasS'4H1Y'
p2481
(lp2482
(lp2483
I1583
aS'339'
p2484
aS'512'
p2485
aa(lp2486
I1697
aS'29'
p2487
aS'244'
p2488
aasS'2JAG'
p2489
(lp2490
(lp2491
I6013
aS'32'
p2492
aS'258'
p2493
aasS'2JAF'
p2494
(lp2495
(lp2496
I6013
aS'32'
p2497
aS'258'
p2498
aasS'4NST'
p2499
(lp2500
(lp2501
I252
aS'729'
p2502
aS'1020'
p2503
aa(lp2504
I2963
aS'160'
p2505
aS'229'
p2506
aa(lp2507
I6787
aS'35'
p2508
aS'155'
p2509
aasS'1BCT'
p2510
(lp2511
(lp2512
I6013
aS'166'
p2513
aS'230'
p2514
aasS'3UTV'
p2515
(lp2516
(lp2517
I6013
aS'10'
p2518
aS'231'
p2519
aasS'3UTW'
p2520
(lp2521
(lp2522
I6013
aS'10'
p2523
aS'231'
p2524
aasS'1JMQ'
p2525
(lp2526
(lp2527
I4465
aS'13'
p2528
aS'42'
p2529
aasS'4M2O'
p2530
(lp2531
(lp2532
I964
aS'40'
p2533
aS'87'
p2534
aa(lp2535
I2637
aS'102'
p2536
aS'174'
p2537
aasS'3DSC'
p2538
(lp2539
(lp2540
I1697
aS'1'
aS'209'
p2541
aasS'3UTX'
p2542
(lp2543
(lp2544
I6013
aS'10'
p2545
aS'231'
p2546
aasS'3UTY'
p2547
(lp2548
(lp2549
I6013
aS'10'
p2550
aS'231'
p2551
aasS'1L0M'
p2552
(lp2553
(lp2554
I6013
aS'10'
p2555
aS'218'
p2556
aasS'3NXA'
p2557
(lp2558
(lp2559
I580
aS'8'
aS'50'
p2560
aa(lp2561
I580
aS'8'
aS'50'
p2562
aa(lp2563
I959
aS'61'
p2564
aS'82'
p2565
aa(lp2566
I959
aS'61'
p2567
aS'82'
p2568
aasS'3AAK'
p2569
(lp2570
(lp2571
I964
aS'40'
p2572
aS'90'
p2573
aa(lp2574
I2637
aS'97'
p2575
aS'154'
p2576
aasS'3AAJ'
p2577
(lp2578
(lp2579
I964
aS'40'
p2580
aS'90'
p2581
aa(lp2582
I2637
aS'97'
p2583
aS'152'
p2584
aasS'4M2Q'
p2585
(lp2586
(lp2587
I964
aS'40'
p2588
aS'87'
p2589
aa(lp2590
I2637
aS'102'
p2591
aS'174'
p2592
aasS'4M2P'
p2593
(lp2594
(lp2595
I964
aS'40'
p2596
aS'87'
p2597
aa(lp2598
I2637
aS'102'
p2599
aS'174'
p2600
aasS'2LHL'
p2601
(lp2602
(lp2603
I580
aS'4'
aS'45'
p2604
aa(lp2605
I2631
aS'54'
p2606
aS'80'
p2607
aasS'4HD0'
p2608
(lp2609
(lp2610
I1697
aS'1'
aS'209'
p2611
aasS'3GDC'
p2612
(lp2613
(lp2614
I3227
aS'66'
p2615
aS'167'
p2616
aa(lp2617
I3228
aS'187'
p2618
aS'297'
p2619
aasS'2JTZ'
p2620
(lp2621
(lp2622
I964
aS'32'
p2623
aS'83'
p2624
aa(lp2625
I2637
aS'99'
p2626
aS'157'
p2627
aasS'2L50'
p2628
(lp2629
(lp2630
I580
aS'8'
aS'50'
p2631
aa(lp2632
I959
aS'61'
p2633
aS'82'
p2634
aasS'2YAE'
p2635
(lp2636
(lp2637
I2580
aS'197'
p2638
aS'285'
p2639
aa(lp2640
I3227
aS'52'
p2641
aS'158'
p2642
aa(lp2643
I3228
aS'348'
p2644
aS'461'
p2645
aasS'2C4G'
p2646
(lp2647
(lp2648
I252
aS'4'
aS'286'
p2649
aa(lp2650
I2963
aS'309'
p2651
aS'426'
p2652
aa(lp2653
I6787
aS'181'
p2654
aS'306'
p2655
aasS'4M0V'
p2656
(lp2657
(lp2658
I853
aS'276'
p2659
aS'340'
p2660
aa(lp2661
I1697
aS'1'
aS'225'
p2662
aasS'2MPT'
p2663
(lp2664
(lp2665
I4465
aS'479'
p2666
aS'508'
p2667
aasS'2UZL'
p2668
(lp2669
(lp2670
I252
aS'4'
aS'286'
p2671
aa(lp2672
I2963
aS'309'
p2673
aS'426'
p2674
aa(lp2675
I6787
aS'181'
p2676
aS'306'
p2677
aasS'1OGU'
p2678
(lp2679
(lp2680
I252
aS'4'
aS'286'
p2681
aa(lp2682
I2963
aS'309'
p2683
aS'426'
p2684
aa(lp2685
I6787
aS'181'
p2686
aS'306'
p2687
aasS'1WR7'
p2688
(lp2689
(lp2690
I4465
aS'9'
aS'38'
p2691
aasS'4WWL'
p2692
(lp2693
(lp2694
I1583
aS'363'
p2695
aS'509'
p2696
aa(lp2697
I1697
aS'35'
p2698
aS'254'
p2699
aasS'2L1R'
p2700
(lp2701
(lp2702
I964
aS'32'
p2703
aS'83'
p2704
aasS'3WIA'
p2705
(lp2706
(lp2707
I3227
aS'50'
p2708
aS'158'
p2709
aa(lp2710
I3228
aS'201'
p2711
aS'310'
p2712
aasS'1WR3'
p2713
(lp2714
(lp2715
I4465
aS'5'
aS'34'
p2716
aasS'1VYW'
p2717
(lp2718
(lp2719
I252
aS'4'
aS'286'
p2720
aa(lp2721
I2963
aS'309'
p2722
aS'426'
p2723
aa(lp2724
I6787
aS'181'
p2725
aS'306'
p2726
aasS'4BDV'
p2727
(lp2728
(lp2729
I826
aS'2036'
p2730
aS'2166'
p2731
aa(lp2732
I826
aS'2189'
p2733
aS'2323'
p2734
aa(lp2735
I2580
aS'205'
p2736
aS'329'
p2737
aa(lp2738
I3227
aS'71'
p2739
aS'178'
p2740
aa(lp2741
I3227
aS'435'
p2742
aS'553'
p2743
aa(lp2744
I3228
aS'1911'
p2745
aS'2018'
p2746
aasS'3H69'
p2747
(lp2748
(lp2749
I264
aS'176'
p2750
aS'228'
p2751
aa(lp2752
I1697
aS'236'
p2753
aS'428'
p2754
aasS'3H68'
p2755
(lp2756
(lp2757
I264
aS'176'
p2758
aS'228'
p2759
aa(lp2760
I1697
aS'236'
p2761
aS'428'
p2762
aasS'4JA9'
p2763
(lp2764
(lp2765
I264
aS'136'
p2766
aS'228'
p2767
aa(lp2768
I1697
aS'236'
p2769
aS'428'
p2770
aa(lp2771
I2998
aS'97'
p2772
aS'129'
p2773
aa(lp2774
I5736
aS'27'
p2775
aS'93'
p2776
aasS'3H63'
p2777
(lp2778
(lp2779
I264
aS'176'
p2780
aS'228'
p2781
aa(lp2782
I1697
aS'236'
p2783
aS'428'
p2784
aasS'3H62'
p2785
(lp2786
(lp2787
I264
aS'176'
p2788
aS'228'
p2789
aa(lp2790
I1697
aS'236'
p2791
aS'428'
p2792
aasS'4JA7'
p2793
(lp2794
(lp2795
I264
aS'136'
p2796
aS'228'
p2797
aa(lp2798
I1697
aS'236'
p2799
aS'428'
p2800
aa(lp2801
I2998
aS'97'
p2802
aS'129'
p2803
aa(lp2804
I5736
aS'27'
p2805
aS'93'
p2806
aasS'3H60'
p2807
(lp2808
(lp2809
I264
aS'176'
p2810
aS'228'
p2811
aa(lp2812
I1697
aS'236'
p2813
aS'428'
p2814
aasS'4MX9'
p2815
(lp2816
(lp2817
I252
aS'51'
p2818
aS'307'
p2819
aa(lp2820
I959
aS'362'
p2821
aS'380'
p2822
aa(lp2823
I964
aS'403'
p2824
aS'429'
p2825
aa(lp2826
I2637
aS'442'
p2827
aS'499'
p2828
aasS'3H66'
p2829
(lp2830
(lp2831
I264
aS'176'
p2832
aS'228'
p2833
aa(lp2834
I1697
aS'236'
p2835
aS'428'
p2836
aasS'3H64'
p2837
(lp2838
(lp2839
I264
aS'176'
p2840
aS'228'
p2841
aa(lp2842
I1697
aS'236'
p2843
aS'428'
p2844
aasS'3CDZ'
p2845
(lp2846
(lp2847
I826
aS'2036'
p2848
aS'2166'
p2849
aa(lp2850
I826
aS'2189'
p2851
aS'2323'
p2852
aa(lp2853
I2580
aS'205'
p2854
aS'329'
p2855
aa(lp2856
I3227
aS'71'
p2857
aS'178'
p2858
aa(lp2859
I3227
aS'435'
p2860
aS'553'
p2861
aa(lp2862
I3228
aS'1901'
p2863
aS'2018'
p2864
aasS'1R6P'
p2865
(lp2866
(lp2867
I964
aS'32'
p2868
aS'83'
p2869
aasS'4MXA'
p2870
(lp2871
(lp2872
I252
aS'51'
p2873
aS'307'
p2874
aa(lp2875
I959
aS'362'
p2876
aS'380'
p2877
aa(lp2878
I964
aS'403'
p2879
aS'429'
p2880
aa(lp2881
I2637
aS'442'
p2882
aS'499'
p2883
aasS'2KGB'
p2884
(lp2885
(lp2886
I964
aS'32'
p2887
aS'83'
p2888
aasS'1M39'
p2889
(lp2890
(lp2891
I964
aS'117'
p2892
aS'165'
p2893
aasS'1TK7'
p2894
(lp2895
(lp2896
I4465
aS'13'
p2897
aS'42'
p2898
aa(lp2899
I4465
aS'57'
p2900
aS'86'
p2901
aasS'2BRD'
p2902
(lp2903
(lp2904
I6013
aS'10'
p2905
aS'228'
p2906
aasS'1YUR'
p2907
(lp2908
(lp2909
I580
aS'9'
aS'51'
p2910
aasS'1M31'
p2911
(lp2912
(lp2913
I580
aS'5'
aS'46'
p2914
aasS'2I40'
p2915
(lp2916
(lp2917
I252
aS'4'
aS'286'
p2918
aa(lp2919
I2963
aS'309'
p2920
aS'426'
p2921
aa(lp2922
I6787
aS'181'
p2923
aS'306'
p2924
aasS'4ROF'
p2925
(lp2926
(lp2927
I4465
aS'440'
p2928
aS'469'
p2929
aasS'1WRL'
p2930
(lp2931
(lp2932
I964
aS'32'
p2933
aS'83'
p2934
aasS'3QDC'
p2935
(lp2936
(lp2937
I6013
aS'5'
aS'219'
p2938
aasS'3WI9'
p2939
(lp2940
(lp2941
I3227
aS'50'
p2942
aS'158'
p2943
aa(lp2944
I3228
aS'201'
p2945
aS'310'
p2946
aasS'1WRK'
p2947
(lp2948
(lp2949
I964
aS'32'
p2950
aS'83'
p2951
aasS'2CJM'
p2952
(lp2953
(lp2954
I252
aS'4'
aS'286'
p2955
aa(lp2956
I2963
aS'309'
p2957
aS'426'
p2958
aa(lp2959
I6787
aS'181'
p2960
aS'306'
p2961
aasS'4FPD'
p2962
(lp2963
(lp2964
I6013
aS'10'
p2965
aS'229'
p2966
aasS'3T6W'
p2967
(lp2968
(lp2969
I2580
aS'144'
p2970
aS'287'
p2971
aa(lp2972
I3227
aS'14'
p2973
aS'131'
p2974
aa(lp2975
I3228
aS'349'
p2976
aS'470'
p2977
aasS'3T6V'
p2978
(lp2979
(lp2980
I2580
aS'144'
p2981
aS'287'
p2982
aa(lp2983
I3227
aS'14'
p2984
aS'131'
p2985
aa(lp2986
I3228
aS'349'
p2987
aS'470'
p2988
aasS'1NX3'
p2989
(lp2990
(lp2991
I959
aS'177'
p2992
aS'192'
p2993
aa(lp2994
I964
aS'110'
p2995
aS'166'
p2996
aasS'1UCQ'
p2997
(lp2998
(lp2999
I6013
aS'10'
p3000
aS'231'
p3001
aasS'1S53'
p3002
(lp3003
(lp3004
I6013
aS'10'
p3005
aS'230'
p3006
aasS'1S52'
p3007
(lp3008
(lp3009
I6013
aS'10'
p3010
aS'230'
p3011
aasS'1S51'
p3012
(lp3013
(lp3014
I6013
aS'10'
p3015
aS'230'
p3016
aasS'3T6Z'
p3017
(lp3018
(lp3019
I2580
aS'144'
p3020
aS'287'
p3021
aa(lp3022
I3227
aS'14'
p3023
aS'131'
p3024
aa(lp3025
I3228
aS'349'
p3026
aS'470'
p3027
aasS'3TDB'
p3028
(lp3029
(lp3030
I1109
aS'59'
p3031
aS'162'
p3032
aa(lp3033
I4465
aS'7'
aS'37'
p3034
aasS'4O4K'
p3035
(lp3036
(lp3037
I1697
aS'7'
aS'219'
p3038
aasS'1DVI'
p3039
(lp3040
(lp3041
I964
aS'114'
p3042
aS'170'
p3043
aasS'2JT3'
p3044
(lp3045
(lp3046
I964
aS'32'
p3047
aS'83'
p3048
aa(lp3049
I2637
aS'99'
p3050
aS'157'
p3051
aasS'1EG3'
p3052
(lp3053
(lp3054
I957
aS'211'
p3055
aS'302'
p3056
aa(lp3057
I2634
aS'90'
p3058
aS'207'
p3059
aa(lp3060
I4465
aS'59'
p3061
aS'86'
p3062
aasS'3SQR'
p3063
(lp3064
(lp3065
I2580
aS'161'
p3066
aS'314'
p3067
aa(lp3068
I3227
aS'37'
p3069
aS'151'
p3070
aa(lp3071
I3228
aS'378'
p3072
aS'507'
p3073
aasS'2JT8'
p3074
(lp3075
(lp3076
I964
aS'32'
p3077
aS'83'
p3078
aa(lp3079
I2637
aS'99'
p3080
aS'157'
p3081
aasS'1TCF'
p3082
(lp3083
(lp3084
I964
aS'31'
p3085
aS'82'
p3086
aa(lp3087
I2637
aS'96'
p3088
aS'155'
p3089
aasS'1AP4'
p3090
(lp3091
(lp3092
I964
aS'32'
p3093
aS'83'
p3094
aasS'4UN0'
p3095
(lp3096
(lp3097
I252
aS'729'
p3098
aS'1020'
p3099
aa(lp3100
I2963
aS'160'
p3101
aS'229'
p3102
aa(lp3103
I6787
aS'35'
p3104
aS'155'
p3105
aasS'1OIE'
p3106
(lp3107
(lp3108
I1583
aS'363'
p3109
aS'509'
p3110
aa(lp3111
I1697
aS'35'
p3112
aS'254'
p3113
aasS'4AKQ'
p3114
(lp3115
(lp3116
I2580
aS'240'
p3117
aS'318'
p3118
aa(lp3119
I3227
aS'45'
p3120
aS'81'
p3121
aa(lp3122
I3227
aS'101'
p3123
aS'178'
p3124
aa(lp3125
I3228
aS'378'
p3126
aS'509'
p3127
aasS'2JMF'
p3128
(lp3129
(lp3130
I4465
aS'523'
p3131
aS'552'
p3132
aasS'3L19'
p3133
(lp3134
(lp3135
I964
aS'412'
p3136
aS'438'
p3137
aa(lp3138
I2631
aS'370'
p3139
aS'397'
p3140
aa(lp3141
I2637
aS'452'
p3142
aS'509'
p3143
aasS'1AP9'
p3144
(lp3145
(lp3146
I6013
aS'10'
p3147
aS'225'
p3148
aasS'1YIU'
p3149
(lp3150
(lp3151
I4465
aS'6'
aS'35'
p3152
aasS'3UAD'
p3153
(lp3154
(lp3155
I2580
aS'227'
p3156
aS'292'
p3157
aa(lp3158
I3227
aS'55'
p3159
aS'165'
p3160
aa(lp3161
I3228
aS'402'
p3162
aS'516'
p3163
aasS'2C5O'
p3164
(lp3165
(lp3166
I252
aS'4'
aS'286'
p3167
aa(lp3168
I2963
aS'309'
p3169
aS'426'
p3170
aa(lp3171
I6787
aS'181'
p3172
aS'306'
p3173
aasS'3FU7'
p3174
(lp3175
(lp3176
I2580
aS'169'
p3177
aS'315'
p3178
aa(lp3179
I2580
aS'169'
p3180
aS'315'
p3181
aa(lp3182
I3227
aS'48'
p3183
aS'159'
p3184
aa(lp3185
I3227
aS'48'
p3186
aS'159'
p3187
aa(lp3188
I3228
aS'387'
p3189
aS'522'
p3190
aa(lp3191
I3228
aS'387'
p3192
aS'522'
p3193
aasS'3PAV'
p3194
(lp3195
(lp3196
I2580
aS'227'
p3197
aS'292'
p3198
aa(lp3199
I3227
aS'55'
p3200
aS'165'
p3201
aa(lp3202
I3228
aS'403'
p3203
aS'516'
p3204
aasS'3PAU'
p3205
(lp3206
(lp3207
I2580
aS'227'
p3208
aS'292'
p3209
aa(lp3210
I3227
aS'55'
p3211
aS'165'
p3212
aa(lp3213
I3228
aS'402'
p3214
aS'516'
p3215
aasS'4HYJ'
p3216
(lp3217
(lp3218
I6013
aS'14'
p3219
aS'240'
p3220
aasS'2TN4'
p3221
(lp3222
(lp3223
I964
aS'31'
p3224
aS'82'
p3225
aa(lp3226
I2637
aS'96'
p3227
aS'155'
p3228
aasS'1E8A'
p3229
(lp3230
(lp3231
I580
aS'3'
aS'45'
p3232
aasS'2WMB'
p3233
(lp3234
(lp3235
I252
aS'4'
aS'286'
p3236
aa(lp3237
I2963
aS'309'
p3238
aS'426'
p3239
aa(lp3240
I6787
aS'181'
p3241
aS'306'
p3242
aasS'2K2F'
p3243
(lp3244
(lp3245
I580
aS'4'
aS'45'
p3246
aa(lp3247
I2631
aS'54'
p3248
aS'80'
p3249
aasS'3QBG'
p3250
(lp3251
(lp3252
I6013
aS'36'
p3253
aS'272'
p3254
aasS'2WMA'
p3255
(lp3256
(lp3257
I252
aS'4'
aS'286'
p3258
aa(lp3259
I2963
aS'309'
p3260
aS'426'
p3261
aa(lp3262
I6787
aS'181'
p3263
aS'306'
p3264
aasS'2H61'
p3265
(lp3266
(lp3267
I580
aS'3'
aS'45'
p3268
aa(lp3269
I580
aS'3'
aS'45'
p3270
aa(lp3271
I2631
aS'53'
p3272
aS'79'
p3273
aa(lp3274
I2631
aS'53'
p3275
aS'79'
p3276
aasS'2MZP'
p3277
(lp3278
(lp3279
I964
aS'32'
p3280
aS'83'
p3281
aasS'3NS0'
p3282
(lp3283
(lp3284
I6013
aS'10'
p3285
aS'231'
p3286
aasS'2R2I'
p3287
(lp3288
(lp3289
I964
aS'30'
p3290
aS'79'
p3291
aa(lp3292
I2637
aS'91'
p3293
aS'157'
p3294
aasS'1IW6'
p3295
(lp3296
(lp3297
I6013
aS'10'
p3298
aS'231'
p3299
aasS'2ZND'
p3300
(lp3301
(lp3302
I964
aS'40'
p3303
aS'90'
p3304
aa(lp3305
I2637
aS'97'
p3306
aS'154'
p3307
aasS'3NSF'
p3308
(lp3309
(lp3310
I2580
aS'227'
p3311
aS'292'
p3312
aa(lp3313
I3227
aS'55'
p3314
aS'165'
p3315
aa(lp3316
I3228
aS'402'
p3317
aS'518'
p3318
aasS'1S8L'
p3319
(lp3320
(lp3321
I6013
aS'10'
p3322
aS'232'
p3323
aasS'3NSD'
p3324
(lp3325
(lp3326
I2580
aS'227'
p3327
aS'292'
p3328
aa(lp3329
I3227
aS'55'
p3330
aS'165'
p3331
aa(lp3332
I3228
aS'404'
p3333
aS'516'
p3334
aasS'2ZN9'
p3335
(lp3336
(lp3337
I964
aS'40'
p3338
aS'90'
p3339
aa(lp3340
I2637
aS'97'
p3341
aS'154'
p3342
aasS'3NSB'
p3343
(lp3344
(lp3345
I6013
aS'10'
p3346
aS'231'
p3347
aasS'3NSC'
p3348
(lp3349
(lp3350
I2580
aS'227'
p3351
aS'292'
p3352
aa(lp3353
I3227
aS'55'
p3354
aS'165'
p3355
aa(lp3356
I3228
aS'403'
p3357
aS'518'
p3358
aasS'1PKD'
p3359
(lp3360
(lp3361
I252
aS'4'
aS'286'
p3362
aa(lp3363
I2963
aS'309'
p3364
aS'426'
p3365
aa(lp3366
I6787
aS'181'
p3367
aS'306'
p3368
aasS'3NSO'
p3369
(lp3370
(lp3371
I580
aS'5'
aS'46'
p3372
aasS'2X88'
p3373
(lp3374
(lp3375
I2580
aS'240'
p3376
aS'318'
p3377
aa(lp3378
I3227
aS'45'
p3379
aS'81'
p3380
aa(lp3381
I3227
aS'101'
p3382
aS'178'
p3383
aa(lp3384
I3228
aS'378'
p3385
aS'509'
p3386
aasS'3NSK'
p3387
(lp3388
(lp3389
I580
aS'5'
aS'46'
p3390
aasS'1XK4'
p3391
(lp3392
(lp3393
I580
aS'5'
aS'46'
p3394
aa(lp3395
I580
aS'8'
aS'50'
p3396
aasS'3NSI'
p3397
(lp3398
(lp3399
I580
aS'5'
aS'46'
p3400
aasS'4O43'
p3401
(lp3402
(lp3403
I1697
aS'7'
aS'219'
p3404
aasS'1W98'
p3405
(lp3406
(lp3407
I252
aS'4'
aS'286'
p3408
aa(lp3409
I2963
aS'230'
p3410
aS'350'
p3411
aa(lp3412
I6787
aS'100'
p3413
aS'226'
p3414
aasS'3EID'
p3415
(lp3416
(lp3417
I252
aS'4'
aS'286'
p3418
aa(lp3419
I2963
aS'309'
p3420
aS'426'
p3421
aa(lp3422
I6787
aS'181'
p3423
aS'306'
p3424
aasS'3HCM'
p3425
(lp3426
(lp3427
I580
aS'3'
aS'45'
p3428
aa(lp3429
I2631
aS'53'
p3430
aS'79'
p3431
aasS'4FTG'
p3432
(lp3433
(lp3434
I580
aS'4'
aS'43'
p3435
aasS'1NMV'
p3436
(lp3437
(lp3438
I1109
aS'59'
p3439
aS'162'
p3440
aa(lp3441
I4465
aS'7'
aS'37'
p3442
aasS'1V73'
p3443
(lp3444
(lp3445
I1697
aS'72'
p3446
aS'287'
p3447
aasS'3CR2'
p3448
(lp3449
(lp3450
I580
aS'3'
aS'45'
p3451
aa(lp3452
I2631
aS'53'
p3453
aS'79'
p3454
aasS'3KAB'
p3455
(lp3456
(lp3457
I1109
aS'59'
p3458
aS'162'
p3459
aa(lp3460
I4465
aS'7'
aS'37'
p3461
aasS'3CR4'
p3462
(lp3463
(lp3464
I580
aS'3'
aS'45'
p3465
aa(lp3466
I2631
aS'53'
p3467
aS'79'
p3468
aasS'3KAD'
p3469
(lp3470
(lp3471
I1109
aS'59'
p3472
aS'162'
p3473
aa(lp3474
I4465
aS'7'
aS'37'
p3475
aasS'3KAG'
p3476
(lp3477
(lp3478
I1109
aS'59'
p3479
aS'162'
p3480
aa(lp3481
I4465
aS'7'
aS'37'
p3482
aasS'3KAF'
p3483
(lp3484
(lp3485
I1109
aS'59'
p3486
aS'162'
p3487
aa(lp3488
I4465
aS'7'
aS'37'
p3489
aasS'1XYD'
p3490
(lp3491
(lp3492
I580
aS'3'
aS'45'
p3493
aa(lp3494
I2631
aS'53'
p3495
aS'79'
p3496
aasS'3KAH'
p3497
(lp3498
(lp3499
I1109
aS'59'
p3500
aS'162'
p3501
aa(lp3502
I4465
aS'7'
aS'37'
p3503
aasS'3L4H'
p3504
(lp3505
(lp3506
I4465
aS'1020'
p3507
aS'1049'
p3508
aasS'3C1V'
p3509
(lp3510
(lp3511
I580
aS'5'
aS'46'
p3512
aasS'1M8Q'
p3513
(lp3514
(lp3515
I964
aS'39'
p3516
aS'70'
p3517
aa(lp3518
I1461
aS'89'
p3519
aS'768'
p3520
aa(lp3521
I2051
aS'3'
aS'372'
p3522
aa(lp3523
I5670
aS'35'
p3524
aS'74'
p3525
aasS'2L6X'
p3526
(lp3527
(lp3528
I6013
aS'31'
p3529
aS'246'
p3530
aasS'3PSR'
p3531
(lp3532
(lp3533
I580
aS'6'
aS'43'
p3534
aasS'2WCE'
p3535
(lp3536
(lp3537
I580
aS'3'
aS'45'
p3538
aasS'2Z55'
p3539
(lp3540
(lp3541
I6013
aS'14'
p3542
aS'238'
p3543
aasS'4EC8'
p3544
(lp3545
(lp3546
I252
aS'19'
p3547
aS'315'
p3548
aa(lp3549
I6787
aS'12'
p3550
aS'148'
p3551
aasS'5BNJ'
p3552
(lp3553
(lp3554
I165
aS'154'
p3555
aS'239'
p3556
aa(lp3557
I252
aS'26'
p3558
aS'335'
p3559
aa(lp3560
I6787
aS'46'
p3561
aS'148'
p3562
aasS'2WCB'
p3563
(lp3564
(lp3565
I580
aS'3'
aS'45'
p3566
aasS'1I84'
p3567
(lp3568
(lp3569
I964
aS'39'
p3570
aS'70'
p3571
aa(lp3572
I1461
aS'86'
p3573
aS'777'
p3574
aa(lp3575
I2638
aS'10'
p3576
aS'39'
p3577
aa(lp3578
I5670
aS'32'
p3579
aS'72'
p3580
aa(lp3581
I5842
aS'854'
p3582
aS'943'
p3583
aa(lp3584
I6491
aS'796'
p3585
aS'812'
p3586
aasS'2ZN8'
p3587
(lp3588
(lp3589
I964
aS'40'
p3590
aS'90'
p3591
aa(lp3592
I2637
aS'97'
p3593
aS'154'
p3594
aasS'1Q5I'
p3595
(lp3596
(lp3597
I6013
aS'10'
p3598
aS'231'
p3599
aasS'3ZWH'
p3600
(lp3601
(lp3602
I580
aS'5'
aS'46'
p3603
aa(lp3604
I5842
aS'1894'
p3605
aS'1921'
p3606
aasS'1Q5J'
p3607
(lp3608
(lp3609
I6013
aS'10'
p3610
aS'231'
p3611
aasS'2K8M'
p3612
(lp3613
(lp3614
I580
aS'9'
aS'51'
p3615
aa(lp3616
I580
aS'9'
aS'51'
p3617
aa(lp3618
I4055
aS'18'
p3619
aS'123'
p3620
aa(lp3621
I4055
aS'18'
p3622
aS'123'
p3623
aasS'2JPT'
p3624
(lp3625
(lp3626
I580
aS'4'
aS'45'
p3627
aa(lp3628
I2631
aS'54'
p3629
aS'80'
p3630
aasS'3QAP'
p3631
(lp3632
(lp3633
I6013
aS'5'
aS'219'
p3634
aasS'4Q89'
p3635
(lp3636
(lp3637
I2580
aS'240'
p3638
aS'318'
p3639
aa(lp3640
I3227
aS'45'
p3641
aS'81'
p3642
aa(lp3643
I3227
aS'101'
p3644
aS'178'
p3645
aa(lp3646
I3228
aS'378'
p3647
aS'509'
p3648
aasS'3THO'
p3649
(lp3650
(lp3651
I1197
aS'733'
p3652
aS'816'
p3653
aa(lp3654
I1697
aS'7'
aS'219'
p3655
aa(lp3656
I5251
aS'5'
aS'695'
p3657
aasS'2Q5A'
p3658
(lp3659
(lp3660
I1109
aS'59'
p3661
aS'162'
p3662
aa(lp3663
I4465
aS'7'
aS'37'
p3664
aasS'1G3N'
p3665
(lp3666
(lp3667
I252
aS'13'
p3668
aS'300'
p3669
aa(lp3670
I6705
aS'148'
p3671
aS'253'
p3672
aa(lp3673
I6787
aS'21'
p3674
aS'145'
p3675
aa(lp3676
I7453
aS'10'
p3677
aS'43'
p3678
aa(lp3679
I7454
aS'89'
p3680
aS'144'
p3681
aasS'3IQO'
p3682
(lp3683
(lp3684
I580
aS'3'
aS'45'
p3685
aa(lp3686
I2631
aS'53'
p3687
aS'79'
p3688
aasS'1YW5'
p3689
(lp3690
(lp3691
I1109
aS'72'
p3692
aS'176'
p3693
aa(lp3694
I4465
aS'8'
aS'38'
p3695
aasS'1GU8'
p3696
(lp3697
(lp3698
I6013
aS'5'
aS'219'
p3699
aasS'3TGH'
p3700
(lp3701
(lp3702
I1697
aS'28'
p3703
aS'257'
p3704
aasS'2XVB'
p3705
(lp3706
(lp3707
I2580
aS'197'
p3708
aS'285'
p3709
aa(lp3710
I3227
aS'52'
p3711
aS'158'
p3712
aa(lp3713
I3228
aS'348'
p3714
aS'461'
p3715
aasS'1CNP'
p3716
(lp3717
(lp3718
I580
aS'6'
aS'42'
p3719
aasS'1E12'
p3720
(lp3721
(lp3722
I6013
aS'32'
p3723
aS'258'
p3724
aasS'3RGF'
p3725
(lp3726
(lp3727
I165
aS'154'
p3728
aS'239'
p3729
aa(lp3730
I252
aS'26'
p3731
aS'335'
p3732
aa(lp3733
I6787
aS'46'
p3734
aS'148'
p3735
aasS'4ICB'
p3736
(lp3737
(lp3738
I580
aS'9'
aS'41'
p3739
aa(lp3740
I2631
aS'46'
p3741
aS'72'
p3742
aasS'1IW9'
p3743
(lp3744
(lp3745
I6013
aS'10'
p3746
aS'231'
p3747
aasS'3SD6'
p3748
(lp3749
(lp3750
I964
aS'32'
p3751
aS'83'
p3752
aasS'3NSL'
p3753
(lp3754
(lp3755
I580
aS'5'
aS'46'
p3756
aasS'3O4Y'
p3757
(lp3758
(lp3759
I964
aS'69'
p3760
aS'114'
p3761
aa(lp3762
I2637
aS'128'
p3763
aS'192'
p3764
aasS'3J8H'
p3765
(lp3766
(lp3767
I250
aS'13'
p3768
aS'104'
p3769
aa(lp3770
I964
aS'4084'
p3771
aS'4131'
p3772
aa(lp3773
I1673
aS'661'
p3774
aS'794'
p3775
aa(lp3776
I1673
aS'1087'
p3777
aS'1206'
p3778
aa(lp3779
I1673
aS'1433'
p3780
aS'1565'
p3781
aa(lp3782
I2158
aS'3878'
p3783
aS'3993'
p3784
aa(lp3785
I2896
aS'212'
p3786
aS'390'
p3787
aa(lp3788
I5657
aS'851'
p3789
aS'940'
p3790
aa(lp3791
I5657
aS'965'
p3792
aS'1054'
p3793
aa(lp3794
I5657
aS'2735'
p3795
aS'2825'
p3796
aa(lp3797
I5657
aS'2855'
p3798
aS'2938'
p3799
aa(lp3800
I6706
aS'444'
p3801
aS'637'
p3802
aa(lp3803
I6706
aS'2160'
p3804
aS'2362'
p3805
aa(lp3806
I6960
aS'4802'
p3807
aS'4947'
p3808
aa(lp3809
I7227
aS'4545'
p3810
aS'4670'
p3811
aa(lp3812
I7481
aS'12'
p3813
aS'210'
p3814
aasS'3J2S'
p3815
(lp3816
(lp3817
I826
aS'2036'
p3818
aS'2166'
p3819
aa(lp3820
I826
aS'2189'
p3821
aS'2323'
p3822
aa(lp3823
I3228
aS'1901'
p3824
aS'2018'
p3825
aasS'1KBP'
p3826
(lp3827
(lp3828
I1697
aS'129'
p3829
aS'327'
p3830
aa(lp3831
I2715
aS'353'
p3832
aS'411'
p3833
aa(lp3834
I5593
aS'27'
p3835
aS'118'
p3836
aasS'1K2H'
p3837
(lp3838
(lp3839
I580
aS'4'
aS'45'
p3840
aa(lp3841
I2631
aS'54'
p3842
aS'80'
p3843
aasS'4EF3'
p3844
(lp3845
(lp3846
I2580
aS'227'
p3847
aS'292'
p3848
aa(lp3849
I3227
aS'55'
p3850
aS'165'
p3851
aa(lp3852
I3228
aS'402'
p3853
aS'516'
p3854
aasS'1K94'
p3855
(lp3856
(lp3857
I959
aS'128'
p3858
aS'146'
p3859
aa(lp3860
I964
aS'64'
p3861
aS'119'
p3862
aasS'1YWJ'
p3863
(lp3864
(lp3865
I4465
aS'16'
p3866
aS'42'
p3867
aasS'1YWI'
p3868
(lp3869
(lp3870
I4465
aS'16'
p3871
aS'42'
p3872
aasS'2KAY'
p3873
(lp3874
(lp3875
I580
aS'5'
aS'42'
p3876
aasS'1JST'
p3877
(lp3878
(lp3879
I252
aS'4'
aS'286'
p3880
aa(lp3881
I2963
aS'309'
p3882
aS'426'
p3883
aa(lp3884
I6787
aS'181'
p3885
aS'306'
p3886
aasS'3F5X'
p3887
(lp3888
(lp3889
I252
aS'4'
aS'286'
p3890
aa(lp3891
I2963
aS'309'
p3892
aS'426'
p3893
aa(lp3894
I6787
aS'181'
p3895
aS'306'
p3896
aasS'1S95'
p3897
(lp3898
(lp3899
I264
aS'176'
p3900
aS'228'
p3901
aa(lp3902
I1697
aS'236'
p3903
aS'428'
p3904
aasS'4Q8B'
p3905
(lp3906
(lp3907
I2580
aS'240'
p3908
aS'318'
p3909
aa(lp3910
I3227
aS'45'
p3911
aS'81'
p3912
aa(lp3913
I3227
aS'101'
p3914
aS'178'
p3915
aa(lp3916
I3228
aS'378'
p3917
aS'509'
p3918
aasS'1W8E'
p3919
(lp3920
(lp3921
I2580
aS'240'
p3922
aS'318'
p3923
aa(lp3924
I3227
aS'45'
p3925
aS'81'
p3926
aa(lp3927
I3227
aS'101'
p3928
aS'178'
p3929
aa(lp3930
I3228
aS'378'
p3931
aS'509'
p3932
aasS'4CRL'
p3933
(lp3934
(lp3935
I165
aS'154'
p3936
aS'239'
p3937
aa(lp3938
I252
aS'26'
p3939
aS'335'
p3940
aa(lp3941
I6787
aS'46'
p3942
aS'148'
p3943
aasS'4PXK'
p3944
(lp3945
(lp3946
I6013
aS'9'
aS'236'
p3947
aasS'1X0S'
p3948
(lp3949
(lp3950
I6013
aS'10'
p3951
aS'231'
p3952
aasS'2KI6'
p3953
(lp3954
(lp3955
I580
aS'9'
aS'51'
p3956
aa(lp3957
I580
aS'9'
aS'51'
p3958
aa(lp3959
I3396
aS'6'
aS'126'
p3960
aa(lp3961
I4055
aS'18'
p3962
aS'123'
p3963
aasS'2KI4'
p3964
(lp3965
(lp3966
I580
aS'9'
aS'51'
p3967
aa(lp3968
I580
aS'9'
aS'51'
p3969
aa(lp3970
I3396
aS'6'
aS'126'
p3971
aasS'3LIJ'
p3972
(lp3973
(lp3974
I252
aS'62'
p3975
aS'318'
p3976
aa(lp3977
I964
aS'412'
p3978
aS'438'
p3979
aa(lp3980
I2631
aS'370'
p3981
aS'397'
p3982
aa(lp3983
I2637
aS'452'
p3984
aS'509'
p3985
aasS'2WFY'
p3986
(lp3987
(lp3988
I252
aS'4'
aS'286'
p3989
aa(lp3990
I2963
aS'309'
p3991
aS'426'
p3992
aa(lp3993
I6787
aS'181'
p3994
aS'306'
p3995
aasS'2M1K'
p3996
(lp3997
(lp3998
I158
aS'24'
p3999
aS'117'
p4000
aa(lp4001
I580
aS'6'
aS'42'
p4002
aasS'2M1U'
p4003
(lp4004
(lp4005
I964
aS'40'
p4006
aS'88'
p4007
aasS'2IE4'
p4008
(lp4009
(lp4010
I88
aS'283'
p4011
aS'313'
p4012
aa(lp4013
I1697
aS'51'
p4014
aS'242'
p4015
aa(lp4016
I4185
aS'173'
p4017
aS'263'
p4018
aa(lp4019
I4185
aS'366'
p4020
aS'467'
p4021
aasS'1X0K'
p4022
(lp4023
(lp4024
I6013
aS'10'
p4025
aS'231'
p4026
aasS'1X0I'
p4027
(lp4028
(lp4029
I6013
aS'10'
p4030
aS'233'
p4031
aasS'2IE3'
p4032
(lp4033
(lp4034
I88
aS'283'
p4035
aS'313'
p4036
aa(lp4037
I1697
aS'51'
p4038
aS'242'
p4039
aa(lp4040
I4185
aS'173'
p4041
aS'263'
p4042
aa(lp4043
I4185
aS'366'
p4044
aS'467'
p4045
aasS'1IXF'
p4046
(lp4047
(lp4048
I6013
aS'10'
p4049
aS'231'
p4050
aasS'4XTL'
p4051
(lp4052
(lp4053
I6013
aS'32'
p4054
aS'270'
p4055
aasS'1SYM'
p4056
(lp4057
(lp4058
I580
aS'3'
aS'45'
p4059
aa(lp4060
I2631
aS'53'
p4061
aS'79'
p4062
aasS'1URC'
p4063
(lp4064
(lp4065
I252
aS'4'
aS'286'
p4066
aa(lp4067
I2963
aS'309'
p4068
aS'426'
p4069
aa(lp4070
I6787
aS'181'
p4071
aS'306'
p4072
aasS'2ZQS'
p4073
(lp4074
(lp4075
I1109
aS'59'
p4076
aS'162'
p4077
aa(lp4078
I4465
aS'7'
aS'37'
p4079
aasS'2ZQV'
p4080
(lp4081
(lp4082
I1109
aS'59'
p4083
aS'162'
p4084
aa(lp4085
I4465
aS'7'
aS'37'
p4086
aasS'2ZQU'
p4087
(lp4088
(lp4089
I1109
aS'59'
p4090
aS'162'
p4091
aa(lp4092
I4465
aS'7'
aS'37'
p4093
aasS'2ZQT'
p4094
(lp4095
(lp4096
I1109
aS'59'
p4097
aS'162'
p4098
aa(lp4099
I4465
aS'7'
aS'37'
p4100
aasS'3X1B'
p4101
(lp4102
(lp4103
I2580
aS'163'
p4104
aS'305'
p4105
aa(lp4106
I3227
aS'32'
p4107
aS'151'
p4108
aa(lp4109
I3228
aS'367'
p4110
aS'492'
p4111
aasS'3COD'
p4112
(lp4113
(lp4114
I6013
aS'10'
p4115
aS'231'
p4116
aasS'4LCD'
p4117
(lp4118
(lp4119
I2656
aS'6'
aS'74'
p4120
aa(lp4121
I4465
aS'389'
p4122
aS'418'
p4123
aa(lp4124
I7366
aS'506'
p4125
aS'806'
p4126
aasS'1TOP'
p4127
(lp4128
(lp4129
I964
aS'34'
p4130
aS'85'
p4131
aa(lp4132
I2637
aS'100'
p4133
aS'158'
p4134
aasS'3X1N'
p4135
(lp4136
(lp4137
I3227
aS'50'
p4138
aS'158'
p4139
aa(lp4140
I3228
aS'201'
p4141
aS'310'
p4142
aasS'2IVX'
p4143
(lp4144
(lp4145
I6787
aS'12'
p4146
aS'147'
p4147
aasS'1B1G'
p4148
(lp4149
(lp4150
I580
aS'9'
aS'41'
p4151
aa(lp4152
I2631
aS'46'
p4153
aS'72'
p4154
aasS'2IW8'
p4155
(lp4156
(lp4157
I252
aS'4'
aS'286'
p4158
aa(lp4159
I2963
aS'309'
p4160
aS'426'
p4161
aa(lp4162
I6787
aS'181'
p4163
aS'306'
p4164
aasS'2IW9'
p4165
(lp4166
(lp4167
I252
aS'4'
aS'286'
p4168
aa(lp4169
I2963
aS'309'
p4170
aS'426'
p4171
aa(lp4172
I6787
aS'181'
p4173
aS'306'
p4174
aasS'1AUI'
p4175
(lp4176
(lp4177
I1697
aS'84'
p4178
aS'284'
p4179
aa(lp4180
I2637
aS'23'
p4181
aS'77'
p4182
aa(lp4183
I2637
aS'91'
p4184
aS'154'
p4185
aasS'4H2I'
p4186
(lp4187
(lp4188
I1583
aS'339'
p4189
aS'512'
p4190
aa(lp4191
I1697
aS'29'
p4192
aS'244'
p4193
aasS'1O1C'
p4194
(lp4195
(lp4196
I964
aS'39'
p4197
aS'70'
p4198
aa(lp4199
I1461
aS'89'
p4200
aS'768'
p4201
aa(lp4202
I2051
aS'3'
aS'372'
p4203
aa(lp4204
I5670
aS'35'
p4205
aS'74'
p4206
aasS'1O1B'
p4207
(lp4208
(lp4209
I964
aS'39'
p4210
aS'70'
p4211
aa(lp4212
I1461
aS'89'
p4213
aS'768'
p4214
aa(lp4215
I2051
aS'3'
aS'372'
p4216
aa(lp4217
I5670
aS'35'
p4218
aS'74'
p4219
aasS'1O1A'
p4220
(lp4221
(lp4222
I964
aS'39'
p4223
aS'70'
p4224
aa(lp4225
I1461
aS'89'
p4226
aS'768'
p4227
aa(lp4228
I2051
aS'3'
aS'372'
p4229
aa(lp4230
I5670
aS'35'
p4231
aS'74'
p4232
aasS'1O1G'
p4233
(lp4234
(lp4235
I964
aS'39'
p4236
aS'70'
p4237
aa(lp4238
I1461
aS'89'
p4239
aS'768'
p4240
aa(lp4241
I2051
aS'3'
aS'372'
p4242
aa(lp4243
I5670
aS'35'
p4244
aS'74'
p4245
aasS'1O1F'
p4246
(lp4247
(lp4248
I964
aS'39'
p4249
aS'70'
p4250
aa(lp4251
I1461
aS'89'
p4252
aS'768'
p4253
aa(lp4254
I2051
aS'3'
aS'372'
p4255
aa(lp4256
I5670
aS'35'
p4257
aS'74'
p4258
aasS'1O1E'
p4259
(lp4260
(lp4261
I964
aS'39'
p4262
aS'70'
p4263
aa(lp4264
I1461
aS'89'
p4265
aS'768'
p4266
aa(lp4267
I2051
aS'3'
aS'372'
p4268
aa(lp4269
I5670
aS'35'
p4270
aS'74'
p4271
aasS'1O1D'
p4272
(lp4273
(lp4274
I964
aS'39'
p4275
aS'70'
p4276
aa(lp4277
I1461
aS'89'
p4278
aS'768'
p4279
aa(lp4280
I2051
aS'3'
aS'372'
p4281
aa(lp4282
I5670
aS'35'
p4283
aS'74'
p4284
aasS'1GW0'
p4285
(lp4286
(lp4287
I2580
aS'169'
p4288
aS'315'
p4289
aa(lp4290
I3227
aS'48'
p4291
aS'159'
p4292
aa(lp4293
I3228
aS'387'
p4294
aS'522'
p4295
aasS'4BCF'
p4296
(lp4297
(lp4298
I252
aS'19'
p4299
aS'315'
p4300
aa(lp4301
I6787
aS'12'
p4302
aS'148'
p4303
aasS'3EGG'
p4304
(lp4305
(lp4306
I1697
aS'60'
p4307
aS'249'
p4308
aa(lp4309
I4386
aS'9'
aS'56'
p4310
aa(lp4311
I6338
aS'498'
p4312
aS'579'
p4313
aasS'3NSY'
p4314
(lp4315
(lp4316
I2580
aS'227'
p4317
aS'292'
p4318
aa(lp4319
I3227
aS'55'
p4320
aS'165'
p4321
aa(lp4322
I3228
aS'403'
p4323
aS'518'
p4324
aasS'2WIP'
p4325
(lp4326
(lp4327
I252
aS'4'
aS'286'
p4328
aa(lp4329
I2963
aS'309'
p4330
aS'426'
p4331
aa(lp4332
I6787
aS'181'
p4333
aS'306'
p4334
aasS'4CFU'
p4335
(lp4336
(lp4337
I252
aS'4'
aS'286'
p4338
aa(lp4339
I2963
aS'309'
p4340
aS'426'
p4341
aa(lp4342
I2963
aS'309'
p4343
aS'426'
p4344
aa(lp4345
I6787
aS'181'
p4346
aS'306'
p4347
aa(lp4348
I6787
aS'181'
p4349
aS'306'
p4350
aasS'4CFW'
p4351
(lp4352
(lp4353
I252
aS'4'
aS'286'
p4354
aa(lp4355
I2963
aS'309'
p4356
aS'426'
p4357
aa(lp4358
I6787
aS'181'
p4359
aS'306'
p4360
aasS'4CFV'
p4361
(lp4362
(lp4363
I252
aS'4'
aS'286'
p4364
aa(lp4365
I2963
aS'309'
p4366
aS'426'
p4367
aa(lp4368
I6787
aS'181'
p4369
aS'306'
p4370
aasS'4CFQ'
p4371
(lp4372
(lp4373
I580
aS'5'
aS'46'
p4374
aa(lp4375
I5842
aS'1902'
p4376
aS'1921'
p4377
aasS'4HRH'
p4378
(lp4379
(lp4380
I580
aS'4'
aS'43'
p4381
aasS'4CFR'
p4382
(lp4383
(lp4384
I580
aS'5'
aS'46'
p4385
aa(lp4386
I5842
aS'1894'
p4387
aS'1921'
p4388
aasS'4HRG'
p4389
(lp4390
(lp4391
I580
aS'4'
aS'43'
p4392
aasS'4HRE'
p4393
(lp4394
(lp4395
I580
aS'4'
aS'43'
p4396
aa(lp4397
I4833
aS'38'
p4398
aS'102'
p4399
aa(lp4400
I4833
aS'109'
p4401
aS'174'
p4402
aa(lp4403
I4833
aS'193'
p4404
aS'259'
p4405
aa(lp4406
I4833
aS'269'
p4407
aS'334'
p4408
aasS'3G33'
p4409
(lp4410
(lp4411
I252
aS'11'
p4412
aS'300'
p4413
aa(lp4414
I2963
aS'157'
p4415
aS'254'
p4416
aa(lp4417
I6787
aS'27'
p4418
aS'152'
p4419
aasS'4CFX'
p4420
(lp4421
(lp4422
I252
aS'4'
aS'286'
p4423
aa(lp4424
I2963
aS'309'
p4425
aS'426'
p4426
aa(lp4427
I6787
aS'181'
p4428
aS'306'
p4429
aasS'2PRU'
p4430
(lp4431
(lp4432
I580
aS'3'
aS'45'
p4433
aa(lp4434
I2631
aS'53'
p4435
aS'79'
p4436
aasS'1O19'
p4437
(lp4438
(lp4439
I964
aS'39'
p4440
aS'70'
p4441
aa(lp4442
I1461
aS'89'
p4443
aS'768'
p4444
aa(lp4445
I2051
aS'3'
aS'372'
p4446
aa(lp4447
I5670
aS'35'
p4448
aS'74'
p4449
aasS'1O18'
p4450
(lp4451
(lp4452
I964
aS'39'
p4453
aS'70'
p4454
aa(lp4455
I1461
aS'89'
p4456
aS'768'
p4457
aa(lp4458
I2051
aS'3'
aS'372'
p4459
aa(lp4460
I5670
aS'35'
p4461
aS'74'
p4462
aasS'4G9J'
p4463
(lp4464
(lp4465
I1697
aS'60'
p4466
aS'249'
p4467
aa(lp4468
I4386
aS'9'
aS'56'
p4469
aasS'2I20'
p4470
(lp4471
(lp4472
I6013
aS'10'
p4473
aS'231'
p4474
aasS'4CFM'
p4475
(lp4476
(lp4477
I252
aS'4'
aS'286'
p4478
aa(lp4479
I2963
aS'309'
p4480
aS'426'
p4481
aa(lp4482
I6787
aS'181'
p4483
aS'306'
p4484
aasS'3MIA'
p4485
(lp4486
(lp4487
I252
aS'19'
p4488
aS'315'
p4489
aa(lp4490
I461
aS'2'
aS'48'
p4491
aa(lp4492
I6787
aS'12'
p4493
aS'148'
p4494
aasS'4CFN'
p4495
(lp4496
(lp4497
I252
aS'4'
aS'286'
p4498
aa(lp4499
I2963
aS'309'
p4500
aS'426'
p4501
aa(lp4502
I6787
aS'181'
p4503
aS'306'
p4504
aasS'4DRW'
p4505
(lp4506
(lp4507
I580
aS'4'
aS'43'
p4508
aasS'3CR5'
p4509
(lp4510
(lp4511
I580
aS'3'
aS'45'
p4512
aa(lp4513
I2631
aS'53'
p4514
aS'79'
p4515
aasS'4W1T'
p4516
(lp4517
(lp4518
I3227
aS'80'
p4519
aS'189'
p4520
aa(lp4521
I3228
aS'208'
p4522
aS'313'
p4523
aasS'4UPG'
p4524
(lp4525
(lp4526
I964
aS'45'
p4527
aS'100'
p4528
aa(lp4529
I2638
aS'106'
p4530
aS'132'
p4531
aasS'1WAO'
p4532
(lp4533
(lp4534
I264
aS'136'
p4535
aS'228'
p4536
aa(lp4537
I1697
aS'236'
p4538
aS'428'
p4539
aa(lp4540
I2998
aS'97'
p4541
aS'129'
p4542
aa(lp4543
I5736
aS'27'
p4544
aS'93'
p4545
aasS'1N65'
p4546
(lp4547
(lp4548
I580
aS'9'
aS'41'
p4549
aa(lp4550
I2631
aS'46'
p4551
aS'72'
p4552
aasS'2PK2'
p4553
(lp4554
(lp4555
I6787
aS'12'
p4556
aS'148'
p4557
aa(lp4558
I6787
aS'12'
p4559
aS'148'
p4560
aasS'4GJE'
p4561
(lp4562
(lp4563
I964
aS'32'
p4564
aS'83'
p4565
aasS'3KAI'
p4566
(lp4567
(lp4568
I1109
aS'59'
p4569
aS'162'
p4570
aa(lp4571
I4465
aS'7'
aS'37'
p4572
aasS'1VGO'
p4573
(lp4574
(lp4575
I6013
aS'14'
p4576
aS'237'
p4577
aasS'2W99'
p4578
(lp4579
(lp4580
I252
aS'6'
aS'295'
p4581
aa(lp4582
I2963
aS'155'
p4583
aS'267'
p4584
aa(lp4585
I6787
aS'28'
p4586
aS'152'
p4587
aasS'1ODB'
p4588
(lp4589
(lp4590
I580
aS'3'
aS'45'
p4591
aasS'2UZE'
p4592
(lp4593
(lp4594
I252
aS'4'
aS'286'
p4595
aa(lp4596
I2963
aS'309'
p4597
aS'426'
p4598
aa(lp4599
I6787
aS'181'
p4600
aS'306'
p4601
aasS'2UZD'
p4602
(lp4603
(lp4604
I252
aS'4'
aS'286'
p4605
aa(lp4606
I2963
aS'309'
p4607
aS'426'
p4608
aa(lp4609
I6787
aS'181'
p4610
aS'306'
p4611
aasS'4FCX'
p4612
(lp4613
(lp4614
I969
aS'299'
p4615
aS'411'
p4616
aa(lp4617
I1697
aS'19'
p4618
aS'253'
p4619
aasS'2UZB'
p4620
(lp4621
(lp4622
I252
aS'4'
aS'286'
p4623
aa(lp4624
I2963
aS'309'
p4625
aS'426'
p4626
aa(lp4627
I6787
aS'181'
p4628
aS'306'
p4629
aasS'2F2C'
p4630
(lp4631
(lp4632
I252
aS'13'
p4633
aS'300'
p4634
aa(lp4635
I6787
aS'32'
p4636
aS'147'
p4637
aa(lp4638
I7043
aS'149'
p4639
aS'254'
p4640
aasS'2LUC'
p4641
(lp4642
(lp4643
I580
aS'11'
p4644
aS'52'
p4645
aa(lp4646
I2631
aS'60'
p4647
aS'84'
p4648
aasS'3DD4'
p4649
(lp4650
(lp4651
I964
aS'79'
p4652
aS'127'
p4653
aa(lp4654
I2637
aS'142'
p4655
aS'210'
p4656
aasS'1R2U'
p4657
(lp4658
(lp4659
I964
aS'32'
p4660
aS'83'
p4661
aasS'1M63'
p4662
(lp4663
(lp4664
I1697
aS'84'
p4665
aS'284'
p4666
aa(lp4667
I2637
aS'23'
p4668
aS'77'
p4669
aa(lp4670
I2637
aS'91'
p4671
aS'154'
p4672
aa(lp4673
I7027
aS'8'
aS'162'
p4674
aasS'4LU9'
p4675
(lp4676
(lp4677
I853
aS'276'
p4678
aS'339'
p4679
aa(lp4680
I1697
aS'1'
aS'225'
p4681
aasS'3WXA'
p4682
(lp4683
(lp4684
I964
aS'40'
p4685
aS'90'
p4686
aa(lp4687
I2637
aS'97'
p4688
aS'154'
p4689
aasS'2IAE'
p4690
(lp4691
(lp4692
I88
aS'283'
p4693
aS'313'
p4694
aa(lp4695
I1697
aS'51'
p4696
aS'242'
p4697
aa(lp4698
I4185
aS'174'
p4699
aS'263'
p4700
aa(lp4701
I4185
aS'366'
p4702
aS'467'
p4703
aa(lp4704
I7458
aS'31'
p4705
aS'406'
p4706
aasS'4FQO'
p4707
(lp4708
(lp4709
I580
aS'3'
aS'45'
p4710
aa(lp4711
I2631
aS'53'
p4712
aS'79'
p4713
aasS'3LLE'
p4714
(lp4715
(lp4716
I580
aS'3'
aS'45'
p4717
aa(lp4718
I2631
aS'53'
p4719
aS'79'
p4720
aasS'3BHV'
p4721
(lp4722
(lp4723
I252
aS'4'
aS'286'
p4724
aa(lp4725
I2963
aS'309'
p4726
aS'426'
p4727
aa(lp4728
I6787
aS'181'
p4729
aS'306'
p4730
aasS'3BHU'
p4731
(lp4732
(lp4733
I252
aS'4'
aS'286'
p4734
aa(lp4735
I2963
aS'309'
p4736
aS'426'
p4737
aa(lp4738
I6787
aS'181'
p4739
aS'306'
p4740
aasS'3BHT'
p4741
(lp4742
(lp4743
I252
aS'4'
aS'286'
p4744
aa(lp4745
I2963
aS'309'
p4746
aS'426'
p4747
aa(lp4748
I6787
aS'181'
p4749
aS'306'
p4750
aasS'2MRD'
p4751
(lp4752
(lp4753
I580
aS'5'
aS'46'
p4754
aasS'2LB0'
p4755
(lp4756
(lp4757
I4465
aS'236'
p4758
aS'265'
p4759
aasS'1K9R'
p4760
(lp4761
(lp4762
I4465
aS'13'
p4763
aS'42'
p4764
aasS'1K96'
p4765
(lp4766
(lp4767
I580
aS'6'
aS'42'
p4768
aasS'4U85'
p4769
(lp4770
(lp4771
I1109
aS'59'
p4772
aS'162'
p4773
aa(lp4774
I4465
aS'7'
aS'37'
p4775
aasS'1AT9'
p4776
(lp4777
(lp4778
I6013
aS'10'
p4779
aS'231'
p4780
aa(lp4781
I6013
aS'10'
p4782
aS'231'
p4783
aasS'1PXS'
p4784
(lp4785
(lp4786
I6013
aS'10'
p4787
aS'231'
p4788
aasS'1PXR'
p4789
(lp4790
(lp4791
I6013
aS'10'
p4792
aS'231'
p4793
aasS'2W96'
p4794
(lp4795
(lp4796
I252
aS'6'
aS'295'
p4797
aa(lp4798
I2963
aS'155'
p4799
aS'265'
p4800
aa(lp4801
I6787
aS'28'
p4802
aS'152'
p4803
aasS'3AW5'
p4804
(lp4805
(lp4806
I2580
aS'214'
p4807
aS'297'
p4808
aa(lp4809
I3227
aS'62'
p4810
aS'156'
p4811
aa(lp4812
I3228
aS'339'
p4813
aS'476'
p4814
aasS'3TCZ'
p4815
(lp4816
(lp4817
I1109
aS'59'
p4818
aS'162'
p4819
aa(lp4820
I4465
aS'7'
aS'37'
p4821
aasS'2LAZ'
p4822
(lp4823
(lp4824
I4465
aS'236'
p4825
aS'265'
p4826
aasS'1FPW'
p4827
(lp4828
(lp4829
I964
aS'40'
p4830
aS'89'
p4831
aa(lp4832
I2637
aS'102'
p4833
aS'171'
p4834
aasS'3ZK4'
p4835
(lp4836
(lp4837
I1697
aS'266'
p4838
aS'481'
p4839
aa(lp4840
I2715
aS'506'
p4841
aS'565'
p4842
aa(lp4843
I5593
aS'151'
p4844
aS'254'
p4845
aasS'1N68'
p4846
(lp4847
(lp4848
I2580
aS'227'
p4849
aS'292'
p4850
aa(lp4851
I3227
aS'55'
p4852
aS'165'
p4853
aa(lp4854
I3228
aS'403'
p4855
aS'516'
p4856
aasS'1XO2'
p4857
(lp4858
(lp4859
I252
aS'13'
p4860
aS'300'
p4861
aa(lp4862
I6787
aS'32'
p4863
aS'147'
p4864
aa(lp4865
I7043
aS'149'
p4866
aS'254'
p4867
aasS'4G6L'
p4868
(lp4869
(lp4870
I165
aS'154'
p4871
aS'239'
p4872
aa(lp4873
I252
aS'26'
p4874
aS'335'
p4875
aa(lp4876
I6787
aS'46'
p4877
aS'148'
p4878
aasS'1GJY'
p4879
(lp4880
(lp4881
I964
aS'45'
p4882
aS'100'
p4883
aa(lp4884
I2638
aS'106'
p4885
aS'132'
p4886
aasS'4PHJ'
p4887
(lp4888
(lp4889
I959
aS'179'
p4890
aS'194'
p4891
aa(lp4892
I964
aS'112'
p4893
aS'168'
p4894
aasS'2IH9'
p4895
(lp4896
(lp4897
I2580
aS'169'
p4898
aS'315'
p4899
aa(lp4900
I3227
aS'48'
p4901
aS'159'
p4902
aa(lp4903
I3228
aS'387'
p4904
aS'522'
p4905
aasS'2IH8'
p4906
(lp4907
(lp4908
I2580
aS'169'
p4909
aS'315'
p4910
aa(lp4911
I3227
aS'48'
p4912
aS'159'
p4913
aa(lp4914
I3228
aS'387'
p4915
aS'522'
p4916
aasS'1AJ4'
p4917
(lp4918
(lp4919
I964
aS'32'
p4920
aS'83'
p4921
aa(lp4922
I2637
aS'99'
p4923
aS'157'
p4924
aasS'1AJ5'
p4925
(lp4926
(lp4927
I964
aS'114'
p4928
aS'170'
p4929
aasS'1K9Q'
p4930
(lp4931
(lp4932
I4465
aS'13'
p4933
aS'42'
p4934
aasS'1K9P'
p4935
(lp4936
(lp4937
I580
aS'6'
aS'42'
p4938
aasS'4M3H'
p4939
(lp4940
(lp4941
I3227
aS'70'
p4942
aS'179'
p4943
aa(lp4944
I3228
aS'198'
p4945
aS'303'
p4946
aasS'2MYS'
p4947
(lp4948
(lp4949
I964
aS'39'
p4950
aS'70'
p4951
aa(lp4952
I1461
aS'89'
p4953
aS'768'
p4954
aa(lp4955
I5670
aS'35'
p4956
aS'74'
p4957
aasS'4A67'
p4958
(lp4959
(lp4960
I2580
aS'240'
p4961
aS'318'
p4962
aa(lp4963
I3227
aS'45'
p4964
aS'81'
p4965
aa(lp4966
I3227
aS'135'
p4967
aS'178'
p4968
aa(lp4969
I3228
aS'378'
p4970
aS'509'
p4971
aasS'4A66'
p4972
(lp4973
(lp4974
I2580
aS'240'
p4975
aS'318'
p4976
aa(lp4977
I3227
aS'45'
p4978
aS'81'
p4979
aa(lp4980
I3227
aS'136'
p4981
aS'178'
p4982
aa(lp4983
I3228
aS'378'
p4984
aS'509'
p4985
aasS'1JWD'
p4986
(lp4987
(lp4988
I580
aS'6'
aS'42'
p4989
aasS'4ETO'
p4990
(lp4991
(lp4992
I580
aS'5'
aS'46'
p4993
aasS'1D1O'
p4994
(lp4995
(lp4996
I580
aS'9'
aS'41'
p4997
aa(lp4998
I2631
aS'46'
p4999
aS'72'
p5000
aasS'3ICF'
p5001
(lp5002
(lp5003
I264
aS'190'
p5004
aS'233'
p5005
aa(lp5006
I1697
aS'243'
p5007
aS'435'
p5008
aasS'1K9K'
p5009
(lp5010
(lp5011
I580
aS'6'
aS'42'
p5012
aasS'3TC5'
p5013
(lp5014
(lp5015
I1109
aS'59'
p5016
aS'162'
p5017
aa(lp5018
I4465
aS'7'
aS'37'
p5019
aasS'3HAQ'
p5020
(lp5021
(lp5022
I6013
aS'10'
p5023
aS'231'
p5024
aasS'4A68'
p5025
(lp5026
(lp5027
I2580
aS'240'
p5028
aS'318'
p5029
aa(lp5030
I3227
aS'45'
p5031
aS'81'
p5032
aa(lp5033
I3227
aS'135'
p5034
aS'178'
p5035
aa(lp5036
I3228
aS'378'
p5037
aS'509'
p5038
aasS'3ODK'
p5039
(lp5040
(lp5041
I1109
aS'59'
p5042
aS'162'
p5043
aa(lp5044
I4465
aS'7'
aS'37'
p5045
aasS'3LL8'
p5046
(lp5047
(lp5048
I1697
aS'84'
p5049
aS'284'
p5050
aa(lp5051
I2637
aS'23'
p5052
aS'77'
p5053
aa(lp5054
I2637
aS'91'
p5055
aS'154'
p5056
aasS'2OEI'
p5057
(lp5058
(lp5059
I4465
aS'255'
p5060
aS'283'
p5061
aasS'1MF8'
p5062
(lp5063
(lp5064
I1697
aS'84'
p5065
aS'284'
p5066
aa(lp5067
I2637
aS'23'
p5068
aS'77'
p5069
aa(lp5070
I2637
aS'91'
p5071
aS'154'
p5072
aa(lp5073
I7027
aS'8'
aS'162'
p5074
aasS'1FVV'
p5075
(lp5076
(lp5077
I252
aS'4'
aS'286'
p5078
aa(lp5079
I2963
aS'309'
p5080
aS'426'
p5081
aa(lp5082
I6787
aS'181'
p5083
aS'306'
p5084
aasS'3DDQ'
p5085
(lp5086
(lp5087
I252
aS'4'
aS'286'
p5088
aa(lp5089
I2963
aS'309'
p5090
aS'426'
p5091
aa(lp5092
I6787
aS'181'
p5093
aS'306'
p5094
aasS'3DDP'
p5095
(lp5096
(lp5097
I252
aS'4'
aS'286'
p5098
aa(lp5099
I2963
aS'309'
p5100
aS'426'
p5101
aa(lp5102
I6787
aS'181'
p5103
aS'306'
p5104
aasS'2J5W'
p5105
(lp5106
(lp5107
I2580
aS'204'
p5108
aS'338'
p5109
aa(lp5110
I3227
aS'73'
p5111
aS'183'
p5112
aa(lp5113
I3227
aS'788'
p5114
aS'880'
p5115
aa(lp5116
I3228
aS'937'
p5117
aS'1038'
p5118
aasS'1SKT'
p5119
(lp5120
(lp5121
I964
aS'34'
p5122
aS'85'
p5123
aasS'2F21'
p5124
(lp5125
(lp5126
I1109
aS'59'
p5127
aS'162'
p5128
aa(lp5129
I4465
aS'7'
aS'37'
p5130
aasS'1KFX'
p5131
(lp5132
(lp5133
I564
aS'356'
p5134
aS'506'
p5135
aa(lp5136
I959
aS'879'
p5137
aS'894'
p5138
aa(lp5139
I964
aS'545'
p5140
aS'602'
p5141
aa(lp5142
I964
aS'812'
p5143
aS'868'
p5144
aa(lp5145
I6302
aS'46'
p5146
aS'342'
p5147
aasS'4F6U'
p5148
(lp5149
(lp5150
I165
aS'154'
p5151
aS'239'
p5152
aa(lp5153
I252
aS'26'
p5154
aS'335'
p5155
aa(lp5156
I6787
aS'46'
p5157
aS'148'
p5158
aasS'2Z1A'
p5159
(lp5160
(lp5161
I1583
aS'333'
p5162
aS'494'
p5163
aa(lp5164
I1697
aS'31'
p5165
aS'241'
p5166
aasS'1KFU'
p5167
(lp5168
(lp5169
I564
aS'356'
p5170
aS'506'
p5171
aa(lp5172
I959
aS'879'
p5173
aS'894'
p5174
aa(lp5175
I964
aS'545'
p5176
aS'602'
p5177
aa(lp5178
I964
aS'812'
p5179
aS'868'
p5180
aa(lp5181
I6302
aS'46'
p5182
aS'342'
p5183
aasS'4U86'
p5184
(lp5185
(lp5186
I1109
aS'59'
p5187
aS'162'
p5188
aa(lp5189
I4465
aS'7'
aS'37'
p5190
aasS'5DWS'
p5191
(lp5192
(lp5193
I4465
aS'449'
p5194
aS'478'
p5195
aasS'2GGZ'
p5196
(lp5197
(lp5198
I964
aS'35'
p5199
aS'80'
p5200
aa(lp5201
I2637
aS'92'
p5202
aS'158'
p5203
aasS'1HO5'
p5204
(lp5205
(lp5206
I1583
aS'363'
p5207
aS'509'
p5208
aa(lp5209
I1697
aS'35'
p5210
aS'254'
p5211
aasS'4KLY'
p5212
(lp5213
(lp5214
I6013
aS'31'
p5215
aS'247'
p5216
aasS'1BT6'
p5217
(lp5218
(lp5219
I580
aS'4'
aS'43'
p5220
aasS'5D69'
p5221
(lp5222
(lp5223
I959
aS'179'
p5224
aS'194'
p5225
aa(lp5226
I964
aS'112'
p5227
aS'168'
p5228
aasS'4HWL'
p5229
(lp5230
(lp5231
I6013
aS'10'
p5232
aS'231'
p5233
aasS'4IMY'
p5234
(lp5235
(lp5236
I252
aS'19'
p5237
aS'315'
p5238
aa(lp5239
I1198
aS'34'
p5240
aS'66'
p5241
aa(lp5242
I6787
aS'12'
p5243
aS'148'
p5244
aasS'3AKA'
p5245
(lp5246
(lp5247
I964
aS'144'
p5248
aS'164'
p5249
aa(lp5250
I2637
aS'13'
p5251
aS'81'
p5252
aasS'2WCF'
p5253
(lp5254
(lp5255
I580
aS'3'
aS'45'
p5256
aasS'2LNK'
p5257
(lp5258
(lp5259
I580
aS'5'
aS'46'
p5260
aasS'4USL'
p5261
(lp5262
(lp5263
I964
aS'45'
p5264
aS'100'
p5265
aa(lp5266
I2638
aS'106'
p5267
aS'132'
p5268
aasS'2XP8'
p5269
(lp5270
(lp5271
I1109
aS'59'
p5272
aS'162'
p5273
aa(lp5274
I4465
aS'7'
aS'37'
p5275
aasS'1JKW'
p5276
(lp5277
(lp5278
I165
aS'162'
p5279
aS'262'
p5280
aa(lp5281
I6787
aS'75'
p5282
aS'158'
p5283
aasS'1CDN'
p5284
(lp5285
(lp5286
I580
aS'9'
aS'41'
p5287
aa(lp5288
I2631
aS'46'
p5289
aS'72'
p5290
aasS'1R2N'
p5291
(lp5292
(lp5293
I6013
aS'10'
p5294
aS'232'
p5295
aasS'2XP3'
p5296
(lp5297
(lp5298
I1109
aS'59'
p5299
aS'162'
p5300
aa(lp5301
I4465
aS'7'
aS'37'
p5302
aasS'4UT3'
p5303
(lp5304
(lp5305
I1697
aS'60'
p5306
aS'249'
p5307
aa(lp5308
I1697
aS'60'
p5309
aS'249'
p5310
aa(lp5311
I4386
aS'9'
aS'56'
p5312
aa(lp5313
I4386
aS'9'
aS'56'
p5314
aasS'4UT2'
p5315
(lp5316
(lp5317
I1697
aS'60'
p5318
aS'249'
p5319
aa(lp5320
I4386
aS'9'
aS'56'
p5321
aasS'2XP6'
p5322
(lp5323
(lp5324
I1109
aS'59'
p5325
aS'162'
p5326
aa(lp5327
I4465
aS'7'
aS'37'
p5328
aasS'2XP7'
p5329
(lp5330
(lp5331
I1109
aS'59'
p5332
aS'162'
p5333
aa(lp5334
I4465
aS'7'
aS'37'
p5335
aasS'2XP4'
p5336
(lp5337
(lp5338
I1109
aS'59'
p5339
aS'162'
p5340
aa(lp5341
I4465
aS'7'
aS'37'
p5342
aasS'2XYB'
p5343
(lp5344
(lp5345
I2580
aS'143'
p5346
aS'284'
p5347
aa(lp5348
I3227
aS'11'
p5349
aS'130'
p5350
aa(lp5351
I3228
aS'345'
p5352
aS'469'
p5353
aasS'1NCX'
p5354
(lp5355
(lp5356
I964
aS'34'
p5357
aS'85'
p5358
aa(lp5359
I2637
aS'100'
p5360
aS'158'
p5361
aasS'1I8G'
p5362
(lp5363
(lp5364
I4465
aS'2'
aS'32'
p5365
aasS'1NCZ'
p5366
(lp5367
(lp5368
I964
aS'34'
p5369
aS'85'
p5370
aa(lp5371
I2637
aS'100'
p5372
aS'158'
p5373
aasS'1LA3'
p5374
(lp5375
(lp5376
I964
aS'40'
p5377
aS'84'
p5378
aa(lp5379
I2637
aS'102'
p5380
aS'174'
p5381
aasS'1TCO'
p5382
(lp5383
(lp5384
I250
aS'13'
p5385
aS'104'
p5386
aa(lp5387
I1697
aS'84'
p5388
aS'284'
p5389
aa(lp5390
I2637
aS'23'
p5391
aS'77'
p5392
aa(lp5393
I2637
aS'91'
p5394
aS'154'
p5395
aasS'3H61'
p5396
(lp5397
(lp5398
I264
aS'176'
p5399
aS'228'
p5400
aa(lp5401
I1697
aS'236'
p5402
aS'428'
p5403
aasS'5AX0'
p5404
(lp5405
(lp5406
I6013
aS'26'
p5407
aS'237'
p5408
aasS'3ZDW'
p5409
(lp5410
(lp5411
I2580
aS'240'
p5412
aS'318'
p5413
aa(lp5414
I3227
aS'45'
p5415
aS'81'
p5416
aa(lp5417
I3227
aS'101'
p5418
aS'178'
p5419
aa(lp5420
I3228
aS'378'
p5421
aS'509'
p5422
aasS'1HP1'
p5423
(lp5424
(lp5425
I1583
aS'363'
p5426
aS'509'
p5427
aa(lp5428
I1697
aS'35'
p5429
aS'254'
p5430
aasS'1H1P'
p5431
(lp5432
(lp5433
I252
aS'4'
aS'286'
p5434
aa(lp5435
I2963
aS'309'
p5436
aS'426'
p5437
aa(lp5438
I6787
aS'181'
p5439
aS'306'
p5440
aasS'3ICB'
p5441
(lp5442
(lp5443
I580
aS'9'
aS'41'
p5444
aa(lp5445
I2631
aS'46'
p5446
aS'72'
p5447
aasS'2DXN'
p5448
(lp5449
(lp5450
I1697
aS'3'
aS'198'
p5451
aasS'3N5U'
p5452
(lp5453
(lp5454
I1697
aS'60'
p5455
aS'249'
p5456
aa(lp5457
I4386
aS'9'
aS'56'
p5458
aasS'2DXL'
p5459
(lp5460
(lp5461
I1697
aS'3'
aS'198'
p5462
aasS'3GK4'
p5463
(lp5464
(lp5465
I580
aS'3'
aS'45'
p5466
aa(lp5467
I2631
aS'53'
p5468
aS'79'
p5469
aasS'3GK2'
p5470
(lp5471
(lp5472
I580
aS'3'
aS'45'
p5473
aa(lp5474
I2631
aS'53'
p5475
aS'79'
p5476
aasS'3GK1'
p5477
(lp5478
(lp5479
I580
aS'3'
aS'45'
p5480
aa(lp5481
I2631
aS'53'
p5482
aS'79'
p5483
aasS'4ZK8'
p5484
(lp5485
(lp5486
I3227
aS'50'
p5487
aS'158'
p5488
aa(lp5489
I3228
aS'201'
p5490
aS'310'
p5491
aasS'4NB7'
p5492
(lp5493
(lp5494
I3227
aS'73'
p5495
aS'182'
p5496
aa(lp5497
I3228
aS'199'
p5498
aS'306'
p5499
aasS'1QXP'
p5500
(lp5501
(lp5502
I564
aS'356'
p5503
aS'507'
p5504
aa(lp5505
I964
aS'547'
p5506
aS'603'
p5507
aa(lp5508
I964
aS'737'
p5509
aS'793'
p5510
aa(lp5511
I6302
aS'46'
p5512
aS'342'
p5513
aasS'2XP5'
p5514
(lp5515
(lp5516
I1109
aS'59'
p5517
aS'162'
p5518
aa(lp5519
I4465
aS'7'
aS'37'
p5520
aasS'1HPU'
p5521
(lp5522
(lp5523
I1583
aS'363'
p5524
aS'509'
p5525
aa(lp5526
I1697
aS'35'
p5527
aS'254'
p5528
aasS'1CB1'
p5529
(lp5530
(lp5531
I580
aS'8'
aS'41'
p5532
aa(lp5533
I2631
aS'46'
p5534
aS'72'
p5535
aasS'3UG9'
p5536
(lp5537
(lp5538
I6013
aS'95'
p5539
aS'300'
p5540
aasS'2JUP'
p5541
(lp5542
(lp5543
I4465
aS'6'
aS'33'
p5544
aasS'3SWB'
p5545
(lp5546
(lp5547
I964
aS'32'
p5548
aS'83'
p5549
aasS'2V22'
p5550
(lp5551
(lp5552
I252
aS'4'
aS'286'
p5553
aa(lp5554
I2963
aS'309'
p5555
aS'426'
p5556
aa(lp5557
I6787
aS'181'
p5558
aS'306'
p5559
aasS'3WNI'
p5560
(lp5561
(lp5562
I3227
aS'50'
p5563
aS'158'
p5564
aa(lp5565
I3228
aS'201'
p5566
aS'310'
p5567
aasS'3WNJ'
p5568
(lp5569
(lp5570
I3227
aS'50'
p5571
aS'158'
p5572
aa(lp5573
I3228
aS'201'
p5574
aS'310'
p5575
aasS'2MWD'
p5576
(lp5577
(lp5578
I4465
aS'433'
p5579
aS'460'
p5580
aasS'4WQ2'
p5581
(lp5582
(lp5583
I959
aS'179'
p5584
aS'194'
p5585
aa(lp5586
I964
aS'112'
p5587
aS'168'
p5588
aasS'4WQ3'
p5589
(lp5590
(lp5591
I959
aS'179'
p5592
aS'194'
p5593
aa(lp5594
I964
aS'112'
p5595
aS'168'
p5596
aasS'2XPB'
p5597
(lp5598
(lp5599
I1109
aS'59'
p5600
aS'162'
p5601
aa(lp5602
I1109
aS'59'
p5603
aS'162'
p5604
aa(lp5605
I4465
aS'7'
aS'37'
p5606
aa(lp5607
I4465
aS'7'
aS'37'
p5608
aasS'4AI7'
p5609
(lp5610
(lp5611
I2580
aS'197'
p5612
aS'285'
p5613
aa(lp5614
I3227
aS'52'
p5615
aS'158'
p5616
aa(lp5617
I3228
aS'348'
p5618
aS'461'
p5619
aasS'2XPA'
p5620
(lp5621
(lp5622
I1109
aS'59'
p5623
aS'162'
p5624
aa(lp5625
I4465
aS'7'
aS'37'
p5626
aasS'3EJ1'
p5627
(lp5628
(lp5629
I252
aS'4'
aS'286'
p5630
aa(lp5631
I2963
aS'309'
p5632
aS'426'
p5633
aa(lp5634
I6787
aS'181'
p5635
aS'306'
p5636
aasS'2YAQ'
p5637
(lp5638
(lp5639
I2580
aS'197'
p5640
aS'285'
p5641
aa(lp5642
I3227
aS'52'
p5643
aS'158'
p5644
aa(lp5645
I3228
aS'348'
p5646
aS'461'
p5647
aasS'1M0K'
p5648
(lp5649
(lp5650
I6013
aS'10'
p5651
aS'231'
p5652
aasS'4XXJ'
p5653
(lp5654
(lp5655
I6013
aS'10'
p5656
aS'232'
p5657
aasS'1JK7'
p5658
(lp5659
(lp5660
I1697
aS'60'
p5661
aS'249'
p5662
aa(lp5663
I4386
aS'9'
aS'56'
p5664
aasS'3VVK'
p5665
(lp5666
(lp5667
I6013
aS'36'
p5668
aS'272'
p5669
aasS'1M0L'
p5670
(lp5671
(lp5672
I6013
aS'10'
p5673
aS'231'
p5674
aasS'2DJY'
p5675
(lp5676
(lp5677
I4465
aS'299'
p5678
aS'328'
p5679
aasS'1IT6'
p5680
(lp5681
(lp5682
I1697
aS'60'
p5683
aS'249'
p5684
aa(lp5685
I4386
aS'9'
aS'56'
p5686
aasS'2KCF'
p5687
(lp5688
(lp5689
I4465
aS'4'
aS'34'
p5690
aasS'4GGF'
p5691
(lp5692
(lp5693
I580
aS'5'
aS'46'
p5694
aa(lp5695
I580
aS'8'
aS'50'
p5696
aasS'5AHZ'
p5697
(lp5698
(lp5699
I6013
aS'32'
p5700
aS'258'
p5701
aasS'2MWE'
p5702
(lp5703
(lp5704
I4465
aS'433'
p5705
aS'460'
p5706
aasS'2ZOA'
p5707
(lp5708
(lp5709
I1697
aS'3'
aS'198'
p5710
aasS'2JOC'
p5711
(lp5712
(lp5713
I4465
aS'6'
aS'35'
p5714
aasS'2YAF'
p5715
(lp5716
(lp5717
I2580
aS'197'
p5718
aS'285'
p5719
aa(lp5720
I3227
aS'52'
p5721
aS'158'
p5722
aa(lp5723
I3228
aS'348'
p5724
aS'461'
p5725
aasS'3THN'
p5726
(lp5727
(lp5728
I1697
aS'7'
aS'219'
p5729
aasS'2YAH'
p5730
(lp5731
(lp5732
I2580
aS'197'
p5733
aS'285'
p5734
aa(lp5735
I3227
aS'52'
p5736
aS'158'
p5737
aa(lp5738
I3228
aS'348'
p5739
aS'461'
p5740
aasS'1BLQ'
p5741
(lp5742
(lp5743
I964
aS'34'
p5744
aS'85'
p5745
aasS'1XJI'
p5746
(lp5747
(lp5748
I6013
aS'10'
p5749
aS'230'
p5750
aasS'2YAM'
p5751
(lp5752
(lp5753
I2580
aS'197'
p5754
aS'285'
p5755
aa(lp5756
I2580
aS'197'
p5757
aS'285'
p5758
aa(lp5759
I3227
aS'52'
p5760
aS'158'
p5761
aa(lp5762
I3227
aS'52'
p5763
aS'158'
p5764
aa(lp5765
I3228
aS'348'
p5766
aS'461'
p5767
aa(lp5768
I3228
aS'348'
p5769
aS'461'
p5770
aasS'2YAO'
p5771
(lp5772
(lp5773
I2580
aS'197'
p5774
aS'285'
p5775
aa(lp5776
I3227
aS'52'
p5777
aS'158'
p5778
aa(lp5779
I3228
aS'348'
p5780
aS'461'
p5781
aasS'2YAP'
p5782
(lp5783
(lp5784
I2580
aS'197'
p5785
aS'285'
p5786
aa(lp5787
I3227
aS'52'
p5788
aS'158'
p5789
aa(lp5790
I3228
aS'348'
p5791
aS'461'
p5792
aasS'4REX'
p5793
(lp5794
(lp5795
I4465
aS'173'
p5796
aS'202'
p5797
aasS'2YAR'
p5798
(lp5799
(lp5800
I2580
aS'197'
p5801
aS'285'
p5802
aa(lp5803
I3227
aS'52'
p5804
aS'158'
p5805
aa(lp5806
I3228
aS'348'
p5807
aS'461'
p5808
aasS'4MD2'
p5809
(lp5810
(lp5811
I6013
aS'10'
p5812
aS'234'
p5813
aasS'3ABG'
p5814
(lp5815
(lp5816
I3227
aS'49'
p5817
aS'159'
p5818
aa(lp5819
I3228
aS'339'
p5820
aS'472'
p5821
aasS'3RLZ'
p5822
(lp5823
(lp5824
I580
aS'3'
aS'45'
p5825
aa(lp5826
I2631
aS'53'
p5827
aS'79'
p5828
aasS'1C3W'
p5829
(lp5830
(lp5831
I6013
aS'10'
p5832
aS'230'
p5833
aasS'3BLH'
p5834
(lp5835
(lp5836
I252
aS'19'
p5837
aS'315'
p5838
aa(lp5839
I6787
aS'12'
p5840
aS'148'
p5841
aasS'1DZE'
p5842
(lp5843
(lp5844
I6013
aS'10'
p5845
aS'230'
p5846
aasS'3UAA'
p5847
(lp5848
(lp5849
I2580
aS'227'
p5850
aS'292'
p5851
aa(lp5852
I3227
aS'55'
p5853
aS'165'
p5854
aa(lp5855
I3228
aS'402'
p5856
aS'516'
p5857
aasS'1IKU'
p5858
(lp5859
(lp5860
I964
aS'40'
p5861
aS'87'
p5862
aa(lp5863
I2637
aS'102'
p5864
aS'174'
p5865
aasS'3GYR'
p5866
(lp5867
(lp5868
I3227
aS'83'
p5869
aS'117'
p5870
aa(lp5871
I3227
aS'160'
p5872
aS'226'
p5873
aa(lp5874
I3228
aS'479'
p5875
aS'622'
p5876
aasS'2R7E'
p5877
(lp5878
(lp5879
I826
aS'2036'
p5880
aS'2166'
p5881
aa(lp5882
I826
aS'2189'
p5883
aS'2323'
p5884
aa(lp5885
I2580
aS'205'
p5886
aS'329'
p5887
aa(lp5888
I3227
aS'71'
p5889
aS'178'
p5890
aa(lp5891
I3227
aS'435'
p5892
aS'553'
p5893
aa(lp5894
I3228
aS'1901'
p5895
aS'2018'
p5896
aasS'3CS1'
p5897
(lp5898
(lp5899
I959
aS'53'
p5900
aS'70'
p5901
aa(lp5902
I964
aS'144'
p5903
aS'190'
p5904
aasS'4A2H'
p5905
(lp5906
(lp5907
I2580
aS'164'
p5908
aS'304'
p5909
aa(lp5910
I3227
aS'32'
p5911
aS'151'
p5912
aa(lp5913
I3228
aS'365'
p5914
aS'488'
p5915
aasS'3QBL'
p5916
(lp5917
(lp5918
I6013
aS'36'
p5919
aS'272'
p5920
aasS'2KQ0'
p5921
(lp5922
(lp5923
I4465
aS'13'
p5924
aS'42'
p5925
aasS'3VHZ'
p5926
(lp5927
(lp5928
I6013
aS'10'
p5929
aS'232'
p5930
aasS'2JXL'
p5931
(lp5932
(lp5933
I964
aS'32'
p5934
aS'83'
p5935
aasS'4A2F'
p5936
(lp5937
(lp5938
I2580
aS'164'
p5939
aS'304'
p5940
aa(lp5941
I3227
aS'32'
p5942
aS'151'
p5943
aa(lp5944
I3228
aS'365'
p5945
aS'488'
p5946
aasS'4A2E'
p5947
(lp5948
(lp5949
I2580
aS'164'
p5950
aS'304'
p5951
aa(lp5952
I3227
aS'32'
p5953
aS'151'
p5954
aa(lp5955
I3228
aS'365'
p5956
aS'488'
p5957
aasS'4A2D'
p5958
(lp5959
(lp5960
I2580
aS'164'
p5961
aS'304'
p5962
aa(lp5963
I3227
aS'32'
p5964
aS'151'
p5965
aa(lp5966
I3228
aS'365'
p5967
aS'488'
p5968
aasS'1KCW'
p5969
(lp5970
(lp5971
I2580
aS'204'
p5972
aS'338'
p5973
aa(lp5974
I3227
aS'73'
p5975
aS'183'
p5976
aa(lp5977
I3227
aS'788'
p5978
aS'880'
p5979
aa(lp5980
I3228
aS'937'
p5981
aS'1038'
p5982
aasS'1BOC'
p5983
(lp5984
(lp5985
I580
aS'9'
aS'41'
p5986
aa(lp5987
I580
aS'9'
aS'41'
p5988
aa(lp5989
I2631
aS'46'
p5990
aS'72'
p5991
aa(lp5992
I2631
aS'46'
p5993
aS'72'
p5994
aasS'2M0R'
p5995
(lp5996
(lp5997
I580
aS'19'
p5998
aS'58'
p5999
aasS'2JXW'
p6000
(lp6001
(lp6002
I4465
aS'7'
aS'32'
p6003
aa(lp6004
I4465
aS'48'
p6005
aS'73'
p6006
aasS'4HAK'
p6007
(lp6008
(lp6009
I2580
aS'227'
p6010
aS'292'
p6011
aa(lp6012
I3227
aS'55'
p6013
aS'165'
p6014
aa(lp6015
I3228
aS'402'
p6016
aS'516'
p6017
aasS'5AWZ'
p6018
(lp6019
(lp6020
I6013
aS'26'
p6021
aS'237'
p6022
aasS'1KCY'
p6023
(lp6024
(lp6025
I580
aS'9'
aS'41'
p6026
aa(lp6027
I2631
aS'46'
p6028
aS'72'
p6029
aasS'4HAL'
p6030
(lp6031
(lp6032
I2580
aS'227'
p6033
aS'292'
p6034
aa(lp6035
I3227
aS'55'
p6036
aS'165'
p6037
aa(lp6038
I3228
aS'402'
p6039
aS'516'
p6040
aasS'1CWQ'
p6041
(lp6042
(lp6043
I6013
aS'10'
p6044
aS'234'
p6045
aasS'2G9X'
p6046
(lp6047
(lp6048
I252
aS'4'
aS'286'
p6049
aa(lp6050
I2963
aS'309'
p6051
aS'426'
p6052
aa(lp6053
I6787
aS'181'
p6054
aS'306'
p6055
aasS'3DIV'
p6056
(lp6057
(lp6058
I2580
aS'143'
p6059
aS'284'
p6060
aa(lp6061
I3227
aS'11'
p6062
aS'130'
p6063
aa(lp6064
I3228
aS'345'
p6065
aS'470'
p6066
aasS'2RM0'
p6067
(lp6068
(lp6069
I4465
aS'6'
aS'33'
p6070
aasS'2AT9'
p6071
(lp6072
(lp6073
I6013
aS'10'
p6074
aS'227'
p6075
aasS'2BPM'
p6076
(lp6077
(lp6078
I252
aS'4'
aS'286'
p6079
aa(lp6080
I2963
aS'309'
p6081
aS'426'
p6082
aa(lp6083
I6787
aS'181'
p6084
aS'306'
p6085
aasS'1A2X'
p6086
(lp6087
(lp6088
I964
aS'31'
p6089
aS'82'
p6090
aa(lp6091
I2637
aS'96'
p6092
aS'155'
p6093
aasS'1B4C'
p6094
(lp6095
(lp6096
I580
aS'3'
aS'45'
p6097
aa(lp6098
I2631
aS'53'
p6099
aS'79'
p6100
aasS'2JX8'
p6101
(lp6102
(lp6103
I4465
aS'7'
aS'36'
p6104
aasS'1KQV'
p6105
(lp6106
(lp6107
I580
aS'9'
aS'41'
p6108
aa(lp6109
I2631
aS'46'
p6110
aS'72'
p6111
aasS'4A2G'
p6112
(lp6113
(lp6114
I2580
aS'164'
p6115
aS'304'
p6116
aa(lp6117
I3227
aS'32'
p6118
aS'151'
p6119
aa(lp6120
I3228
aS'365'
p6121
aS'488'
p6122
aasS'4XJK'
p6123
(lp6124
(lp6125
I580
aS'5'
aS'46'
p6126
aa(lp6127
I580
aS'8'
aS'50'
p6128
aasS'4F6W'
p6129
(lp6130
(lp6131
I165
aS'154'
p6132
aS'239'
p6133
aa(lp6134
I252
aS'26'
p6135
aS'335'
p6136
aa(lp6137
I6787
aS'46'
p6138
aS'148'
p6139
aasS'2JGZ'
p6140
(lp6141
(lp6142
I252
aS'4'
aS'286'
p6143
aa(lp6144
I2963
aS'300'
p6145
aS'417'
p6146
aa(lp6147
I6787
aS'173'
p6148
aS'297'
p6149
aasS'1KYA'
p6150
(lp6151
(lp6152
I2580
aS'143'
p6153
aS'284'
p6154
aa(lp6155
I3227
aS'10'
p6156
aS'130'
p6157
aa(lp6158
I3228
aS'345'
p6159
aS'470'
p6160
aasS'2D8N'
p6161
(lp6162
(lp6163
I964
aS'40'
p6164
aS'87'
p6165
aa(lp6166
I2637
aS'102'
p6167
aS'174'
p6168
aasS'1I5H'
p6169
(lp6170
(lp6171
I4465
aS'461'
p6172
aS'490'
p6173
aasS'3A7K'
p6174
(lp6175
(lp6176
I6013
aS'36'
p6177
aS'272'
p6178
aasS'4II5'
p6179
(lp6180
(lp6181
I252
aS'4'
aS'286'
p6182
aa(lp6183
I2963
aS'309'
p6184
aS'426'
p6185
aa(lp6186
I6787
aS'181'
p6187
aS'306'
p6188
aasS'3J2Q'
p6189
(lp6190
(lp6191
I826
aS'2036'
p6192
aS'2166'
p6193
aa(lp6194
I826
aS'2189'
p6195
aS'2323'
p6196
aa(lp6197
I2580
aS'205'
p6198
aS'329'
p6199
aa(lp6200
I3227
aS'71'
p6201
aS'178'
p6202
aa(lp6203
I3227
aS'435'
p6204
aS'553'
p6205
aa(lp6206
I3228
aS'1901'
p6207
aS'2018'
p6208
aasS'2M9I'
p6209
(lp6210
(lp6211
I4465
aS'2'
aS'32'
p6212
aasS'2M9J'
p6213
(lp6214
(lp6215
I4465
aS'2'
aS'32'
p6216
aasS'1AVS'
p6217
(lp6218
(lp6219
I964
aS'34'
p6220
aS'85'
p6221
aasS'3RV5'
p6222
(lp6223
(lp6224
I964
aS'32'
p6225
aS'83'
p6226
aasS'2M9F'
p6227
(lp6228
(lp6229
I4465
aS'2'
aS'31'
p6230
aasS'2M9G'
p6231
(lp6232
(lp6233
I580
aS'4'
aS'46'
p6234
aasS'2ZO9'
p6235
(lp6236
(lp6237
I1697
aS'3'
aS'198'
p6238
aasS'1E9H'
p6239
(lp6240
(lp6241
I252
aS'4'
aS'286'
p6242
aa(lp6243
I2963
aS'309'
p6244
aS'426'
p6245
aa(lp6246
I6787
aS'181'
p6247
aS'306'
p6248
aasS'1DT7'
p6249
(lp6250
(lp6251
I580
aS'3'
aS'45'
p6252
aa(lp6253
I2631
aS'53'
p6254
aS'79'
p6255
aasS'1NSH'
p6256
(lp6257
(lp6258
I580
aS'7'
aS'48'
p6259
aa(lp6260
I2631
aS'56'
p6261
aS'80'
p6262
aasS'4XTN'
p6263
(lp6264
(lp6265
I6013
aS'32'
p6266
aS'271'
p6267
aasS'4XTO'
p6268
(lp6269
(lp6270
I6013
aS'32'
p6271
aS'270'
p6272
aasS'3COC'
p6273
(lp6274
(lp6275
I6013
aS'10'
p6276
aS'231'
p6277
aasS'4NZV'
p6278
(lp6279
(lp6280
I1697
aS'7'
aS'219'
p6281
aasS'4QID'
p6282
(lp6283
(lp6284
I6013
aS'18'
p6285
aS'239'
p6286
aasS'2C6T'
p6287
(lp6288
(lp6289
I252
aS'4'
aS'286'
p6290
aa(lp6291
I2963
aS'309'
p6292
aS'426'
p6293
aa(lp6294
I6787
aS'181'
p6295
aS'306'
p6296
aasS'4QIB'
p6297
(lp6298
(lp6299
I1109
aS'59'
p6300
aS'162'
p6301
aa(lp6302
I4465
aS'7'
aS'37'
p6303
aasS'2HET'
p6304
(lp6305
(lp6306
I964
aS'40'
p6307
aS'87'
p6308
aa(lp6309
I2637
aS'102'
p6310
aS'174'
p6311
aasS'1KSM'
p6312
(lp6313
(lp6314
I580
aS'9'
aS'41'
p6315
aa(lp6316
I2631
aS'46'
p6317
aS'72'
p6318
aasS'4HSZ'
p6319
(lp6320
(lp6321
I580
aS'5'
aS'46'
p6322
aasS'2PSR'
p6323
(lp6324
(lp6325
I580
aS'6'
aS'43'
p6326
aasS'2KOT'
p6327
(lp6328
(lp6329
I580
aS'9'
aS'51'
p6330
aasS'2K7O'
p6331
(lp6332
(lp6333
I580
aS'3'
aS'45'
p6334
aa(lp6335
I2631
aS'53'
p6336
aS'79'
p6337
aasS'2LE9'
p6338
(lp6339
(lp6340
I158
aS'11'
p6341
aS'89'
p6342
aa(lp6343
I580
aS'9'
aS'51'
p6344
aasS'1G5B'
p6345
(lp6346
(lp6347
I1697
aS'14'
p6348
aS'188'
p6349
aasS'4Y72'
p6350
(lp6351
(lp6352
I252
aS'4'
aS'287'
p6353
aa(lp6354
I2102
aS'6'
aS'72'
p6355
aa(lp6356
I2963
aS'299'
p6357
aS'416'
p6358
aa(lp6359
I6787
aS'172'
p6360
aS'296'
p6361
aasS'1JOW'
p6362
(lp6363
(lp6364
I252
aS'13'
p6365
aS'300'
p6366
aa(lp6367
I6787
aS'32'
p6368
aS'147'
p6369
aa(lp6370
I7043
aS'149'
p6371
aS'254'
p6372
aasS'3OOB'
p6373
(lp6374
(lp6375
I1109
aS'59'
p6376
aS'162'
p6377
aa(lp6378
I4465
aS'7'
aS'37'
p6379
aasS'4NAJ'
p6380
(lp6381
(lp6382
I3227
aS'73'
p6383
aS'182'
p6384
aa(lp6385
I3228
aS'199'
p6386
aS'306'
p6387
aasS'1GYC'
p6388
(lp6389
(lp6390
I2580
aS'142'
p6391
aS'284'
p6392
aa(lp6393
I3227
aS'11'
p6394
aS'130'
p6395
aa(lp6396
I3228
aS'345'
p6397
aS'471'
p6398
aasS'2YSI'
p6399
(lp6400
(lp6401
I4465
aS'12'
p6402
aS'37'
p6403
aasS'3DDL'
p6404
(lp6405
(lp6406
I6013
aS'21'
p6407
aS'257'
p6408
aasS'2KFX'
p6409
(lp6410
(lp6411
I964
aS'32'
p6412
aS'83'
p6413
aasS'1PSB'
p6414
(lp6415
(lp6416
I580
aS'3'
aS'45'
p6417
aa(lp6418
I2631
aS'53'
p6419
aS'79'
p6420
aasS'1HT9'
p6421
(lp6422
(lp6423
I580
aS'9'
aS'41'
p6424
aa(lp6425
I2631
aS'46'
p6426
aS'72'
p6427
aasS'1K8U'
p6428
(lp6429
(lp6430
I580
aS'6'
aS'42'
p6431
aasS'1P8I'
p6432
(lp6433
(lp6434
I6013
aS'10'
p6435
aS'231'
p6436
aasS'3WKQ'
p6437
(lp6438
(lp6439
I3227
aS'50'
p6440
aS'158'
p6441
aa(lp6442
I3228
aS'201'
p6443
aS'310'
p6444
aasS'3WKP'
p6445
(lp6446
(lp6447
I3227
aS'50'
p6448
aS'158'
p6449
aa(lp6450
I3228
aS'201'
p6451
aS'310'
p6452
aasS'2YSF'
p6453
(lp6454
(lp6455
I4465
aS'8'
aS'37'
p6456
aasS'2YSG'
p6457
(lp6458
(lp6459
I4465
aS'8'
aS'37'
p6460
aasS'2YSD'
p6461
(lp6462
(lp6463
I4465
aS'15'
p6464
aS'44'
p6465
aasS'2YSE'
p6466
(lp6467
(lp6468
I4465
aS'14'
p6469
aS'43'
p6470
aasS'2YSB'
p6471
(lp6472
(lp6473
I4465
aS'12'
p6474
aS'41'
p6475
aasS'2YSC'
p6476
(lp6477
(lp6478
I4465
aS'9'
aS'37'
p6479
aasS'4PDZ'
p6480
(lp6481
(lp6482
I580
aS'3'
aS'45'
p6483
aa(lp6484
I2631
aS'53'
p6485
aS'79'
p6486
aasS'4TNC'
p6487
(lp6488
(lp6489
I964
aS'34'
p6490
aS'85'
p6491
aa(lp6492
I2637
aS'99'
p6493
aS'158'
p6494
aasS'3QBK'
p6495
(lp6496
(lp6497
I6013
aS'36'
p6498
aS'272'
p6499
aasS'4UAH'
p6500
(lp6501
(lp6502
I3227
aS'80'
p6503
aS'189'
p6504
aa(lp6505
I3228
aS'208'
p6506
aS'313'
p6507
aasS'2HRG'
p6508
(lp6509
(lp6510
I2580
aS'143'
p6511
aS'283'
p6512
aa(lp6513
I3227
aS'11'
p6514
aS'130'
p6515
aa(lp6516
I3228
aS'344'
p6517
aS'467'
p6518
aasS'4UAN'
p6519
(lp6520
(lp6521
I3227
aS'80'
p6522
aS'189'
p6523
aa(lp6524
I3228
aS'208'
p6525
aS'313'
p6526
aasS'2H2K'
p6527
(lp6528
(lp6529
I580
aS'9'
aS'51'
p6530
aasS'3ZX1'
p6531
(lp6532
(lp6533
I2580
aS'237'
p6534
aS'328'
p6535
aa(lp6536
I3227
aS'89'
p6537
aS'205'
p6538
aa(lp6539
I3228
aS'402'
p6540
aS'512'
p6541
aasS'2IDH'
p6542
(lp6543
(lp6544
I4465
aS'255'
p6545
aS'283'
p6546
aasS'2FQE'
p6547
(lp6548
(lp6549
I2580
aS'227'
p6550
aS'292'
p6551
aa(lp6552
I3227
aS'55'
p6553
aS'165'
p6554
aa(lp6555
I3228
aS'403'
p6556
aS'516'
p6557
aasS'1OKW'
p6558
(lp6559
(lp6560
I252
aS'4'
aS'286'
p6561
aa(lp6562
I2963
aS'309'
p6563
aS'426'
p6564
aa(lp6565
I6787
aS'181'
p6566
aS'306'
p6567
aasS'1OKV'
p6568
(lp6569
(lp6570
I252
aS'4'
aS'286'
p6571
aa(lp6572
I2963
aS'309'
p6573
aS'426'
p6574
aa(lp6575
I6787
aS'181'
p6576
aS'306'
p6577
aasS'3BLR'
p6578
(lp6579
(lp6580
I252
aS'19'
p6581
aS'315'
p6582
aa(lp6583
I6787
aS'12'
p6584
aS'148'
p6585
aasS'2FQD'
p6586
(lp6587
(lp6588
I2580
aS'227'
p6589
aS'292'
p6590
aa(lp6591
I3227
aS'55'
p6592
aS'165'
p6593
aa(lp6594
I3228
aS'402'
p6595
aS'516'
p6596
aasS'2YSH'
p6597
(lp6598
(lp6599
I4465
aS'8'
aS'37'
p6600
aasS'2X87'
p6601
(lp6602
(lp6603
I2580
aS'240'
p6604
aS'318'
p6605
aa(lp6606
I3227
aS'45'
p6607
aS'81'
p6608
aa(lp6609
I3227
aS'101'
p6610
aS'178'
p6611
aa(lp6612
I3228
aS'378'
p6613
aS'509'
p6614
aasS'1GY3'
p6615
(lp6616
(lp6617
I252
aS'4'
aS'286'
p6618
aa(lp6619
I2963
aS'309'
p6620
aS'426'
p6621
aa(lp6622
I6787
aS'181'
p6623
aS'306'
p6624
aasS'3AKB'
p6625
(lp6626
(lp6627
I964
aS'144'
p6628
aS'164'
p6629
aa(lp6630
I2637
aS'13'
p6631
aS'83'
p6632
aasS'2NPP'
p6633
(lp6634
(lp6635
I88
aS'283'
p6636
aS'313'
p6637
aa(lp6638
I1697
aS'51'
p6639
aS'242'
p6640
aa(lp6641
I4185
aS'173'
p6642
aS'263'
p6643
aa(lp6644
I4185
aS'366'
p6645
aS'467'
p6646
aa(lp6647
I7458
aS'28'
p6648
aS'415'
p6649
aasS'4GYB'
p6650
(lp6651
(lp6652
I3227
aS'73'
p6653
aS'182'
p6654
aa(lp6655
I3228
aS'199'
p6656
aS'306'
p6657
aasS'3IB7'
p6658
(lp6659
(lp6660
I1697
aS'16'
p6661
aS'209'
p6662
aasS'2RLY'
p6663
(lp6664
(lp6665
I4465
aS'6'
aS'33'
p6666
aasS'1OZO'
p6667
(lp6668
(lp6669
I580
aS'4'
aS'46'
p6670
aasS'4IYP'
p6671
(lp6672
(lp6673
I1697
aS'55'
p6674
aS'152'
p6675
aa(lp6676
I5338
aS'12'
p6677
aS'221'
p6678
aasS'4PCW'
p6679
(lp6680
(lp6681
I580
aS'3'
aS'45'
p6682
aasS'4GY4'
p6683
(lp6684
(lp6685
I3227
aS'73'
p6686
aS'182'
p6687
aa(lp6688
I3228
aS'199'
p6689
aS'306'
p6690
aasS'4TTH'
p6691
(lp6692
(lp6693
I252
aS'15'
p6694
aS'300'
p6695
aa(lp6696
I6787
aS'32'
p6697
aS'147'
p6698
aa(lp6699
I7043
aS'149'
p6700
aS'254'
p6701
aasS'2P6B'
p6702
(lp6703
(lp6704
I1697
aS'84'
p6705
aS'284'
p6706
aa(lp6707
I2637
aS'23'
p6708
aS'77'
p6709
aa(lp6710
I2637
aS'91'
p6711
aS'154'
p6712
aasS'2W9F'
p6713
(lp6714
(lp6715
I252
aS'6'
aS'295'
p6716
aa(lp6717
I2963
aS'155'
p6718
aS'261'
p6719
aa(lp6720
I6787
aS'28'
p6721
aS'152'
p6722
aasS'3BLQ'
p6723
(lp6724
(lp6725
I252
aS'19'
p6726
aS'315'
p6727
aa(lp6728
I6787
aS'12'
p6729
aS'148'
p6730
aasS'2W9Z'
p6731
(lp6732
(lp6733
I252
aS'6'
aS'295'
p6734
aa(lp6735
I2963
aS'155'
p6736
aS'267'
p6737
aa(lp6738
I6787
aS'28'
p6739
aS'152'
p6740
aasS'2XP9'
p6741
(lp6742
(lp6743
I1109
aS'59'
p6744
aS'162'
p6745
aa(lp6746
I4465
aS'7'
aS'37'
p6747
aasS'1P8U'
p6748
(lp6749
(lp6750
I6013
aS'10'
p6751
aS'231'
p6752
aasS'1AOZ'
p6753
(lp6754
(lp6755
I2580
aS'138'
p6756
aS'299'
p6757
aa(lp6758
I3227
aS'10'
p6759
aS'125'
p6760
aa(lp6761
I3228
aS'408'
p6762
aS'525'
p6763
aasS'5CQ2'
p6764
(lp6765
(lp6766
I4465
aS'440'
p6767
aS'469'
p6768
aa(lp6769
I4465
aS'480'
p6770
aS'509'
p6771
aasS'2NYM'
p6772
(lp6773
(lp6774
I88
aS'283'
p6775
aS'313'
p6776
aa(lp6777
I1697
aS'51'
p6778
aS'242'
p6779
aa(lp6780
I4185
aS'175'
p6781
aS'263'
p6782
aa(lp6783
I4185
aS'366'
p6784
aS'467'
p6785
aa(lp6786
I7458
aS'29'
p6787
aS'413'
p6788
aasS'1DTL'
p6789
(lp6790
(lp6791
I964
aS'32'
p6792
aS'83'
p6793
aa(lp6794
I2637
aS'99'
p6795
aS'157'
p6796
aasS'1OL1'
p6797
(lp6798
(lp6799
I252
aS'4'
aS'286'
p6800
aa(lp6801
I2963
aS'309'
p6802
aS'426'
p6803
aa(lp6804
I6787
aS'181'
p6805
aS'306'
p6806
aasS'1OL2'
p6807
(lp6808
(lp6809
I252
aS'4'
aS'286'
p6810
aa(lp6811
I2963
aS'309'
p6812
aS'426'
p6813
aa(lp6814
I6787
aS'181'
p6815
aS'306'
p6816
aasS'4QI1'
p6817
(lp6818
(lp6819
I6013
aS'18'
p6820
aS'238'
p6821
aasS'2Q8U'
p6822
(lp6823
(lp6824
I1697
aS'7'
aS'219'
p6825
aasS'3HAS'
p6826
(lp6827
(lp6828
I6013
aS'10'
p6829
aS'231'
p6830
aa(lp6831
I6013
aS'10'
p6832
aS'231'
p6833
aasS'1IGV'
p6834
(lp6835
(lp6836
I580
aS'9'
aS'41'
p6837
aa(lp6838
I2631
aS'46'
p6839
aS'72'
p6840
aasS'1U32'
p6841
(lp6842
(lp6843
I1697
aS'60'
p6844
aS'249'
p6845
aa(lp6846
I4386
aS'9'
aS'56'
p6847
aasS'3QPK'
p6848
(lp6849
(lp6850
I2580
aS'169'
p6851
aS'315'
p6852
aa(lp6853
I3227
aS'48'
p6854
aS'159'
p6855
aa(lp6856
I3228
aS'387'
p6857
aS'522'
p6858
aasS'3HAP'
p6859
(lp6860
(lp6861
I6013
aS'10'
p6862
aS'231'
p6863
aasS'2ZR6'
p6864
(lp6865
(lp6866
I1109
aS'59'
p6867
aS'162'
p6868
aa(lp6869
I4465
aS'7'
aS'37'
p6870
aasS'1H25'
p6871
(lp6872
(lp6873
I252
aS'4'
aS'286'
p6874
aa(lp6875
I2963
aS'309'
p6876
aS'426'
p6877
aa(lp6878
I6787
aS'181'
p6879
aS'306'
p6880
aasS'2ZR4'
p6881
(lp6882
(lp6883
I1109
aS'59'
p6884
aS'162'
p6885
aa(lp6886
I4465
aS'7'
aS'37'
p6887
aasS'2ZR5'
p6888
(lp6889
(lp6890
I1109
aS'59'
p6891
aS'162'
p6892
aa(lp6893
I4465
aS'7'
aS'37'
p6894
aasS'1HFU'
p6895
(lp6896
(lp6897
I2580
aS'142'
p6898
aS'287'
p6899
aa(lp6900
I3227
aS'12'
p6901
aS'130'
p6902
aa(lp6903
I3228
aS'349'
p6904
aS'469'
p6905
aasS'1O6W'
p6906
(lp6907
(lp6908
I4465
aS'4'
aS'29'
p6909
aa(lp6910
I4465
aS'43'
p6911
aS'70'
p6912
aasS'4EOL'
p6913
(lp6914
(lp6915
I252
aS'4'
aS'286'
p6916
aa(lp6917
I2963
aS'309'
p6918
aS'426'
p6919
aa(lp6920
I6787
aS'181'
p6921
aS'306'
p6922
aasS'2MKP'
p6923
(lp6924
(lp6925
I964
aS'32'
p6926
aS'83'
p6927
aasS'1TN5'
p6928
(lp6929
(lp6930
I6013
aS'10'
p6931
aS'231'
p6932
aasS'1TN4'
p6933
(lp6934
(lp6935
I964
aS'31'
p6936
aS'82'
p6937
aa(lp6938
I2637
aS'96'
p6939
aS'155'
p6940
aasS'4F7L'
p6941
(lp6942
(lp6943
I165
aS'154'
p6944
aS'239'
p6945
aa(lp6946
I252
aS'26'
p6947
aS'335'
p6948
aa(lp6949
I6787
aS'46'
p6950
aS'148'
p6951
aasS'4F7K'
p6952
(lp6953
(lp6954
I2580
aS'188'
p6955
aS'259'
p6956
aa(lp6957
I3227
aS'35'
p6958
aS'146'
p6959
aa(lp6960
I3228
aS'346'
p6961
aS'438'
p6962
aasS'3OD3'
p6963
(lp6964
(lp6965
I2580
aS'227'
p6966
aS'292'
p6967
aa(lp6968
I3227
aS'55'
p6969
aS'165'
p6970
aa(lp6971
I3228
aS'402'
p6972
aS'516'
p6973
aasS'1FJM'
p6974
(lp6975
(lp6976
I1697
aS'60'
p6977
aS'249'
p6978
aa(lp6979
I4386
aS'9'
aS'56'
p6980
aasS'1KGB'
p6981
(lp6982
(lp6983
I6013
aS'10'
p6984
aS'230'
p6985
aasS'2QT6'
p6986
(lp6987
(lp6988
I2580
aS'142'
p6989
aS'283'
p6990
aa(lp6991
I3227
aS'10'
p6992
aS'130'
p6993
aa(lp6994
I3228
aS'344'
p6995
aS'469'
p6996
aasS'2WOR'
p6997
(lp6998
(lp6999
I580
aS'6'
aS'43'
p7000
aasS'2WOS'
p7001
(lp7002
(lp7003
I580
aS'6'
aS'43'
p7004
aasS'1P5E'
p7005
(lp7006
(lp7007
I252
aS'4'
aS'286'
p7008
aa(lp7009
I2963
aS'309'
p7010
aS'426'
p7011
aa(lp7012
I6787
aS'181'
p7013
aS'306'
p7014
aasS'2BCA'
p7015
(lp7016
(lp7017
I580
aS'9'
aS'41'
p7018
aa(lp7019
I2631
aS'46'
p7020
aS'72'
p7021
aasS'4N8U'
p7022
(lp7023
(lp7024
I3227
aS'70'
p7025
aS'179'
p7026
aa(lp7027
I3228
aS'198'
p7028
aS'304'
p7029
aasS'4F7S'
p7030
(lp7031
(lp7032
I165
aS'154'
p7033
aS'239'
p7034
aa(lp7035
I252
aS'26'
p7036
aS'335'
p7037
aa(lp7038
I6787
aS'46'
p7039
aS'148'
p7040
aasS'1DF0'
p7041
(lp7042
(lp7043
I564
aS'356'
p7044
aS'506'
p7045
aa(lp7046
I964
aS'545'
p7047
aS'602'
p7048
aa(lp7049
I964
aS'28'
p7050
aS'84'
p7051
aa(lp7052
I6302
aS'46'
p7053
aS'342'
p7054
aasS'1LA0'
p7055
(lp7056
(lp7057
I964
aS'32'
p7058
aS'83'
p7059
aa(lp7060
I2637
aS'99'
p7061
aS'157'
p7062
aasS'1TNW'
p7063
(lp7064
(lp7065
I964
aS'34'
p7066
aS'85'
p7067
aa(lp7068
I2637
aS'100'
p7069
aS'158'
p7070
aasS'1TNQ'
p7071
(lp7072
(lp7073
I964
aS'34'
p7074
aS'85'
p7075
aasS'1TNP'
p7076
(lp7077
(lp7078
I964
aS'34'
p7079
aS'85'
p7080
aasS'3D10'
p7081
(lp7082
(lp7083
I580
aS'3'
aS'45'
p7084
aa(lp7085
I2631
aS'53'
p7086
aS'79'
p7087
aasS'1NCY'
p7088
(lp7089
(lp7090
I964
aS'34'
p7091
aS'85'
p7092
aa(lp7093
I2637
aS'100'
p7094
aS'158'
p7095
aasS'1PIN'
p7096
(lp7097
(lp7098
I1109
aS'59'
p7099
aS'162'
p7100
aa(lp7101
I4465
aS'7'
aS'37'
p7102
aasS'1TNX'
p7103
(lp7104
(lp7105
I964
aS'34'
p7106
aS'85'
p7107
aa(lp7108
I2637
aS'100'
p7109
aS'158'
p7110
aasS'1JSA'
p7111
(lp7112
(lp7113
I964
aS'39'
p7114
aS'86'
p7115
aa(lp7116
I2637
aS'101'
p7117
aS'173'
p7118
aasS'1KG9'
p7119
(lp7120
(lp7121
I6013
aS'10'
p7122
aS'230'
p7123
aasS'1KG8'
p7124
(lp7125
(lp7126
I6013
aS'10'
p7127
aS'230'
p7128
aasS'1REC'
p7129
(lp7130
(lp7131
I964
aS'40'
p7132
aS'87'
p7133
aa(lp7134
I2637
aS'102'
p7135
aS'174'
p7136
aasS'3EOC'
p7137
(lp7138
(lp7139
I252
aS'4'
aS'286'
p7140
aa(lp7141
I2963
aS'309'
p7142
aS'426'
p7143
aa(lp7144
I6787
aS'181'
p7145
aS'306'
p7146
aasS'2B9R'
p7147
(lp7148
(lp7149
I2963
aS'136'
p7150
aS'253'
p7151
aa(lp7152
I6787
aS'9'
aS'133'
p7153
aasS'3HVQ'
p7154
(lp7155
(lp7156
I1697
aS'60'
p7157
aS'249'
p7158
aa(lp7159
I4386
aS'9'
aS'56'
p7160
aa(lp7161
I6338
aS'507'
p7162
aS'589'
p7163
aasS'3KCE'
p7164
(lp7165
(lp7166
I1109
aS'59'
p7167
aS'162'
p7168
aa(lp7169
I4465
aS'7'
aS'37'
p7170
aasS'1S54'
p7171
(lp7172
(lp7173
I6013
aS'10'
p7174
aS'230'
p7175
aasS'5DZD'
p7176
(lp7177
(lp7178
I4465
aS'490'
p7179
aS'519'
p7180
aasS'2N4R'
p7181
(lp7182
(lp7183
I4465
aS'433'
p7184
aS'460'
p7185
aasS'2NYL'
p7186
(lp7187
(lp7188
I88
aS'283'
p7189
aS'313'
p7190
aa(lp7191
I1697
aS'51'
p7192
aS'242'
p7193
aa(lp7194
I4185
aS'175'
p7195
aS'263'
p7196
aa(lp7197
I4185
aS'366'
p7198
aS'467'
p7199
aa(lp7200
I7458
aS'29'
p7201
aS'413'
p7202
aasS'1JV7'
p7203
(lp7204
(lp7205
I6013
aS'10'
p7206
aS'232'
p7207
aasS'1JV6'
p7208
(lp7209
(lp7210
I6013
aS'10'
p7211
aS'230'
p7212
aasS'2N4V'
p7213
(lp7214
(lp7215
I4465
aS'433'
p7216
aS'460'
p7217
aasS'2N4W'
p7218
(lp7219
(lp7220
I4465
aS'433'
p7221
aS'460'
p7222
aasS'2NNT'
p7223
(lp7224
(lp7225
I4465
aS'206'
p7226
aS'230'
p7227
aasS'1QKO'
p7228
(lp7229
(lp7230
I6013
aS'10'
p7231
aS'232'
p7232
aasS'2MAZ'
p7233
(lp7234
(lp7235
I580
aS'9'
aS'41'
p7236
aa(lp7237
I2631
aS'46'
p7238
aS'72'
p7239
aasS'1MHO'
p7240
(lp7241
(lp7242
I580
aS'3'
aS'45'
p7243
aa(lp7244
I2631
aS'53'
p7245
aS'79'
p7246
aasS'2ZRT'
p7247
(lp7248
(lp7249
I964
aS'40'
p7250
aS'90'
p7251
aa(lp7252
I2637
aS'97'
p7253
aS'154'
p7254
aasS'1QKP'
p7255
(lp7256
(lp7257
I6013
aS'10'
p7258
aS'232'
p7259
aasS'2ZRS'
p7260
(lp7261
(lp7262
I964
aS'40'
p7263
aS'90'
p7264
aa(lp7265
I2637
aS'97'
p7266
aS'154'
p7267
aasS'3M0W'
p7268
(lp7269
(lp7270
I580
aS'5'
aS'46'
p7271
aasS'4QRY'
p7272
(lp7273
(lp7274
I6013
aS'36'
p7275
aS'272'
p7276
aasS'4I3Z'
p7277
(lp7278
(lp7279
I252
aS'4'
aS'286'
p7280
aa(lp7281
I2963
aS'309'
p7282
aS'426'
p7283
aa(lp7284
I6787
aS'181'
p7285
aS'306'
p7286
aasS'1QMZ'
p7287
(lp7288
(lp7289
I252
aS'4'
aS'286'
p7290
aa(lp7291
I2963
aS'309'
p7292
aS'426'
p7293
aa(lp7294
I6787
aS'181'
p7295
aS'306'
p7296
aasS'2WPA'
p7297
(lp7298
(lp7299
I252
aS'4'
aS'286'
p7300
aa(lp7301
I2963
aS'309'
p7302
aS'426'
p7303
aa(lp7304
I6787
aS'181'
p7305
aS'306'
p7306
aasS'4DIR'
p7307
(lp7308
(lp7309
I580
aS'4'
aS'41'
p7310
aasS'1WR4'
p7311
(lp7312
(lp7313
I4465
aS'5'
aS'34'
p7314
aasS'1R84'
p7315
(lp7316
(lp7317
I6013
aS'10'
p7318
aS'231'
p7319
aasS'1VJM'
p7320
(lp7321
(lp7322
I6013
aS'10'
p7323
aS'232'
p7324
aasS'4X31'
p7325
(lp7326
(lp7327
I6013
aS'10'
p7328
aS'232'
p7329
aasS'3E7A'
p7330
(lp7331
(lp7332
I1697
aS'60'
p7333
aS'249'
p7334
aa(lp7335
I4386
aS'9'
aS'56'
p7336
aasS'1F5Q'
p7337
(lp7338
(lp7339
I252
aS'4'
aS'286'
p7340
aa(lp7341
I6787
aS'25'
p7342
aS'142'
p7343
aasS'4DUQ'
p7344
(lp7345
(lp7346
I580
aS'5'
aS'46'
p7347
aasS'4EOQ'
p7348
(lp7349
(lp7350
I252
aS'4'
aS'286'
p7351
aa(lp7352
I2963
aS'309'
p7353
aS'426'
p7354
aa(lp7355
I6787
aS'181'
p7356
aS'306'
p7357
aasS'4L35'
p7358
(lp7359
(lp7360
I6013
aS'8'
aS'236'
p7361
aasS'3PXL'
p7362
(lp7363
(lp7364
I2580
aS'143'
p7365
aS'284'
p7366
aa(lp7367
I3227
aS'10'
p7368
aS'130'
p7369
aa(lp7370
I3228
aS'345'
p7371
aS'471'
p7372
aasS'3MY1'
p7373
(lp7374
(lp7375
I252
aS'19'
p7376
aS'315'
p7377
aa(lp7378
I6787
aS'12'
p7379
aS'148'
p7380
aasS'4XPN'
p7381
(lp7382
(lp7383
I1697
aS'60'
p7384
aS'249'
p7385
aa(lp7386
I4386
aS'9'
aS'56'
p7387
aa(lp7388
I6040
aS'553'
p7389
aS'568'
p7390
aasS'3QHW'
p7391
(lp7392
(lp7393
I252
aS'4'
aS'286'
p7394
aa(lp7395
I2963
aS'309'
p7396
aS'426'
p7397
aa(lp7398
I6787
aS'181'
p7399
aS'306'
p7400
aasS'3QHR'
p7401
(lp7402
(lp7403
I252
aS'4'
aS'286'
p7404
aa(lp7405
I2963
aS'309'
p7406
aS'426'
p7407
aa(lp7408
I6787
aS'181'
p7409
aS'306'
p7410
aasS'1K95'
p7411
(lp7412
(lp7413
I959
aS'128'
p7414
aS'146'
p7415
aa(lp7416
I964
aS'67'
p7417
aS'119'
p7418
aasS'3LK0'
p7419
(lp7420
(lp7421
I580
aS'3'
aS'45'
p7422
aa(lp7423
I2631
aS'53'
p7424
aS'79'
p7425
aasS'3LK1'
p7426
(lp7427
(lp7428
I580
aS'3'
aS'45'
p7429
aa(lp7430
I2631
aS'53'
p7431
aS'79'
p7432
aasS'2RGI'
p7433
(lp7434
(lp7435
I580
aS'5'
aS'46'
p7436
aasS'4M97'
p7437
(lp7438
(lp7439
I252
aS'51'
p7440
aS'307'
p7441
aa(lp7442
I959
aS'362'
p7443
aS'380'
p7444
aa(lp7445
I964
aS'403'
p7446
aS'429'
p7447
aa(lp7448
I2637
aS'442'
p7449
aS'499'
p7450
aasS'2KBU'
p7451
(lp7452
(lp7453
I4465
aS'2'
aS'29'
p7454
aasS'2Q91'
p7455
(lp7456
(lp7457
I580
aS'5'
aS'46'
p7458
aasS'1CLB'
p7459
(lp7460
(lp7461
I580
aS'9'
aS'41'
p7462
aa(lp7463
I2631
aS'46'
p7464
aS'72'
p7465
aasS'2W4U'
p7466
(lp7467
(lp7468
I964
aS'33'
p7469
aS'84'
p7470
aa(lp7471
I1074
aS'41'
p7472
aS'276'
p7473
aa(lp7474
I1916
aS'169'
p7475
aS'203'
p7476
aa(lp7477
I1916
aS'14'
p7478
aS'143'
p7479
aa(lp7480
I2051
aS'3'
aS'372'
p7481
aa(lp7482
I2637
aS'99'
p7483
aS'157'
p7484
aasS'2JC2'
p7485
(lp7486
(lp7487
I959
aS'108'
p7488
aS'127'
p7489
aa(lp7490
I964
aS'45'
p7491
aS'100'
p7492
aasS'1GUE'
p7493
(lp7494
(lp7495
I6013
aS'5'
aS'219'
p7496
aasS'2HY1'
p7497
(lp7498
(lp7499
I1697
aS'16'
p7500
aS'209'
p7501
aasS'2WHB'
p7502
(lp7503
(lp7504
I252
aS'4'
aS'286'
p7505
aa(lp7506
I2963
aS'309'
p7507
aS'426'
p7508
aa(lp7509
I6787
aS'181'
p7510
aS'306'
p7511
aasS'2HYO'
p7512
(lp7513
(lp7514
I1697
aS'16'
p7515
aS'209'
p7516
aasS'4JQ6'
p7517
(lp7518
(lp7519
I6013
aS'13'
p7520
aS'227'
p7521
aasS'1UHN'
p7522
(lp7523
(lp7524
I959
aS'168'
p7525
aS'192'
p7526
aa(lp7527
I964
aS'64'
p7528
aS'109'
p7529
aasS'2NTU'
p7530
(lp7531
(lp7532
I6013
aS'10'
p7533
aS'231'
p7534
aasS'1K5R'
p7535
(lp7536
(lp7537
I4465
aS'13'
p7538
aS'42'
p7539
aasS'3BOW'
p7540
(lp7541
(lp7542
I564
aS'356'
p7543
aS'506'
p7544
aa(lp7545
I964
aS'545'
p7546
aS'602'
p7547
aa(lp7548
I964
aS'114'
p7549
aS'170'
p7550
aa(lp7551
I1177
aS'572'
p7552
aS'629'
p7553
aa(lp7554
I6302
aS'46'
p7555
aS'342'
p7556
aasS'1MGY'
p7557
(lp7558
(lp7559
I6013
aS'10'
p7560
aS'232'
p7561
aasS'2Q9O'
p7562
(lp7563
(lp7564
I2580
aS'169'
p7565
aS'315'
p7566
aa(lp7567
I3227
aS'48'
p7568
aS'159'
p7569
aa(lp7570
I3228
aS'387'
p7571
aS'522'
p7572
aasS'4MD1'
p7573
(lp7574
(lp7575
I6013
aS'10'
p7576
aS'234'
p7577
aasS'1BRD'
p7578
(lp7579
(lp7580
I6013
aS'10'
p7581
aS'226'
p7582
aasS'3QFK'
p7583
(lp7584
(lp7585
I1583
aS'313'
p7586
aS'471'
p7587
aa(lp7588
I1697
aS'6'
aS'234'
p7589
aasS'2W49'
p7590
(lp7591
(lp7592
I964
aS'33'
p7593
aS'84'
p7594
aa(lp7595
I1074
aS'41'
p7596
aS'276'
p7597
aa(lp7598
I1916
aS'169'
p7599
aS'203'
p7600
aa(lp7601
I1916
aS'14'
p7602
aS'143'
p7603
aa(lp7604
I2051
aS'3'
aS'372'
p7605
aa(lp7606
I2637
aS'99'
p7607
aS'157'
p7608
aasS'4AQJ'
p7609
(lp7610
(lp7611
I580
aS'6'
aS'43'
p7612
aasS'2HYP'
p7613
(lp7614
(lp7615
I1697
aS'16'
p7616
aS'209'
p7617
aasS'4DSY'
p7618
(lp7619
(lp7620
I1697
aS'129'
p7621
aS'327'
p7622
aa(lp7623
I2715
aS'353'
p7624
aS'411'
p7625
aa(lp7626
I5593
aS'27'
p7627
aS'118'
p7628
aasS'4AQI'
p7629
(lp7630
(lp7631
I580
aS'6'
aS'43'
p7632
aasS'3ZU0'
p7633
(lp7634
(lp7635
I1583
aS'412'
p7636
aS'551'
p7637
aa(lp7638
I1697
aS'38'
p7639
aS'252'
p7640
aasS'2LAJ'
p7641
(lp7642
(lp7643
I4465
aS'479'
p7644
aS'508'
p7645
aasS'1UAZ'
p7646
(lp7647
(lp7648
I6013
aS'16'
p7649
aS'236'
p7650
aasS'3TBC'
p7651
(lp7652
(lp7653
I3227
aS'68'
p7654
aS'177'
p7655
aa(lp7656
I3228
aS'194'
p7657
aS'301'
p7658
aasS'3TBB'
p7659
(lp7660
(lp7661
I3227
aS'68'
p7662
aS'177'
p7663
aa(lp7664
I3228
aS'194'
p7665
aS'301'
p7666
aasS'1F50'
p7667
(lp7668
(lp7669
I6013
aS'10'
p7670
aS'230'
p7671
aasS'3NTP'
p7672
(lp7673
(lp7674
I1109
aS'59'
p7675
aS'162'
p7676
aa(lp7677
I4465
aS'7'
aS'37'
p7678
aasS'2QFP'
p7679
(lp7680
(lp7681
I1697
aS'129'
p7682
aS'327'
p7683
aa(lp7684
I2715
aS'353'
p7685
aS'411'
p7686
aa(lp7687
I5593
aS'27'
p7688
aS'118'
p7689
aasS'2QFR'
p7690
(lp7691
(lp7692
I1697
aS'129'
p7693
aS'327'
p7694
aa(lp7695
I2715
aS'353'
p7696
aS'411'
p7697
aa(lp7698
I5593
aS'27'
p7699
aS'118'
p7700
aasS'2LAY'
p7701
(lp7702
(lp7703
I4465
aS'173'
p7704
aS'202'
p7705
aasS'2LAX'
p7706
(lp7707
(lp7708
I4465
aS'173'
p7709
aS'202'
p7710
aasS'3IVD'
p7711
(lp7712
(lp7713
I1583
aS'338'
p7714
aS'478'
p7715
aa(lp7716
I1697
aS'26'
p7717
aS'254'
p7718
aasS'3IVE'
p7719
(lp7720
(lp7721
I1583
aS'338'
p7722
aS'478'
p7723
aa(lp7724
I1697
aS'26'
p7725
aS'254'
p7726
aasS'1ASO'
p7727
(lp7728
(lp7729
I2580
aS'138'
p7730
aS'299'
p7731
aa(lp7732
I3227
aS'10'
p7733
aS'125'
p7734
aa(lp7735
I3228
aS'408'
p7736
aS'525'
p7737
aasS'2JV4'
p7738
(lp7739
(lp7740
I4465
aS'7'
aS'37'
p7741
aasS'2LAW'
p7742
(lp7743
(lp7744
I4465
aS'232'
p7745
aS'261'
p7746
aasS'2N79'
p7747
(lp7748
(lp7749
I964
aS'32'
p7750
aS'83'
p7751
aasS'4F6S'
p7752
(lp7753
(lp7754
I165
aS'154'
p7755
aS'239'
p7756
aa(lp7757
I252
aS'26'
p7758
aS'335'
p7759
aa(lp7760
I6787
aS'46'
p7761
aS'148'
p7762
aasS'2Y5I'
p7763
(lp7764
(lp7765
I580
aS'5'
aS'46'
p7766
aasS'1BRR'
p7767
(lp7768
(lp7769
I6013
aS'10'
p7770
aS'232'
p7771
aasS'3NT0'
p7772
(lp7773
(lp7774
I2580
aS'227'
p7775
aS'292'
p7776
aa(lp7777
I3227
aS'55'
p7778
aS'165'
p7779
aa(lp7780
I3228
aS'403'
p7781
aS'518'
p7782
aasS'1H1S'
p7783
(lp7784
(lp7785
I252
aS'4'
aS'286'
p7786
aa(lp7787
I2963
aS'309'
p7788
aS'426'
p7789
aa(lp7790
I6787
aS'181'
p7791
aS'306'
p7792
aasS'2NTW'
p7793
(lp7794
(lp7795
I6013
aS'10'
p7796
aS'231'
p7797
aasS'1GSK'
p7798
(lp7799
(lp7800
I2580
aS'240'
p7801
aS'318'
p7802
aa(lp7803
I3227
aS'45'
p7804
aS'81'
p7805
aa(lp7806
I3227
aS'101'
p7807
aS'178'
p7808
aa(lp7809
I3228
aS'378'
p7810
aS'509'
p7811
aasS'1YUS'
p7812
(lp7813
(lp7814
I580
aS'9'
aS'51'
p7815
aasS'1QLK'
p7816
(lp7817
(lp7818
I580
aS'3'
aS'45'
p7819
aa(lp7820
I2631
aS'53'
p7821
aS'79'
p7822
aasS'2JOG'
p7823
(lp7824
(lp7825
I1697
aS'84'
p7826
aS'284'
p7827
aasS'2N4S'
p7828
(lp7829
(lp7830
I4465
aS'433'
p7831
aS'460'
p7832
aasS'1J1D'
p7833
(lp7834
(lp7835
I964
aS'32'
p7836
aS'83'
p7837
aa(lp7838
I1916
aS'202'
p7839
aS'230'
p7840
aa(lp7841
I1916
aS'224'
p7842
aS'271'
p7843
aa(lp7844
I1916
aS'46'
p7845
aS'160'
p7846
aa(lp7847
I2637
aS'99'
p7848
aS'157'
p7849
aasS'3X3B'
p7850
(lp7851
(lp7852
I6013
aS'32'
p7853
aS'271'
p7854
aasS'3X3C'
p7855
(lp7856
(lp7857
I6013
aS'32'
p7858
aS'271'
p7859
aasS'4OKH'
p7860
(lp7861
(lp7862
I959
aS'794'
p7863
aS'807'
p7864
aa(lp7865
I964
aS'665'
p7866
aS'722'
p7867
aa(lp7868
I2631
aS'727'
p7869
aS'752'
p7870
aasS'2X1N'
p7871
(lp7872
(lp7873
I252
aS'4'
aS'286'
p7874
aa(lp7875
I2963
aS'309'
p7876
aS'426'
p7877
aa(lp7878
I6787
aS'181'
p7879
aS'306'
p7880
aasS'2I94'
p7881
(lp7882
(lp7883
I964
aS'40'
p7884
aS'87'
p7885
aa(lp7886
I2637
aS'102'
p7887
aS'174'
p7888
aasS'3KO0'
p7889
(lp7890
(lp7891
I580
aS'5'
aS'46'
p7892
aasS'2N1O'
p7893
(lp7894
(lp7895
I4465
aS'7'
aS'37'
p7896
aasS'3V9C'
p7897
(lp7898
(lp7899
I2580
aS'143'
p7900
aS'284'
p7901
aa(lp7902
I3227
aS'10'
p7903
aS'130'
p7904
aa(lp7905
I3228
aS'345'
p7906
aS'471'
p7907
aasS'1MR8'
p7908
(lp7909
(lp7910
I580
aS'5'
aS'46'
p7911
aasS'2BKZ'
p7912
(lp7913
(lp7914
I252
aS'4'
aS'286'
p7915
aa(lp7916
I2963
aS'309'
p7917
aS'426'
p7918
aa(lp7919
I6787
aS'181'
p7920
aS'306'
p7921
aasS'4IL1'
p7922
(lp7923
(lp7924
I1697
aS'417'
p7925
aS'617'
p7926
aa(lp7927
I2637
aS'181'
p7928
aS'234'
p7929
aa(lp7930
I2637
aS'249'
p7931
aS'312'
p7932
aasS'1SPY'
p7933
(lp7934
(lp7935
I964
aS'32'
p7936
aS'83'
p7937
aasS'1ZPU'
p7938
(lp7939
(lp7940
I2580
aS'157'
p7941
aS'301'
p7942
aa(lp7943
I3227
aS'32'
p7944
aS'146'
p7945
aa(lp7946
I3228
aS'362'
p7947
aS'502'
p7948
aasS'1JGJ'
p7949
(lp7950
(lp7951
I6013
aS'5'
aS'216'
p7952
aasS'2DK7'
p7953
(lp7954
(lp7955
I4465
aS'20'
p7956
aS'47'
p7957
aasS'2M8J'
p7958
(lp7959
(lp7960
I4465
aS'11'
p7961
aS'41'
p7962
aasS'2M8I'
p7963
(lp7964
(lp7965
I4465
aS'11'
p7966
aS'41'
p7967
aasS'2XLL'
p7968
(lp7969
(lp7970
I3227
aS'49'
p7971
aS'159'
p7972
aa(lp7973
I3228
aS'339'
p7974
aS'472'
p7975
aasS'2WSD'
p7976
(lp7977
(lp7978
I2580
aS'240'
p7979
aS'318'
p7980
aa(lp7981
I3227
aS'45'
p7982
aS'81'
p7983
aa(lp7984
I3227
aS'101'
p7985
aS'178'
p7986
aa(lp7987
I3228
aS'378'
p7988
aS'509'
p7989
aasS'3HAR'
p7990
(lp7991
(lp7992
I6013
aS'10'
p7993
aS'231'
p7994
aasS'4EOI'
p7995
(lp7996
(lp7997
I252
aS'4'
aS'286'
p7998
aa(lp7999
I2963
aS'309'
p8000
aS'426'
p8001
aa(lp8002
I6787
aS'181'
p8003
aS'306'
p8004
aasS'4EOJ'
p8005
(lp8006
(lp8007
I252
aS'4'
aS'286'
p8008
aa(lp8009
I2963
aS'309'
p8010
aS'426'
p8011
aa(lp8012
I6787
aS'181'
p8013
aS'306'
p8014
aasS'4EOK'
p8015
(lp8016
(lp8017
I252
aS'4'
aS'286'
p8018
aa(lp8019
I2963
aS'309'
p8020
aS'426'
p8021
aa(lp8022
I6787
aS'181'
p8023
aS'306'
p8024
aasS'1UWO'
p8025
(lp8026
(lp8027
I580
aS'3'
aS'45'
p8028
aa(lp8029
I2631
aS'53'
p8030
aS'79'
p8031
aasS'4EOM'
p8032
(lp8033
(lp8034
I252
aS'4'
aS'286'
p8035
aa(lp8036
I2963
aS'309'
p8037
aS'426'
p8038
aa(lp8039
I6787
aS'181'
p8040
aS'306'
p8041
aasS'2MDC'
p8042
(lp8043
(lp8044
I4465
aS'17'
p8045
aS'46'
p8046
aasS'3QQX'
p8047
(lp8048
(lp8049
I2580
aS'227'
p8050
aS'292'
p8051
aa(lp8052
I3227
aS'55'
p8053
aS'165'
p8054
aa(lp8055
I3228
aS'402'
p8056
aS'518'
p8057
aasS'3FPX'
p8058
(lp8059
(lp8060
I2580
aS'143'
p8061
aS'284'
p8062
aa(lp8063
I3227
aS'10'
p8064
aS'130'
p8065
aa(lp8066
I3228
aS'345'
p8067
aS'471'
p8068
aasS'4JR8'
p8069
(lp8070
(lp8071
I6013
aS'8'
aS'236'
p8072
aasS'3ABW'
p8073
(lp8074
(lp8075
I6013
aS'36'
p8076
aS'272'
p8077
aasS'1U5I'
p8078
(lp8079
(lp8080
I564
aS'356'
p8081
aS'506'
p8082
aa(lp8083
I964
aS'545'
p8084
aS'602'
p8085
aa(lp8086
I964
aS'28'
p8087
aS'84'
p8088
aa(lp8089
I6302
aS'46'
p8090
aS'342'
p8091
aasS'1ZP2'
p8092
(lp8093
(lp8094
I6787
aS'42'
p8095
aS'130'
p8096
aasS'4EOP'
p8097
(lp8098
(lp8099
I252
aS'4'
aS'286'
p8100
aa(lp8101
I2963
aS'309'
p8102
aS'426'
p8103
aa(lp8104
I6787
aS'181'
p8105
aS'306'
p8106
aasS'4F7N'
p8107
(lp8108
(lp8109
I165
aS'154'
p8110
aS'239'
p8111
aa(lp8112
I252
aS'26'
p8113
aS'335'
p8114
aa(lp8115
I6787
aS'46'
p8116
aS'148'
p8117
aasS'4EOR'
p8118
(lp8119
(lp8120
I252
aS'4'
aS'286'
p8121
aa(lp8122
I2963
aS'309'
p8123
aS'426'
p8124
aa(lp8125
I6787
aS'181'
p8126
aS'306'
p8127
aasS'4EOS'
p8128
(lp8129
(lp8130
I252
aS'4'
aS'286'
p8131
aa(lp8132
I2963
aS'309'
p8133
aS'426'
p8134
aa(lp8135
I6787
aS'181'
p8136
aS'306'
p8137
aasS'3HAN'
p8138
(lp8139
(lp8140
I6013
aS'10'
p8141
aS'230'
p8142
aasS'3MY5'
p8143
(lp8144
(lp8145
I252
aS'4'
aS'286'
p8146
aa(lp8147
I2963
aS'309'
p8148
aS'426'
p8149
aa(lp8150
I6787
aS'181'
p8151
aS'306'
p8152
aasS'1TN0'
p8153
(lp8154
(lp8155
I6013
aS'10'
p8156
aS'231'
p8157
aasS'2L4J'
p8158
(lp8159
(lp8160
I4465
aS'188'
p8161
aS'217'
p8162
aasS'2UXV'
p8163
(lp8164
(lp8165
I2580
aS'223'
p8166
aS'287'
p8167
aa(lp8168
I3227
aS'52'
p8169
aS'166'
p8170
aa(lp8171
I3228
aS'359'
p8172
aS'468'
p8173
aasS'2UXT'
p8174
(lp8175
(lp8176
I2580
aS'223'
p8177
aS'287'
p8178
aa(lp8179
I3227
aS'52'
p8180
aS'166'
p8181
aa(lp8182
I3228
aS'359'
p8183
aS'468'
p8184
aasS'2KYK'
p8185
(lp8186
(lp8187
I4465
aS'7'
aS'36'
p8188
aasS'1JUO'
p8189
(lp8190
(lp8191
I964
aS'45'
p8192
aS'100'
p8193
aa(lp8194
I2638
aS'106'
p8195
aS'132'
p8196
aasS'2WC8'
p8197
(lp8198
(lp8199
I580
aS'3'
aS'45'
p8200
aasS'2JO9'
p8201
(lp8202
(lp8203
I4465
aS'6'
aS'35'
p8204
aasS'4GJG'
p8205
(lp8206
(lp8207
I964
aS'32'
p8208
aS'83'
p8209
aasS'4MLW'
p8210
(lp8211
(lp8212
I964
aS'40'
p8213
aS'87'
p8214
aa(lp8215
I2637
aS'102'
p8216
aS'174'
p8217
aasS'1J1E'
p8218
(lp8219
(lp8220
I964
aS'32'
p8221
aS'83'
p8222
aa(lp8223
I1916
aS'203'
p8224
aS'230'
p8225
aa(lp8226
I1916
aS'224'
p8227
aS'271'
p8228
aa(lp8229
I1916
aS'46'
p8230
aS'162'
p8231
aa(lp8232
I2637
aS'99'
p8233
aS'157'
p8234
aasS'2DWV'
p8235
(lp8236
(lp8237
I4465
aS'14'
p8238
aS'43'
p8239
aasS'4YZI'
p8240
(lp8241
(lp8242
I6013
aS'95'
p8243
aS'301'
p8244
aasS'4HYX'
p8245
(lp8246
(lp8247
I6013
aS'10'
p8248
aS'231'
p8249
aasS'4H2G'
p8250
(lp8251
(lp8252
I1583
aS'339'
p8253
aS'512'
p8254
aa(lp8255
I1697
aS'29'
p8256
aS'244'
p8257
aasS'2JUL'
p8258
(lp8259
(lp8260
I964
aS'105'
p8261
aS'155'
p8262
aa(lp8263
I2637
aS'167'
p8264
aS'237'
p8265
aasS'1PY6'
p8266
(lp8267
(lp8268
I6013
aS'10'
p8269
aS'231'
p8270
aasS'1BRX'
p8271
(lp8272
(lp8273
I6013
aS'10'
p8274
aS'228'
p8275
aas.