(dp1
S'2B8K'
p2
(lp3
(lp4
I410
aS'9'
aS'79'
p5
aa(lp6
I1243
aS'4'
aS'40'
p7
aa(lp8
I1560
aS'29'
p9
aS'60'
p10
aa(lp11
I1780
aS'7'
aS'146'
p12
aa(lp13
I1874
aS'49'
p14
aS'170'
p15
aa(lp16
I2025
aS'74'
p17
aS'111'
p18
aa(lp19
I2150
aS'12'
p20
aS'340'
p21
aa(lp22
I2154
aS'695'
p23
aS'800'
p24
aa(lp25
I2534
aS'142'
p26
aS'214'
p27
aa(lp28
I2536
aS'6'
aS'99'
p29
aa(lp30
I2559
aS'31'
p31
aS'102'
p32
aa(lp33
I2833
aS'80'
p34
aS'157'
p35
aa(lp36
I3290
aS'80'
p37
aS'132'
p38
aa(lp39
I3356
aS'20'
p40
aS'254'
p41
aa(lp42
I3357
aS'1'
aS'59'
p43
aa(lp44
I3506
aS'481'
p45
aS'543'
p46
aa(lp47
I4336
aS'681'
p48
aS'745'
p49
aa(lp50
I4337
aS'580'
p51
aS'641'
p52
aa(lp53
I4338
aS'1126'
p54
aS'1218'
p55
aa(lp56
I4339
aS'753'
p57
aS'1124'
p58
aa(lp59
I4340
aS'42'
p60
aS'455'
p61
aa(lp62
I4342
aS'220'
p63
aS'407'
p64
aa(lp65
I5408
aS'342'
p66
aS'507'
p67
aa(lp68
I5409
aS'510'
p69
aS'669'
p70
aa(lp71
I5412
aS'873'
p72
aS'1056'
p73
aa(lp74
I5413
aS'1141'
p75
aS'1274'
p76
aa(lp77
I5415
aS'807'
p78
aS'1398'
p79
aa(lp80
I5642
aS'49'
p81
aS'217'
p82
aasS'3S1M'
p83
(lp84
(lp85
I1243
aS'4'
aS'40'
p86
aa(lp87
I1560
aS'29'
p88
aS'60'
p89
aa(lp90
I1780
aS'7'
aS'146'
p91
aa(lp92
I1874
aS'49'
p93
aS'170'
p94
aa(lp95
I2025
aS'74'
p96
aS'111'
p97
aa(lp98
I2150
aS'12'
p99
aS'340'
p100
aa(lp101
I2154
aS'695'
p102
aS'800'
p103
aa(lp104
I2534
aS'142'
p105
aS'214'
p106
aa(lp107
I2536
aS'6'
aS'99'
p108
aa(lp109
I2559
aS'31'
p110
aS'102'
p111
aa(lp112
I3290
aS'80'
p113
aS'132'
p114
aa(lp115
I3356
aS'20'
p116
aS'254'
p117
aa(lp118
I3357
aS'1'
aS'59'
p119
aa(lp120
I3506
aS'481'
p121
aS'543'
p122
aa(lp123
I4336
aS'681'
p124
aS'745'
p125
aa(lp126
I4337
aS'580'
p127
aS'641'
p128
aa(lp129
I4338
aS'1126'
p130
aS'1218'
p131
aa(lp132
I4339
aS'753'
p133
aS'1124'
p134
aa(lp135
I4340
aS'42'
p136
aS'455'
p137
aa(lp138
I4342
aS'220'
p139
aS'407'
p140
aa(lp141
I5408
aS'342'
p142
aS'507'
p143
aa(lp144
I5409
aS'510'
p145
aS'669'
p146
aa(lp147
I5412
aS'873'
p148
aS'1056'
p149
aa(lp150
I5413
aS'1141'
p151
aS'1274'
p152
aa(lp153
I5415
aS'807'
p154
aS'1398'
p155
aasS'3K7A'
p156
(lp157
(lp158
I1243
aS'4'
aS'40'
p159
aa(lp160
I1560
aS'29'
p161
aS'60'
p162
aa(lp163
I1780
aS'7'
aS'146'
p164
aa(lp165
I1874
aS'49'
p166
aS'170'
p167
aa(lp168
I2025
aS'74'
p169
aS'111'
p170
aa(lp171
I2150
aS'12'
p172
aS'340'
p173
aa(lp174
I2154
aS'695'
p175
aS'800'
p176
aa(lp177
I2534
aS'142'
p178
aS'214'
p179
aa(lp180
I2536
aS'6'
aS'99'
p181
aa(lp182
I2559
aS'31'
p183
aS'102'
p184
aa(lp185
I2923
aS'23'
p186
aS'66'
p187
aa(lp188
I3185
aS'133'
p189
aS'202'
p190
aa(lp191
I3290
aS'80'
p192
aS'132'
p193
aa(lp194
I3356
aS'20'
p195
aS'254'
p196
aa(lp197
I3357
aS'1'
aS'59'
p198
aa(lp199
I3506
aS'481'
p200
aS'543'
p201
aa(lp202
I4336
aS'681'
p203
aS'745'
p204
aa(lp205
I4337
aS'580'
p206
aS'641'
p207
aa(lp208
I4338
aS'1126'
p209
aS'1218'
p210
aa(lp211
I4339
aS'753'
p212
aS'1124'
p213
aa(lp214
I4340
aS'42'
p215
aS'455'
p216
aa(lp217
I4342
aS'220'
p218
aS'407'
p219
aa(lp220
I5408
aS'342'
p221
aS'507'
p222
aa(lp223
I5409
aS'510'
p224
aS'669'
p225
aa(lp226
I5412
aS'873'
p227
aS'1056'
p228
aa(lp229
I5413
aS'1141'
p230
aS'1274'
p231
aa(lp232
I5415
aS'807'
p233
aS'1398'
p234
aasS'3S1N'
p235
(lp236
(lp237
I1243
aS'4'
aS'40'
p238
aa(lp239
I1560
aS'29'
p240
aS'60'
p241
aa(lp242
I1780
aS'7'
aS'146'
p243
aa(lp244
I1874
aS'49'
p245
aS'170'
p246
aa(lp247
I2025
aS'74'
p248
aS'111'
p249
aa(lp250
I2150
aS'12'
p251
aS'340'
p252
aa(lp253
I2154
aS'695'
p254
aS'800'
p255
aa(lp256
I2534
aS'142'
p257
aS'214'
p258
aa(lp259
I2536
aS'6'
aS'99'
p260
aa(lp261
I2559
aS'31'
p262
aS'102'
p263
aa(lp264
I3290
aS'80'
p265
aS'132'
p266
aa(lp267
I3356
aS'20'
p268
aS'254'
p269
aa(lp270
I3357
aS'1'
aS'59'
p271
aa(lp272
I3506
aS'481'
p273
aS'543'
p274
aa(lp275
I4336
aS'681'
p276
aS'745'
p277
aa(lp278
I4337
aS'580'
p279
aS'641'
p280
aa(lp281
I4338
aS'1126'
p282
aS'1218'
p283
aa(lp284
I4339
aS'753'
p285
aS'1124'
p286
aa(lp287
I4340
aS'42'
p288
aS'455'
p289
aa(lp290
I4342
aS'220'
p291
aS'407'
p292
aa(lp293
I5408
aS'342'
p294
aS'507'
p295
aa(lp296
I5409
aS'510'
p297
aS'669'
p298
aa(lp299
I5412
aS'873'
p300
aS'1056'
p301
aa(lp302
I5413
aS'1141'
p303
aS'1274'
p304
aa(lp305
I5415
aS'807'
p306
aS'1398'
p307
aasS'2JA7'
p308
(lp309
(lp310
I410
aS'9'
aS'79'
p311
aa(lp312
I1243
aS'4'
aS'40'
p313
aa(lp314
I1560
aS'29'
p315
aS'60'
p316
aa(lp317
I1780
aS'7'
aS'146'
p318
aa(lp319
I1874
aS'49'
p320
aS'170'
p321
aa(lp322
I2025
aS'74'
p323
aS'111'
p324
aa(lp325
I2150
aS'12'
p326
aS'340'
p327
aa(lp328
I2154
aS'695'
p329
aS'800'
p330
aa(lp331
I2534
aS'142'
p332
aS'214'
p333
aa(lp334
I2536
aS'6'
aS'99'
p335
aa(lp336
I2559
aS'31'
p337
aS'102'
p338
aa(lp339
I2833
aS'80'
p340
aS'157'
p341
aa(lp342
I3290
aS'80'
p343
aS'132'
p344
aa(lp345
I3356
aS'20'
p346
aS'254'
p347
aa(lp348
I3357
aS'1'
aS'59'
p349
aa(lp350
I3506
aS'481'
p351
aS'543'
p352
aa(lp353
I4336
aS'681'
p354
aS'745'
p355
aa(lp356
I4337
aS'580'
p357
aS'641'
p358
aa(lp359
I4338
aS'1126'
p360
aS'1218'
p361
aa(lp362
I4339
aS'753'
p363
aS'1124'
p364
aa(lp365
I4340
aS'42'
p366
aS'455'
p367
aa(lp368
I4342
aS'220'
p369
aS'407'
p370
aa(lp371
I5408
aS'342'
p372
aS'507'
p373
aa(lp374
I5409
aS'510'
p375
aS'669'
p376
aa(lp377
I5412
aS'873'
p378
aS'1056'
p379
aa(lp380
I5413
aS'1141'
p381
aS'1274'
p382
aa(lp383
I5415
aS'807'
p384
aS'1398'
p385
aa(lp386
I5642
aS'49'
p387
aS'217'
p388
aasS'2JA6'
p389
(lp390
(lp391
I410
aS'9'
aS'79'
p392
aa(lp393
I1243
aS'4'
aS'40'
p394
aa(lp395
I1560
aS'29'
p396
aS'60'
p397
aa(lp398
I1780
aS'7'
aS'146'
p399
aa(lp400
I1874
aS'49'
p401
aS'170'
p402
aa(lp403
I2025
aS'74'
p404
aS'111'
p405
aa(lp406
I2150
aS'12'
p407
aS'340'
p408
aa(lp409
I2154
aS'695'
p410
aS'800'
p411
aa(lp412
I2534
aS'142'
p413
aS'214'
p414
aa(lp415
I2536
aS'6'
aS'99'
p416
aa(lp417
I2559
aS'31'
p418
aS'102'
p419
aa(lp420
I2833
aS'80'
p421
aS'157'
p422
aa(lp423
I3290
aS'80'
p424
aS'132'
p425
aa(lp426
I3356
aS'20'
p427
aS'254'
p428
aa(lp429
I3357
aS'1'
aS'59'
p430
aa(lp431
I3506
aS'481'
p432
aS'543'
p433
aa(lp434
I4336
aS'681'
p435
aS'745'
p436
aa(lp437
I4337
aS'580'
p438
aS'641'
p439
aa(lp440
I4338
aS'1126'
p441
aS'1218'
p442
aa(lp443
I4339
aS'753'
p444
aS'1124'
p445
aa(lp446
I4340
aS'42'
p447
aS'455'
p448
aa(lp449
I4342
aS'220'
p450
aS'407'
p451
aa(lp452
I5408
aS'342'
p453
aS'507'
p454
aa(lp455
I5409
aS'510'
p456
aS'669'
p457
aa(lp458
I5412
aS'873'
p459
aS'1056'
p460
aa(lp461
I5413
aS'1141'
p462
aS'1274'
p463
aa(lp464
I5415
aS'807'
p465
aS'1398'
p466
aa(lp467
I5642
aS'49'
p468
aS'217'
p469
aasS'2JA5'
p470
(lp471
(lp472
I410
aS'9'
aS'79'
p473
aa(lp474
I1243
aS'4'
aS'40'
p475
aa(lp476
I1560
aS'29'
p477
aS'60'
p478
aa(lp479
I1780
aS'7'
aS'146'
p480
aa(lp481
I1874
aS'49'
p482
aS'170'
p483
aa(lp484
I2025
aS'74'
p485
aS'111'
p486
aa(lp487
I2150
aS'12'
p488
aS'340'
p489
aa(lp490
I2154
aS'695'
p491
aS'800'
p492
aa(lp493
I2534
aS'142'
p494
aS'214'
p495
aa(lp496
I2536
aS'6'
aS'99'
p497
aa(lp498
I2559
aS'31'
p499
aS'102'
p500
aa(lp501
I2833
aS'80'
p502
aS'157'
p503
aa(lp504
I3290
aS'80'
p505
aS'132'
p506
aa(lp507
I3356
aS'20'
p508
aS'254'
p509
aa(lp510
I3357
aS'1'
aS'59'
p511
aa(lp512
I3506
aS'481'
p513
aS'543'
p514
aa(lp515
I4336
aS'681'
p516
aS'745'
p517
aa(lp518
I4337
aS'580'
p519
aS'641'
p520
aa(lp521
I4338
aS'1126'
p522
aS'1218'
p523
aa(lp524
I4339
aS'753'
p525
aS'1124'
p526
aa(lp527
I4340
aS'42'
p528
aS'455'
p529
aa(lp530
I4342
aS'220'
p531
aS'407'
p532
aa(lp533
I5408
aS'342'
p534
aS'507'
p535
aa(lp536
I5409
aS'510'
p537
aS'669'
p538
aa(lp539
I5412
aS'873'
p540
aS'1056'
p541
aa(lp542
I5413
aS'1141'
p543
aS'1274'
p544
aa(lp545
I5415
aS'807'
p546
aS'1398'
p547
aa(lp548
I5642
aS'49'
p549
aS'217'
p550
aasS'5C44'
p551
(lp552
(lp553
I410
aS'9'
aS'79'
p554
aa(lp555
I1243
aS'5'
aS'41'
p556
aa(lp557
I1560
aS'55'
p558
aS'69'
p559
aa(lp560
I1780
aS'7'
aS'134'
p561
aa(lp562
I1874
aS'52'
p563
aS'173'
p564
aa(lp565
I2025
aS'75'
p566
aS'112'
p567
aa(lp568
I2150
aS'13'
p569
aS'341'
p570
aa(lp571
I2154
aS'696'
p572
aS'801'
p573
aa(lp574
I2534
aS'143'
p575
aS'214'
p576
aa(lp577
I2536
aS'7'
aS'100'
p578
aa(lp579
I2559
aS'31'
p580
aS'102'
p581
aa(lp582
I2833
aS'80'
p583
aS'157'
p584
aa(lp585
I3290
aS'148'
p586
aS'154'
p587
aa(lp588
I3356
aS'23'
p589
aS'257'
p590
aa(lp591
I3357
aS'1'
aS'59'
p592
aa(lp593
I3506
aS'500'
p594
aS'562'
p595
aa(lp596
I4336
aS'700'
p597
aS'764'
p598
aa(lp599
I4337
aS'599'
p600
aS'660'
p601
aa(lp602
I4338
aS'1145'
p603
aS'1176'
p604
aa(lp605
I4339
aS'772'
p606
aS'1143'
p607
aa(lp608
I4340
aS'61'
p609
aS'474'
p610
aa(lp611
I4342
aS'239'
p612
aS'426'
p613
aa(lp614
I5408
aS'343'
p615
aS'508'
p616
aa(lp617
I5409
aS'511'
p618
aS'670'
p619
aa(lp620
I5412
aS'874'
p621
aS'1057'
p622
aa(lp623
I5413
aS'1142'
p624
aS'1275'
p625
aa(lp626
I5415
aS'808'
p627
aS'1399'
p628
aa(lp629
I5642
aS'52'
p630
aS'180'
p631
aasS'2JA8'
p632
(lp633
(lp634
I410
aS'9'
aS'79'
p635
aa(lp636
I1243
aS'4'
aS'40'
p637
aa(lp638
I1560
aS'29'
p639
aS'60'
p640
aa(lp641
I1780
aS'7'
aS'146'
p642
aa(lp643
I1874
aS'49'
p644
aS'170'
p645
aa(lp646
I2025
aS'74'
p647
aS'111'
p648
aa(lp649
I2150
aS'12'
p650
aS'340'
p651
aa(lp652
I2154
aS'695'
p653
aS'800'
p654
aa(lp655
I2534
aS'142'
p656
aS'214'
p657
aa(lp658
I2536
aS'6'
aS'99'
p659
aa(lp660
I2559
aS'31'
p661
aS'102'
p662
aa(lp663
I2833
aS'80'
p664
aS'157'
p665
aa(lp666
I3290
aS'80'
p667
aS'132'
p668
aa(lp669
I3356
aS'20'
p670
aS'254'
p671
aa(lp672
I3357
aS'1'
aS'59'
p673
aa(lp674
I3506
aS'481'
p675
aS'543'
p676
aa(lp677
I4336
aS'681'
p678
aS'745'
p679
aa(lp680
I4337
aS'580'
p681
aS'641'
p682
aa(lp683
I4338
aS'1126'
p684
aS'1218'
p685
aa(lp686
I4339
aS'753'
p687
aS'1124'
p688
aa(lp689
I4340
aS'42'
p690
aS'455'
p691
aa(lp692
I4342
aS'220'
p693
aS'407'
p694
aa(lp695
I5408
aS'342'
p696
aS'507'
p697
aa(lp698
I5409
aS'510'
p699
aS'669'
p700
aa(lp701
I5412
aS'873'
p702
aS'1056'
p703
aa(lp704
I5413
aS'1141'
p705
aS'1274'
p706
aa(lp707
I5415
aS'807'
p708
aS'1398'
p709
aa(lp710
I5642
aS'49'
p711
aS'217'
p712
aasS'3AOI'
p713
(lp714
(lp715
I513
aS'6'
aS'74'
p716
aa(lp717
I529
aS'471'
p718
aS'535'
p719
aa(lp720
I1874
aS'59'
p721
aS'154'
p722
aa(lp723
I2150
aS'2'
aS'159'
p724
aa(lp725
I2150
aS'457'
p726
aS'618'
p727
aa(lp728
I2154
aS'984'
p729
aS'1050'
p730
aa(lp731
I2995
aS'81'
p732
aS'155'
p733
aa(lp734
I3290
aS'12'
p735
aS'72'
p736
aa(lp737
I3356
aS'26'
p738
aS'222'
p739
aa(lp740
I3506
aS'393'
p741
aS'461'
p742
aa(lp743
I4338
aS'1028'
p744
aS'1102'
p745
aa(lp746
I4339
aS'597'
p747
aS'1026'
p748
aa(lp749
I4340
aS'18'
p750
aS'379'
p751
aa(lp752
I4342
aS'142'
p753
aS'334'
p754
aa(lp755
I5408
aS'620'
p756
aS'761'
p757
aa(lp758
I5409
aS'768'
p759
aS'953'
p760
aa(lp761
I5415
aS'1064'
p762
aS'1436'
p763
aasS'4QIW'
p764
(lp765
(lp766
I410
aS'8'
aS'77'
p767
aa(lp768
I1560
aS'8'
aS'39'
p769
aa(lp770
I1874
aS'45'
p771
aS'147'
p772
aa(lp773
I2150
aS'6'
aS'310'
p774
aa(lp775
I2154
aS'698'
p776
aS'804'
p777
aa(lp778
I2534
aS'7'
aS'79'
p779
aa(lp780
I2559
aS'13'
p781
aS'86'
p782
aa(lp783
I2833
aS'79'
p784
aS'154'
p785
aa(lp786
I3290
aS'5'
aS'51'
p787
aa(lp788
I3356
aS'15'
p789
aS'246'
p790
aa(lp791
I3357
aS'1'
aS'58'
p792
aa(lp793
I3506
aS'425'
p794
aS'489'
p795
aa(lp796
I4336
aS'606'
p797
aS'646'
p798
aa(lp799
I4337
aS'522'
p800
aS'585'
p801
aa(lp802
I4338
aS'1032'
p803
aS'1118'
p804
aa(lp805
I4339
aS'654'
p806
aS'1009'
p807
aa(lp808
I4340
aS'30'
p809
aS'380'
p810
aa(lp811
I4342
aS'176'
p812
aS'349'
p813
aa(lp814
I5408
aS'326'
p815
aS'487'
p816
aa(lp817
I5409
aS'490'
p818
aS'672'
p819
aa(lp820
I5415
aS'811'
p821
aS'876'
p822
aa(lp823
I5415
aS'48'
p824
aS'329'
p825
aa(lp826
I5642
aS'12'
p827
aS'119'
p828
aasS'4BXX'
p829
(lp830
(lp831
I410
aS'9'
aS'79'
p832
aa(lp833
I1243
aS'4'
aS'40'
p834
aa(lp835
I1560
aS'29'
p836
aS'60'
p837
aa(lp838
I1780
aS'7'
aS'146'
p839
aa(lp840
I1874
aS'49'
p841
aS'170'
p842
aa(lp843
I2022
aS'243'
p844
aS'357'
p845
aa(lp846
I2025
aS'74'
p847
aS'111'
p848
aa(lp849
I2150
aS'12'
p850
aS'340'
p851
aa(lp852
I2154
aS'695'
p853
aS'800'
p854
aa(lp855
I2534
aS'142'
p856
aS'214'
p857
aa(lp858
I2536
aS'6'
aS'99'
p859
aa(lp860
I2559
aS'31'
p861
aS'102'
p862
aa(lp863
I2833
aS'80'
p864
aS'157'
p865
aa(lp866
I3290
aS'80'
p867
aS'132'
p868
aa(lp869
I3356
aS'20'
p870
aS'254'
p871
aa(lp872
I3357
aS'1'
aS'59'
p873
aa(lp874
I3506
aS'481'
p875
aS'543'
p876
aa(lp877
I4336
aS'681'
p878
aS'745'
p879
aa(lp880
I4337
aS'580'
p881
aS'641'
p882
aa(lp883
I4338
aS'1126'
p884
aS'1218'
p885
aa(lp886
I4339
aS'753'
p887
aS'1124'
p888
aa(lp889
I4340
aS'42'
p890
aS'455'
p891
aa(lp892
I4342
aS'220'
p893
aS'407'
p894
aa(lp895
I5408
aS'342'
p896
aS'507'
p897
aa(lp898
I5409
aS'510'
p899
aS'669'
p900
aa(lp901
I5412
aS'873'
p902
aS'1056'
p903
aa(lp904
I5413
aS'1141'
p905
aS'1274'
p906
aa(lp907
I5415
aS'807'
p908
aS'1398'
p909
aa(lp910
I5642
aS'49'
p911
aS'217'
p912
aasS'4MQ9'
p913
(lp914
(lp915
I529
aS'471'
p916
aS'535'
p917
aa(lp918
I1311
aS'266'
p919
aS'344'
p920
aa(lp921
I1312
aS'187'
p922
aS'256'
p923
aa(lp924
I1313
aS'357'
p925
aS'409'
p926
aa(lp927
I1874
aS'59'
p928
aS'154'
p929
aa(lp930
I2150
aS'2'
aS'159'
p931
aa(lp932
I2150
aS'457'
p933
aS'618'
p934
aa(lp935
I2154
aS'984'
p936
aS'1050'
p937
aa(lp938
I2673
aS'79'
p939
aS'112'
p940
aa(lp941
I3290
aS'12'
p942
aS'72'
p943
aa(lp944
I3356
aS'26'
p945
aS'222'
p946
aa(lp947
I3506
aS'393'
p948
aS'461'
p949
aa(lp950
I4338
aS'1028'
p951
aS'1102'
p952
aa(lp953
I4339
aS'597'
p954
aS'1026'
p955
aa(lp956
I4340
aS'18'
p957
aS'379'
p958
aa(lp959
I4342
aS'142'
p960
aS'334'
p961
aa(lp962
I5408
aS'620'
p963
aS'761'
p964
aa(lp965
I5409
aS'768'
p966
aS'953'
p967
aa(lp968
I5415
aS'1064'
p969
aS'1436'
p970
aasS'4Q4Z'
p971
(lp972
(lp973
I529
aS'471'
p974
aS'535'
p975
aa(lp976
I1311
aS'266'
p977
aS'344'
p978
aa(lp979
I1312
aS'187'
p980
aS'256'
p981
aa(lp982
I1313
aS'357'
p983
aS'409'
p984
aa(lp985
I1874
aS'59'
p986
aS'154'
p987
aa(lp988
I2150
aS'3'
aS'159'
p989
aa(lp990
I2150
aS'457'
p991
aS'618'
p992
aa(lp993
I2154
aS'984'
p994
aS'1050'
p995
aa(lp996
I2673
aS'79'
p997
aS'112'
p998
aa(lp999
I3290
aS'12'
p1000
aS'72'
p1001
aa(lp1002
I3356
aS'26'
p1003
aS'222'
p1004
aa(lp1005
I3506
aS'393'
p1006
aS'461'
p1007
aa(lp1008
I4338
aS'1028'
p1009
aS'1102'
p1010
aa(lp1011
I4339
aS'597'
p1012
aS'1026'
p1013
aa(lp1014
I4340
aS'18'
p1015
aS'379'
p1016
aa(lp1017
I4342
aS'142'
p1018
aS'334'
p1019
aa(lp1020
I5408
aS'620'
p1021
aS'761'
p1022
aa(lp1023
I5409
aS'768'
p1024
aS'953'
p1025
aa(lp1026
I5415
aS'1064'
p1027
aS'1436'
p1028
aasS'4JK2'
p1029
(lp1030
(lp1031
I529
aS'591'
p1032
aS'656'
p1033
aa(lp1034
I1311
aS'458'
p1035
aS'533'
p1036
aa(lp1037
I1312
aS'379'
p1038
aS'448'
p1039
aa(lp1040
I1313
aS'547'
p1041
aS'600'
p1042
aa(lp1043
I1874
aS'60'
p1044
aS'156'
p1045
aa(lp1046
I2150
aS'15'
p1047
aS'333'
p1048
aa(lp1049
I2154
aS'674'
p1050
aS'763'
p1051
aa(lp1052
I2671
aS'6'
aS'64'
p1053
aa(lp1054
I2673
aS'96'
p1055
aS'126'
p1056
aa(lp1057
I3219
aS'245'
p1058
aS'308'
p1059
aa(lp1060
I3290
aS'10'
p1061
aS'59'
p1062
aa(lp1063
I3356
aS'29'
p1064
aS'228'
p1065
aa(lp1066
I3506
aS'513'
p1067
aS'580'
p1068
aa(lp1069
I4338
aS'1266'
p1070
aS'1340'
p1071
aa(lp1072
I4339
aS'717'
p1073
aS'1264'
p1074
aa(lp1075
I4340
aS'26'
p1076
aS'500'
p1077
aa(lp1078
I4342
aS'151'
p1079
aS'225'
p1080
aa(lp1081
I4342
aS'340'
p1082
aS'454'
p1083
aa(lp1084
I4564
aS'137'
p1085
aS'348'
p1086
aa(lp1087
I5408
aS'344'
p1088
aS'393'
p1089
aa(lp1090
I5408
aS'392'
p1091
aS'485'
p1092
aa(lp1093
I5409
aS'489'
p1094
aS'644'
p1095
aa(lp1096
I5415
aS'766'
p1097
aS'1321'
p1098
aasS'4JK1'
p1099
(lp1100
(lp1101
I529
aS'591'
p1102
aS'656'
p1103
aa(lp1104
I1311
aS'458'
p1105
aS'533'
p1106
aa(lp1107
I1312
aS'379'
p1108
aS'448'
p1109
aa(lp1110
I1313
aS'547'
p1111
aS'600'
p1112
aa(lp1113
I1874
aS'60'
p1114
aS'156'
p1115
aa(lp1116
I2150
aS'15'
p1117
aS'333'
p1118
aa(lp1119
I2154
aS'674'
p1120
aS'763'
p1121
aa(lp1122
I2671
aS'6'
aS'64'
p1123
aa(lp1124
I2673
aS'96'
p1125
aS'126'
p1126
aa(lp1127
I3219
aS'245'
p1128
aS'308'
p1129
aa(lp1130
I3290
aS'10'
p1131
aS'59'
p1132
aa(lp1133
I3356
aS'29'
p1134
aS'228'
p1135
aa(lp1136
I3506
aS'513'
p1137
aS'580'
p1138
aa(lp1139
I4338
aS'1266'
p1140
aS'1340'
p1141
aa(lp1142
I4339
aS'717'
p1143
aS'1264'
p1144
aa(lp1145
I4340
aS'26'
p1146
aS'500'
p1147
aa(lp1148
I4342
aS'151'
p1149
aS'225'
p1150
aa(lp1151
I4342
aS'340'
p1152
aS'454'
p1153
aa(lp1154
I4564
aS'137'
p1155
aS'348'
p1156
aa(lp1157
I5408
aS'344'
p1158
aS'393'
p1159
aa(lp1160
I5408
aS'392'
p1161
aS'485'
p1162
aa(lp1163
I5409
aS'489'
p1164
aS'644'
p1165
aa(lp1166
I5415
aS'766'
p1167
aS'1321'
p1168
aasS'4YLP'
p1169
(lp1170
(lp1171
I529
aS'591'
p1172
aS'656'
p1173
aa(lp1174
I1311
aS'458'
p1175
aS'533'
p1176
aa(lp1177
I1312
aS'379'
p1178
aS'448'
p1179
aa(lp1180
I1313
aS'547'
p1181
aS'600'
p1182
aa(lp1183
I1874
aS'60'
p1184
aS'156'
p1185
aa(lp1186
I2150
aS'15'
p1187
aS'342'
p1188
aa(lp1189
I2154
aS'674'
p1190
aS'763'
p1191
aa(lp1192
I2671
aS'79'
p1193
aS'79'
p1194
aa(lp1195
I2673
aS'96'
p1196
aS'126'
p1197
aa(lp1198
I3290
aS'10'
p1199
aS'59'
p1200
aa(lp1201
I3356
aS'29'
p1202
aS'228'
p1203
aa(lp1204
I3506
aS'513'
p1205
aS'580'
p1206
aa(lp1207
I4338
aS'1266'
p1208
aS'1340'
p1209
aa(lp1210
I4339
aS'717'
p1211
aS'1264'
p1212
aa(lp1213
I4340
aS'26'
p1214
aS'500'
p1215
aa(lp1216
I4342
aS'151'
p1217
aS'225'
p1218
aa(lp1219
I4342
aS'340'
p1220
aS'454'
p1221
aa(lp1222
I4564
aS'137'
p1223
aS'348'
p1224
aa(lp1225
I5408
aS'344'
p1226
aS'393'
p1227
aa(lp1228
I5408
aS'392'
p1229
aS'485'
p1230
aa(lp1231
I5409
aS'489'
p1232
aS'644'
p1233
aa(lp1234
I5415
aS'766'
p1235
aS'1321'
p1236
aasS'1L9Z'
p1237
(lp1238
(lp1239
I529
aS'471'
p1240
aS'535'
p1241
aa(lp1242
I1311
aS'281'
p1243
aS'359'
p1244
aa(lp1245
I1312
aS'202'
p1246
aS'271'
p1247
aa(lp1248
I1313
aS'372'
p1249
aS'424'
p1250
aa(lp1251
I1874
aS'59'
p1252
aS'154'
p1253
aa(lp1254
I2150
aS'3'
aS'157'
p1255
aa(lp1256
I2150
aS'455'
p1257
aS'618'
p1258
aa(lp1259
I2154
aS'984'
p1260
aS'1050'
p1261
aa(lp1262
I2673
aS'94'
p1263
aS'127'
p1264
aa(lp1265
I3290
aS'12'
p1266
aS'73'
p1267
aa(lp1268
I3356
aS'26'
p1269
aS'222'
p1270
aa(lp1271
I3506
aS'393'
p1272
aS'461'
p1273
aa(lp1274
I4338
aS'1028'
p1275
aS'1102'
p1276
aa(lp1277
I4339
aS'597'
p1278
aS'1026'
p1279
aa(lp1280
I4340
aS'18'
p1281
aS'379'
p1282
aa(lp1283
I4342
aS'142'
p1284
aS'334'
p1285
aa(lp1286
I5408
aS'620'
p1287
aS'761'
p1288
aa(lp1289
I5409
aS'768'
p1290
aS'953'
p1291
aa(lp1292
I5415
aS'1064'
p1293
aS'1436'
p1294
aasS'2WB1'
p1295
(lp1296
(lp1297
I410
aS'10'
p1298
aS'77'
p1299
aa(lp1300
I1770
aS'10'
p1301
aS'117'
p1302
aa(lp1303
I1874
aS'44'
p1304
aS'156'
p1305
aa(lp1306
I2150
aS'4'
aS'313'
p1307
aa(lp1308
I2154
aS'677'
p1309
aS'782'
p1310
aa(lp1311
I2534
aS'14'
p1312
aS'81'
p1313
aa(lp1314
I2559
aS'13'
p1315
aS'82'
p1316
aa(lp1317
I2833
aS'82'
p1318
aS'151'
p1319
aa(lp1320
I3290
aS'22'
p1321
aS'76'
p1322
aa(lp1323
I3356
aS'17'
p1324
aS'252'
p1325
aa(lp1326
I3357
aS'1'
aS'58'
p1327
aa(lp1328
I3506
aS'415'
p1329
aS'479'
p1330
aa(lp1331
I4336
aS'607'
p1332
aS'645'
p1333
aa(lp1334
I4337
aS'523'
p1335
aS'585'
p1336
aa(lp1337
I4338
aS'1027'
p1338
aS'1118'
p1339
aa(lp1340
I4339
aS'655'
p1341
aS'1025'
p1342
aa(lp1343
I4340
aS'25'
p1344
aS'394'
p1345
aa(lp1346
I4342
aS'172'
p1347
aS'347'
p1348
aa(lp1349
I4457
aS'47'
p1350
aS'59'
p1351
aa(lp1352
I5408
aS'315'
p1353
aS'482'
p1354
aa(lp1355
I5409
aS'485'
p1356
aS'651'
p1357
aa(lp1358
I5415
aS'789'
p1359
aS'855'
p1360
aa(lp1361
I5415
aS'27'
p1362
aS'340'
p1363
aa(lp1364
I5642
aS'28'
p1365
aS'93'
p1366
aasS'1L9U'
p1367
(lp1368
(lp1369
I529
aS'471'
p1370
aS'535'
p1371
aa(lp1372
I1311
aS'281'
p1373
aS'359'
p1374
aa(lp1375
I1312
aS'202'
p1376
aS'271'
p1377
aa(lp1378
I1313
aS'372'
p1379
aS'424'
p1380
aa(lp1381
I1874
aS'59'
p1382
aS'154'
p1383
aa(lp1384
I2150
aS'3'
aS'157'
p1385
aa(lp1386
I2150
aS'455'
p1387
aS'618'
p1388
aa(lp1389
I2154
aS'984'
p1390
aS'1050'
p1391
aa(lp1392
I2673
aS'94'
p1393
aS'127'
p1394
aa(lp1395
I3290
aS'12'
p1396
aS'73'
p1397
aa(lp1398
I3356
aS'26'
p1399
aS'222'
p1400
aa(lp1401
I3506
aS'393'
p1402
aS'461'
p1403
aa(lp1404
I4338
aS'1028'
p1405
aS'1102'
p1406
aa(lp1407
I4339
aS'597'
p1408
aS'1026'
p1409
aa(lp1410
I4340
aS'18'
p1411
aS'379'
p1412
aa(lp1413
I4342
aS'142'
p1414
aS'334'
p1415
aa(lp1416
I5408
aS'620'
p1417
aS'761'
p1418
aa(lp1419
I5409
aS'768'
p1420
aS'953'
p1421
aa(lp1422
I5415
aS'1064'
p1423
aS'1436'
p1424
aasS'4XSY'
p1425
(lp1426
(lp1427
I529
aS'591'
p1428
aS'656'
p1429
aa(lp1430
I1311
aS'458'
p1431
aS'533'
p1432
aa(lp1433
I1312
aS'379'
p1434
aS'448'
p1435
aa(lp1436
I1313
aS'547'
p1437
aS'600'
p1438
aa(lp1439
I1874
aS'60'
p1440
aS'156'
p1441
aa(lp1442
I2150
aS'15'
p1443
aS'342'
p1444
aa(lp1445
I2154
aS'674'
p1446
aS'763'
p1447
aa(lp1448
I2673
aS'96'
p1449
aS'126'
p1450
aa(lp1451
I3290
aS'10'
p1452
aS'59'
p1453
aa(lp1454
I3356
aS'29'
p1455
aS'228'
p1456
aa(lp1457
I3506
aS'513'
p1458
aS'580'
p1459
aa(lp1460
I4338
aS'1266'
p1461
aS'1340'
p1462
aa(lp1463
I4339
aS'717'
p1464
aS'1264'
p1465
aa(lp1466
I4340
aS'26'
p1467
aS'500'
p1468
aa(lp1469
I4342
aS'151'
p1470
aS'225'
p1471
aa(lp1472
I4342
aS'340'
p1473
aS'454'
p1474
aa(lp1475
I4564
aS'137'
p1476
aS'348'
p1477
aa(lp1478
I5408
aS'344'
p1479
aS'393'
p1480
aa(lp1481
I5408
aS'392'
p1482
aS'485'
p1483
aa(lp1484
I5409
aS'489'
p1485
aS'644'
p1486
aa(lp1487
I5415
aS'766'
p1488
aS'1321'
p1489
aasS'4XSX'
p1490
(lp1491
(lp1492
I529
aS'591'
p1493
aS'656'
p1494
aa(lp1495
I1311
aS'458'
p1496
aS'533'
p1497
aa(lp1498
I1312
aS'379'
p1499
aS'448'
p1500
aa(lp1501
I1313
aS'547'
p1502
aS'600'
p1503
aa(lp1504
I1874
aS'60'
p1505
aS'156'
p1506
aa(lp1507
I2150
aS'15'
p1508
aS'342'
p1509
aa(lp1510
I2154
aS'674'
p1511
aS'763'
p1512
aa(lp1513
I2673
aS'96'
p1514
aS'126'
p1515
aa(lp1516
I3290
aS'10'
p1517
aS'59'
p1518
aa(lp1519
I3356
aS'29'
p1520
aS'228'
p1521
aa(lp1522
I3506
aS'513'
p1523
aS'580'
p1524
aa(lp1525
I4338
aS'1266'
p1526
aS'1340'
p1527
aa(lp1528
I4339
aS'717'
p1529
aS'1264'
p1530
aa(lp1531
I4340
aS'26'
p1532
aS'500'
p1533
aa(lp1534
I4342
aS'151'
p1535
aS'225'
p1536
aa(lp1537
I4342
aS'340'
p1538
aS'454'
p1539
aa(lp1540
I4564
aS'137'
p1541
aS'348'
p1542
aa(lp1543
I5408
aS'344'
p1544
aS'393'
p1545
aa(lp1546
I5408
aS'392'
p1547
aS'485'
p1548
aa(lp1549
I5409
aS'489'
p1550
aS'644'
p1551
aa(lp1552
I5415
aS'766'
p1553
aS'1321'
p1554
aasS'4XSZ'
p1555
(lp1556
(lp1557
I529
aS'591'
p1558
aS'656'
p1559
aa(lp1560
I1311
aS'458'
p1561
aS'533'
p1562
aa(lp1563
I1312
aS'379'
p1564
aS'448'
p1565
aa(lp1566
I1313
aS'547'
p1567
aS'600'
p1568
aa(lp1569
I1874
aS'60'
p1570
aS'156'
p1571
aa(lp1572
I2150
aS'15'
p1573
aS'342'
p1574
aa(lp1575
I2154
aS'674'
p1576
aS'763'
p1577
aa(lp1578
I2673
aS'96'
p1579
aS'126'
p1580
aa(lp1581
I3290
aS'10'
p1582
aS'59'
p1583
aa(lp1584
I3356
aS'29'
p1585
aS'228'
p1586
aa(lp1587
I3506
aS'513'
p1588
aS'580'
p1589
aa(lp1590
I4338
aS'1266'
p1591
aS'1340'
p1592
aa(lp1593
I4339
aS'717'
p1594
aS'1264'
p1595
aa(lp1596
I4340
aS'26'
p1597
aS'500'
p1598
aa(lp1599
I4342
aS'151'
p1600
aS'225'
p1601
aa(lp1602
I4342
aS'340'
p1603
aS'454'
p1604
aa(lp1605
I4564
aS'137'
p1606
aS'348'
p1607
aa(lp1608
I5408
aS'344'
p1609
aS'393'
p1610
aa(lp1611
I5408
aS'392'
p1612
aS'485'
p1613
aa(lp1614
I5409
aS'489'
p1615
aS'644'
p1616
aa(lp1617
I5415
aS'766'
p1618
aS'1321'
p1619
aasS'4LK1'
p1620
(lp1621
(lp1622
I529
aS'591'
p1623
aS'656'
p1624
aa(lp1625
I1311
aS'458'
p1626
aS'533'
p1627
aa(lp1628
I1312
aS'379'
p1629
aS'448'
p1630
aa(lp1631
I1313
aS'547'
p1632
aS'600'
p1633
aa(lp1634
I1874
aS'60'
p1635
aS'156'
p1636
aa(lp1637
I2150
aS'15'
p1638
aS'342'
p1639
aa(lp1640
I2154
aS'674'
p1641
aS'763'
p1642
aa(lp1643
I2671
aS'5'
aS'79'
p1644
aa(lp1645
I2673
aS'96'
p1646
aS'126'
p1647
aa(lp1648
I3290
aS'10'
p1649
aS'59'
p1650
aa(lp1651
I3356
aS'29'
p1652
aS'228'
p1653
aa(lp1654
I3506
aS'513'
p1655
aS'580'
p1656
aa(lp1657
I4338
aS'1266'
p1658
aS'1340'
p1659
aa(lp1660
I4339
aS'717'
p1661
aS'1264'
p1662
aa(lp1663
I4340
aS'26'
p1664
aS'500'
p1665
aa(lp1666
I4342
aS'151'
p1667
aS'225'
p1668
aa(lp1669
I4342
aS'340'
p1670
aS'454'
p1671
aa(lp1672
I4564
aS'137'
p1673
aS'348'
p1674
aa(lp1675
I5408
aS'344'
p1676
aS'393'
p1677
aa(lp1678
I5408
aS'392'
p1679
aS'485'
p1680
aa(lp1681
I5409
aS'489'
p1682
aS'644'
p1683
aa(lp1684
I5415
aS'766'
p1685
aS'1321'
p1686
aasS'4LK0'
p1687
(lp1688
(lp1689
I529
aS'591'
p1690
aS'656'
p1691
aa(lp1692
I1311
aS'458'
p1693
aS'533'
p1694
aa(lp1695
I1312
aS'379'
p1696
aS'448'
p1697
aa(lp1698
I1313
aS'547'
p1699
aS'600'
p1700
aa(lp1701
I1874
aS'60'
p1702
aS'156'
p1703
aa(lp1704
I2150
aS'15'
p1705
aS'342'
p1706
aa(lp1707
I2154
aS'674'
p1708
aS'763'
p1709
aa(lp1710
I2673
aS'96'
p1711
aS'126'
p1712
aa(lp1713
I3290
aS'10'
p1714
aS'59'
p1715
aa(lp1716
I3356
aS'29'
p1717
aS'228'
p1718
aa(lp1719
I3506
aS'513'
p1720
aS'580'
p1721
aa(lp1722
I4338
aS'1266'
p1723
aS'1340'
p1724
aa(lp1725
I4339
aS'717'
p1726
aS'1264'
p1727
aa(lp1728
I4340
aS'26'
p1729
aS'500'
p1730
aa(lp1731
I4342
aS'151'
p1732
aS'225'
p1733
aa(lp1734
I4342
aS'340'
p1735
aS'454'
p1736
aa(lp1737
I4564
aS'137'
p1738
aS'348'
p1739
aa(lp1740
I5408
aS'344'
p1741
aS'393'
p1742
aa(lp1743
I5408
aS'392'
p1744
aS'485'
p1745
aa(lp1746
I5409
aS'489'
p1747
aS'644'
p1748
aa(lp1749
I5415
aS'766'
p1750
aS'1321'
p1751
aa(lp1752
I6100
aS'14'
p1753
aS'60'
p1754
aasS'4XLN'
p1755
(lp1756
(lp1757
I529
aS'471'
p1758
aS'535'
p1759
aa(lp1760
I1311
aS'281'
p1761
aS'359'
p1762
aa(lp1763
I1312
aS'202'
p1764
aS'271'
p1765
aa(lp1766
I1313
aS'372'
p1767
aS'424'
p1768
aa(lp1769
I1874
aS'59'
p1770
aS'154'
p1771
aa(lp1772
I2150
aS'2'
aS'159'
p1773
aa(lp1774
I2150
aS'455'
p1775
aS'618'
p1776
aa(lp1777
I2154
aS'984'
p1778
aS'1050'
p1779
aa(lp1780
I2673
aS'94'
p1781
aS'127'
p1782
aa(lp1783
I3290
aS'12'
p1784
aS'73'
p1785
aa(lp1786
I3356
aS'26'
p1787
aS'222'
p1788
aa(lp1789
I3506
aS'393'
p1790
aS'461'
p1791
aa(lp1792
I4338
aS'1028'
p1793
aS'1102'
p1794
aa(lp1795
I4339
aS'597'
p1796
aS'1026'
p1797
aa(lp1798
I4340
aS'18'
p1799
aS'379'
p1800
aa(lp1801
I4342
aS'142'
p1802
aS'334'
p1803
aa(lp1804
I5408
aS'620'
p1805
aS'761'
p1806
aa(lp1807
I5409
aS'768'
p1808
aS'953'
p1809
aa(lp1810
I5415
aS'1064'
p1811
aS'1436'
p1812
aasS'4JKR'
p1813
(lp1814
(lp1815
I529
aS'591'
p1816
aS'656'
p1817
aa(lp1818
I1311
aS'458'
p1819
aS'533'
p1820
aa(lp1821
I1312
aS'379'
p1822
aS'448'
p1823
aa(lp1824
I1313
aS'547'
p1825
aS'600'
p1826
aa(lp1827
I1874
aS'60'
p1828
aS'156'
p1829
aa(lp1830
I2150
aS'15'
p1831
aS'342'
p1832
aa(lp1833
I2154
aS'674'
p1834
aS'763'
p1835
aa(lp1836
I2673
aS'96'
p1837
aS'126'
p1838
aa(lp1839
I3290
aS'10'
p1840
aS'59'
p1841
aa(lp1842
I3356
aS'29'
p1843
aS'228'
p1844
aa(lp1845
I3506
aS'513'
p1846
aS'580'
p1847
aa(lp1848
I4338
aS'1266'
p1849
aS'1340'
p1850
aa(lp1851
I4339
aS'717'
p1852
aS'1264'
p1853
aa(lp1854
I4340
aS'26'
p1855
aS'500'
p1856
aa(lp1857
I4342
aS'151'
p1858
aS'225'
p1859
aa(lp1860
I4342
aS'340'
p1861
aS'454'
p1862
aa(lp1863
I4564
aS'137'
p1864
aS'348'
p1865
aa(lp1866
I5408
aS'344'
p1867
aS'393'
p1868
aa(lp1869
I5408
aS'392'
p1870
aS'485'
p1871
aa(lp1872
I5409
aS'489'
p1873
aS'644'
p1874
aa(lp1875
I5415
aS'766'
p1876
aS'1321'
p1877
aasS'4XLP'
p1878
(lp1879
(lp1880
I529
aS'471'
p1881
aS'535'
p1882
aa(lp1883
I1311
aS'281'
p1884
aS'359'
p1885
aa(lp1886
I1312
aS'202'
p1887
aS'271'
p1888
aa(lp1889
I1313
aS'372'
p1890
aS'424'
p1891
aa(lp1892
I1874
aS'59'
p1893
aS'154'
p1894
aa(lp1895
I2150
aS'2'
aS'159'
p1896
aa(lp1897
I2150
aS'455'
p1898
aS'618'
p1899
aa(lp1900
I2154
aS'984'
p1901
aS'1050'
p1902
aa(lp1903
I2673
aS'94'
p1904
aS'127'
p1905
aa(lp1906
I3290
aS'12'
p1907
aS'73'
p1908
aa(lp1909
I3356
aS'26'
p1910
aS'222'
p1911
aa(lp1912
I3506
aS'393'
p1913
aS'461'
p1914
aa(lp1915
I4338
aS'1028'
p1916
aS'1102'
p1917
aa(lp1918
I4339
aS'597'
p1919
aS'1026'
p1920
aa(lp1921
I4340
aS'18'
p1922
aS'379'
p1923
aa(lp1924
I4342
aS'142'
p1925
aS'334'
p1926
aa(lp1927
I5408
aS'620'
p1928
aS'761'
p1929
aa(lp1930
I5409
aS'768'
p1931
aS'953'
p1932
aa(lp1933
I5415
aS'1064'
p1934
aS'1436'
p1935
aasS'4XLQ'
p1936
(lp1937
(lp1938
I529
aS'471'
p1939
aS'535'
p1940
aa(lp1941
I1311
aS'281'
p1942
aS'359'
p1943
aa(lp1944
I1312
aS'202'
p1945
aS'271'
p1946
aa(lp1947
I1313
aS'372'
p1948
aS'424'
p1949
aa(lp1950
I1874
aS'59'
p1951
aS'154'
p1952
aa(lp1953
I2150
aS'2'
aS'159'
p1954
aa(lp1955
I2150
aS'455'
p1956
aS'618'
p1957
aa(lp1958
I2154
aS'984'
p1959
aS'1050'
p1960
aa(lp1961
I2673
aS'94'
p1962
aS'127'
p1963
aa(lp1964
I3290
aS'12'
p1965
aS'73'
p1966
aa(lp1967
I3356
aS'26'
p1968
aS'222'
p1969
aa(lp1970
I3506
aS'393'
p1971
aS'461'
p1972
aa(lp1973
I4338
aS'1028'
p1974
aS'1102'
p1975
aa(lp1976
I4339
aS'597'
p1977
aS'1026'
p1978
aa(lp1979
I4340
aS'18'
p1980
aS'379'
p1981
aa(lp1982
I4342
aS'142'
p1983
aS'334'
p1984
aa(lp1985
I5408
aS'620'
p1986
aS'761'
p1987
aa(lp1988
I5409
aS'768'
p1989
aS'953'
p1990
aa(lp1991
I5415
aS'1064'
p1992
aS'1436'
p1993
aasS'4XLR'
p1994
(lp1995
(lp1996
I529
aS'471'
p1997
aS'535'
p1998
aa(lp1999
I1224
aS'4'
aS'107'
p2000
aa(lp2001
I1311
aS'281'
p2002
aS'359'
p2003
aa(lp2004
I1312
aS'202'
p2005
aS'271'
p2006
aa(lp2007
I1313
aS'372'
p2008
aS'424'
p2009
aa(lp2010
I1874
aS'59'
p2011
aS'154'
p2012
aa(lp2013
I2150
aS'2'
aS'159'
p2014
aa(lp2015
I2150
aS'455'
p2016
aS'618'
p2017
aa(lp2018
I2154
aS'984'
p2019
aS'1050'
p2020
aa(lp2021
I2673
aS'94'
p2022
aS'127'
p2023
aa(lp2024
I3290
aS'12'
p2025
aS'73'
p2026
aa(lp2027
I3356
aS'26'
p2028
aS'222'
p2029
aa(lp2030
I3506
aS'393'
p2031
aS'461'
p2032
aa(lp2033
I4338
aS'1028'
p2034
aS'1102'
p2035
aa(lp2036
I4339
aS'597'
p2037
aS'1026'
p2038
aa(lp2039
I4340
aS'18'
p2040
aS'379'
p2041
aa(lp2042
I4342
aS'142'
p2043
aS'334'
p2044
aa(lp2045
I5408
aS'620'
p2046
aS'761'
p2047
aa(lp2048
I5409
aS'768'
p2049
aS'953'
p2050
aa(lp2051
I5415
aS'1064'
p2052
aS'1436'
p2053
aasS'4BBR'
p2054
(lp2055
(lp2056
I410
aS'9'
aS'79'
p2057
aa(lp2058
I1243
aS'4'
aS'40'
p2059
aa(lp2060
I1560
aS'29'
p2061
aS'60'
p2062
aa(lp2063
I1780
aS'7'
aS'146'
p2064
aa(lp2065
I1874
aS'49'
p2066
aS'170'
p2067
aa(lp2068
I2025
aS'74'
p2069
aS'111'
p2070
aa(lp2071
I2150
aS'12'
p2072
aS'340'
p2073
aa(lp2074
I2154
aS'695'
p2075
aS'800'
p2076
aa(lp2077
I2534
aS'142'
p2078
aS'214'
p2079
aa(lp2080
I2536
aS'6'
aS'99'
p2081
aa(lp2082
I2559
aS'31'
p2083
aS'102'
p2084
aa(lp2085
I2833
aS'80'
p2086
aS'157'
p2087
aa(lp2088
I2923
aS'23'
p2089
aS'66'
p2090
aa(lp2091
I3185
aS'133'
p2092
aS'202'
p2093
aa(lp2094
I3290
aS'80'
p2095
aS'132'
p2096
aa(lp2097
I3356
aS'20'
p2098
aS'254'
p2099
aa(lp2100
I3357
aS'1'
aS'59'
p2101
aa(lp2102
I3506
aS'481'
p2103
aS'543'
p2104
aa(lp2105
I4336
aS'681'
p2106
aS'745'
p2107
aa(lp2108
I4337
aS'580'
p2109
aS'641'
p2110
aa(lp2111
I4338
aS'1126'
p2112
aS'1218'
p2113
aa(lp2114
I4339
aS'753'
p2115
aS'1124'
p2116
aa(lp2117
I4340
aS'42'
p2118
aS'455'
p2119
aa(lp2120
I4342
aS'220'
p2121
aS'407'
p2122
aa(lp2123
I5408
aS'342'
p2124
aS'507'
p2125
aa(lp2126
I5409
aS'510'
p2127
aS'669'
p2128
aa(lp2129
I5412
aS'873'
p2130
aS'1056'
p2131
aa(lp2132
I5413
aS'1141'
p2133
aS'1274'
p2134
aa(lp2135
I5415
aS'807'
p2136
aS'1398'
p2137
aa(lp2138
I5642
aS'49'
p2139
aS'217'
p2140
aasS'4BBS'
p2141
(lp2142
(lp2143
I410
aS'9'
aS'79'
p2144
aa(lp2145
I1243
aS'4'
aS'40'
p2146
aa(lp2147
I1560
aS'29'
p2148
aS'60'
p2149
aa(lp2150
I1780
aS'7'
aS'146'
p2151
aa(lp2152
I1874
aS'49'
p2153
aS'170'
p2154
aa(lp2155
I2025
aS'74'
p2156
aS'111'
p2157
aa(lp2158
I2150
aS'12'
p2159
aS'340'
p2160
aa(lp2161
I2154
aS'695'
p2162
aS'800'
p2163
aa(lp2164
I2534
aS'142'
p2165
aS'214'
p2166
aa(lp2167
I2536
aS'6'
aS'99'
p2168
aa(lp2169
I2559
aS'31'
p2170
aS'102'
p2171
aa(lp2172
I2833
aS'80'
p2173
aS'157'
p2174
aa(lp2175
I2923
aS'23'
p2176
aS'66'
p2177
aa(lp2178
I3185
aS'133'
p2179
aS'202'
p2180
aa(lp2181
I3290
aS'80'
p2182
aS'132'
p2183
aa(lp2184
I3356
aS'20'
p2185
aS'254'
p2186
aa(lp2187
I3357
aS'1'
aS'59'
p2188
aa(lp2189
I3506
aS'481'
p2190
aS'543'
p2191
aa(lp2192
I4336
aS'681'
p2193
aS'745'
p2194
aa(lp2195
I4337
aS'580'
p2196
aS'641'
p2197
aa(lp2198
I4338
aS'1126'
p2199
aS'1218'
p2200
aa(lp2201
I4339
aS'753'
p2202
aS'1124'
p2203
aa(lp2204
I4340
aS'42'
p2205
aS'455'
p2206
aa(lp2207
I4342
aS'220'
p2208
aS'407'
p2209
aa(lp2210
I5408
aS'342'
p2211
aS'507'
p2212
aa(lp2213
I5409
aS'510'
p2214
aS'669'
p2215
aa(lp2216
I5412
aS'873'
p2217
aS'1056'
p2218
aa(lp2219
I5413
aS'1141'
p2220
aS'1274'
p2221
aa(lp2222
I5415
aS'807'
p2223
aS'1398'
p2224
aa(lp2225
I5642
aS'49'
p2226
aS'217'
p2227
aasS'4Q5S'
p2228
(lp2229
(lp2230
I529
aS'471'
p2231
aS'535'
p2232
aa(lp2233
I1311
aS'266'
p2234
aS'344'
p2235
aa(lp2236
I1312
aS'187'
p2237
aS'256'
p2238
aa(lp2239
I1313
aS'357'
p2240
aS'409'
p2241
aa(lp2242
I1874
aS'59'
p2243
aS'154'
p2244
aa(lp2245
I2150
aS'4'
aS'159'
p2246
aa(lp2247
I2150
aS'457'
p2248
aS'618'
p2249
aa(lp2250
I2154
aS'984'
p2251
aS'1050'
p2252
aa(lp2253
I2673
aS'79'
p2254
aS'112'
p2255
aa(lp2256
I3290
aS'12'
p2257
aS'72'
p2258
aa(lp2259
I3356
aS'26'
p2260
aS'222'
p2261
aa(lp2262
I3506
aS'393'
p2263
aS'461'
p2264
aa(lp2265
I4338
aS'1028'
p2266
aS'1102'
p2267
aa(lp2268
I4339
aS'597'
p2269
aS'1026'
p2270
aa(lp2271
I4340
aS'18'
p2272
aS'379'
p2273
aa(lp2274
I4342
aS'142'
p2275
aS'334'
p2276
aa(lp2277
I5408
aS'620'
p2278
aS'761'
p2279
aa(lp2280
I5409
aS'768'
p2281
aS'953'
p2282
aa(lp2283
I5415
aS'1064'
p2284
aS'1436'
p2285
aasS'4Y7N'
p2286
(lp2287
(lp2288
I1243
aS'4'
aS'40'
p2289
aa(lp2290
I1560
aS'29'
p2291
aS'60'
p2292
aa(lp2293
I1780
aS'7'
aS'146'
p2294
aa(lp2295
I1874
aS'49'
p2296
aS'170'
p2297
aa(lp2298
I2025
aS'74'
p2299
aS'111'
p2300
aa(lp2301
I2150
aS'12'
p2302
aS'340'
p2303
aa(lp2304
I2154
aS'695'
p2305
aS'800'
p2306
aa(lp2307
I2534
aS'142'
p2308
aS'214'
p2309
aa(lp2310
I2536
aS'6'
aS'99'
p2311
aa(lp2312
I2559
aS'31'
p2313
aS'102'
p2314
aa(lp2315
I3290
aS'80'
p2316
aS'132'
p2317
aa(lp2318
I3356
aS'20'
p2319
aS'254'
p2320
aa(lp2321
I3357
aS'1'
aS'59'
p2322
aa(lp2323
I3506
aS'481'
p2324
aS'543'
p2325
aa(lp2326
I4336
aS'681'
p2327
aS'745'
p2328
aa(lp2329
I4337
aS'580'
p2330
aS'641'
p2331
aa(lp2332
I4338
aS'1126'
p2333
aS'1218'
p2334
aa(lp2335
I4339
aS'753'
p2336
aS'1124'
p2337
aa(lp2338
I4340
aS'42'
p2339
aS'455'
p2340
aa(lp2341
I4342
aS'220'
p2342
aS'407'
p2343
aa(lp2344
I5408
aS'342'
p2345
aS'507'
p2346
aa(lp2347
I5409
aS'510'
p2348
aS'669'
p2349
aa(lp2350
I5412
aS'873'
p2351
aS'1056'
p2352
aa(lp2353
I5413
aS'1141'
p2354
aS'1274'
p2355
aa(lp2356
I5415
aS'807'
p2357
aS'1398'
p2358
aasS'3HOU'
p2359
(lp2360
(lp2361
I410
aS'9'
aS'79'
p2362
aa(lp2363
I1243
aS'4'
aS'40'
p2364
aa(lp2365
I1560
aS'29'
p2366
aS'60'
p2367
aa(lp2368
I1780
aS'7'
aS'146'
p2369
aa(lp2370
I1874
aS'49'
p2371
aS'170'
p2372
aa(lp2373
I2025
aS'74'
p2374
aS'111'
p2375
aa(lp2376
I2150
aS'12'
p2377
aS'340'
p2378
aa(lp2379
I2154
aS'695'
p2380
aS'800'
p2381
aa(lp2382
I2534
aS'142'
p2383
aS'214'
p2384
aa(lp2385
I2536
aS'6'
aS'99'
p2386
aa(lp2387
I2559
aS'31'
p2388
aS'102'
p2389
aa(lp2390
I2833
aS'80'
p2391
aS'157'
p2392
aa(lp2393
I3290
aS'80'
p2394
aS'132'
p2395
aa(lp2396
I3356
aS'20'
p2397
aS'254'
p2398
aa(lp2399
I3357
aS'1'
aS'59'
p2400
aa(lp2401
I3506
aS'481'
p2402
aS'543'
p2403
aa(lp2404
I4336
aS'681'
p2405
aS'745'
p2406
aa(lp2407
I4337
aS'580'
p2408
aS'641'
p2409
aa(lp2410
I4338
aS'1126'
p2411
aS'1218'
p2412
aa(lp2413
I4339
aS'753'
p2414
aS'1124'
p2415
aa(lp2416
I4340
aS'42'
p2417
aS'455'
p2418
aa(lp2419
I4342
aS'220'
p2420
aS'407'
p2421
aa(lp2422
I5408
aS'342'
p2423
aS'507'
p2424
aa(lp2425
I5409
aS'510'
p2426
aS'669'
p2427
aa(lp2428
I5412
aS'873'
p2429
aS'1056'
p2430
aa(lp2431
I5413
aS'1141'
p2432
aS'1274'
p2433
aa(lp2434
I5415
aS'807'
p2435
aS'1398'
p2436
aa(lp2437
I5642
aS'49'
p2438
aS'217'
p2439
aasS'3HOV'
p2440
(lp2441
(lp2442
I410
aS'9'
aS'79'
p2443
aa(lp2444
I1243
aS'4'
aS'40'
p2445
aa(lp2446
I1560
aS'29'
p2447
aS'60'
p2448
aa(lp2449
I1780
aS'7'
aS'146'
p2450
aa(lp2451
I1874
aS'49'
p2452
aS'170'
p2453
aa(lp2454
I2025
aS'74'
p2455
aS'111'
p2456
aa(lp2457
I2150
aS'12'
p2458
aS'340'
p2459
aa(lp2460
I2154
aS'695'
p2461
aS'800'
p2462
aa(lp2463
I2534
aS'142'
p2464
aS'214'
p2465
aa(lp2466
I2536
aS'6'
aS'99'
p2467
aa(lp2468
I2559
aS'31'
p2469
aS'102'
p2470
aa(lp2471
I2833
aS'80'
p2472
aS'157'
p2473
aa(lp2474
I3290
aS'80'
p2475
aS'132'
p2476
aa(lp2477
I3356
aS'20'
p2478
aS'254'
p2479
aa(lp2480
I3357
aS'1'
aS'59'
p2481
aa(lp2482
I3506
aS'481'
p2483
aS'543'
p2484
aa(lp2485
I4336
aS'681'
p2486
aS'745'
p2487
aa(lp2488
I4337
aS'580'
p2489
aS'641'
p2490
aa(lp2491
I4338
aS'1126'
p2492
aS'1218'
p2493
aa(lp2494
I4339
aS'753'
p2495
aS'1124'
p2496
aa(lp2497
I4340
aS'42'
p2498
aS'455'
p2499
aa(lp2500
I4342
aS'220'
p2501
aS'407'
p2502
aa(lp2503
I5408
aS'342'
p2504
aS'507'
p2505
aa(lp2506
I5409
aS'510'
p2507
aS'669'
p2508
aa(lp2509
I5412
aS'873'
p2510
aS'1056'
p2511
aa(lp2512
I5413
aS'1141'
p2513
aS'1274'
p2514
aa(lp2515
I5415
aS'807'
p2516
aS'1398'
p2517
aa(lp2518
I5642
aS'49'
p2519
aS'217'
p2520
aasS'3HOW'
p2521
(lp2522
(lp2523
I410
aS'9'
aS'79'
p2524
aa(lp2525
I1243
aS'4'
aS'40'
p2526
aa(lp2527
I1560
aS'29'
p2528
aS'60'
p2529
aa(lp2530
I1780
aS'7'
aS'146'
p2531
aa(lp2532
I1874
aS'49'
p2533
aS'170'
p2534
aa(lp2535
I2025
aS'74'
p2536
aS'111'
p2537
aa(lp2538
I2150
aS'12'
p2539
aS'340'
p2540
aa(lp2541
I2154
aS'695'
p2542
aS'800'
p2543
aa(lp2544
I2534
aS'142'
p2545
aS'214'
p2546
aa(lp2547
I2536
aS'6'
aS'99'
p2548
aa(lp2549
I2559
aS'31'
p2550
aS'102'
p2551
aa(lp2552
I2833
aS'80'
p2553
aS'157'
p2554
aa(lp2555
I3290
aS'80'
p2556
aS'132'
p2557
aa(lp2558
I3356
aS'20'
p2559
aS'254'
p2560
aa(lp2561
I3357
aS'1'
aS'59'
p2562
aa(lp2563
I3506
aS'481'
p2564
aS'543'
p2565
aa(lp2566
I4336
aS'681'
p2567
aS'745'
p2568
aa(lp2569
I4337
aS'580'
p2570
aS'641'
p2571
aa(lp2572
I4338
aS'1126'
p2573
aS'1218'
p2574
aa(lp2575
I4339
aS'753'
p2576
aS'1124'
p2577
aa(lp2578
I4340
aS'42'
p2579
aS'455'
p2580
aa(lp2581
I4342
aS'220'
p2582
aS'407'
p2583
aa(lp2584
I5408
aS'342'
p2585
aS'507'
p2586
aa(lp2587
I5409
aS'510'
p2588
aS'669'
p2589
aa(lp2590
I5412
aS'873'
p2591
aS'1056'
p2592
aa(lp2593
I5413
aS'1141'
p2594
aS'1274'
p2595
aa(lp2596
I5415
aS'807'
p2597
aS'1398'
p2598
aa(lp2599
I5642
aS'49'
p2600
aS'217'
p2601
aasS'3HOX'
p2602
(lp2603
(lp2604
I410
aS'9'
aS'79'
p2605
aa(lp2606
I1243
aS'4'
aS'40'
p2607
aa(lp2608
I1560
aS'29'
p2609
aS'60'
p2610
aa(lp2611
I1780
aS'7'
aS'146'
p2612
aa(lp2613
I1874
aS'49'
p2614
aS'170'
p2615
aa(lp2616
I2025
aS'74'
p2617
aS'111'
p2618
aa(lp2619
I2150
aS'12'
p2620
aS'340'
p2621
aa(lp2622
I2154
aS'695'
p2623
aS'800'
p2624
aa(lp2625
I2534
aS'142'
p2626
aS'214'
p2627
aa(lp2628
I2536
aS'6'
aS'99'
p2629
aa(lp2630
I2559
aS'31'
p2631
aS'102'
p2632
aa(lp2633
I2833
aS'80'
p2634
aS'157'
p2635
aa(lp2636
I3290
aS'80'
p2637
aS'132'
p2638
aa(lp2639
I3356
aS'20'
p2640
aS'254'
p2641
aa(lp2642
I3357
aS'1'
aS'59'
p2643
aa(lp2644
I3506
aS'481'
p2645
aS'543'
p2646
aa(lp2647
I4336
aS'681'
p2648
aS'745'
p2649
aa(lp2650
I4337
aS'580'
p2651
aS'641'
p2652
aa(lp2653
I4338
aS'1126'
p2654
aS'1218'
p2655
aa(lp2656
I4339
aS'753'
p2657
aS'1124'
p2658
aa(lp2659
I4340
aS'42'
p2660
aS'455'
p2661
aa(lp2662
I4342
aS'220'
p2663
aS'407'
p2664
aa(lp2665
I5408
aS'342'
p2666
aS'507'
p2667
aa(lp2668
I5409
aS'510'
p2669
aS'669'
p2670
aa(lp2671
I5412
aS'873'
p2672
aS'1056'
p2673
aa(lp2674
I5413
aS'1141'
p2675
aS'1274'
p2676
aa(lp2677
I5415
aS'807'
p2678
aS'1398'
p2679
aa(lp2680
I5642
aS'49'
p2681
aS'217'
p2682
aasS'3HOY'
p2683
(lp2684
(lp2685
I410
aS'9'
aS'79'
p2686
aa(lp2687
I1243
aS'4'
aS'40'
p2688
aa(lp2689
I1560
aS'29'
p2690
aS'60'
p2691
aa(lp2692
I1780
aS'7'
aS'146'
p2693
aa(lp2694
I1874
aS'49'
p2695
aS'170'
p2696
aa(lp2697
I2025
aS'74'
p2698
aS'111'
p2699
aa(lp2700
I2150
aS'12'
p2701
aS'340'
p2702
aa(lp2703
I2154
aS'695'
p2704
aS'800'
p2705
aa(lp2706
I2534
aS'142'
p2707
aS'214'
p2708
aa(lp2709
I2536
aS'6'
aS'99'
p2710
aa(lp2711
I2559
aS'31'
p2712
aS'102'
p2713
aa(lp2714
I2833
aS'80'
p2715
aS'157'
p2716
aa(lp2717
I3290
aS'80'
p2718
aS'132'
p2719
aa(lp2720
I3356
aS'20'
p2721
aS'254'
p2722
aa(lp2723
I3357
aS'1'
aS'59'
p2724
aa(lp2725
I3506
aS'481'
p2726
aS'543'
p2727
aa(lp2728
I4336
aS'681'
p2729
aS'745'
p2730
aa(lp2731
I4337
aS'580'
p2732
aS'641'
p2733
aa(lp2734
I4338
aS'1126'
p2735
aS'1218'
p2736
aa(lp2737
I4339
aS'753'
p2738
aS'1124'
p2739
aa(lp2740
I4340
aS'42'
p2741
aS'455'
p2742
aa(lp2743
I4342
aS'220'
p2744
aS'407'
p2745
aa(lp2746
I5408
aS'342'
p2747
aS'507'
p2748
aa(lp2749
I5409
aS'510'
p2750
aS'669'
p2751
aa(lp2752
I5412
aS'873'
p2753
aS'1056'
p2754
aa(lp2755
I5413
aS'1141'
p2756
aS'1274'
p2757
aa(lp2758
I5415
aS'807'
p2759
aS'1398'
p2760
aa(lp2761
I5642
aS'49'
p2762
aS'217'
p2763
aasS'3HOZ'
p2764
(lp2765
(lp2766
I410
aS'9'
aS'79'
p2767
aa(lp2768
I1243
aS'4'
aS'40'
p2769
aa(lp2770
I1560
aS'29'
p2771
aS'60'
p2772
aa(lp2773
I1780
aS'7'
aS'146'
p2774
aa(lp2775
I1874
aS'49'
p2776
aS'170'
p2777
aa(lp2778
I2025
aS'74'
p2779
aS'111'
p2780
aa(lp2781
I2150
aS'12'
p2782
aS'340'
p2783
aa(lp2784
I2154
aS'695'
p2785
aS'800'
p2786
aa(lp2787
I2534
aS'142'
p2788
aS'214'
p2789
aa(lp2790
I2536
aS'6'
aS'99'
p2791
aa(lp2792
I2559
aS'31'
p2793
aS'102'
p2794
aa(lp2795
I2833
aS'80'
p2796
aS'157'
p2797
aa(lp2798
I3290
aS'80'
p2799
aS'132'
p2800
aa(lp2801
I3356
aS'20'
p2802
aS'254'
p2803
aa(lp2804
I3357
aS'1'
aS'59'
p2805
aa(lp2806
I3506
aS'481'
p2807
aS'543'
p2808
aa(lp2809
I4336
aS'681'
p2810
aS'745'
p2811
aa(lp2812
I4337
aS'580'
p2813
aS'641'
p2814
aa(lp2815
I4338
aS'1126'
p2816
aS'1218'
p2817
aa(lp2818
I4339
aS'753'
p2819
aS'1124'
p2820
aa(lp2821
I4340
aS'42'
p2822
aS'455'
p2823
aa(lp2824
I4342
aS'220'
p2825
aS'407'
p2826
aa(lp2827
I5408
aS'342'
p2828
aS'507'
p2829
aa(lp2830
I5409
aS'510'
p2831
aS'669'
p2832
aa(lp2833
I5412
aS'873'
p2834
aS'1056'
p2835
aa(lp2836
I5413
aS'1141'
p2837
aS'1274'
p2838
aa(lp2839
I5415
aS'807'
p2840
aS'1398'
p2841
aa(lp2842
I5642
aS'49'
p2843
aS'217'
p2844
aasS'5C4J'
p2845
(lp2846
(lp2847
I1243
aS'5'
aS'41'
p2848
aa(lp2849
I1560
aS'56'
p2850
aS'70'
p2851
aa(lp2852
I1780
aS'9'
aS'144'
p2853
aa(lp2854
I1874
aS'52'
p2855
aS'173'
p2856
aa(lp2857
I2025
aS'75'
p2858
aS'112'
p2859
aa(lp2860
I2150
aS'13'
p2861
aS'341'
p2862
aa(lp2863
I2154
aS'696'
p2864
aS'801'
p2865
aa(lp2866
I2534
aS'145'
p2867
aS'214'
p2868
aa(lp2869
I2536
aS'9'
aS'102'
p2870
aa(lp2871
I2559
aS'31'
p2872
aS'102'
p2873
aa(lp2874
I3290
aS'148'
p2875
aS'154'
p2876
aa(lp2877
I3356
aS'23'
p2878
aS'257'
p2879
aa(lp2880
I3357
aS'1'
aS'59'
p2881
aa(lp2882
I3506
aS'500'
p2883
aS'562'
p2884
aa(lp2885
I4336
aS'700'
p2886
aS'764'
p2887
aa(lp2888
I4337
aS'599'
p2889
aS'660'
p2890
aa(lp2891
I4338
aS'1145'
p2892
aS'1176'
p2893
aa(lp2894
I4339
aS'772'
p2895
aS'1143'
p2896
aa(lp2897
I4340
aS'61'
p2898
aS'474'
p2899
aa(lp2900
I4342
aS'239'
p2901
aS'426'
p2902
aa(lp2903
I5408
aS'343'
p2904
aS'508'
p2905
aa(lp2906
I5409
aS'511'
p2907
aS'670'
p2908
aa(lp2909
I5412
aS'874'
p2910
aS'1057'
p2911
aa(lp2912
I5413
aS'1142'
p2913
aS'1275'
p2914
aa(lp2915
I5415
aS'808'
p2916
aS'1399'
p2917
aasS'4LJZ'
p2918
(lp2919
(lp2920
I529
aS'591'
p2921
aS'656'
p2922
aa(lp2923
I1311
aS'458'
p2924
aS'533'
p2925
aa(lp2926
I1312
aS'379'
p2927
aS'448'
p2928
aa(lp2929
I1313
aS'547'
p2930
aS'600'
p2931
aa(lp2932
I1874
aS'60'
p2933
aS'156'
p2934
aa(lp2935
I2150
aS'15'
p2936
aS'342'
p2937
aa(lp2938
I2154
aS'674'
p2939
aS'763'
p2940
aa(lp2941
I2673
aS'96'
p2942
aS'126'
p2943
aa(lp2944
I3290
aS'10'
p2945
aS'59'
p2946
aa(lp2947
I3356
aS'29'
p2948
aS'228'
p2949
aa(lp2950
I3506
aS'513'
p2951
aS'580'
p2952
aa(lp2953
I4338
aS'1266'
p2954
aS'1340'
p2955
aa(lp2956
I4339
aS'717'
p2957
aS'1264'
p2958
aa(lp2959
I4340
aS'26'
p2960
aS'500'
p2961
aa(lp2962
I4342
aS'151'
p2963
aS'225'
p2964
aa(lp2965
I4342
aS'340'
p2966
aS'454'
p2967
aa(lp2968
I4564
aS'137'
p2969
aS'348'
p2970
aa(lp2971
I5408
aS'344'
p2972
aS'393'
p2973
aa(lp2974
I5408
aS'392'
p2975
aS'485'
p2976
aa(lp2977
I5409
aS'489'
p2978
aS'644'
p2979
aa(lp2980
I5415
aS'766'
p2981
aS'1321'
p2982
aasS'4ZH2'
p2983
(lp2984
(lp2985
I529
aS'591'
p2986
aS'656'
p2987
aa(lp2988
I1311
aS'458'
p2989
aS'533'
p2990
aa(lp2991
I1312
aS'379'
p2992
aS'448'
p2993
aa(lp2994
I1313
aS'547'
p2995
aS'600'
p2996
aa(lp2997
I1874
aS'60'
p2998
aS'156'
p2999
aa(lp3000
I2150
aS'15'
p3001
aS'342'
p3002
aa(lp3003
I2154
aS'674'
p3004
aS'763'
p3005
aa(lp3006
I2671
aS'5'
aS'79'
p3007
aa(lp3008
I2673
aS'96'
p3009
aS'126'
p3010
aa(lp3011
I3219
aS'247'
p3012
aS'308'
p3013
aa(lp3014
I3290
aS'10'
p3015
aS'59'
p3016
aa(lp3017
I3356
aS'29'
p3018
aS'228'
p3019
aa(lp3020
I3506
aS'513'
p3021
aS'580'
p3022
aa(lp3023
I4338
aS'1266'
p3024
aS'1340'
p3025
aa(lp3026
I4339
aS'717'
p3027
aS'1264'
p3028
aa(lp3029
I4340
aS'26'
p3030
aS'500'
p3031
aa(lp3032
I4342
aS'151'
p3033
aS'225'
p3034
aa(lp3035
I4342
aS'340'
p3036
aS'454'
p3037
aa(lp3038
I4564
aS'137'
p3039
aS'348'
p3040
aa(lp3041
I5408
aS'344'
p3042
aS'393'
p3043
aa(lp3044
I5408
aS'392'
p3045
aS'485'
p3046
aa(lp3047
I5409
aS'489'
p3048
aS'644'
p3049
aa(lp3050
I5415
aS'766'
p3051
aS'1321'
p3052
aasS'4ZH3'
p3053
(lp3054
(lp3055
I529
aS'591'
p3056
aS'656'
p3057
aa(lp3058
I1311
aS'458'
p3059
aS'533'
p3060
aa(lp3061
I1312
aS'379'
p3062
aS'448'
p3063
aa(lp3064
I1313
aS'547'
p3065
aS'600'
p3066
aa(lp3067
I1874
aS'60'
p3068
aS'156'
p3069
aa(lp3070
I2150
aS'15'
p3071
aS'329'
p3072
aa(lp3073
I2154
aS'674'
p3074
aS'763'
p3075
aa(lp3076
I2671
aS'5'
aS'79'
p3077
aa(lp3078
I2673
aS'96'
p3079
aS'126'
p3080
aa(lp3081
I3219
aS'247'
p3082
aS'308'
p3083
aa(lp3084
I3290
aS'10'
p3085
aS'59'
p3086
aa(lp3087
I3356
aS'29'
p3088
aS'228'
p3089
aa(lp3090
I3506
aS'513'
p3091
aS'580'
p3092
aa(lp3093
I4338
aS'1266'
p3094
aS'1340'
p3095
aa(lp3096
I4339
aS'717'
p3097
aS'1264'
p3098
aa(lp3099
I4340
aS'26'
p3100
aS'500'
p3101
aa(lp3102
I4342
aS'151'
p3103
aS'225'
p3104
aa(lp3105
I4342
aS'340'
p3106
aS'454'
p3107
aa(lp3108
I4564
aS'137'
p3109
aS'348'
p3110
aa(lp3111
I5408
aS'345'
p3112
aS'393'
p3113
aa(lp3114
I5408
aS'392'
p3115
aS'485'
p3116
aa(lp3117
I5409
aS'489'
p3118
aS'644'
p3119
aa(lp3120
I5415
aS'766'
p3121
aS'1321'
p3122
aasS'5C4X'
p3123
(lp3124
(lp3125
I410
aS'9'
aS'79'
p3126
aa(lp3127
I1243
aS'5'
aS'41'
p3128
aa(lp3129
I1560
aS'55'
p3130
aS'70'
p3131
aa(lp3132
I1780
aS'7'
aS'134'
p3133
aa(lp3134
I1874
aS'52'
p3135
aS'173'
p3136
aa(lp3137
I2025
aS'75'
p3138
aS'112'
p3139
aa(lp3140
I2150
aS'13'
p3141
aS'341'
p3142
aa(lp3143
I2154
aS'696'
p3144
aS'801'
p3145
aa(lp3146
I2534
aS'143'
p3147
aS'214'
p3148
aa(lp3149
I2536
aS'7'
aS'100'
p3150
aa(lp3151
I2559
aS'31'
p3152
aS'102'
p3153
aa(lp3154
I2833
aS'80'
p3155
aS'157'
p3156
aa(lp3157
I3290
aS'148'
p3158
aS'154'
p3159
aa(lp3160
I3356
aS'23'
p3161
aS'257'
p3162
aa(lp3163
I3357
aS'1'
aS'59'
p3164
aa(lp3165
I3506
aS'500'
p3166
aS'562'
p3167
aa(lp3168
I4336
aS'700'
p3169
aS'764'
p3170
aa(lp3171
I4337
aS'599'
p3172
aS'660'
p3173
aa(lp3174
I4338
aS'1145'
p3175
aS'1191'
p3176
aa(lp3177
I4339
aS'772'
p3178
aS'1143'
p3179
aa(lp3180
I4340
aS'61'
p3181
aS'474'
p3182
aa(lp3183
I4342
aS'239'
p3184
aS'426'
p3185
aa(lp3186
I5408
aS'343'
p3187
aS'508'
p3188
aa(lp3189
I5409
aS'511'
p3190
aS'670'
p3191
aa(lp3192
I5412
aS'874'
p3193
aS'1057'
p3194
aa(lp3195
I5413
aS'1142'
p3196
aS'1275'
p3197
aa(lp3198
I5415
aS'808'
p3199
aS'1399'
p3200
aa(lp3201
I5642
aS'52'
p3202
aS'180'
p3203
aasS'3S14'
p3204
(lp3205
(lp3206
I1243
aS'4'
aS'40'
p3207
aa(lp3208
I1560
aS'29'
p3209
aS'60'
p3210
aa(lp3211
I1780
aS'7'
aS'146'
p3212
aa(lp3213
I1874
aS'49'
p3214
aS'170'
p3215
aa(lp3216
I2025
aS'74'
p3217
aS'111'
p3218
aa(lp3219
I2150
aS'12'
p3220
aS'340'
p3221
aa(lp3222
I2154
aS'695'
p3223
aS'800'
p3224
aa(lp3225
I2534
aS'142'
p3226
aS'214'
p3227
aa(lp3228
I2536
aS'6'
aS'99'
p3229
aa(lp3230
I2559
aS'31'
p3231
aS'102'
p3232
aa(lp3233
I3290
aS'80'
p3234
aS'132'
p3235
aa(lp3236
I3356
aS'20'
p3237
aS'254'
p3238
aa(lp3239
I3357
aS'1'
aS'59'
p3240
aa(lp3241
I3506
aS'481'
p3242
aS'543'
p3243
aa(lp3244
I4336
aS'681'
p3245
aS'745'
p3246
aa(lp3247
I4337
aS'580'
p3248
aS'641'
p3249
aa(lp3250
I4338
aS'1126'
p3251
aS'1218'
p3252
aa(lp3253
I4339
aS'753'
p3254
aS'1124'
p3255
aa(lp3256
I4340
aS'42'
p3257
aS'455'
p3258
aa(lp3259
I4342
aS'220'
p3260
aS'407'
p3261
aa(lp3262
I5408
aS'342'
p3263
aS'507'
p3264
aa(lp3265
I5409
aS'510'
p3266
aS'669'
p3267
aa(lp3268
I5412
aS'873'
p3269
aS'1056'
p3270
aa(lp3271
I5413
aS'1141'
p3272
aS'1274'
p3273
aa(lp3274
I5415
aS'807'
p3275
aS'1398'
p3276
aasS'4ZH4'
p3277
(lp3278
(lp3279
I529
aS'591'
p3280
aS'656'
p3281
aa(lp3282
I1311
aS'458'
p3283
aS'533'
p3284
aa(lp3285
I1312
aS'379'
p3286
aS'448'
p3287
aa(lp3288
I1313
aS'547'
p3289
aS'600'
p3290
aa(lp3291
I1874
aS'60'
p3292
aS'156'
p3293
aa(lp3294
I2150
aS'15'
p3295
aS'329'
p3296
aa(lp3297
I2154
aS'674'
p3298
aS'763'
p3299
aa(lp3300
I2671
aS'5'
aS'79'
p3301
aa(lp3302
I2673
aS'96'
p3303
aS'126'
p3304
aa(lp3305
I3219
aS'247'
p3306
aS'308'
p3307
aa(lp3308
I3290
aS'10'
p3309
aS'59'
p3310
aa(lp3311
I3356
aS'29'
p3312
aS'228'
p3313
aa(lp3314
I3506
aS'513'
p3315
aS'580'
p3316
aa(lp3317
I4338
aS'1266'
p3318
aS'1340'
p3319
aa(lp3320
I4339
aS'717'
p3321
aS'1264'
p3322
aa(lp3323
I4340
aS'26'
p3324
aS'500'
p3325
aa(lp3326
I4342
aS'151'
p3327
aS'225'
p3328
aa(lp3329
I4342
aS'340'
p3330
aS'454'
p3331
aa(lp3332
I4564
aS'137'
p3333
aS'348'
p3334
aa(lp3335
I5408
aS'345'
p3336
aS'393'
p3337
aa(lp3338
I5408
aS'392'
p3339
aS'485'
p3340
aa(lp3341
I5409
aS'489'
p3342
aS'644'
p3343
aa(lp3344
I5415
aS'766'
p3345
aS'1321'
p3346
aasS'3S16'
p3347
(lp3348
(lp3349
I1243
aS'4'
aS'40'
p3350
aa(lp3351
I1560
aS'29'
p3352
aS'60'
p3353
aa(lp3354
I1780
aS'7'
aS'146'
p3355
aa(lp3356
I1874
aS'49'
p3357
aS'170'
p3358
aa(lp3359
I2025
aS'74'
p3360
aS'111'
p3361
aa(lp3362
I2150
aS'12'
p3363
aS'340'
p3364
aa(lp3365
I2154
aS'695'
p3366
aS'800'
p3367
aa(lp3368
I2534
aS'142'
p3369
aS'214'
p3370
aa(lp3371
I2536
aS'6'
aS'99'
p3372
aa(lp3373
I2559
aS'31'
p3374
aS'102'
p3375
aa(lp3376
I3290
aS'80'
p3377
aS'132'
p3378
aa(lp3379
I3356
aS'20'
p3380
aS'254'
p3381
aa(lp3382
I3357
aS'1'
aS'59'
p3383
aa(lp3384
I3506
aS'481'
p3385
aS'543'
p3386
aa(lp3387
I4336
aS'681'
p3388
aS'745'
p3389
aa(lp3390
I4337
aS'580'
p3391
aS'641'
p3392
aa(lp3393
I4338
aS'1126'
p3394
aS'1218'
p3395
aa(lp3396
I4339
aS'753'
p3397
aS'1124'
p3398
aa(lp3399
I4340
aS'42'
p3400
aS'455'
p3401
aa(lp3402
I4342
aS'220'
p3403
aS'407'
p3404
aa(lp3405
I5408
aS'342'
p3406
aS'507'
p3407
aa(lp3408
I5409
aS'510'
p3409
aS'669'
p3410
aa(lp3411
I5412
aS'873'
p3412
aS'1056'
p3413
aa(lp3414
I5413
aS'1141'
p3415
aS'1274'
p3416
aa(lp3417
I5415
aS'807'
p3418
aS'1398'
p3419
aasS'1I50'
p3420
(lp3421
(lp3422
I1243
aS'4'
aS'40'
p3423
aa(lp3424
I1560
aS'29'
p3425
aS'60'
p3426
aa(lp3427
I1780
aS'7'
aS'146'
p3428
aa(lp3429
I1874
aS'49'
p3430
aS'170'
p3431
aa(lp3432
I2025
aS'74'
p3433
aS'111'
p3434
aa(lp3435
I2150
aS'12'
p3436
aS'340'
p3437
aa(lp3438
I2154
aS'695'
p3439
aS'800'
p3440
aa(lp3441
I2534
aS'142'
p3442
aS'214'
p3443
aa(lp3444
I2536
aS'6'
aS'99'
p3445
aa(lp3446
I2559
aS'31'
p3447
aS'102'
p3448
aa(lp3449
I3290
aS'80'
p3450
aS'132'
p3451
aa(lp3452
I3356
aS'20'
p3453
aS'254'
p3454
aa(lp3455
I3357
aS'1'
aS'59'
p3456
aa(lp3457
I3506
aS'481'
p3458
aS'543'
p3459
aa(lp3460
I4336
aS'681'
p3461
aS'745'
p3462
aa(lp3463
I4337
aS'580'
p3464
aS'641'
p3465
aa(lp3466
I4338
aS'1127'
p3467
aS'1218'
p3468
aa(lp3469
I4339
aS'753'
p3470
aS'1110'
p3471
aa(lp3472
I4340
aS'42'
p3473
aS'455'
p3474
aa(lp3475
I4342
aS'220'
p3476
aS'407'
p3477
aa(lp3478
I5408
aS'342'
p3479
aS'507'
p3480
aa(lp3481
I5409
aS'510'
p3482
aS'669'
p3483
aa(lp3484
I5412
aS'873'
p3485
aS'1056'
p3486
aa(lp3487
I5413
aS'1141'
p3488
aS'1274'
p3489
aa(lp3490
I5415
aS'807'
p3491
aS'1398'
p3492
aasS'3EQL'
p3493
(lp3494
(lp3495
I529
aS'471'
p3496
aS'535'
p3497
aa(lp3498
I1311
aS'266'
p3499
aS'344'
p3500
aa(lp3501
I1312
aS'187'
p3502
aS'256'
p3503
aa(lp3504
I1313
aS'357'
p3505
aS'409'
p3506
aa(lp3507
I1874
aS'59'
p3508
aS'154'
p3509
aa(lp3510
I2150
aS'2'
aS'159'
p3511
aa(lp3512
I2150
aS'457'
p3513
aS'618'
p3514
aa(lp3515
I2154
aS'984'
p3516
aS'1050'
p3517
aa(lp3518
I2673
aS'79'
p3519
aS'112'
p3520
aa(lp3521
I3290
aS'12'
p3522
aS'72'
p3523
aa(lp3524
I3356
aS'26'
p3525
aS'222'
p3526
aa(lp3527
I3506
aS'393'
p3528
aS'461'
p3529
aa(lp3530
I4338
aS'1028'
p3531
aS'1102'
p3532
aa(lp3533
I4339
aS'597'
p3534
aS'1026'
p3535
aa(lp3536
I4340
aS'18'
p3537
aS'379'
p3538
aa(lp3539
I4342
aS'142'
p3540
aS'334'
p3541
aa(lp3542
I5408
aS'620'
p3543
aS'761'
p3544
aa(lp3545
I5409
aS'768'
p3546
aS'953'
p3547
aa(lp3548
I5415
aS'1064'
p3549
aS'1436'
p3550
aasS'1HQM'
p3551
(lp3552
(lp3553
I529
aS'471'
p3554
aS'535'
p3555
aa(lp3556
I1874
aS'59'
p3557
aS'153'
p3558
aa(lp3559
I2150
aS'3'
aS'618'
p3560
aa(lp3561
I2154
aS'985'
p3562
aS'1051'
p3563
aa(lp3564
I3290
aS'12'
p3565
aS'73'
p3566
aa(lp3567
I3356
aS'26'
p3568
aS'221'
p3569
aa(lp3570
I3506
aS'393'
p3571
aS'461'
p3572
aa(lp3573
I4338
aS'1028'
p3574
aS'1102'
p3575
aa(lp3576
I4339
aS'597'
p3577
aS'1026'
p3578
aa(lp3579
I4340
aS'18'
p3580
aS'379'
p3581
aa(lp3582
I4342
aS'142'
p3583
aS'334'
p3584
aa(lp3585
I5408
aS'620'
p3586
aS'761'
p3587
aa(lp3588
I5409
aS'768'
p3589
aS'954'
p3590
aa(lp3591
I5415
aS'1065'
p3592
aS'1437'
p3593
aasS'1Y1Y'
p3594
(lp3595
(lp3596
I410
aS'9'
aS'79'
p3597
aa(lp3598
I1243
aS'4'
aS'40'
p3599
aa(lp3600
I1560
aS'29'
p3601
aS'60'
p3602
aa(lp3603
I1780
aS'7'
aS'146'
p3604
aa(lp3605
I1874
aS'49'
p3606
aS'170'
p3607
aa(lp3608
I2022
aS'147'
p3609
aS'255'
p3610
aa(lp3611
I2025
aS'74'
p3612
aS'111'
p3613
aa(lp3614
I2025
aS'269'
p3615
aS'307'
p3616
aa(lp3617
I2150
aS'12'
p3618
aS'340'
p3619
aa(lp3620
I2154
aS'695'
p3621
aS'800'
p3622
aa(lp3623
I2534
aS'142'
p3624
aS'214'
p3625
aa(lp3626
I2536
aS'6'
aS'99'
p3627
aa(lp3628
I2559
aS'31'
p3629
aS'102'
p3630
aa(lp3631
I2833
aS'80'
p3632
aS'157'
p3633
aa(lp3634
I3290
aS'80'
p3635
aS'132'
p3636
aa(lp3637
I3356
aS'20'
p3638
aS'254'
p3639
aa(lp3640
I3357
aS'1'
aS'59'
p3641
aa(lp3642
I3506
aS'481'
p3643
aS'543'
p3644
aa(lp3645
I4336
aS'681'
p3646
aS'745'
p3647
aa(lp3648
I4337
aS'580'
p3649
aS'641'
p3650
aa(lp3651
I4338
aS'1126'
p3652
aS'1218'
p3653
aa(lp3654
I4339
aS'753'
p3655
aS'1124'
p3656
aa(lp3657
I4340
aS'42'
p3658
aS'455'
p3659
aa(lp3660
I4342
aS'220'
p3661
aS'407'
p3662
aa(lp3663
I5408
aS'342'
p3664
aS'507'
p3665
aa(lp3666
I5409
aS'510'
p3667
aS'669'
p3668
aa(lp3669
I5412
aS'873'
p3670
aS'1056'
p3671
aa(lp3672
I5413
aS'1141'
p3673
aS'1274'
p3674
aa(lp3675
I5415
aS'807'
p3676
aS'1398'
p3677
aa(lp3678
I5642
aS'49'
p3679
aS'217'
p3680
aasS'3S1Q'
p3681
(lp3682
(lp3683
I1243
aS'4'
aS'40'
p3684
aa(lp3685
I1560
aS'29'
p3686
aS'60'
p3687
aa(lp3688
I1780
aS'7'
aS'146'
p3689
aa(lp3690
I1874
aS'49'
p3691
aS'170'
p3692
aa(lp3693
I2025
aS'74'
p3694
aS'111'
p3695
aa(lp3696
I2150
aS'12'
p3697
aS'340'
p3698
aa(lp3699
I2154
aS'695'
p3700
aS'800'
p3701
aa(lp3702
I2534
aS'142'
p3703
aS'214'
p3704
aa(lp3705
I2536
aS'6'
aS'99'
p3706
aa(lp3707
I2559
aS'31'
p3708
aS'102'
p3709
aa(lp3710
I3290
aS'80'
p3711
aS'132'
p3712
aa(lp3713
I3356
aS'20'
p3714
aS'254'
p3715
aa(lp3716
I3357
aS'1'
aS'59'
p3717
aa(lp3718
I3506
aS'481'
p3719
aS'543'
p3720
aa(lp3721
I4336
aS'681'
p3722
aS'745'
p3723
aa(lp3724
I4337
aS'580'
p3725
aS'641'
p3726
aa(lp3727
I4338
aS'1126'
p3728
aS'1218'
p3729
aa(lp3730
I4339
aS'753'
p3731
aS'1124'
p3732
aa(lp3733
I4340
aS'42'
p3734
aS'455'
p3735
aa(lp3736
I4342
aS'220'
p3737
aS'407'
p3738
aa(lp3739
I5408
aS'342'
p3740
aS'507'
p3741
aa(lp3742
I5409
aS'510'
p3743
aS'669'
p3744
aa(lp3745
I5412
aS'873'
p3746
aS'1056'
p3747
aa(lp3748
I5413
aS'1141'
p3749
aS'1274'
p3750
aa(lp3751
I5415
aS'807'
p3752
aS'1398'
p3753
aasS'3J1N'
p3754
(lp3755
(lp3756
I410
aS'9'
aS'79'
p3757
aa(lp3758
I1243
aS'4'
aS'40'
p3759
aa(lp3760
I1560
aS'29'
p3761
aS'60'
p3762
aa(lp3763
I1780
aS'7'
aS'146'
p3764
aa(lp3765
I1874
aS'49'
p3766
aS'170'
p3767
aa(lp3768
I2025
aS'74'
p3769
aS'111'
p3770
aa(lp3771
I2150
aS'12'
p3772
aS'340'
p3773
aa(lp3774
I2154
aS'695'
p3775
aS'800'
p3776
aa(lp3777
I2534
aS'142'
p3778
aS'214'
p3779
aa(lp3780
I2536
aS'6'
aS'99'
p3781
aa(lp3782
I2559
aS'31'
p3783
aS'102'
p3784
aa(lp3785
I2833
aS'80'
p3786
aS'157'
p3787
aa(lp3788
I3290
aS'80'
p3789
aS'132'
p3790
aa(lp3791
I3356
aS'20'
p3792
aS'254'
p3793
aa(lp3794
I3357
aS'1'
aS'59'
p3795
aa(lp3796
I3506
aS'481'
p3797
aS'543'
p3798
aa(lp3799
I4336
aS'681'
p3800
aS'745'
p3801
aa(lp3802
I4337
aS'580'
p3803
aS'641'
p3804
aa(lp3805
I4338
aS'1126'
p3806
aS'1218'
p3807
aa(lp3808
I4339
aS'753'
p3809
aS'1124'
p3810
aa(lp3811
I4340
aS'42'
p3812
aS'455'
p3813
aa(lp3814
I4342
aS'220'
p3815
aS'407'
p3816
aa(lp3817
I5408
aS'342'
p3818
aS'507'
p3819
aa(lp3820
I5409
aS'510'
p3821
aS'669'
p3822
aa(lp3823
I5412
aS'873'
p3824
aS'1056'
p3825
aa(lp3826
I5413
aS'1131'
p3827
aS'1274'
p3828
aa(lp3829
I5415
aS'807'
p3830
aS'1398'
p3831
aa(lp3832
I5642
aS'49'
p3833
aS'217'
p3834
aasS'4YG2'
p3835
(lp3836
(lp3837
I529
aS'591'
p3838
aS'656'
p3839
aa(lp3840
I1311
aS'458'
p3841
aS'533'
p3842
aa(lp3843
I1312
aS'379'
p3844
aS'448'
p3845
aa(lp3846
I1313
aS'547'
p3847
aS'600'
p3848
aa(lp3849
I1874
aS'60'
p3850
aS'156'
p3851
aa(lp3852
I2150
aS'15'
p3853
aS'342'
p3854
aa(lp3855
I2154
aS'674'
p3856
aS'763'
p3857
aa(lp3858
I2673
aS'96'
p3859
aS'126'
p3860
aa(lp3861
I3219
aS'245'
p3862
aS'308'
p3863
aa(lp3864
I3290
aS'10'
p3865
aS'59'
p3866
aa(lp3867
I3356
aS'29'
p3868
aS'228'
p3869
aa(lp3870
I3506
aS'513'
p3871
aS'580'
p3872
aa(lp3873
I4338
aS'1266'
p3874
aS'1340'
p3875
aa(lp3876
I4339
aS'717'
p3877
aS'1264'
p3878
aa(lp3879
I4340
aS'26'
p3880
aS'500'
p3881
aa(lp3882
I4342
aS'151'
p3883
aS'225'
p3884
aa(lp3885
I4342
aS'340'
p3886
aS'454'
p3887
aa(lp3888
I4564
aS'137'
p3889
aS'348'
p3890
aa(lp3891
I5408
aS'344'
p3892
aS'393'
p3893
aa(lp3894
I5408
aS'392'
p3895
aS'485'
p3896
aa(lp3897
I5409
aS'489'
p3898
aS'644'
p3899
aa(lp3900
I5415
aS'766'
p3901
aS'1321'
p3902
aasS'3AOH'
p3903
(lp3904
(lp3905
I513
aS'6'
aS'74'
p3906
aa(lp3907
I529
aS'471'
p3908
aS'535'
p3909
aa(lp3910
I1874
aS'59'
p3911
aS'154'
p3912
aa(lp3913
I2150
aS'2'
aS'159'
p3914
aa(lp3915
I2150
aS'457'
p3916
aS'618'
p3917
aa(lp3918
I2154
aS'984'
p3919
aS'1050'
p3920
aa(lp3921
I2995
aS'81'
p3922
aS'155'
p3923
aa(lp3924
I3290
aS'12'
p3925
aS'72'
p3926
aa(lp3927
I3356
aS'26'
p3928
aS'222'
p3929
aa(lp3930
I3506
aS'393'
p3931
aS'461'
p3932
aa(lp3933
I4338
aS'1028'
p3934
aS'1102'
p3935
aa(lp3936
I4339
aS'597'
p3937
aS'1026'
p3938
aa(lp3939
I4340
aS'18'
p3940
aS'379'
p3941
aa(lp3942
I4342
aS'142'
p3943
aS'334'
p3944
aa(lp3945
I5408
aS'620'
p3946
aS'761'
p3947
aa(lp3948
I5409
aS'768'
p3949
aS'953'
p3950
aa(lp3951
I5415
aS'1064'
p3952
aS'1436'
p3953
aasS'4Y52'
p3954
(lp3955
(lp3956
I1243
aS'4'
aS'40'
p3957
aa(lp3958
I1560
aS'29'
p3959
aS'60'
p3960
aa(lp3961
I1780
aS'7'
aS'146'
p3962
aa(lp3963
I1874
aS'49'
p3964
aS'170'
p3965
aa(lp3966
I2025
aS'74'
p3967
aS'111'
p3968
aa(lp3969
I2150
aS'12'
p3970
aS'340'
p3971
aa(lp3972
I2154
aS'695'
p3973
aS'800'
p3974
aa(lp3975
I2534
aS'142'
p3976
aS'214'
p3977
aa(lp3978
I2536
aS'6'
aS'99'
p3979
aa(lp3980
I2559
aS'31'
p3981
aS'102'
p3982
aa(lp3983
I3290
aS'80'
p3984
aS'132'
p3985
aa(lp3986
I3356
aS'20'
p3987
aS'254'
p3988
aa(lp3989
I3357
aS'1'
aS'59'
p3990
aa(lp3991
I3506
aS'481'
p3992
aS'543'
p3993
aa(lp3994
I4336
aS'681'
p3995
aS'745'
p3996
aa(lp3997
I4337
aS'580'
p3998
aS'641'
p3999
aa(lp4000
I4338
aS'1126'
p4001
aS'1218'
p4002
aa(lp4003
I4339
aS'753'
p4004
aS'1124'
p4005
aa(lp4006
I4340
aS'42'
p4007
aS'455'
p4008
aa(lp4009
I4342
aS'220'
p4010
aS'407'
p4011
aa(lp4012
I5408
aS'342'
p4013
aS'507'
p4014
aa(lp4015
I5409
aS'510'
p4016
aS'669'
p4017
aa(lp4018
I5412
aS'873'
p4019
aS'1056'
p4020
aa(lp4021
I5413
aS'1141'
p4022
aS'1274'
p4023
aa(lp4024
I5415
aS'807'
p4025
aS'1398'
p4026
aasS'4V1M'
p4027
(lp4028
(lp4029
I1243
aS'4'
aS'40'
p4030
aa(lp4031
I1560
aS'29'
p4032
aS'60'
p4033
aa(lp4034
I1780
aS'7'
aS'146'
p4035
aa(lp4036
I1874
aS'49'
p4037
aS'170'
p4038
aa(lp4039
I2025
aS'74'
p4040
aS'111'
p4041
aa(lp4042
I2150
aS'12'
p4043
aS'340'
p4044
aa(lp4045
I2154
aS'695'
p4046
aS'800'
p4047
aa(lp4048
I2534
aS'142'
p4049
aS'214'
p4050
aa(lp4051
I2536
aS'6'
aS'99'
p4052
aa(lp4053
I2559
aS'31'
p4054
aS'102'
p4055
aa(lp4056
I3290
aS'80'
p4057
aS'132'
p4058
aa(lp4059
I3356
aS'20'
p4060
aS'254'
p4061
aa(lp4062
I3357
aS'1'
aS'59'
p4063
aa(lp4064
I3506
aS'481'
p4065
aS'543'
p4066
aa(lp4067
I4336
aS'681'
p4068
aS'745'
p4069
aa(lp4070
I4337
aS'580'
p4071
aS'641'
p4072
aa(lp4073
I4338
aS'1126'
p4074
aS'1218'
p4075
aa(lp4076
I4339
aS'753'
p4077
aS'1124'
p4078
aa(lp4079
I4340
aS'42'
p4080
aS'455'
p4081
aa(lp4082
I4342
aS'220'
p4083
aS'407'
p4084
aa(lp4085
I5408
aS'342'
p4086
aS'507'
p4087
aa(lp4088
I5409
aS'510'
p4089
aS'669'
p4090
aa(lp4091
I5412
aS'873'
p4092
aS'1056'
p4093
aa(lp4094
I5413
aS'1141'
p4095
aS'1274'
p4096
aa(lp4097
I5415
aS'807'
p4098
aS'1398'
p4099
aasS'1PQV'
p4100
(lp4101
(lp4102
I410
aS'9'
aS'79'
p4103
aa(lp4104
I1243
aS'4'
aS'40'
p4105
aa(lp4106
I1560
aS'29'
p4107
aS'60'
p4108
aa(lp4109
I1780
aS'7'
aS'146'
p4110
aa(lp4111
I1874
aS'49'
p4112
aS'170'
p4113
aa(lp4114
I2022
aS'147'
p4115
aS'255'
p4116
aa(lp4117
I2025
aS'269'
p4118
aS'307'
p4119
aa(lp4120
I2025
aS'74'
p4121
aS'111'
p4122
aa(lp4123
I2150
aS'12'
p4124
aS'340'
p4125
aa(lp4126
I2154
aS'695'
p4127
aS'800'
p4128
aa(lp4129
I2534
aS'142'
p4130
aS'214'
p4131
aa(lp4132
I2536
aS'6'
aS'99'
p4133
aa(lp4134
I2559
aS'31'
p4135
aS'102'
p4136
aa(lp4137
I2833
aS'80'
p4138
aS'157'
p4139
aa(lp4140
I3290
aS'80'
p4141
aS'132'
p4142
aa(lp4143
I3356
aS'20'
p4144
aS'254'
p4145
aa(lp4146
I3357
aS'1'
aS'59'
p4147
aa(lp4148
I3506
aS'481'
p4149
aS'543'
p4150
aa(lp4151
I4336
aS'681'
p4152
aS'745'
p4153
aa(lp4154
I4337
aS'580'
p4155
aS'641'
p4156
aa(lp4157
I4338
aS'1126'
p4158
aS'1218'
p4159
aa(lp4160
I4339
aS'753'
p4161
aS'1124'
p4162
aa(lp4163
I4340
aS'42'
p4164
aS'455'
p4165
aa(lp4166
I4342
aS'220'
p4167
aS'407'
p4168
aa(lp4169
I5408
aS'342'
p4170
aS'507'
p4171
aa(lp4172
I5409
aS'510'
p4173
aS'669'
p4174
aa(lp4175
I5412
aS'873'
p4176
aS'1056'
p4177
aa(lp4178
I5413
aS'1141'
p4179
aS'1274'
p4180
aa(lp4181
I5415
aS'807'
p4182
aS'1398'
p4183
aa(lp4184
I5642
aS'86'
p4185
aS'217'
p4186
aasS'1Y1W'
p4187
(lp4188
(lp4189
I410
aS'9'
aS'79'
p4190
aa(lp4191
I1243
aS'4'
aS'40'
p4192
aa(lp4193
I1560
aS'29'
p4194
aS'60'
p4195
aa(lp4196
I1780
aS'7'
aS'146'
p4197
aa(lp4198
I1874
aS'49'
p4199
aS'170'
p4200
aa(lp4201
I2025
aS'74'
p4202
aS'111'
p4203
aa(lp4204
I2150
aS'12'
p4205
aS'340'
p4206
aa(lp4207
I2154
aS'695'
p4208
aS'800'
p4209
aa(lp4210
I2534
aS'142'
p4211
aS'214'
p4212
aa(lp4213
I2536
aS'6'
aS'99'
p4214
aa(lp4215
I2559
aS'31'
p4216
aS'102'
p4217
aa(lp4218
I2833
aS'80'
p4219
aS'157'
p4220
aa(lp4221
I3290
aS'80'
p4222
aS'132'
p4223
aa(lp4224
I3356
aS'20'
p4225
aS'254'
p4226
aa(lp4227
I3357
aS'1'
aS'59'
p4228
aa(lp4229
I3506
aS'481'
p4230
aS'543'
p4231
aa(lp4232
I4336
aS'681'
p4233
aS'745'
p4234
aa(lp4235
I4337
aS'580'
p4236
aS'641'
p4237
aa(lp4238
I4338
aS'1126'
p4239
aS'1218'
p4240
aa(lp4241
I4339
aS'753'
p4242
aS'1124'
p4243
aa(lp4244
I4340
aS'42'
p4245
aS'455'
p4246
aa(lp4247
I4342
aS'220'
p4248
aS'407'
p4249
aa(lp4250
I5408
aS'342'
p4251
aS'507'
p4252
aa(lp4253
I5409
aS'510'
p4254
aS'669'
p4255
aa(lp4256
I5412
aS'873'
p4257
aS'1056'
p4258
aa(lp4259
I5413
aS'1141'
p4260
aS'1274'
p4261
aa(lp4262
I5415
aS'807'
p4263
aS'1398'
p4264
aa(lp4265
I5642
aS'49'
p4266
aS'217'
p4267
aasS'1Y1V'
p4268
(lp4269
(lp4270
I410
aS'9'
aS'79'
p4271
aa(lp4272
I1243
aS'4'
aS'40'
p4273
aa(lp4274
I1560
aS'29'
p4275
aS'60'
p4276
aa(lp4277
I1780
aS'7'
aS'146'
p4278
aa(lp4279
I1874
aS'49'
p4280
aS'170'
p4281
aa(lp4282
I2022
aS'147'
p4283
aS'255'
p4284
aa(lp4285
I2025
aS'269'
p4286
aS'307'
p4287
aa(lp4288
I2025
aS'74'
p4289
aS'111'
p4290
aa(lp4291
I2150
aS'12'
p4292
aS'340'
p4293
aa(lp4294
I2154
aS'695'
p4295
aS'800'
p4296
aa(lp4297
I2534
aS'142'
p4298
aS'214'
p4299
aa(lp4300
I2536
aS'6'
aS'99'
p4301
aa(lp4302
I2559
aS'31'
p4303
aS'102'
p4304
aa(lp4305
I2833
aS'80'
p4306
aS'157'
p4307
aa(lp4308
I3290
aS'80'
p4309
aS'132'
p4310
aa(lp4311
I3356
aS'20'
p4312
aS'254'
p4313
aa(lp4314
I3357
aS'1'
aS'59'
p4315
aa(lp4316
I3506
aS'481'
p4317
aS'543'
p4318
aa(lp4319
I4336
aS'681'
p4320
aS'745'
p4321
aa(lp4322
I4337
aS'580'
p4323
aS'641'
p4324
aa(lp4325
I4338
aS'1126'
p4326
aS'1218'
p4327
aa(lp4328
I4339
aS'753'
p4329
aS'1124'
p4330
aa(lp4331
I4340
aS'42'
p4332
aS'455'
p4333
aa(lp4334
I4342
aS'220'
p4335
aS'407'
p4336
aa(lp4337
I5408
aS'342'
p4338
aS'507'
p4339
aa(lp4340
I5409
aS'510'
p4341
aS'669'
p4342
aa(lp4343
I5412
aS'873'
p4344
aS'1056'
p4345
aa(lp4346
I5413
aS'1141'
p4347
aS'1274'
p4348
aa(lp4349
I5415
aS'807'
p4350
aS'1398'
p4351
aa(lp4352
I5642
aS'49'
p4353
aS'217'
p4354
aasS'3S1R'
p4355
(lp4356
(lp4357
I1243
aS'4'
aS'40'
p4358
aa(lp4359
I1560
aS'29'
p4360
aS'60'
p4361
aa(lp4362
I1780
aS'7'
aS'146'
p4363
aa(lp4364
I1874
aS'49'
p4365
aS'170'
p4366
aa(lp4367
I2025
aS'74'
p4368
aS'111'
p4369
aa(lp4370
I2150
aS'12'
p4371
aS'340'
p4372
aa(lp4373
I2154
aS'695'
p4374
aS'800'
p4375
aa(lp4376
I2534
aS'142'
p4377
aS'214'
p4378
aa(lp4379
I2536
aS'6'
aS'99'
p4380
aa(lp4381
I2559
aS'31'
p4382
aS'102'
p4383
aa(lp4384
I3290
aS'80'
p4385
aS'132'
p4386
aa(lp4387
I3356
aS'20'
p4388
aS'254'
p4389
aa(lp4390
I3357
aS'1'
aS'59'
p4391
aa(lp4392
I3506
aS'481'
p4393
aS'543'
p4394
aa(lp4395
I4336
aS'681'
p4396
aS'745'
p4397
aa(lp4398
I4337
aS'580'
p4399
aS'641'
p4400
aa(lp4401
I4338
aS'1126'
p4402
aS'1218'
p4403
aa(lp4404
I4339
aS'753'
p4405
aS'1124'
p4406
aa(lp4407
I4340
aS'42'
p4408
aS'455'
p4409
aa(lp4410
I4342
aS'220'
p4411
aS'407'
p4412
aa(lp4413
I5408
aS'342'
p4414
aS'507'
p4415
aa(lp4416
I5409
aS'510'
p4417
aS'669'
p4418
aa(lp4419
I5412
aS'873'
p4420
aS'1056'
p4421
aa(lp4422
I5413
aS'1141'
p4423
aS'1274'
p4424
aa(lp4425
I5415
aS'807'
p4426
aS'1398'
p4427
aasS'2NVX'
p4428
(lp4429
(lp4430
I1243
aS'4'
aS'40'
p4431
aa(lp4432
I1560
aS'29'
p4433
aS'60'
p4434
aa(lp4435
I1780
aS'7'
aS'146'
p4436
aa(lp4437
I1874
aS'49'
p4438
aS'170'
p4439
aa(lp4440
I2025
aS'74'
p4441
aS'111'
p4442
aa(lp4443
I2150
aS'12'
p4444
aS'340'
p4445
aa(lp4446
I2154
aS'695'
p4447
aS'800'
p4448
aa(lp4449
I2534
aS'142'
p4450
aS'214'
p4451
aa(lp4452
I2536
aS'6'
aS'99'
p4453
aa(lp4454
I2559
aS'31'
p4455
aS'102'
p4456
aa(lp4457
I3290
aS'80'
p4458
aS'132'
p4459
aa(lp4460
I3356
aS'20'
p4461
aS'254'
p4462
aa(lp4463
I3357
aS'1'
aS'59'
p4464
aa(lp4465
I3506
aS'481'
p4466
aS'543'
p4467
aa(lp4468
I4336
aS'681'
p4469
aS'745'
p4470
aa(lp4471
I4337
aS'580'
p4472
aS'641'
p4473
aa(lp4474
I4338
aS'1126'
p4475
aS'1218'
p4476
aa(lp4477
I4339
aS'753'
p4478
aS'1124'
p4479
aa(lp4480
I4340
aS'42'
p4481
aS'455'
p4482
aa(lp4483
I4342
aS'220'
p4484
aS'407'
p4485
aa(lp4486
I5408
aS'342'
p4487
aS'507'
p4488
aa(lp4489
I5409
aS'510'
p4490
aS'669'
p4491
aa(lp4492
I5412
aS'873'
p4493
aS'1056'
p4494
aa(lp4495
I5413
aS'1141'
p4496
aS'1274'
p4497
aa(lp4498
I5415
aS'807'
p4499
aS'1398'
p4500
aasS'5BYH'
p4501
(lp4502
(lp4503
I529
aS'591'
p4504
aS'656'
p4505
aa(lp4506
I867
aS'15'
p4507
aS'48'
p4508
aa(lp4509
I1874
aS'60'
p4510
aS'156'
p4511
aa(lp4512
I2150
aS'15'
p4513
aS'342'
p4514
aa(lp4515
I2154
aS'674'
p4516
aS'763'
p4517
aa(lp4518
I2340
aS'114'
p4519
aS'303'
p4520
aa(lp4521
I2574
aS'317'
p4522
aS'473'
p4523
aa(lp4524
I3219
aS'248'
p4525
aS'308'
p4526
aa(lp4527
I3290
aS'10'
p4528
aS'59'
p4529
aa(lp4530
I3356
aS'29'
p4531
aS'228'
p4532
aa(lp4533
I3506
aS'513'
p4534
aS'580'
p4535
aa(lp4536
I4338
aS'1266'
p4537
aS'1340'
p4538
aa(lp4539
I4339
aS'717'
p4540
aS'1264'
p4541
aa(lp4542
I4340
aS'26'
p4543
aS'500'
p4544
aa(lp4545
I4342
aS'151'
p4546
aS'225'
p4547
aa(lp4548
I4342
aS'340'
p4549
aS'454'
p4550
aa(lp4551
I5408
aS'344'
p4552
aS'393'
p4553
aa(lp4554
I5408
aS'392'
p4555
aS'485'
p4556
aa(lp4557
I5409
aS'489'
p4558
aS'644'
p4559
aa(lp4560
I5415
aS'766'
p4561
aS'1321'
p4562
aasS'1R9S'
p4563
(lp4564
(lp4565
I1243
aS'4'
aS'40'
p4566
aa(lp4567
I1560
aS'29'
p4568
aS'60'
p4569
aa(lp4570
I1780
aS'7'
aS'146'
p4571
aa(lp4572
I1874
aS'49'
p4573
aS'170'
p4574
aa(lp4575
I2025
aS'74'
p4576
aS'111'
p4577
aa(lp4578
I2150
aS'12'
p4579
aS'340'
p4580
aa(lp4581
I2154
aS'695'
p4582
aS'800'
p4583
aa(lp4584
I2534
aS'142'
p4585
aS'214'
p4586
aa(lp4587
I2536
aS'6'
aS'99'
p4588
aa(lp4589
I2559
aS'31'
p4590
aS'102'
p4591
aa(lp4592
I3290
aS'80'
p4593
aS'132'
p4594
aa(lp4595
I3356
aS'20'
p4596
aS'254'
p4597
aa(lp4598
I3357
aS'1'
aS'59'
p4599
aa(lp4600
I3506
aS'481'
p4601
aS'543'
p4602
aa(lp4603
I4336
aS'681'
p4604
aS'745'
p4605
aa(lp4606
I4337
aS'580'
p4607
aS'641'
p4608
aa(lp4609
I4338
aS'1126'
p4610
aS'1218'
p4611
aa(lp4612
I4339
aS'753'
p4613
aS'1124'
p4614
aa(lp4615
I4340
aS'42'
p4616
aS'455'
p4617
aa(lp4618
I4342
aS'220'
p4619
aS'407'
p4620
aa(lp4621
I5408
aS'342'
p4622
aS'507'
p4623
aa(lp4624
I5409
aS'510'
p4625
aS'669'
p4626
aa(lp4627
I5412
aS'873'
p4628
aS'1056'
p4629
aa(lp4630
I5413
aS'1141'
p4631
aS'1274'
p4632
aa(lp4633
I5415
aS'807'
p4634
aS'1398'
p4635
aasS'4BY7'
p4636
(lp4637
(lp4638
I410
aS'9'
aS'79'
p4639
aa(lp4640
I1243
aS'4'
aS'40'
p4641
aa(lp4642
I1560
aS'29'
p4643
aS'60'
p4644
aa(lp4645
I1780
aS'7'
aS'146'
p4646
aa(lp4647
I1874
aS'49'
p4648
aS'170'
p4649
aa(lp4650
I2022
aS'243'
p4651
aS'357'
p4652
aa(lp4653
I2025
aS'74'
p4654
aS'111'
p4655
aa(lp4656
I2150
aS'12'
p4657
aS'340'
p4658
aa(lp4659
I2154
aS'695'
p4660
aS'800'
p4661
aa(lp4662
I2534
aS'142'
p4663
aS'214'
p4664
aa(lp4665
I2536
aS'6'
aS'99'
p4666
aa(lp4667
I2559
aS'31'
p4668
aS'102'
p4669
aa(lp4670
I2833
aS'80'
p4671
aS'157'
p4672
aa(lp4673
I3290
aS'80'
p4674
aS'132'
p4675
aa(lp4676
I3356
aS'20'
p4677
aS'254'
p4678
aa(lp4679
I3357
aS'1'
aS'59'
p4680
aa(lp4681
I3506
aS'481'
p4682
aS'543'
p4683
aa(lp4684
I4336
aS'681'
p4685
aS'745'
p4686
aa(lp4687
I4337
aS'580'
p4688
aS'641'
p4689
aa(lp4690
I4338
aS'1126'
p4691
aS'1218'
p4692
aa(lp4693
I4339
aS'753'
p4694
aS'1124'
p4695
aa(lp4696
I4340
aS'42'
p4697
aS'455'
p4698
aa(lp4699
I4342
aS'220'
p4700
aS'407'
p4701
aa(lp4702
I5408
aS'342'
p4703
aS'507'
p4704
aa(lp4705
I5409
aS'510'
p4706
aS'669'
p4707
aa(lp4708
I5412
aS'873'
p4709
aS'1056'
p4710
aa(lp4711
I5413
aS'1141'
p4712
aS'1274'
p4713
aa(lp4714
I5415
aS'807'
p4715
aS'1398'
p4716
aa(lp4717
I5642
aS'49'
p4718
aS'217'
p4719
aasS'4BY1'
p4720
(lp4721
(lp4722
I410
aS'9'
aS'79'
p4723
aa(lp4724
I410
aS'9'
aS'79'
p4725
aa(lp4726
I1243
aS'4'
aS'40'
p4727
aa(lp4728
I1243
aS'4'
aS'40'
p4729
aa(lp4730
I1560
aS'29'
p4731
aS'60'
p4732
aa(lp4733
I1560
aS'29'
p4734
aS'60'
p4735
aa(lp4736
I1780
aS'7'
aS'146'
p4737
aa(lp4738
I1780
aS'7'
aS'146'
p4739
aa(lp4740
I1874
aS'49'
p4741
aS'170'
p4742
aa(lp4743
I1874
aS'49'
p4744
aS'170'
p4745
aa(lp4746
I2022
aS'243'
p4747
aS'357'
p4748
aa(lp4749
I2022
aS'243'
p4750
aS'357'
p4751
aa(lp4752
I2025
aS'74'
p4753
aS'111'
p4754
aa(lp4755
I2025
aS'74'
p4756
aS'111'
p4757
aa(lp4758
I2150
aS'12'
p4759
aS'340'
p4760
aa(lp4761
I2150
aS'12'
p4762
aS'340'
p4763
aa(lp4764
I2154
aS'695'
p4765
aS'800'
p4766
aa(lp4767
I2154
aS'695'
p4768
aS'800'
p4769
aa(lp4770
I2534
aS'142'
p4771
aS'214'
p4772
aa(lp4773
I2534
aS'142'
p4774
aS'214'
p4775
aa(lp4776
I2536
aS'6'
aS'99'
p4777
aa(lp4778
I2536
aS'6'
aS'99'
p4779
aa(lp4780
I2559
aS'31'
p4781
aS'102'
p4782
aa(lp4783
I2559
aS'31'
p4784
aS'102'
p4785
aa(lp4786
I2833
aS'80'
p4787
aS'157'
p4788
aa(lp4789
I2833
aS'80'
p4790
aS'157'
p4791
aa(lp4792
I3290
aS'80'
p4793
aS'132'
p4794
aa(lp4795
I3290
aS'80'
p4796
aS'132'
p4797
aa(lp4798
I3356
aS'20'
p4799
aS'254'
p4800
aa(lp4801
I3356
aS'20'
p4802
aS'254'
p4803
aa(lp4804
I3357
aS'1'
aS'59'
p4805
aa(lp4806
I3357
aS'1'
aS'59'
p4807
aa(lp4808
I3506
aS'481'
p4809
aS'543'
p4810
aa(lp4811
I3506
aS'481'
p4812
aS'543'
p4813
aa(lp4814
I4336
aS'681'
p4815
aS'745'
p4816
aa(lp4817
I4336
aS'681'
p4818
aS'745'
p4819
aa(lp4820
I4337
aS'580'
p4821
aS'641'
p4822
aa(lp4823
I4337
aS'580'
p4824
aS'641'
p4825
aa(lp4826
I4338
aS'1126'
p4827
aS'1218'
p4828
aa(lp4829
I4338
aS'1126'
p4830
aS'1218'
p4831
aa(lp4832
I4339
aS'753'
p4833
aS'1124'
p4834
aa(lp4835
I4339
aS'753'
p4836
aS'1124'
p4837
aa(lp4838
I4340
aS'42'
p4839
aS'455'
p4840
aa(lp4841
I4340
aS'42'
p4842
aS'455'
p4843
aa(lp4844
I4342
aS'220'
p4845
aS'407'
p4846
aa(lp4847
I4342
aS'220'
p4848
aS'407'
p4849
aa(lp4850
I5408
aS'342'
p4851
aS'507'
p4852
aa(lp4853
I5408
aS'342'
p4854
aS'507'
p4855
aa(lp4856
I5409
aS'510'
p4857
aS'669'
p4858
aa(lp4859
I5409
aS'510'
p4860
aS'669'
p4861
aa(lp4862
I5412
aS'873'
p4863
aS'1056'
p4864
aa(lp4865
I5412
aS'873'
p4866
aS'1056'
p4867
aa(lp4868
I5413
aS'1141'
p4869
aS'1274'
p4870
aa(lp4871
I5413
aS'1141'
p4872
aS'1274'
p4873
aa(lp4874
I5415
aS'807'
p4875
aS'1398'
p4876
aa(lp4877
I5415
aS'807'
p4878
aS'1398'
p4879
aa(lp4880
I5642
aS'49'
p4881
aS'217'
p4882
aa(lp4883
I5642
aS'49'
p4884
aS'217'
p4885
aasS'1R9T'
p4886
(lp4887
(lp4888
I1243
aS'4'
aS'40'
p4889
aa(lp4890
I1560
aS'29'
p4891
aS'60'
p4892
aa(lp4893
I1780
aS'7'
aS'146'
p4894
aa(lp4895
I1874
aS'49'
p4896
aS'170'
p4897
aa(lp4898
I2025
aS'74'
p4899
aS'111'
p4900
aa(lp4901
I2150
aS'12'
p4902
aS'340'
p4903
aa(lp4904
I2154
aS'695'
p4905
aS'800'
p4906
aa(lp4907
I2534
aS'142'
p4908
aS'214'
p4909
aa(lp4910
I2536
aS'6'
aS'99'
p4911
aa(lp4912
I2559
aS'31'
p4913
aS'102'
p4914
aa(lp4915
I3290
aS'80'
p4916
aS'132'
p4917
aa(lp4918
I3356
aS'20'
p4919
aS'254'
p4920
aa(lp4921
I3357
aS'1'
aS'59'
p4922
aa(lp4923
I3506
aS'481'
p4924
aS'543'
p4925
aa(lp4926
I4336
aS'681'
p4927
aS'745'
p4928
aa(lp4929
I4337
aS'580'
p4930
aS'641'
p4931
aa(lp4932
I4338
aS'1126'
p4933
aS'1218'
p4934
aa(lp4935
I4339
aS'753'
p4936
aS'1124'
p4937
aa(lp4938
I4340
aS'42'
p4939
aS'455'
p4940
aa(lp4941
I4342
aS'220'
p4942
aS'407'
p4943
aa(lp4944
I5408
aS'342'
p4945
aS'507'
p4946
aa(lp4947
I5409
aS'510'
p4948
aS'669'
p4949
aa(lp4950
I5412
aS'873'
p4951
aS'1056'
p4952
aa(lp4953
I5413
aS'1141'
p4954
aS'1274'
p4955
aa(lp4956
I5415
aS'807'
p4957
aS'1398'
p4958
aasS'4GZZ'
p4959
(lp4960
(lp4961
I529
aS'471'
p4962
aS'535'
p4963
aa(lp4964
I1874
aS'59'
p4965
aS'154'
p4966
aa(lp4967
I2150
aS'2'
aS'159'
p4968
aa(lp4969
I2150
aS'457'
p4970
aS'618'
p4971
aa(lp4972
I2154
aS'984'
p4973
aS'1050'
p4974
aa(lp4975
I3290
aS'12'
p4976
aS'72'
p4977
aa(lp4978
I3356
aS'26'
p4979
aS'222'
p4980
aa(lp4981
I3506
aS'393'
p4982
aS'461'
p4983
aa(lp4984
I4338
aS'1028'
p4985
aS'1102'
p4986
aa(lp4987
I4339
aS'597'
p4988
aS'1026'
p4989
aa(lp4990
I4340
aS'18'
p4991
aS'379'
p4992
aa(lp4993
I4342
aS'142'
p4994
aS'334'
p4995
aa(lp4996
I5408
aS'620'
p4997
aS'761'
p4998
aa(lp4999
I5409
aS'768'
p5000
aS'953'
p5001
aa(lp5002
I5415
aS'1064'
p5003
aS'1436'
p5004
aasS'2PPB'
p5005
(lp5006
(lp5007
I529
aS'471'
p5008
aS'535'
p5009
aa(lp5010
I1874
aS'59'
p5011
aS'154'
p5012
aa(lp5013
I2150
aS'2'
aS'159'
p5014
aa(lp5015
I2150
aS'457'
p5016
aS'618'
p5017
aa(lp5018
I2154
aS'984'
p5019
aS'1050'
p5020
aa(lp5021
I3290
aS'12'
p5022
aS'72'
p5023
aa(lp5024
I3356
aS'26'
p5025
aS'222'
p5026
aa(lp5027
I3506
aS'393'
p5028
aS'461'
p5029
aa(lp5030
I4338
aS'1028'
p5031
aS'1102'
p5032
aa(lp5033
I4339
aS'597'
p5034
aS'1026'
p5035
aa(lp5036
I4340
aS'18'
p5037
aS'379'
p5038
aa(lp5039
I4342
aS'142'
p5040
aS'334'
p5041
aa(lp5042
I5408
aS'620'
p5043
aS'761'
p5044
aa(lp5045
I5409
aS'768'
p5046
aS'953'
p5047
aa(lp5048
I5415
aS'1064'
p5049
aS'1436'
p5050
aasS'2YU9'
p5051
(lp5052
(lp5053
I1243
aS'4'
aS'40'
p5054
aa(lp5055
I1560
aS'29'
p5056
aS'60'
p5057
aa(lp5058
I1780
aS'7'
aS'146'
p5059
aa(lp5060
I1874
aS'49'
p5061
aS'170'
p5062
aa(lp5063
I2025
aS'74'
p5064
aS'111'
p5065
aa(lp5066
I2150
aS'12'
p5067
aS'340'
p5068
aa(lp5069
I2154
aS'695'
p5070
aS'800'
p5071
aa(lp5072
I2534
aS'142'
p5073
aS'214'
p5074
aa(lp5075
I2536
aS'6'
aS'99'
p5076
aa(lp5077
I2559
aS'31'
p5078
aS'102'
p5079
aa(lp5080
I3290
aS'80'
p5081
aS'132'
p5082
aa(lp5083
I3356
aS'20'
p5084
aS'254'
p5085
aa(lp5086
I3357
aS'1'
aS'59'
p5087
aa(lp5088
I3506
aS'481'
p5089
aS'543'
p5090
aa(lp5091
I4336
aS'681'
p5092
aS'745'
p5093
aa(lp5094
I4337
aS'580'
p5095
aS'641'
p5096
aa(lp5097
I4338
aS'1126'
p5098
aS'1218'
p5099
aa(lp5100
I4339
aS'753'
p5101
aS'1124'
p5102
aa(lp5103
I4340
aS'42'
p5104
aS'455'
p5105
aa(lp5106
I4342
aS'220'
p5107
aS'407'
p5108
aa(lp5109
I5408
aS'342'
p5110
aS'507'
p5111
aa(lp5112
I5409
aS'510'
p5113
aS'669'
p5114
aa(lp5115
I5412
aS'873'
p5116
aS'1056'
p5117
aa(lp5118
I5413
aS'1141'
p5119
aS'1274'
p5120
aa(lp5121
I5415
aS'807'
p5122
aS'1398'
p5123
aasS'1SMY'
p5124
(lp5125
(lp5126
I529
aS'471'
p5127
aS'535'
p5128
aa(lp5129
I1311
aS'266'
p5130
aS'344'
p5131
aa(lp5132
I1312
aS'187'
p5133
aS'256'
p5134
aa(lp5135
I1313
aS'357'
p5136
aS'409'
p5137
aa(lp5138
I1874
aS'59'
p5139
aS'154'
p5140
aa(lp5141
I2150
aS'2'
aS'159'
p5142
aa(lp5143
I2150
aS'457'
p5144
aS'618'
p5145
aa(lp5146
I2154
aS'984'
p5147
aS'1050'
p5148
aa(lp5149
I2673
aS'79'
p5150
aS'112'
p5151
aa(lp5152
I3290
aS'12'
p5153
aS'39'
p5154
aa(lp5155
I3356
aS'26'
p5156
aS'222'
p5157
aa(lp5158
I3506
aS'393'
p5159
aS'461'
p5160
aa(lp5161
I4338
aS'1028'
p5162
aS'1102'
p5163
aa(lp5164
I4339
aS'597'
p5165
aS'1026'
p5166
aa(lp5167
I4340
aS'18'
p5168
aS'379'
p5169
aa(lp5170
I4342
aS'142'
p5171
aS'334'
p5172
aa(lp5173
I5408
aS'620'
p5174
aS'761'
p5175
aa(lp5176
I5409
aS'768'
p5177
aS'953'
p5178
aa(lp5179
I5415
aS'1064'
p5180
aS'1436'
p5181
aasS'3GTO'
p5182
(lp5183
(lp5184
I1243
aS'4'
aS'40'
p5185
aa(lp5186
I1560
aS'29'
p5187
aS'60'
p5188
aa(lp5189
I1780
aS'7'
aS'146'
p5190
aa(lp5191
I1874
aS'49'
p5192
aS'170'
p5193
aa(lp5194
I2025
aS'74'
p5195
aS'111'
p5196
aa(lp5197
I2150
aS'12'
p5198
aS'340'
p5199
aa(lp5200
I2154
aS'695'
p5201
aS'800'
p5202
aa(lp5203
I2534
aS'142'
p5204
aS'214'
p5205
aa(lp5206
I2536
aS'6'
aS'99'
p5207
aa(lp5208
I2559
aS'31'
p5209
aS'102'
p5210
aa(lp5211
I3290
aS'80'
p5212
aS'132'
p5213
aa(lp5214
I3356
aS'20'
p5215
aS'254'
p5216
aa(lp5217
I3357
aS'1'
aS'59'
p5218
aa(lp5219
I3506
aS'481'
p5220
aS'543'
p5221
aa(lp5222
I4336
aS'681'
p5223
aS'745'
p5224
aa(lp5225
I4337
aS'580'
p5226
aS'641'
p5227
aa(lp5228
I4338
aS'1126'
p5229
aS'1218'
p5230
aa(lp5231
I4339
aS'753'
p5232
aS'1124'
p5233
aa(lp5234
I4340
aS'42'
p5235
aS'455'
p5236
aa(lp5237
I4342
aS'220'
p5238
aS'407'
p5239
aa(lp5240
I5408
aS'342'
p5241
aS'507'
p5242
aa(lp5243
I5409
aS'510'
p5244
aS'669'
p5245
aa(lp5246
I5412
aS'873'
p5247
aS'1056'
p5248
aa(lp5249
I5413
aS'1141'
p5250
aS'1274'
p5251
aa(lp5252
I5415
aS'807'
p5253
aS'1398'
p5254
aasS'3GTL'
p5255
(lp5256
(lp5257
I1243
aS'4'
aS'40'
p5258
aa(lp5259
I1560
aS'29'
p5260
aS'60'
p5261
aa(lp5262
I1780
aS'7'
aS'146'
p5263
aa(lp5264
I1874
aS'49'
p5265
aS'170'
p5266
aa(lp5267
I2025
aS'74'
p5268
aS'111'
p5269
aa(lp5270
I2150
aS'12'
p5271
aS'340'
p5272
aa(lp5273
I2154
aS'695'
p5274
aS'800'
p5275
aa(lp5276
I2534
aS'142'
p5277
aS'214'
p5278
aa(lp5279
I2536
aS'6'
aS'99'
p5280
aa(lp5281
I2559
aS'31'
p5282
aS'102'
p5283
aa(lp5284
I3290
aS'80'
p5285
aS'132'
p5286
aa(lp5287
I3356
aS'20'
p5288
aS'254'
p5289
aa(lp5290
I3357
aS'1'
aS'59'
p5291
aa(lp5292
I3506
aS'481'
p5293
aS'543'
p5294
aa(lp5295
I4336
aS'681'
p5296
aS'745'
p5297
aa(lp5298
I4337
aS'580'
p5299
aS'641'
p5300
aa(lp5301
I4338
aS'1126'
p5302
aS'1218'
p5303
aa(lp5304
I4339
aS'753'
p5305
aS'1124'
p5306
aa(lp5307
I4340
aS'42'
p5308
aS'455'
p5309
aa(lp5310
I4342
aS'220'
p5311
aS'407'
p5312
aa(lp5313
I5408
aS'342'
p5314
aS'507'
p5315
aa(lp5316
I5409
aS'510'
p5317
aS'669'
p5318
aa(lp5319
I5412
aS'873'
p5320
aS'1056'
p5321
aa(lp5322
I5413
aS'1141'
p5323
aS'1274'
p5324
aa(lp5325
I5415
aS'807'
p5326
aS'1398'
p5327
aasS'3GTM'
p5328
(lp5329
(lp5330
I1243
aS'4'
aS'40'
p5331
aa(lp5332
I1560
aS'29'
p5333
aS'60'
p5334
aa(lp5335
I1780
aS'7'
aS'146'
p5336
aa(lp5337
I1874
aS'49'
p5338
aS'170'
p5339
aa(lp5340
I2022
aS'147'
p5341
aS'255'
p5342
aa(lp5343
I2025
aS'269'
p5344
aS'307'
p5345
aa(lp5346
I2025
aS'74'
p5347
aS'111'
p5348
aa(lp5349
I2150
aS'12'
p5350
aS'340'
p5351
aa(lp5352
I2154
aS'695'
p5353
aS'800'
p5354
aa(lp5355
I2534
aS'142'
p5356
aS'214'
p5357
aa(lp5358
I2536
aS'6'
aS'99'
p5359
aa(lp5360
I2559
aS'31'
p5361
aS'102'
p5362
aa(lp5363
I3290
aS'80'
p5364
aS'132'
p5365
aa(lp5366
I3356
aS'20'
p5367
aS'254'
p5368
aa(lp5369
I3357
aS'1'
aS'59'
p5370
aa(lp5371
I3506
aS'481'
p5372
aS'543'
p5373
aa(lp5374
I4336
aS'681'
p5375
aS'745'
p5376
aa(lp5377
I4337
aS'580'
p5378
aS'641'
p5379
aa(lp5380
I4338
aS'1126'
p5381
aS'1218'
p5382
aa(lp5383
I4339
aS'753'
p5384
aS'1124'
p5385
aa(lp5386
I4340
aS'42'
p5387
aS'455'
p5388
aa(lp5389
I4342
aS'220'
p5390
aS'407'
p5391
aa(lp5392
I5408
aS'342'
p5393
aS'507'
p5394
aa(lp5395
I5409
aS'510'
p5396
aS'669'
p5397
aa(lp5398
I5412
aS'873'
p5399
aS'1056'
p5400
aa(lp5401
I5413
aS'1141'
p5402
aS'1274'
p5403
aa(lp5404
I5415
aS'807'
p5405
aS'1398'
p5406
aasS'1WCM'
p5407
(lp5408
(lp5409
I410
aS'9'
aS'79'
p5410
aa(lp5411
I1243
aS'4'
aS'40'
p5412
aa(lp5413
I1560
aS'29'
p5414
aS'60'
p5415
aa(lp5416
I1780
aS'7'
aS'146'
p5417
aa(lp5418
I1874
aS'49'
p5419
aS'170'
p5420
aa(lp5421
I2025
aS'74'
p5422
aS'111'
p5423
aa(lp5424
I2150
aS'12'
p5425
aS'340'
p5426
aa(lp5427
I2154
aS'695'
p5428
aS'800'
p5429
aa(lp5430
I2534
aS'142'
p5431
aS'214'
p5432
aa(lp5433
I2536
aS'6'
aS'99'
p5434
aa(lp5435
I2559
aS'31'
p5436
aS'102'
p5437
aa(lp5438
I2833
aS'80'
p5439
aS'157'
p5440
aa(lp5441
I3290
aS'80'
p5442
aS'132'
p5443
aa(lp5444
I3356
aS'20'
p5445
aS'254'
p5446
aa(lp5447
I3357
aS'1'
aS'59'
p5448
aa(lp5449
I3506
aS'481'
p5450
aS'543'
p5451
aa(lp5452
I4336
aS'681'
p5453
aS'745'
p5454
aa(lp5455
I4337
aS'580'
p5456
aS'641'
p5457
aa(lp5458
I4338
aS'1126'
p5459
aS'1218'
p5460
aa(lp5461
I4339
aS'753'
p5462
aS'1124'
p5463
aa(lp5464
I4340
aS'42'
p5465
aS'455'
p5466
aa(lp5467
I4342
aS'220'
p5468
aS'407'
p5469
aa(lp5470
I5408
aS'342'
p5471
aS'507'
p5472
aa(lp5473
I5409
aS'510'
p5474
aS'669'
p5475
aa(lp5476
I5412
aS'873'
p5477
aS'1056'
p5478
aa(lp5479
I5413
aS'1141'
p5480
aS'1274'
p5481
aa(lp5482
I5415
aS'807'
p5483
aS'1398'
p5484
aa(lp5485
I5642
aS'49'
p5486
aS'217'
p5487
aasS'3GTK'
p5488
(lp5489
(lp5490
I1243
aS'4'
aS'40'
p5491
aa(lp5492
I1560
aS'29'
p5493
aS'60'
p5494
aa(lp5495
I1780
aS'7'
aS'146'
p5496
aa(lp5497
I1874
aS'49'
p5498
aS'170'
p5499
aa(lp5500
I2025
aS'74'
p5501
aS'111'
p5502
aa(lp5503
I2150
aS'12'
p5504
aS'340'
p5505
aa(lp5506
I2154
aS'695'
p5507
aS'800'
p5508
aa(lp5509
I2534
aS'142'
p5510
aS'214'
p5511
aa(lp5512
I2536
aS'6'
aS'99'
p5513
aa(lp5514
I2559
aS'31'
p5515
aS'102'
p5516
aa(lp5517
I3290
aS'80'
p5518
aS'132'
p5519
aa(lp5520
I3356
aS'20'
p5521
aS'254'
p5522
aa(lp5523
I3357
aS'1'
aS'59'
p5524
aa(lp5525
I3506
aS'481'
p5526
aS'543'
p5527
aa(lp5528
I4336
aS'681'
p5529
aS'745'
p5530
aa(lp5531
I4337
aS'580'
p5532
aS'641'
p5533
aa(lp5534
I4338
aS'1126'
p5535
aS'1218'
p5536
aa(lp5537
I4339
aS'753'
p5538
aS'1124'
p5539
aa(lp5540
I4340
aS'42'
p5541
aS'455'
p5542
aa(lp5543
I4342
aS'220'
p5544
aS'407'
p5545
aa(lp5546
I5408
aS'342'
p5547
aS'507'
p5548
aa(lp5549
I5409
aS'510'
p5550
aS'669'
p5551
aa(lp5552
I5412
aS'873'
p5553
aS'1056'
p5554
aa(lp5555
I5413
aS'1141'
p5556
aS'1274'
p5557
aa(lp5558
I5415
aS'807'
p5559
aS'1398'
p5560
aasS'3S15'
p5561
(lp5562
(lp5563
I1243
aS'4'
aS'40'
p5564
aa(lp5565
I1560
aS'29'
p5566
aS'60'
p5567
aa(lp5568
I1780
aS'7'
aS'146'
p5569
aa(lp5570
I1874
aS'49'
p5571
aS'170'
p5572
aa(lp5573
I2025
aS'74'
p5574
aS'111'
p5575
aa(lp5576
I2150
aS'12'
p5577
aS'340'
p5578
aa(lp5579
I2154
aS'695'
p5580
aS'800'
p5581
aa(lp5582
I2534
aS'142'
p5583
aS'214'
p5584
aa(lp5585
I2536
aS'6'
aS'99'
p5586
aa(lp5587
I2559
aS'31'
p5588
aS'102'
p5589
aa(lp5590
I3290
aS'80'
p5591
aS'132'
p5592
aa(lp5593
I3356
aS'20'
p5594
aS'254'
p5595
aa(lp5596
I3357
aS'1'
aS'59'
p5597
aa(lp5598
I3506
aS'481'
p5599
aS'543'
p5600
aa(lp5601
I4336
aS'681'
p5602
aS'745'
p5603
aa(lp5604
I4337
aS'580'
p5605
aS'641'
p5606
aa(lp5607
I4338
aS'1126'
p5608
aS'1218'
p5609
aa(lp5610
I4339
aS'753'
p5611
aS'1124'
p5612
aa(lp5613
I4340
aS'42'
p5614
aS'455'
p5615
aa(lp5616
I4342
aS'220'
p5617
aS'407'
p5618
aa(lp5619
I5408
aS'342'
p5620
aS'507'
p5621
aa(lp5622
I5409
aS'510'
p5623
aS'669'
p5624
aa(lp5625
I5412
aS'873'
p5626
aS'1056'
p5627
aa(lp5628
I5413
aS'1141'
p5629
aS'1274'
p5630
aa(lp5631
I5415
aS'807'
p5632
aS'1398'
p5633
aasS'4G7Z'
p5634
(lp5635
(lp5636
I529
aS'471'
p5637
aS'535'
p5638
aa(lp5639
I1311
aS'266'
p5640
aS'344'
p5641
aa(lp5642
I1312
aS'187'
p5643
aS'256'
p5644
aa(lp5645
I1313
aS'357'
p5646
aS'409'
p5647
aa(lp5648
I1874
aS'59'
p5649
aS'154'
p5650
aa(lp5651
I2150
aS'3'
aS'159'
p5652
aa(lp5653
I2150
aS'457'
p5654
aS'618'
p5655
aa(lp5656
I2154
aS'984'
p5657
aS'1050'
p5658
aa(lp5659
I2673
aS'79'
p5660
aS'112'
p5661
aa(lp5662
I3290
aS'12'
p5663
aS'72'
p5664
aa(lp5665
I3356
aS'26'
p5666
aS'222'
p5667
aa(lp5668
I3506
aS'393'
p5669
aS'461'
p5670
aa(lp5671
I4338
aS'1028'
p5672
aS'1102'
p5673
aa(lp5674
I4339
aS'597'
p5675
aS'1026'
p5676
aa(lp5677
I4340
aS'18'
p5678
aS'379'
p5679
aa(lp5680
I4342
aS'142'
p5681
aS'334'
p5682
aa(lp5683
I5408
aS'620'
p5684
aS'761'
p5685
aa(lp5686
I5409
aS'768'
p5687
aS'953'
p5688
aa(lp5689
I5415
aS'1064'
p5690
aS'1436'
p5691
aasS'2R7Z'
p5692
(lp5693
(lp5694
I410
aS'9'
aS'79'
p5695
aa(lp5696
I1243
aS'4'
aS'40'
p5697
aa(lp5698
I1560
aS'29'
p5699
aS'60'
p5700
aa(lp5701
I1780
aS'7'
aS'146'
p5702
aa(lp5703
I1874
aS'49'
p5704
aS'170'
p5705
aa(lp5706
I2025
aS'74'
p5707
aS'111'
p5708
aa(lp5709
I2150
aS'12'
p5710
aS'340'
p5711
aa(lp5712
I2154
aS'695'
p5713
aS'800'
p5714
aa(lp5715
I2534
aS'142'
p5716
aS'214'
p5717
aa(lp5718
I2536
aS'6'
aS'99'
p5719
aa(lp5720
I2559
aS'31'
p5721
aS'102'
p5722
aa(lp5723
I2833
aS'80'
p5724
aS'157'
p5725
aa(lp5726
I3290
aS'80'
p5727
aS'132'
p5728
aa(lp5729
I3356
aS'20'
p5730
aS'254'
p5731
aa(lp5732
I3357
aS'1'
aS'59'
p5733
aa(lp5734
I3506
aS'481'
p5735
aS'543'
p5736
aa(lp5737
I4336
aS'681'
p5738
aS'745'
p5739
aa(lp5740
I4337
aS'580'
p5741
aS'641'
p5742
aa(lp5743
I4338
aS'1126'
p5744
aS'1218'
p5745
aa(lp5746
I4339
aS'753'
p5747
aS'1124'
p5748
aa(lp5749
I4340
aS'42'
p5750
aS'455'
p5751
aa(lp5752
I4342
aS'220'
p5753
aS'407'
p5754
aa(lp5755
I5408
aS'342'
p5756
aS'507'
p5757
aa(lp5758
I5409
aS'510'
p5759
aS'669'
p5760
aa(lp5761
I5412
aS'873'
p5762
aS'1056'
p5763
aa(lp5764
I5413
aS'1141'
p5765
aS'1274'
p5766
aa(lp5767
I5415
aS'807'
p5768
aS'1398'
p5769
aa(lp5770
I5642
aS'49'
p5771
aS'217'
p5772
aasS'3LU0'
p5773
(lp5774
(lp5775
I529
aS'591'
p5776
aS'656'
p5777
aa(lp5778
I1874
aS'60'
p5779
aS'156'
p5780
aa(lp5781
I2150
aS'15'
p5782
aS'342'
p5783
aa(lp5784
I2154
aS'674'
p5785
aS'763'
p5786
aa(lp5787
I3290
aS'10'
p5788
aS'59'
p5789
aa(lp5790
I3356
aS'29'
p5791
aS'228'
p5792
aa(lp5793
I3506
aS'513'
p5794
aS'580'
p5795
aa(lp5796
I4338
aS'1266'
p5797
aS'1340'
p5798
aa(lp5799
I4339
aS'717'
p5800
aS'1264'
p5801
aa(lp5802
I4340
aS'26'
p5803
aS'500'
p5804
aa(lp5805
I4342
aS'151'
p5806
aS'225'
p5807
aa(lp5808
I4342
aS'340'
p5809
aS'454'
p5810
aa(lp5811
I5408
aS'344'
p5812
aS'393'
p5813
aa(lp5814
I5408
aS'392'
p5815
aS'485'
p5816
aa(lp5817
I5409
aS'489'
p5818
aS'644'
p5819
aa(lp5820
I5415
aS'766'
p5821
aS'1321'
p5822
aasS'3S17'
p5823
(lp5824
(lp5825
I1243
aS'4'
aS'40'
p5826
aa(lp5827
I1560
aS'29'
p5828
aS'60'
p5829
aa(lp5830
I1780
aS'7'
aS'146'
p5831
aa(lp5832
I1874
aS'49'
p5833
aS'170'
p5834
aa(lp5835
I2025
aS'74'
p5836
aS'111'
p5837
aa(lp5838
I2150
aS'12'
p5839
aS'340'
p5840
aa(lp5841
I2154
aS'695'
p5842
aS'800'
p5843
aa(lp5844
I2534
aS'142'
p5845
aS'214'
p5846
aa(lp5847
I2536
aS'6'
aS'99'
p5848
aa(lp5849
I2559
aS'31'
p5850
aS'102'
p5851
aa(lp5852
I3290
aS'80'
p5853
aS'132'
p5854
aa(lp5855
I3356
aS'20'
p5856
aS'254'
p5857
aa(lp5858
I3357
aS'1'
aS'59'
p5859
aa(lp5860
I3506
aS'481'
p5861
aS'543'
p5862
aa(lp5863
I4336
aS'681'
p5864
aS'745'
p5865
aa(lp5866
I4337
aS'580'
p5867
aS'641'
p5868
aa(lp5869
I4338
aS'1126'
p5870
aS'1218'
p5871
aa(lp5872
I4339
aS'753'
p5873
aS'1124'
p5874
aa(lp5875
I4340
aS'42'
p5876
aS'455'
p5877
aa(lp5878
I4342
aS'220'
p5879
aS'407'
p5880
aa(lp5881
I5408
aS'342'
p5882
aS'507'
p5883
aa(lp5884
I5409
aS'510'
p5885
aS'669'
p5886
aa(lp5887
I5412
aS'873'
p5888
aS'1056'
p5889
aa(lp5890
I5413
aS'1141'
p5891
aS'1274'
p5892
aa(lp5893
I5415
aS'807'
p5894
aS'1398'
p5895
aasS'4LLG'
p5896
(lp5897
(lp5898
I529
aS'591'
p5899
aS'656'
p5900
aa(lp5901
I1311
aS'458'
p5902
aS'533'
p5903
aa(lp5904
I1312
aS'379'
p5905
aS'448'
p5906
aa(lp5907
I1313
aS'547'
p5908
aS'600'
p5909
aa(lp5910
I1874
aS'60'
p5911
aS'156'
p5912
aa(lp5913
I2150
aS'15'
p5914
aS'342'
p5915
aa(lp5916
I2154
aS'674'
p5917
aS'763'
p5918
aa(lp5919
I2671
aS'6'
aS'56'
p5920
aa(lp5921
I2673
aS'96'
p5922
aS'126'
p5923
aa(lp5924
I3290
aS'10'
p5925
aS'59'
p5926
aa(lp5927
I3356
aS'29'
p5928
aS'228'
p5929
aa(lp5930
I3506
aS'513'
p5931
aS'580'
p5932
aa(lp5933
I4338
aS'1266'
p5934
aS'1340'
p5935
aa(lp5936
I4339
aS'717'
p5937
aS'1264'
p5938
aa(lp5939
I4340
aS'26'
p5940
aS'500'
p5941
aa(lp5942
I4342
aS'151'
p5943
aS'225'
p5944
aa(lp5945
I4342
aS'340'
p5946
aS'454'
p5947
aa(lp5948
I4564
aS'137'
p5949
aS'348'
p5950
aa(lp5951
I5408
aS'344'
p5952
aS'393'
p5953
aa(lp5954
I5408
aS'392'
p5955
aS'485'
p5956
aa(lp5957
I5409
aS'489'
p5958
aS'644'
p5959
aa(lp5960
I5415
aS'766'
p5961
aS'1321'
p5962
aa(lp5963
I6100
aS'15'
p5964
aS'60'
p5965
aasS'4G7O'
p5966
(lp5967
(lp5968
I529
aS'471'
p5969
aS'535'
p5970
aa(lp5971
I1311
aS'266'
p5972
aS'344'
p5973
aa(lp5974
I1312
aS'187'
p5975
aS'256'
p5976
aa(lp5977
I1313
aS'357'
p5978
aS'409'
p5979
aa(lp5980
I1874
aS'59'
p5981
aS'154'
p5982
aa(lp5983
I2150
aS'3'
aS'159'
p5984
aa(lp5985
I2150
aS'457'
p5986
aS'618'
p5987
aa(lp5988
I2154
aS'984'
p5989
aS'1050'
p5990
aa(lp5991
I2673
aS'79'
p5992
aS'112'
p5993
aa(lp5994
I3290
aS'12'
p5995
aS'72'
p5996
aa(lp5997
I3356
aS'26'
p5998
aS'222'
p5999
aa(lp6000
I3506
aS'393'
p6001
aS'461'
p6002
aa(lp6003
I4338
aS'1028'
p6004
aS'1102'
p6005
aa(lp6006
I4339
aS'597'
p6007
aS'1026'
p6008
aa(lp6009
I4340
aS'18'
p6010
aS'379'
p6011
aa(lp6012
I4342
aS'142'
p6013
aS'334'
p6014
aa(lp6015
I5408
aS'620'
p6016
aS'761'
p6017
aa(lp6018
I5409
aS'768'
p6019
aS'953'
p6020
aa(lp6021
I5415
aS'1064'
p6022
aS'1436'
p6023
aasS'4G7H'
p6024
(lp6025
(lp6026
I529
aS'471'
p6027
aS'535'
p6028
aa(lp6029
I1311
aS'266'
p6030
aS'344'
p6031
aa(lp6032
I1312
aS'187'
p6033
aS'256'
p6034
aa(lp6035
I1313
aS'357'
p6036
aS'409'
p6037
aa(lp6038
I1874
aS'59'
p6039
aS'154'
p6040
aa(lp6041
I2150
aS'3'
aS'159'
p6042
aa(lp6043
I2150
aS'457'
p6044
aS'618'
p6045
aa(lp6046
I2154
aS'984'
p6047
aS'1050'
p6048
aa(lp6049
I2673
aS'79'
p6050
aS'112'
p6051
aa(lp6052
I3290
aS'12'
p6053
aS'72'
p6054
aa(lp6055
I3356
aS'26'
p6056
aS'222'
p6057
aa(lp6058
I3506
aS'393'
p6059
aS'461'
p6060
aa(lp6061
I4338
aS'1028'
p6062
aS'1102'
p6063
aa(lp6064
I4339
aS'597'
p6065
aS'1026'
p6066
aa(lp6067
I4340
aS'18'
p6068
aS'379'
p6069
aa(lp6070
I4342
aS'142'
p6071
aS'334'
p6072
aa(lp6073
I5408
aS'620'
p6074
aS'761'
p6075
aa(lp6076
I5409
aS'768'
p6077
aS'953'
p6078
aa(lp6079
I5415
aS'1064'
p6080
aS'1436'
p6081
aasS'3GTQ'
p6082
(lp6083
(lp6084
I1243
aS'4'
aS'40'
p6085
aa(lp6086
I1560
aS'29'
p6087
aS'60'
p6088
aa(lp6089
I1780
aS'7'
aS'146'
p6090
aa(lp6091
I1874
aS'49'
p6092
aS'170'
p6093
aa(lp6094
I2025
aS'74'
p6095
aS'111'
p6096
aa(lp6097
I2150
aS'12'
p6098
aS'340'
p6099
aa(lp6100
I2154
aS'695'
p6101
aS'800'
p6102
aa(lp6103
I2534
aS'142'
p6104
aS'214'
p6105
aa(lp6106
I2536
aS'6'
aS'99'
p6107
aa(lp6108
I2559
aS'31'
p6109
aS'102'
p6110
aa(lp6111
I3290
aS'80'
p6112
aS'132'
p6113
aa(lp6114
I3356
aS'20'
p6115
aS'254'
p6116
aa(lp6117
I3357
aS'1'
aS'59'
p6118
aa(lp6119
I3506
aS'481'
p6120
aS'543'
p6121
aa(lp6122
I4336
aS'681'
p6123
aS'745'
p6124
aa(lp6125
I4337
aS'580'
p6126
aS'641'
p6127
aa(lp6128
I4338
aS'1126'
p6129
aS'1218'
p6130
aa(lp6131
I4339
aS'753'
p6132
aS'1124'
p6133
aa(lp6134
I4340
aS'42'
p6135
aS'455'
p6136
aa(lp6137
I4342
aS'220'
p6138
aS'407'
p6139
aa(lp6140
I5408
aS'342'
p6141
aS'507'
p6142
aa(lp6143
I5409
aS'510'
p6144
aS'669'
p6145
aa(lp6146
I5412
aS'873'
p6147
aS'1056'
p6148
aa(lp6149
I5413
aS'1141'
p6150
aS'1274'
p6151
aa(lp6152
I5415
aS'807'
p6153
aS'1398'
p6154
aasS'4WQT'
p6155
(lp6156
(lp6157
I513
aS'6'
aS'74'
p6158
aa(lp6159
I529
aS'471'
p6160
aS'535'
p6161
aa(lp6162
I1874
aS'59'
p6163
aS'154'
p6164
aa(lp6165
I2150
aS'2'
aS'159'
p6166
aa(lp6167
I2150
aS'457'
p6168
aS'618'
p6169
aa(lp6170
I2154
aS'984'
p6171
aS'1050'
p6172
aa(lp6173
I2995
aS'81'
p6174
aS'155'
p6175
aa(lp6176
I3290
aS'12'
p6177
aS'72'
p6178
aa(lp6179
I3356
aS'26'
p6180
aS'222'
p6181
aa(lp6182
I3506
aS'393'
p6183
aS'461'
p6184
aa(lp6185
I4338
aS'1028'
p6186
aS'1102'
p6187
aa(lp6188
I4339
aS'597'
p6189
aS'1026'
p6190
aa(lp6191
I4340
aS'18'
p6192
aS'379'
p6193
aa(lp6194
I4342
aS'142'
p6195
aS'334'
p6196
aa(lp6197
I5408
aS'620'
p6198
aS'761'
p6199
aa(lp6200
I5409
aS'768'
p6201
aS'953'
p6202
aa(lp6203
I5415
aS'1064'
p6204
aS'1436'
p6205
aasS'4OIP'
p6206
(lp6207
(lp6208
I529
aS'471'
p6209
aS'535'
p6210
aa(lp6211
I1311
aS'266'
p6212
aS'344'
p6213
aa(lp6214
I1312
aS'187'
p6215
aS'256'
p6216
aa(lp6217
I1313
aS'357'
p6218
aS'409'
p6219
aa(lp6220
I1874
aS'59'
p6221
aS'154'
p6222
aa(lp6223
I2150
aS'3'
aS'159'
p6224
aa(lp6225
I2150
aS'457'
p6226
aS'618'
p6227
aa(lp6228
I2154
aS'984'
p6229
aS'1050'
p6230
aa(lp6231
I2673
aS'79'
p6232
aS'112'
p6233
aa(lp6234
I3290
aS'12'
p6235
aS'72'
p6236
aa(lp6237
I3356
aS'26'
p6238
aS'222'
p6239
aa(lp6240
I3506
aS'393'
p6241
aS'461'
p6242
aa(lp6243
I4338
aS'1028'
p6244
aS'1102'
p6245
aa(lp6246
I4339
aS'597'
p6247
aS'1026'
p6248
aa(lp6249
I4340
aS'18'
p6250
aS'379'
p6251
aa(lp6252
I4342
aS'142'
p6253
aS'334'
p6254
aa(lp6255
I5408
aS'620'
p6256
aS'761'
p6257
aa(lp6258
I5409
aS'768'
p6259
aS'953'
p6260
aa(lp6261
I5415
aS'1064'
p6262
aS'1436'
p6263
aasS'4OIQ'
p6264
(lp6265
(lp6266
I529
aS'471'
p6267
aS'535'
p6268
aa(lp6269
I1311
aS'266'
p6270
aS'344'
p6271
aa(lp6272
I1312
aS'187'
p6273
aS'256'
p6274
aa(lp6275
I1313
aS'357'
p6276
aS'409'
p6277
aa(lp6278
I1874
aS'59'
p6279
aS'154'
p6280
aa(lp6281
I2150
aS'3'
aS'159'
p6282
aa(lp6283
I2150
aS'457'
p6284
aS'618'
p6285
aa(lp6286
I2154
aS'984'
p6287
aS'1050'
p6288
aa(lp6289
I2673
aS'79'
p6290
aS'112'
p6291
aa(lp6292
I3290
aS'12'
p6293
aS'72'
p6294
aa(lp6295
I3356
aS'26'
p6296
aS'222'
p6297
aa(lp6298
I3506
aS'393'
p6299
aS'461'
p6300
aa(lp6301
I4338
aS'1028'
p6302
aS'1102'
p6303
aa(lp6304
I4339
aS'597'
p6305
aS'1026'
p6306
aa(lp6307
I4340
aS'18'
p6308
aS'379'
p6309
aa(lp6310
I4342
aS'142'
p6311
aS'334'
p6312
aa(lp6313
I5408
aS'620'
p6314
aS'761'
p6315
aa(lp6316
I5409
aS'768'
p6317
aS'953'
p6318
aa(lp6319
I5415
aS'1064'
p6320
aS'1436'
p6321
aasS'4OIR'
p6322
(lp6323
(lp6324
I529
aS'471'
p6325
aS'535'
p6326
aa(lp6327
I1311
aS'266'
p6328
aS'344'
p6329
aa(lp6330
I1312
aS'187'
p6331
aS'256'
p6332
aa(lp6333
I1313
aS'357'
p6334
aS'409'
p6335
aa(lp6336
I1874
aS'59'
p6337
aS'154'
p6338
aa(lp6339
I2150
aS'3'
aS'159'
p6340
aa(lp6341
I2150
aS'457'
p6342
aS'618'
p6343
aa(lp6344
I2154
aS'984'
p6345
aS'1050'
p6346
aa(lp6347
I2673
aS'79'
p6348
aS'112'
p6349
aa(lp6350
I3290
aS'12'
p6351
aS'72'
p6352
aa(lp6353
I3356
aS'26'
p6354
aS'222'
p6355
aa(lp6356
I3506
aS'393'
p6357
aS'461'
p6358
aa(lp6359
I4338
aS'1028'
p6360
aS'1102'
p6361
aa(lp6362
I4339
aS'597'
p6363
aS'1026'
p6364
aa(lp6365
I4340
aS'18'
p6366
aS'379'
p6367
aa(lp6368
I4342
aS'142'
p6369
aS'334'
p6370
aa(lp6371
I5408
aS'620'
p6372
aS'761'
p6373
aa(lp6374
I5409
aS'768'
p6375
aS'953'
p6376
aa(lp6377
I5415
aS'1064'
p6378
aS'1436'
p6379
aasS'4WQS'
p6380
(lp6381
(lp6382
I529
aS'471'
p6383
aS'535'
p6384
aa(lp6385
I1874
aS'59'
p6386
aS'154'
p6387
aa(lp6388
I2150
aS'2'
aS'159'
p6389
aa(lp6390
I2150
aS'457'
p6391
aS'618'
p6392
aa(lp6393
I2154
aS'984'
p6394
aS'1050'
p6395
aa(lp6396
I3290
aS'12'
p6397
aS'72'
p6398
aa(lp6399
I3356
aS'26'
p6400
aS'222'
p6401
aa(lp6402
I3506
aS'393'
p6403
aS'461'
p6404
aa(lp6405
I4338
aS'1028'
p6406
aS'1102'
p6407
aa(lp6408
I4339
aS'597'
p6409
aS'1026'
p6410
aa(lp6411
I4340
aS'18'
p6412
aS'379'
p6413
aa(lp6414
I4342
aS'142'
p6415
aS'334'
p6416
aa(lp6417
I5408
aS'620'
p6418
aS'761'
p6419
aa(lp6420
I5409
aS'768'
p6421
aS'953'
p6422
aa(lp6423
I5415
aS'1064'
p6424
aS'1436'
p6425
aasS'1Y77'
p6426
(lp6427
(lp6428
I410
aS'9'
aS'79'
p6429
aa(lp6430
I1243
aS'4'
aS'40'
p6431
aa(lp6432
I1560
aS'29'
p6433
aS'60'
p6434
aa(lp6435
I1780
aS'7'
aS'146'
p6436
aa(lp6437
I1874
aS'49'
p6438
aS'170'
p6439
aa(lp6440
I2025
aS'74'
p6441
aS'111'
p6442
aa(lp6443
I2150
aS'12'
p6444
aS'340'
p6445
aa(lp6446
I2154
aS'695'
p6447
aS'800'
p6448
aa(lp6449
I2534
aS'142'
p6450
aS'214'
p6451
aa(lp6452
I2536
aS'6'
aS'99'
p6453
aa(lp6454
I2559
aS'31'
p6455
aS'102'
p6456
aa(lp6457
I2833
aS'80'
p6458
aS'157'
p6459
aa(lp6460
I3290
aS'80'
p6461
aS'132'
p6462
aa(lp6463
I3356
aS'20'
p6464
aS'254'
p6465
aa(lp6466
I3357
aS'1'
aS'59'
p6467
aa(lp6468
I3506
aS'481'
p6469
aS'543'
p6470
aa(lp6471
I4336
aS'681'
p6472
aS'745'
p6473
aa(lp6474
I4337
aS'580'
p6475
aS'641'
p6476
aa(lp6477
I4338
aS'1126'
p6478
aS'1218'
p6479
aa(lp6480
I4339
aS'753'
p6481
aS'1124'
p6482
aa(lp6483
I4340
aS'42'
p6484
aS'455'
p6485
aa(lp6486
I4342
aS'220'
p6487
aS'407'
p6488
aa(lp6489
I5408
aS'342'
p6490
aS'507'
p6491
aa(lp6492
I5409
aS'510'
p6493
aS'669'
p6494
aa(lp6495
I5412
aS'873'
p6496
aS'1056'
p6497
aa(lp6498
I5413
aS'1141'
p6499
aS'1274'
p6500
aa(lp6501
I5415
aS'807'
p6502
aS'1398'
p6503
aa(lp6504
I5642
aS'49'
p6505
aS'217'
p6506
aasS'2CW0'
p6507
(lp6508
(lp6509
I529
aS'471'
p6510
aS'535'
p6511
aa(lp6512
I1311
aS'266'
p6513
aS'344'
p6514
aa(lp6515
I1312
aS'187'
p6516
aS'256'
p6517
aa(lp6518
I1313
aS'357'
p6519
aS'409'
p6520
aa(lp6521
I1874
aS'59'
p6522
aS'154'
p6523
aa(lp6524
I2150
aS'2'
aS'159'
p6525
aa(lp6526
I2150
aS'457'
p6527
aS'618'
p6528
aa(lp6529
I2154
aS'984'
p6530
aS'1050'
p6531
aa(lp6532
I2673
aS'79'
p6533
aS'112'
p6534
aa(lp6535
I3290
aS'12'
p6536
aS'39'
p6537
aa(lp6538
I3356
aS'26'
p6539
aS'222'
p6540
aa(lp6541
I3506
aS'393'
p6542
aS'461'
p6543
aa(lp6544
I4338
aS'1028'
p6545
aS'1102'
p6546
aa(lp6547
I4339
aS'597'
p6548
aS'1026'
p6549
aa(lp6550
I4340
aS'18'
p6551
aS'379'
p6552
aa(lp6553
I4342
aS'142'
p6554
aS'334'
p6555
aa(lp6556
I5408
aS'620'
p6557
aS'761'
p6558
aa(lp6559
I5409
aS'768'
p6560
aS'953'
p6561
aa(lp6562
I5415
aS'1064'
p6563
aS'1436'
p6564
aasS'3H3V'
p6565
(lp6566
(lp6567
I410
aS'9'
aS'79'
p6568
aa(lp6569
I1243
aS'4'
aS'40'
p6570
aa(lp6571
I1560
aS'29'
p6572
aS'60'
p6573
aa(lp6574
I1780
aS'7'
aS'146'
p6575
aa(lp6576
I1874
aS'49'
p6577
aS'170'
p6578
aa(lp6579
I2025
aS'74'
p6580
aS'111'
p6581
aa(lp6582
I2150
aS'12'
p6583
aS'340'
p6584
aa(lp6585
I2154
aS'695'
p6586
aS'800'
p6587
aa(lp6588
I2534
aS'142'
p6589
aS'214'
p6590
aa(lp6591
I2536
aS'6'
aS'99'
p6592
aa(lp6593
I2559
aS'31'
p6594
aS'102'
p6595
aa(lp6596
I2833
aS'80'
p6597
aS'157'
p6598
aa(lp6599
I3290
aS'80'
p6600
aS'132'
p6601
aa(lp6602
I3356
aS'20'
p6603
aS'254'
p6604
aa(lp6605
I3357
aS'1'
aS'59'
p6606
aa(lp6607
I3506
aS'481'
p6608
aS'543'
p6609
aa(lp6610
I4336
aS'681'
p6611
aS'745'
p6612
aa(lp6613
I4337
aS'580'
p6614
aS'641'
p6615
aa(lp6616
I4338
aS'1126'
p6617
aS'1218'
p6618
aa(lp6619
I4339
aS'753'
p6620
aS'1124'
p6621
aa(lp6622
I4340
aS'42'
p6623
aS'455'
p6624
aa(lp6625
I4342
aS'220'
p6626
aS'407'
p6627
aa(lp6628
I5408
aS'342'
p6629
aS'507'
p6630
aa(lp6631
I5409
aS'510'
p6632
aS'669'
p6633
aa(lp6634
I5412
aS'873'
p6635
aS'1056'
p6636
aa(lp6637
I5413
aS'1141'
p6638
aS'1274'
p6639
aa(lp6640
I5415
aS'807'
p6641
aS'1398'
p6642
aa(lp6643
I5642
aS'49'
p6644
aS'217'
p6645
aasS'1SFO'
p6646
(lp6647
(lp6648
I1243
aS'4'
aS'40'
p6649
aa(lp6650
I1560
aS'29'
p6651
aS'60'
p6652
aa(lp6653
I1780
aS'7'
aS'146'
p6654
aa(lp6655
I1874
aS'49'
p6656
aS'170'
p6657
aa(lp6658
I2025
aS'74'
p6659
aS'111'
p6660
aa(lp6661
I2150
aS'12'
p6662
aS'340'
p6663
aa(lp6664
I2154
aS'695'
p6665
aS'800'
p6666
aa(lp6667
I2534
aS'142'
p6668
aS'214'
p6669
aa(lp6670
I2536
aS'6'
aS'99'
p6671
aa(lp6672
I2559
aS'31'
p6673
aS'102'
p6674
aa(lp6675
I3290
aS'80'
p6676
aS'132'
p6677
aa(lp6678
I3356
aS'20'
p6679
aS'254'
p6680
aa(lp6681
I3357
aS'1'
aS'59'
p6682
aa(lp6683
I3506
aS'481'
p6684
aS'543'
p6685
aa(lp6686
I4336
aS'681'
p6687
aS'745'
p6688
aa(lp6689
I4337
aS'580'
p6690
aS'641'
p6691
aa(lp6692
I4338
aS'1126'
p6693
aS'1218'
p6694
aa(lp6695
I4339
aS'753'
p6696
aS'1124'
p6697
aa(lp6698
I4340
aS'42'
p6699
aS'455'
p6700
aa(lp6701
I4342
aS'220'
p6702
aS'407'
p6703
aa(lp6704
I5408
aS'342'
p6705
aS'507'
p6706
aa(lp6707
I5409
aS'510'
p6708
aS'669'
p6709
aa(lp6710
I5412
aS'873'
p6711
aS'1056'
p6712
aa(lp6713
I5413
aS'1141'
p6714
aS'1274'
p6715
aa(lp6716
I5415
aS'807'
p6717
aS'1398'
p6718
aasS'4OIN'
p6719
(lp6720
(lp6721
I529
aS'471'
p6722
aS'535'
p6723
aa(lp6724
I1311
aS'266'
p6725
aS'344'
p6726
aa(lp6727
I1312
aS'187'
p6728
aS'256'
p6729
aa(lp6730
I1313
aS'357'
p6731
aS'409'
p6732
aa(lp6733
I1874
aS'59'
p6734
aS'154'
p6735
aa(lp6736
I2150
aS'3'
aS'159'
p6737
aa(lp6738
I2150
aS'457'
p6739
aS'618'
p6740
aa(lp6741
I2154
aS'984'
p6742
aS'1050'
p6743
aa(lp6744
I2673
aS'79'
p6745
aS'112'
p6746
aa(lp6747
I3290
aS'12'
p6748
aS'72'
p6749
aa(lp6750
I3356
aS'26'
p6751
aS'222'
p6752
aa(lp6753
I3506
aS'393'
p6754
aS'461'
p6755
aa(lp6756
I4338
aS'1028'
p6757
aS'1102'
p6758
aa(lp6759
I4339
aS'597'
p6760
aS'1026'
p6761
aa(lp6762
I4340
aS'18'
p6763
aS'379'
p6764
aa(lp6765
I4342
aS'142'
p6766
aS'334'
p6767
aa(lp6768
I5408
aS'620'
p6769
aS'761'
p6770
aa(lp6771
I5409
aS'768'
p6772
aS'953'
p6773
aa(lp6774
I5415
aS'1064'
p6775
aS'1436'
p6776
aasS'4OIO'
p6777
(lp6778
(lp6779
I529
aS'471'
p6780
aS'535'
p6781
aa(lp6782
I1311
aS'266'
p6783
aS'344'
p6784
aa(lp6785
I1312
aS'187'
p6786
aS'256'
p6787
aa(lp6788
I1313
aS'357'
p6789
aS'409'
p6790
aa(lp6791
I1874
aS'59'
p6792
aS'154'
p6793
aa(lp6794
I2150
aS'3'
aS'159'
p6795
aa(lp6796
I2150
aS'457'
p6797
aS'618'
p6798
aa(lp6799
I2154
aS'984'
p6800
aS'1050'
p6801
aa(lp6802
I2673
aS'79'
p6803
aS'112'
p6804
aa(lp6805
I3290
aS'12'
p6806
aS'72'
p6807
aa(lp6808
I3356
aS'26'
p6809
aS'222'
p6810
aa(lp6811
I3506
aS'393'
p6812
aS'461'
p6813
aa(lp6814
I4338
aS'1028'
p6815
aS'1102'
p6816
aa(lp6817
I4339
aS'597'
p6818
aS'1026'
p6819
aa(lp6820
I4340
aS'18'
p6821
aS'379'
p6822
aa(lp6823
I4342
aS'142'
p6824
aS'334'
p6825
aa(lp6826
I5408
aS'620'
p6827
aS'761'
p6828
aa(lp6829
I5409
aS'768'
p6830
aS'953'
p6831
aa(lp6832
I5415
aS'1064'
p6833
aS'1436'
p6834
aasS'2R93'
p6835
(lp6836
(lp6837
I410
aS'9'
aS'79'
p6838
aa(lp6839
I1243
aS'4'
aS'40'
p6840
aa(lp6841
I1560
aS'29'
p6842
aS'60'
p6843
aa(lp6844
I1780
aS'7'
aS'146'
p6845
aa(lp6846
I1874
aS'49'
p6847
aS'170'
p6848
aa(lp6849
I2025
aS'74'
p6850
aS'111'
p6851
aa(lp6852
I2150
aS'12'
p6853
aS'340'
p6854
aa(lp6855
I2154
aS'695'
p6856
aS'800'
p6857
aa(lp6858
I2534
aS'142'
p6859
aS'214'
p6860
aa(lp6861
I2536
aS'6'
aS'99'
p6862
aa(lp6863
I2559
aS'31'
p6864
aS'102'
p6865
aa(lp6866
I2833
aS'80'
p6867
aS'157'
p6868
aa(lp6869
I3290
aS'80'
p6870
aS'132'
p6871
aa(lp6872
I3356
aS'20'
p6873
aS'254'
p6874
aa(lp6875
I3357
aS'1'
aS'59'
p6876
aa(lp6877
I3506
aS'481'
p6878
aS'543'
p6879
aa(lp6880
I4336
aS'681'
p6881
aS'745'
p6882
aa(lp6883
I4337
aS'580'
p6884
aS'641'
p6885
aa(lp6886
I4338
aS'1126'
p6887
aS'1218'
p6888
aa(lp6889
I4339
aS'753'
p6890
aS'1124'
p6891
aa(lp6892
I4340
aS'42'
p6893
aS'455'
p6894
aa(lp6895
I4342
aS'220'
p6896
aS'407'
p6897
aa(lp6898
I5408
aS'342'
p6899
aS'507'
p6900
aa(lp6901
I5409
aS'510'
p6902
aS'669'
p6903
aa(lp6904
I5412
aS'873'
p6905
aS'1056'
p6906
aa(lp6907
I5413
aS'1141'
p6908
aS'1274'
p6909
aa(lp6910
I5415
aS'807'
p6911
aS'1398'
p6912
aa(lp6913
I5642
aS'49'
p6914
aS'217'
p6915
aasS'4S20'
p6916
(lp6917
(lp6918
I529
aS'591'
p6919
aS'656'
p6920
aa(lp6921
I1874
aS'60'
p6922
aS'156'
p6923
aa(lp6924
I2150
aS'15'
p6925
aS'342'
p6926
aa(lp6927
I2154
aS'674'
p6928
aS'763'
p6929
aa(lp6930
I3290
aS'10'
p6931
aS'59'
p6932
aa(lp6933
I3356
aS'29'
p6934
aS'228'
p6935
aa(lp6936
I3506
aS'513'
p6937
aS'580'
p6938
aa(lp6939
I3642
aS'493'
p6940
aS'601'
p6941
aa(lp6942
I4338
aS'1266'
p6943
aS'1340'
p6944
aa(lp6945
I4339
aS'717'
p6946
aS'1264'
p6947
aa(lp6948
I4340
aS'26'
p6949
aS'500'
p6950
aa(lp6951
I4342
aS'151'
p6952
aS'225'
p6953
aa(lp6954
I4342
aS'345'
p6955
aS'454'
p6956
aa(lp6957
I4478
aS'605'
p6958
aS'962'
p6959
aa(lp6960
I5408
aS'344'
p6961
aS'393'
p6962
aa(lp6963
I5408
aS'392'
p6964
aS'485'
p6965
aa(lp6966
I5409
aS'489'
p6967
aS'644'
p6968
aa(lp6969
I5415
aS'766'
p6970
aS'1321'
p6971
aa(lp6972
I5940
aS'173'
p6973
aS'443'
p6974
aasS'2E2I'
p6975
(lp6976
(lp6977
I1243
aS'4'
aS'40'
p6978
aa(lp6979
I1560
aS'29'
p6980
aS'60'
p6981
aa(lp6982
I1780
aS'7'
aS'146'
p6983
aa(lp6984
I1874
aS'49'
p6985
aS'170'
p6986
aa(lp6987
I2025
aS'74'
p6988
aS'111'
p6989
aa(lp6990
I2150
aS'12'
p6991
aS'340'
p6992
aa(lp6993
I2154
aS'695'
p6994
aS'800'
p6995
aa(lp6996
I2534
aS'142'
p6997
aS'214'
p6998
aa(lp6999
I2536
aS'6'
aS'99'
p7000
aa(lp7001
I2559
aS'31'
p7002
aS'102'
p7003
aa(lp7004
I3290
aS'80'
p7005
aS'132'
p7006
aa(lp7007
I3356
aS'20'
p7008
aS'254'
p7009
aa(lp7010
I3357
aS'1'
aS'59'
p7011
aa(lp7012
I3506
aS'481'
p7013
aS'543'
p7014
aa(lp7015
I4336
aS'681'
p7016
aS'745'
p7017
aa(lp7018
I4337
aS'580'
p7019
aS'641'
p7020
aa(lp7021
I4338
aS'1126'
p7022
aS'1218'
p7023
aa(lp7024
I4339
aS'753'
p7025
aS'1124'
p7026
aa(lp7027
I4340
aS'42'
p7028
aS'455'
p7029
aa(lp7030
I4342
aS'220'
p7031
aS'407'
p7032
aa(lp7033
I5408
aS'342'
p7034
aS'507'
p7035
aa(lp7036
I5409
aS'510'
p7037
aS'669'
p7038
aa(lp7039
I5412
aS'873'
p7040
aS'1056'
p7041
aa(lp7042
I5413
aS'1141'
p7043
aS'1274'
p7044
aa(lp7045
I5415
aS'807'
p7046
aS'1398'
p7047
aasS'2E2H'
p7048
(lp7049
(lp7050
I1243
aS'4'
aS'40'
p7051
aa(lp7052
I1560
aS'29'
p7053
aS'60'
p7054
aa(lp7055
I1780
aS'7'
aS'146'
p7056
aa(lp7057
I1874
aS'49'
p7058
aS'170'
p7059
aa(lp7060
I2025
aS'74'
p7061
aS'111'
p7062
aa(lp7063
I2150
aS'12'
p7064
aS'340'
p7065
aa(lp7066
I2154
aS'695'
p7067
aS'800'
p7068
aa(lp7069
I2534
aS'142'
p7070
aS'214'
p7071
aa(lp7072
I2536
aS'6'
aS'99'
p7073
aa(lp7074
I2559
aS'31'
p7075
aS'102'
p7076
aa(lp7077
I3290
aS'80'
p7078
aS'132'
p7079
aa(lp7080
I3356
aS'20'
p7081
aS'254'
p7082
aa(lp7083
I3357
aS'1'
aS'59'
p7084
aa(lp7085
I3506
aS'481'
p7086
aS'543'
p7087
aa(lp7088
I4336
aS'681'
p7089
aS'745'
p7090
aa(lp7091
I4337
aS'580'
p7092
aS'641'
p7093
aa(lp7094
I4338
aS'1126'
p7095
aS'1218'
p7096
aa(lp7097
I4339
aS'753'
p7098
aS'1124'
p7099
aa(lp7100
I4340
aS'42'
p7101
aS'455'
p7102
aa(lp7103
I4342
aS'220'
p7104
aS'407'
p7105
aa(lp7106
I5408
aS'342'
p7107
aS'507'
p7108
aa(lp7109
I5409
aS'510'
p7110
aS'669'
p7111
aa(lp7112
I5412
aS'873'
p7113
aS'1056'
p7114
aa(lp7115
I5413
aS'1141'
p7116
aS'1274'
p7117
aa(lp7118
I5415
aS'807'
p7119
aS'1398'
p7120
aasS'3H0G'
p7121
(lp7122
(lp7123
I410
aS'10'
p7124
aS'80'
p7125
aa(lp7126
I1243
aS'4'
aS'36'
p7127
aa(lp7128
I1560
aS'22'
p7129
aS'53'
p7130
aa(lp7131
I1780
aS'8'
aS'125'
p7132
aa(lp7133
I1874
aS'48'
p7134
aS'172'
p7135
aa(lp7136
I2025
aS'74'
p7137
aS'110'
p7138
aa(lp7139
I2150
aS'14'
p7140
aS'346'
p7141
aa(lp7142
I2154
aS'701'
p7143
aS'806'
p7144
aa(lp7145
I2534
aS'137'
p7146
aS'209'
p7147
aa(lp7148
I2536
aS'6'
aS'93'
p7149
aa(lp7150
I2559
aS'31'
p7151
aS'101'
p7152
aa(lp7153
I2833
aS'82'
p7154
aS'158'
p7155
aa(lp7156
I3290
aS'70'
p7157
aS'122'
p7158
aa(lp7159
I3356
aS'19'
p7160
aS'256'
p7161
aa(lp7162
I3357
aS'1'
aS'59'
p7163
aa(lp7164
I3506
aS'467'
p7165
aS'531'
p7166
aa(lp7167
I4336
aS'665'
p7168
aS'734'
p7169
aa(lp7170
I4337
aS'566'
p7171
aS'627'
p7172
aa(lp7173
I4338
aS'1115'
p7174
aS'1206'
p7175
aa(lp7176
I4339
aS'741'
p7177
aS'1113'
p7178
aa(lp7179
I4340
aS'30'
p7180
aS'441'
p7181
aa(lp7182
I4342
aS'205'
p7183
aS'393'
p7184
aa(lp7185
I5408
aS'348'
p7186
aS'513'
p7187
aa(lp7188
I5409
aS'516'
p7189
aS'675'
p7190
aa(lp7191
I5412
aS'879'
p7192
aS'1059'
p7193
aa(lp7194
I5413
aS'1144'
p7195
aS'1280'
p7196
aa(lp7197
I5415
aS'813'
p7198
aS'1404'
p7199
aa(lp7200
I5642
aS'24'
p7201
aS'130'
p7202
aasS'3WOD'
p7203
(lp7204
(lp7205
I529
aS'471'
p7206
aS'535'
p7207
aa(lp7208
I1311
aS'312'
p7209
aS'344'
p7210
aa(lp7211
I1312
aS'187'
p7212
aS'255'
p7213
aa(lp7214
I1313
aS'357'
p7215
aS'409'
p7216
aa(lp7217
I1874
aS'59'
p7218
aS'154'
p7219
aa(lp7220
I2150
aS'2'
aS'159'
p7221
aa(lp7222
I2150
aS'457'
p7223
aS'618'
p7224
aa(lp7225
I2154
aS'984'
p7226
aS'1050'
p7227
aa(lp7228
I2673
aS'79'
p7229
aS'112'
p7230
aa(lp7231
I3290
aS'12'
p7232
aS'39'
p7233
aa(lp7234
I3356
aS'26'
p7235
aS'222'
p7236
aa(lp7237
I3506
aS'393'
p7238
aS'461'
p7239
aa(lp7240
I4338
aS'1028'
p7241
aS'1102'
p7242
aa(lp7243
I4339
aS'597'
p7244
aS'1026'
p7245
aa(lp7246
I4340
aS'18'
p7247
aS'379'
p7248
aa(lp7249
I4342
aS'142'
p7250
aS'334'
p7251
aa(lp7252
I5408
aS'620'
p7253
aS'761'
p7254
aa(lp7255
I5409
aS'768'
p7256
aS'953'
p7257
aa(lp7258
I5415
aS'1064'
p7259
aS'1436'
p7260
aasS'3M3Y'
p7261
(lp7262
(lp7263
I1243
aS'4'
aS'40'
p7264
aa(lp7265
I1560
aS'29'
p7266
aS'60'
p7267
aa(lp7268
I1780
aS'7'
aS'146'
p7269
aa(lp7270
I1874
aS'49'
p7271
aS'170'
p7272
aa(lp7273
I2025
aS'74'
p7274
aS'111'
p7275
aa(lp7276
I2150
aS'12'
p7277
aS'340'
p7278
aa(lp7279
I2154
aS'695'
p7280
aS'800'
p7281
aa(lp7282
I2534
aS'142'
p7283
aS'214'
p7284
aa(lp7285
I2536
aS'6'
aS'99'
p7286
aa(lp7287
I2559
aS'31'
p7288
aS'102'
p7289
aa(lp7290
I3290
aS'80'
p7291
aS'132'
p7292
aa(lp7293
I3356
aS'20'
p7294
aS'254'
p7295
aa(lp7296
I3357
aS'1'
aS'59'
p7297
aa(lp7298
I3506
aS'481'
p7299
aS'543'
p7300
aa(lp7301
I4336
aS'681'
p7302
aS'745'
p7303
aa(lp7304
I4337
aS'580'
p7305
aS'641'
p7306
aa(lp7307
I4338
aS'1126'
p7308
aS'1218'
p7309
aa(lp7310
I4339
aS'753'
p7311
aS'1124'
p7312
aa(lp7313
I4340
aS'42'
p7314
aS'455'
p7315
aa(lp7316
I4342
aS'220'
p7317
aS'407'
p7318
aa(lp7319
I5408
aS'342'
p7320
aS'507'
p7321
aa(lp7322
I5409
aS'510'
p7323
aS'669'
p7324
aa(lp7325
I5412
aS'873'
p7326
aS'1056'
p7327
aa(lp7328
I5413
aS'1141'
p7329
aS'1274'
p7330
aa(lp7331
I5415
aS'807'
p7332
aS'1398'
p7333
aasS'3RZD'
p7334
(lp7335
(lp7336
I1243
aS'4'
aS'40'
p7337
aa(lp7338
I1560
aS'29'
p7339
aS'60'
p7340
aa(lp7341
I1780
aS'7'
aS'146'
p7342
aa(lp7343
I1874
aS'49'
p7344
aS'170'
p7345
aa(lp7346
I2025
aS'74'
p7347
aS'111'
p7348
aa(lp7349
I2150
aS'12'
p7350
aS'340'
p7351
aa(lp7352
I2154
aS'695'
p7353
aS'800'
p7354
aa(lp7355
I2534
aS'142'
p7356
aS'214'
p7357
aa(lp7358
I2536
aS'6'
aS'99'
p7359
aa(lp7360
I2559
aS'31'
p7361
aS'102'
p7362
aa(lp7363
I3290
aS'80'
p7364
aS'132'
p7365
aa(lp7366
I3356
aS'20'
p7367
aS'254'
p7368
aa(lp7369
I3357
aS'1'
aS'59'
p7370
aa(lp7371
I3506
aS'481'
p7372
aS'543'
p7373
aa(lp7374
I4336
aS'681'
p7375
aS'745'
p7376
aa(lp7377
I4337
aS'580'
p7378
aS'641'
p7379
aa(lp7380
I4338
aS'1126'
p7381
aS'1218'
p7382
aa(lp7383
I4339
aS'753'
p7384
aS'1124'
p7385
aa(lp7386
I4340
aS'42'
p7387
aS'455'
p7388
aa(lp7389
I4342
aS'220'
p7390
aS'407'
p7391
aa(lp7392
I5408
aS'342'
p7393
aS'507'
p7394
aa(lp7395
I5409
aS'510'
p7396
aS'669'
p7397
aa(lp7398
I5412
aS'873'
p7399
aS'1056'
p7400
aa(lp7401
I5413
aS'1141'
p7402
aS'1274'
p7403
aa(lp7404
I5415
aS'807'
p7405
aS'1398'
p7406
aasS'1NT9'
p7407
(lp7408
(lp7409
I410
aS'9'
aS'79'
p7410
aa(lp7411
I1243
aS'4'
aS'40'
p7412
aa(lp7413
I1560
aS'29'
p7414
aS'60'
p7415
aa(lp7416
I1780
aS'7'
aS'146'
p7417
aa(lp7418
I1874
aS'49'
p7419
aS'170'
p7420
aa(lp7421
I2025
aS'74'
p7422
aS'111'
p7423
aa(lp7424
I2150
aS'12'
p7425
aS'340'
p7426
aa(lp7427
I2154
aS'695'
p7428
aS'800'
p7429
aa(lp7430
I2534
aS'142'
p7431
aS'214'
p7432
aa(lp7433
I2536
aS'6'
aS'99'
p7434
aa(lp7435
I2559
aS'31'
p7436
aS'102'
p7437
aa(lp7438
I2833
aS'80'
p7439
aS'157'
p7440
aa(lp7441
I3290
aS'80'
p7442
aS'132'
p7443
aa(lp7444
I3356
aS'20'
p7445
aS'254'
p7446
aa(lp7447
I3357
aS'1'
aS'59'
p7448
aa(lp7449
I3506
aS'481'
p7450
aS'543'
p7451
aa(lp7452
I4336
aS'681'
p7453
aS'745'
p7454
aa(lp7455
I4337
aS'580'
p7456
aS'641'
p7457
aa(lp7458
I4338
aS'1128'
p7459
aS'1218'
p7460
aa(lp7461
I4339
aS'753'
p7462
aS'1119'
p7463
aa(lp7464
I4340
aS'42'
p7465
aS'455'
p7466
aa(lp7467
I4342
aS'220'
p7468
aS'407'
p7469
aa(lp7470
I5408
aS'342'
p7471
aS'507'
p7472
aa(lp7473
I5409
aS'510'
p7474
aS'669'
p7475
aa(lp7476
I5412
aS'873'
p7477
aS'1056'
p7478
aa(lp7479
I5413
aS'1141'
p7480
aS'1274'
p7481
aa(lp7482
I5415
aS'807'
p7483
aS'1398'
p7484
aa(lp7485
I5642
aS'140'
p7486
aS'217'
p7487
aasS'1IW7'
p7488
(lp7489
(lp7490
I529
aS'471'
p7491
aS'535'
p7492
aa(lp7493
I1311
aS'266'
p7494
aS'344'
p7495
aa(lp7496
I1312
aS'187'
p7497
aS'256'
p7498
aa(lp7499
I1313
aS'357'
p7500
aS'409'
p7501
aa(lp7502
I1874
aS'59'
p7503
aS'154'
p7504
aa(lp7505
I2150
aS'2'
aS'159'
p7506
aa(lp7507
I2150
aS'457'
p7508
aS'618'
p7509
aa(lp7510
I2154
aS'984'
p7511
aS'1050'
p7512
aa(lp7513
I2673
aS'79'
p7514
aS'112'
p7515
aa(lp7516
I3290
aS'12'
p7517
aS'39'
p7518
aa(lp7519
I3356
aS'26'
p7520
aS'222'
p7521
aa(lp7522
I3506
aS'393'
p7523
aS'461'
p7524
aa(lp7525
I4338
aS'1028'
p7526
aS'1102'
p7527
aa(lp7528
I4339
aS'597'
p7529
aS'1026'
p7530
aa(lp7531
I4340
aS'18'
p7532
aS'379'
p7533
aa(lp7534
I4342
aS'142'
p7535
aS'334'
p7536
aa(lp7537
I5408
aS'620'
p7538
aS'761'
p7539
aa(lp7540
I5409
aS'768'
p7541
aS'953'
p7542
aa(lp7543
I5415
aS'1064'
p7544
aS'1436'
p7545
aasS'3RZO'
p7546
(lp7547
(lp7548
I1243
aS'4'
aS'40'
p7549
aa(lp7550
I1560
aS'29'
p7551
aS'60'
p7552
aa(lp7553
I1780
aS'7'
aS'146'
p7554
aa(lp7555
I1874
aS'49'
p7556
aS'170'
p7557
aa(lp7558
I2025
aS'74'
p7559
aS'111'
p7560
aa(lp7561
I2150
aS'12'
p7562
aS'340'
p7563
aa(lp7564
I2154
aS'695'
p7565
aS'800'
p7566
aa(lp7567
I2534
aS'142'
p7568
aS'214'
p7569
aa(lp7570
I2536
aS'6'
aS'99'
p7571
aa(lp7572
I2559
aS'31'
p7573
aS'102'
p7574
aa(lp7575
I3290
aS'80'
p7576
aS'132'
p7577
aa(lp7578
I3356
aS'20'
p7579
aS'254'
p7580
aa(lp7581
I3357
aS'1'
aS'59'
p7582
aa(lp7583
I3506
aS'481'
p7584
aS'543'
p7585
aa(lp7586
I4336
aS'681'
p7587
aS'745'
p7588
aa(lp7589
I4337
aS'580'
p7590
aS'641'
p7591
aa(lp7592
I4338
aS'1126'
p7593
aS'1218'
p7594
aa(lp7595
I4339
aS'753'
p7596
aS'1124'
p7597
aa(lp7598
I4340
aS'42'
p7599
aS'455'
p7600
aa(lp7601
I4342
aS'220'
p7602
aS'407'
p7603
aa(lp7604
I5408
aS'342'
p7605
aS'507'
p7606
aa(lp7607
I5409
aS'510'
p7608
aS'669'
p7609
aa(lp7610
I5412
aS'873'
p7611
aS'1056'
p7612
aa(lp7613
I5413
aS'1141'
p7614
aS'1274'
p7615
aa(lp7616
I5415
aS'807'
p7617
aS'1398'
p7618
aasS'4MEX'
p7619
(lp7620
(lp7621
I529
aS'591'
p7622
aS'656'
p7623
aa(lp7624
I1311
aS'458'
p7625
aS'533'
p7626
aa(lp7627
I1312
aS'379'
p7628
aS'448'
p7629
aa(lp7630
I1313
aS'547'
p7631
aS'600'
p7632
aa(lp7633
I1874
aS'60'
p7634
aS'156'
p7635
aa(lp7636
I2150
aS'15'
p7637
aS'332'
p7638
aa(lp7639
I2154
aS'674'
p7640
aS'763'
p7641
aa(lp7642
I2673
aS'96'
p7643
aS'126'
p7644
aa(lp7645
I3219
aS'247'
p7646
aS'308'
p7647
aa(lp7648
I3290
aS'10'
p7649
aS'59'
p7650
aa(lp7651
I3356
aS'29'
p7652
aS'228'
p7653
aa(lp7654
I3506
aS'513'
p7655
aS'580'
p7656
aa(lp7657
I4338
aS'1266'
p7658
aS'1340'
p7659
aa(lp7660
I4339
aS'717'
p7661
aS'1264'
p7662
aa(lp7663
I4340
aS'26'
p7664
aS'500'
p7665
aa(lp7666
I4342
aS'151'
p7667
aS'225'
p7668
aa(lp7669
I4342
aS'340'
p7670
aS'454'
p7671
aa(lp7672
I4564
aS'137'
p7673
aS'348'
p7674
aa(lp7675
I5408
aS'345'
p7676
aS'393'
p7677
aa(lp7678
I5408
aS'392'
p7679
aS'485'
p7680
aa(lp7681
I5409
aS'489'
p7682
aS'644'
p7683
aa(lp7684
I5415
aS'766'
p7685
aS'1321'
p7686
aasS'5C4A'
p7687
(lp7688
(lp7689
I410
aS'9'
aS'79'
p7690
aa(lp7691
I1243
aS'5'
aS'41'
p7692
aa(lp7693
I1560
aS'55'
p7694
aS'70'
p7695
aa(lp7696
I1780
aS'7'
aS'134'
p7697
aa(lp7698
I1874
aS'52'
p7699
aS'173'
p7700
aa(lp7701
I2025
aS'75'
p7702
aS'112'
p7703
aa(lp7704
I2150
aS'13'
p7705
aS'341'
p7706
aa(lp7707
I2154
aS'696'
p7708
aS'801'
p7709
aa(lp7710
I2534
aS'143'
p7711
aS'214'
p7712
aa(lp7713
I2536
aS'7'
aS'100'
p7714
aa(lp7715
I2559
aS'31'
p7716
aS'102'
p7717
aa(lp7718
I2833
aS'80'
p7719
aS'157'
p7720
aa(lp7721
I3290
aS'148'
p7722
aS'154'
p7723
aa(lp7724
I3356
aS'23'
p7725
aS'257'
p7726
aa(lp7727
I3357
aS'1'
aS'59'
p7728
aa(lp7729
I3506
aS'500'
p7730
aS'562'
p7731
aa(lp7732
I4336
aS'700'
p7733
aS'764'
p7734
aa(lp7735
I4337
aS'599'
p7736
aS'660'
p7737
aa(lp7738
I4338
aS'1145'
p7739
aS'1181'
p7740
aa(lp7741
I4339
aS'772'
p7742
aS'1143'
p7743
aa(lp7744
I4340
aS'61'
p7745
aS'474'
p7746
aa(lp7747
I4342
aS'239'
p7748
aS'426'
p7749
aa(lp7750
I5408
aS'343'
p7751
aS'508'
p7752
aa(lp7753
I5409
aS'511'
p7754
aS'670'
p7755
aa(lp7756
I5412
aS'874'
p7757
aS'1057'
p7758
aa(lp7759
I5413
aS'1142'
p7760
aS'1275'
p7761
aa(lp7762
I5415
aS'808'
p7763
aS'1399'
p7764
aa(lp7765
I5642
aS'62'
p7766
aS'180'
p7767
aasS'2Y0S'
p7768
(lp7769
(lp7770
I410
aS'10'
p7771
aS'77'
p7772
aa(lp7773
I1770
aS'10'
p7774
aS'116'
p7775
aa(lp7776
I1874
aS'44'
p7777
aS'156'
p7778
aa(lp7779
I2150
aS'4'
aS'313'
p7780
aa(lp7781
I2154
aS'677'
p7782
aS'782'
p7783
aa(lp7784
I2534
aS'14'
p7785
aS'81'
p7786
aa(lp7787
I2559
aS'13'
p7788
aS'82'
p7789
aa(lp7790
I2833
aS'82'
p7791
aS'151'
p7792
aa(lp7793
I3290
aS'22'
p7794
aS'76'
p7795
aa(lp7796
I3356
aS'17'
p7797
aS'252'
p7798
aa(lp7799
I3357
aS'1'
aS'58'
p7800
aa(lp7801
I3506
aS'415'
p7802
aS'479'
p7803
aa(lp7804
I4336
aS'607'
p7805
aS'645'
p7806
aa(lp7807
I4337
aS'523'
p7808
aS'585'
p7809
aa(lp7810
I4338
aS'1027'
p7811
aS'1118'
p7812
aa(lp7813
I4339
aS'655'
p7814
aS'1025'
p7815
aa(lp7816
I4340
aS'25'
p7817
aS'394'
p7818
aa(lp7819
I4342
aS'172'
p7820
aS'347'
p7821
aa(lp7822
I4457
aS'39'
p7823
aS'59'
p7824
aa(lp7825
I5408
aS'315'
p7826
aS'482'
p7827
aa(lp7828
I5409
aS'485'
p7829
aS'651'
p7830
aa(lp7831
I5415
aS'789'
p7832
aS'855'
p7833
aa(lp7834
I5415
aS'27'
p7835
aS'340'
p7836
aa(lp7837
I5642
aS'28'
p7838
aS'92'
p7839
aasS'4YLO'
p7840
(lp7841
(lp7842
I529
aS'591'
p7843
aS'656'
p7844
aa(lp7845
I1311
aS'458'
p7846
aS'533'
p7847
aa(lp7848
I1312
aS'379'
p7849
aS'448'
p7850
aa(lp7851
I1313
aS'547'
p7852
aS'600'
p7853
aa(lp7854
I1874
aS'60'
p7855
aS'156'
p7856
aa(lp7857
I2150
aS'15'
p7858
aS'342'
p7859
aa(lp7860
I2154
aS'674'
p7861
aS'763'
p7862
aa(lp7863
I2671
aS'79'
p7864
aS'79'
p7865
aa(lp7866
I2673
aS'96'
p7867
aS'126'
p7868
aa(lp7869
I3290
aS'10'
p7870
aS'59'
p7871
aa(lp7872
I3356
aS'29'
p7873
aS'228'
p7874
aa(lp7875
I3506
aS'513'
p7876
aS'580'
p7877
aa(lp7878
I4338
aS'1266'
p7879
aS'1340'
p7880
aa(lp7881
I4339
aS'717'
p7882
aS'1264'
p7883
aa(lp7884
I4340
aS'26'
p7885
aS'500'
p7886
aa(lp7887
I4342
aS'151'
p7888
aS'225'
p7889
aa(lp7890
I4342
aS'340'
p7891
aS'454'
p7892
aa(lp7893
I4564
aS'137'
p7894
aS'348'
p7895
aa(lp7896
I5408
aS'344'
p7897
aS'393'
p7898
aa(lp7899
I5408
aS'392'
p7900
aS'485'
p7901
aa(lp7902
I5409
aS'489'
p7903
aS'644'
p7904
aa(lp7905
I5415
aS'766'
p7906
aS'1321'
p7907
aasS'4YLN'
p7908
(lp7909
(lp7910
I529
aS'591'
p7911
aS'656'
p7912
aa(lp7913
I1311
aS'458'
p7914
aS'533'
p7915
aa(lp7916
I1312
aS'379'
p7917
aS'448'
p7918
aa(lp7919
I1313
aS'547'
p7920
aS'600'
p7921
aa(lp7922
I1874
aS'60'
p7923
aS'156'
p7924
aa(lp7925
I2150
aS'15'
p7926
aS'342'
p7927
aa(lp7928
I2154
aS'674'
p7929
aS'763'
p7930
aa(lp7931
I2671
aS'79'
p7932
aS'79'
p7933
aa(lp7934
I2673
aS'96'
p7935
aS'126'
p7936
aa(lp7937
I3290
aS'10'
p7938
aS'59'
p7939
aa(lp7940
I3356
aS'29'
p7941
aS'228'
p7942
aa(lp7943
I3506
aS'513'
p7944
aS'580'
p7945
aa(lp7946
I4338
aS'1266'
p7947
aS'1340'
p7948
aa(lp7949
I4339
aS'717'
p7950
aS'1264'
p7951
aa(lp7952
I4340
aS'26'
p7953
aS'500'
p7954
aa(lp7955
I4342
aS'151'
p7956
aS'225'
p7957
aa(lp7958
I4342
aS'340'
p7959
aS'454'
p7960
aa(lp7961
I4564
aS'137'
p7962
aS'348'
p7963
aa(lp7964
I5408
aS'344'
p7965
aS'393'
p7966
aa(lp7967
I5408
aS'392'
p7968
aS'485'
p7969
aa(lp7970
I5409
aS'489'
p7971
aS'644'
p7972
aa(lp7973
I5415
aS'766'
p7974
aS'1321'
p7975
aasS'4BXZ'
p7976
(lp7977
(lp7978
I410
aS'9'
aS'79'
p7979
aa(lp7980
I1243
aS'4'
aS'40'
p7981
aa(lp7982
I1560
aS'29'
p7983
aS'60'
p7984
aa(lp7985
I1780
aS'7'
aS'146'
p7986
aa(lp7987
I1874
aS'49'
p7988
aS'170'
p7989
aa(lp7990
I2022
aS'244'
p7991
aS'357'
p7992
aa(lp7993
I2025
aS'74'
p7994
aS'111'
p7995
aa(lp7996
I2150
aS'12'
p7997
aS'340'
p7998
aa(lp7999
I2154
aS'695'
p8000
aS'800'
p8001
aa(lp8002
I2534
aS'142'
p8003
aS'214'
p8004
aa(lp8005
I2536
aS'6'
aS'99'
p8006
aa(lp8007
I2559
aS'31'
p8008
aS'102'
p8009
aa(lp8010
I2833
aS'80'
p8011
aS'157'
p8012
aa(lp8013
I3290
aS'80'
p8014
aS'132'
p8015
aa(lp8016
I3356
aS'20'
p8017
aS'254'
p8018
aa(lp8019
I3357
aS'1'
aS'59'
p8020
aa(lp8021
I3506
aS'481'
p8022
aS'543'
p8023
aa(lp8024
I4336
aS'681'
p8025
aS'745'
p8026
aa(lp8027
I4337
aS'580'
p8028
aS'641'
p8029
aa(lp8030
I4338
aS'1126'
p8031
aS'1218'
p8032
aa(lp8033
I4339
aS'753'
p8034
aS'1124'
p8035
aa(lp8036
I4340
aS'42'
p8037
aS'455'
p8038
aa(lp8039
I4342
aS'220'
p8040
aS'407'
p8041
aa(lp8042
I5408
aS'342'
p8043
aS'507'
p8044
aa(lp8045
I5409
aS'510'
p8046
aS'669'
p8047
aa(lp8048
I5412
aS'873'
p8049
aS'1056'
p8050
aa(lp8051
I5413
aS'1141'
p8052
aS'1274'
p8053
aa(lp8054
I5415
aS'807'
p8055
aS'1398'
p8056
aa(lp8057
I5642
aS'49'
p8058
aS'217'
p8059
aasS'4KMU'
p8060
(lp8061
(lp8062
I529
aS'591'
p8063
aS'656'
p8064
aa(lp8065
I1311
aS'458'
p8066
aS'533'
p8067
aa(lp8068
I1312
aS'379'
p8069
aS'448'
p8070
aa(lp8071
I1313
aS'547'
p8072
aS'600'
p8073
aa(lp8074
I1874
aS'60'
p8075
aS'156'
p8076
aa(lp8077
I2150
aS'15'
p8078
aS'333'
p8079
aa(lp8080
I2154
aS'674'
p8081
aS'763'
p8082
aa(lp8083
I2671
aS'6'
aS'64'
p8084
aa(lp8085
I2673
aS'96'
p8086
aS'126'
p8087
aa(lp8088
I3219
aS'245'
p8089
aS'308'
p8090
aa(lp8091
I3290
aS'10'
p8092
aS'59'
p8093
aa(lp8094
I3356
aS'29'
p8095
aS'228'
p8096
aa(lp8097
I3506
aS'513'
p8098
aS'580'
p8099
aa(lp8100
I4338
aS'1266'
p8101
aS'1340'
p8102
aa(lp8103
I4339
aS'717'
p8104
aS'1264'
p8105
aa(lp8106
I4340
aS'26'
p8107
aS'500'
p8108
aa(lp8109
I4342
aS'151'
p8110
aS'225'
p8111
aa(lp8112
I4342
aS'340'
p8113
aS'454'
p8114
aa(lp8115
I4564
aS'137'
p8116
aS'348'
p8117
aa(lp8118
I5408
aS'344'
p8119
aS'393'
p8120
aa(lp8121
I5408
aS'392'
p8122
aS'485'
p8123
aa(lp8124
I5409
aS'489'
p8125
aS'644'
p8126
aa(lp8127
I5415
aS'766'
p8128
aS'1321'
p8129
aasS'3FKI'
p8130
(lp8131
(lp8132
I410
aS'9'
aS'79'
p8133
aa(lp8134
I1243
aS'4'
aS'40'
p8135
aa(lp8136
I1560
aS'29'
p8137
aS'60'
p8138
aa(lp8139
I1780
aS'7'
aS'146'
p8140
aa(lp8141
I1874
aS'49'
p8142
aS'170'
p8143
aa(lp8144
I2025
aS'74'
p8145
aS'111'
p8146
aa(lp8147
I2150
aS'12'
p8148
aS'340'
p8149
aa(lp8150
I2154
aS'695'
p8151
aS'800'
p8152
aa(lp8153
I2534
aS'142'
p8154
aS'214'
p8155
aa(lp8156
I2536
aS'6'
aS'99'
p8157
aa(lp8158
I2559
aS'31'
p8159
aS'102'
p8160
aa(lp8161
I2833
aS'80'
p8162
aS'157'
p8163
aa(lp8164
I3290
aS'80'
p8165
aS'132'
p8166
aa(lp8167
I3356
aS'20'
p8168
aS'254'
p8169
aa(lp8170
I3357
aS'1'
aS'59'
p8171
aa(lp8172
I3506
aS'481'
p8173
aS'543'
p8174
aa(lp8175
I4336
aS'681'
p8176
aS'745'
p8177
aa(lp8178
I4337
aS'580'
p8179
aS'641'
p8180
aa(lp8181
I4338
aS'1126'
p8182
aS'1218'
p8183
aa(lp8184
I4339
aS'753'
p8185
aS'1124'
p8186
aa(lp8187
I4340
aS'42'
p8188
aS'455'
p8189
aa(lp8190
I4342
aS'220'
p8191
aS'407'
p8192
aa(lp8193
I5408
aS'342'
p8194
aS'507'
p8195
aa(lp8196
I5409
aS'510'
p8197
aS'669'
p8198
aa(lp8199
I5412
aS'873'
p8200
aS'1056'
p8201
aa(lp8202
I5413
aS'1141'
p8203
aS'1274'
p8204
aa(lp8205
I5415
aS'807'
p8206
aS'1398'
p8207
aa(lp8208
I5642
aS'49'
p8209
aS'217'
p8210
aasS'4A3K'
p8211
(lp8212
(lp8213
I410
aS'9'
aS'79'
p8214
aa(lp8215
I1243
aS'4'
aS'40'
p8216
aa(lp8217
I1560
aS'29'
p8218
aS'60'
p8219
aa(lp8220
I1780
aS'7'
aS'146'
p8221
aa(lp8222
I1874
aS'49'
p8223
aS'170'
p8224
aa(lp8225
I2025
aS'74'
p8226
aS'111'
p8227
aa(lp8228
I2150
aS'12'
p8229
aS'340'
p8230
aa(lp8231
I2154
aS'695'
p8232
aS'800'
p8233
aa(lp8234
I2534
aS'142'
p8235
aS'214'
p8236
aa(lp8237
I2536
aS'6'
aS'99'
p8238
aa(lp8239
I2559
aS'31'
p8240
aS'102'
p8241
aa(lp8242
I2833
aS'80'
p8243
aS'157'
p8244
aa(lp8245
I3290
aS'80'
p8246
aS'132'
p8247
aa(lp8248
I3356
aS'20'
p8249
aS'254'
p8250
aa(lp8251
I3357
aS'1'
aS'59'
p8252
aa(lp8253
I3506
aS'481'
p8254
aS'543'
p8255
aa(lp8256
I4336
aS'681'
p8257
aS'745'
p8258
aa(lp8259
I4337
aS'580'
p8260
aS'641'
p8261
aa(lp8262
I4338
aS'1126'
p8263
aS'1218'
p8264
aa(lp8265
I4339
aS'753'
p8266
aS'1124'
p8267
aa(lp8268
I4340
aS'42'
p8269
aS'455'
p8270
aa(lp8271
I4342
aS'220'
p8272
aS'407'
p8273
aa(lp8274
I5408
aS'342'
p8275
aS'507'
p8276
aa(lp8277
I5409
aS'510'
p8278
aS'669'
p8279
aa(lp8280
I5412
aS'873'
p8281
aS'1056'
p8282
aa(lp8283
I5413
aS'1141'
p8284
aS'1274'
p8285
aa(lp8286
I5415
aS'807'
p8287
aS'1398'
p8288
aa(lp8289
I5642
aS'49'
p8290
aS'217'
p8291
aasS'3J0K'
p8292
(lp8293
(lp8294
I410
aS'9'
aS'79'
p8295
aa(lp8296
I1243
aS'4'
aS'40'
p8297
aa(lp8298
I1560
aS'29'
p8299
aS'60'
p8300
aa(lp8301
I1780
aS'7'
aS'146'
p8302
aa(lp8303
I1874
aS'49'
p8304
aS'170'
p8305
aa(lp8306
I2025
aS'74'
p8307
aS'111'
p8308
aa(lp8309
I2150
aS'12'
p8310
aS'340'
p8311
aa(lp8312
I2154
aS'695'
p8313
aS'800'
p8314
aa(lp8315
I2534
aS'142'
p8316
aS'214'
p8317
aa(lp8318
I2536
aS'6'
aS'99'
p8319
aa(lp8320
I2559
aS'31'
p8321
aS'102'
p8322
aa(lp8323
I2833
aS'80'
p8324
aS'157'
p8325
aa(lp8326
I3290
aS'80'
p8327
aS'132'
p8328
aa(lp8329
I3356
aS'20'
p8330
aS'254'
p8331
aa(lp8332
I3357
aS'1'
aS'59'
p8333
aa(lp8334
I3506
aS'481'
p8335
aS'543'
p8336
aa(lp8337
I4336
aS'681'
p8338
aS'745'
p8339
aa(lp8340
I4337
aS'580'
p8341
aS'641'
p8342
aa(lp8343
I4338
aS'1126'
p8344
aS'1218'
p8345
aa(lp8346
I4339
aS'753'
p8347
aS'1124'
p8348
aa(lp8349
I4340
aS'42'
p8350
aS'455'
p8351
aa(lp8352
I4342
aS'220'
p8353
aS'407'
p8354
aa(lp8355
I5408
aS'342'
p8356
aS'507'
p8357
aa(lp8358
I5409
aS'510'
p8359
aS'669'
p8360
aa(lp8361
I5412
aS'873'
p8362
aS'1056'
p8363
aa(lp8364
I5413
aS'1141'
p8365
aS'1274'
p8366
aa(lp8367
I5415
aS'807'
p8368
aS'1398'
p8369
aa(lp8370
I5642
aS'49'
p8371
aS'217'
p8372
aasS'3GTJ'
p8373
(lp8374
(lp8375
I1243
aS'4'
aS'40'
p8376
aa(lp8377
I1560
aS'29'
p8378
aS'60'
p8379
aa(lp8380
I1780
aS'7'
aS'146'
p8381
aa(lp8382
I1874
aS'49'
p8383
aS'170'
p8384
aa(lp8385
I2025
aS'74'
p8386
aS'111'
p8387
aa(lp8388
I2150
aS'12'
p8389
aS'340'
p8390
aa(lp8391
I2154
aS'695'
p8392
aS'800'
p8393
aa(lp8394
I2534
aS'142'
p8395
aS'214'
p8396
aa(lp8397
I2536
aS'6'
aS'99'
p8398
aa(lp8399
I2559
aS'31'
p8400
aS'102'
p8401
aa(lp8402
I3290
aS'80'
p8403
aS'132'
p8404
aa(lp8405
I3356
aS'20'
p8406
aS'254'
p8407
aa(lp8408
I3357
aS'1'
aS'59'
p8409
aa(lp8410
I3506
aS'481'
p8411
aS'543'
p8412
aa(lp8413
I4336
aS'681'
p8414
aS'745'
p8415
aa(lp8416
I4337
aS'580'
p8417
aS'641'
p8418
aa(lp8419
I4338
aS'1126'
p8420
aS'1218'
p8421
aa(lp8422
I4339
aS'753'
p8423
aS'1124'
p8424
aa(lp8425
I4340
aS'42'
p8426
aS'455'
p8427
aa(lp8428
I4342
aS'220'
p8429
aS'407'
p8430
aa(lp8431
I5408
aS'342'
p8432
aS'507'
p8433
aa(lp8434
I5409
aS'510'
p8435
aS'669'
p8436
aa(lp8437
I5412
aS'873'
p8438
aS'1056'
p8439
aa(lp8440
I5413
aS'1141'
p8441
aS'1274'
p8442
aa(lp8443
I5415
aS'807'
p8444
aS'1398'
p8445
aasS'2BE5'
p8446
(lp8447
(lp8448
I529
aS'471'
p8449
aS'535'
p8450
aa(lp8451
I1311
aS'266'
p8452
aS'344'
p8453
aa(lp8454
I1312
aS'187'
p8455
aS'256'
p8456
aa(lp8457
I1313
aS'357'
p8458
aS'409'
p8459
aa(lp8460
I1874
aS'59'
p8461
aS'154'
p8462
aa(lp8463
I2150
aS'2'
aS'159'
p8464
aa(lp8465
I2150
aS'457'
p8466
aS'618'
p8467
aa(lp8468
I2154
aS'984'
p8469
aS'1050'
p8470
aa(lp8471
I2673
aS'79'
p8472
aS'112'
p8473
aa(lp8474
I3290
aS'12'
p8475
aS'39'
p8476
aa(lp8477
I3356
aS'26'
p8478
aS'222'
p8479
aa(lp8480
I3506
aS'393'
p8481
aS'461'
p8482
aa(lp8483
I4338
aS'1028'
p8484
aS'1102'
p8485
aa(lp8486
I4339
aS'597'
p8487
aS'1026'
p8488
aa(lp8489
I4340
aS'18'
p8490
aS'379'
p8491
aa(lp8492
I4342
aS'142'
p8493
aS'334'
p8494
aa(lp8495
I5408
aS'620'
p8496
aS'761'
p8497
aa(lp8498
I5409
aS'768'
p8499
aS'953'
p8500
aa(lp8501
I5415
aS'1064'
p8502
aS'1436'
p8503
aasS'2NVZ'
p8504
(lp8505
(lp8506
I1243
aS'4'
aS'40'
p8507
aa(lp8508
I1560
aS'29'
p8509
aS'60'
p8510
aa(lp8511
I1780
aS'7'
aS'146'
p8512
aa(lp8513
I1874
aS'49'
p8514
aS'170'
p8515
aa(lp8516
I2025
aS'74'
p8517
aS'111'
p8518
aa(lp8519
I2150
aS'12'
p8520
aS'340'
p8521
aa(lp8522
I2154
aS'695'
p8523
aS'800'
p8524
aa(lp8525
I2534
aS'142'
p8526
aS'214'
p8527
aa(lp8528
I2536
aS'6'
aS'99'
p8529
aa(lp8530
I2559
aS'31'
p8531
aS'102'
p8532
aa(lp8533
I3290
aS'80'
p8534
aS'132'
p8535
aa(lp8536
I3356
aS'20'
p8537
aS'254'
p8538
aa(lp8539
I3357
aS'1'
aS'59'
p8540
aa(lp8541
I3506
aS'481'
p8542
aS'543'
p8543
aa(lp8544
I4336
aS'681'
p8545
aS'745'
p8546
aa(lp8547
I4337
aS'580'
p8548
aS'641'
p8549
aa(lp8550
I4338
aS'1126'
p8551
aS'1218'
p8552
aa(lp8553
I4339
aS'753'
p8554
aS'1124'
p8555
aa(lp8556
I4340
aS'42'
p8557
aS'455'
p8558
aa(lp8559
I4342
aS'220'
p8560
aS'407'
p8561
aa(lp8562
I5408
aS'342'
p8563
aS'507'
p8564
aa(lp8565
I5409
aS'510'
p8566
aS'669'
p8567
aa(lp8568
I5412
aS'873'
p8569
aS'1056'
p8570
aa(lp8571
I5413
aS'1141'
p8572
aS'1274'
p8573
aa(lp8574
I5415
aS'807'
p8575
aS'1398'
p8576
aasS'1YNN'
p8577
(lp8578
(lp8579
I529
aS'471'
p8580
aS'535'
p8581
aa(lp8582
I1874
aS'59'
p8583
aS'154'
p8584
aa(lp8585
I2150
aS'3'
aS'159'
p8586
aa(lp8587
I2150
aS'455'
p8588
aS'618'
p8589
aa(lp8590
I2154
aS'984'
p8591
aS'1050'
p8592
aa(lp8593
I3290
aS'12'
p8594
aS'73'
p8595
aa(lp8596
I3356
aS'26'
p8597
aS'222'
p8598
aa(lp8599
I3506
aS'393'
p8600
aS'461'
p8601
aa(lp8602
I4338
aS'1028'
p8603
aS'1102'
p8604
aa(lp8605
I4339
aS'597'
p8606
aS'1026'
p8607
aa(lp8608
I4340
aS'18'
p8609
aS'379'
p8610
aa(lp8611
I4342
aS'142'
p8612
aS'334'
p8613
aa(lp8614
I5408
aS'620'
p8615
aS'761'
p8616
aa(lp8617
I5409
aS'768'
p8618
aS'953'
p8619
aa(lp8620
I5415
aS'1064'
p8621
aS'1240'
p8622
aasS'1I3Q'
p8623
(lp8624
(lp8625
I1243
aS'4'
aS'40'
p8626
aa(lp8627
I1560
aS'29'
p8628
aS'60'
p8629
aa(lp8630
I1780
aS'7'
aS'146'
p8631
aa(lp8632
I1874
aS'49'
p8633
aS'170'
p8634
aa(lp8635
I2025
aS'74'
p8636
aS'111'
p8637
aa(lp8638
I2150
aS'12'
p8639
aS'340'
p8640
aa(lp8641
I2154
aS'695'
p8642
aS'800'
p8643
aa(lp8644
I2534
aS'142'
p8645
aS'214'
p8646
aa(lp8647
I2536
aS'6'
aS'99'
p8648
aa(lp8649
I2559
aS'31'
p8650
aS'102'
p8651
aa(lp8652
I3290
aS'80'
p8653
aS'132'
p8654
aa(lp8655
I3356
aS'20'
p8656
aS'254'
p8657
aa(lp8658
I3357
aS'1'
aS'59'
p8659
aa(lp8660
I3506
aS'481'
p8661
aS'543'
p8662
aa(lp8663
I4336
aS'681'
p8664
aS'745'
p8665
aa(lp8666
I4337
aS'580'
p8667
aS'641'
p8668
aa(lp8669
I4338
aS'1127'
p8670
aS'1218'
p8671
aa(lp8672
I4339
aS'753'
p8673
aS'1110'
p8674
aa(lp8675
I4340
aS'42'
p8676
aS'455'
p8677
aa(lp8678
I4342
aS'220'
p8679
aS'407'
p8680
aa(lp8681
I5408
aS'342'
p8682
aS'507'
p8683
aa(lp8684
I5409
aS'510'
p8685
aS'669'
p8686
aa(lp8687
I5412
aS'873'
p8688
aS'1056'
p8689
aa(lp8690
I5413
aS'1141'
p8691
aS'1274'
p8692
aa(lp8693
I5415
aS'807'
p8694
aS'1398'
p8695
aasS'1YNJ'
p8696
(lp8697
(lp8698
I529
aS'471'
p8699
aS'535'
p8700
aa(lp8701
I1874
aS'59'
p8702
aS'154'
p8703
aa(lp8704
I2150
aS'3'
aS'159'
p8705
aa(lp8706
I2150
aS'455'
p8707
aS'618'
p8708
aa(lp8709
I2154
aS'984'
p8710
aS'1050'
p8711
aa(lp8712
I3290
aS'12'
p8713
aS'73'
p8714
aa(lp8715
I3356
aS'26'
p8716
aS'222'
p8717
aa(lp8718
I3506
aS'393'
p8719
aS'461'
p8720
aa(lp8721
I4338
aS'1028'
p8722
aS'1102'
p8723
aa(lp8724
I4339
aS'597'
p8725
aS'1026'
p8726
aa(lp8727
I4340
aS'18'
p8728
aS'379'
p8729
aa(lp8730
I4342
aS'142'
p8731
aS'334'
p8732
aa(lp8733
I5408
aS'620'
p8734
aS'761'
p8735
aa(lp8736
I5409
aS'768'
p8737
aS'953'
p8738
aa(lp8739
I5415
aS'1064'
p8740
aS'1240'
p8741
aasS'3GTG'
p8742
(lp8743
(lp8744
I1243
aS'4'
aS'40'
p8745
aa(lp8746
I1560
aS'29'
p8747
aS'60'
p8748
aa(lp8749
I1780
aS'7'
aS'146'
p8750
aa(lp8751
I1874
aS'49'
p8752
aS'170'
p8753
aa(lp8754
I2025
aS'74'
p8755
aS'111'
p8756
aa(lp8757
I2150
aS'12'
p8758
aS'340'
p8759
aa(lp8760
I2154
aS'695'
p8761
aS'800'
p8762
aa(lp8763
I2534
aS'142'
p8764
aS'214'
p8765
aa(lp8766
I2536
aS'6'
aS'99'
p8767
aa(lp8768
I2559
aS'31'
p8769
aS'102'
p8770
aa(lp8771
I3290
aS'80'
p8772
aS'132'
p8773
aa(lp8774
I3356
aS'20'
p8775
aS'254'
p8776
aa(lp8777
I3357
aS'1'
aS'59'
p8778
aa(lp8779
I3506
aS'481'
p8780
aS'543'
p8781
aa(lp8782
I4336
aS'681'
p8783
aS'745'
p8784
aa(lp8785
I4337
aS'580'
p8786
aS'641'
p8787
aa(lp8788
I4338
aS'1126'
p8789
aS'1218'
p8790
aa(lp8791
I4339
aS'753'
p8792
aS'1124'
p8793
aa(lp8794
I4340
aS'42'
p8795
aS'455'
p8796
aa(lp8797
I4342
aS'220'
p8798
aS'407'
p8799
aa(lp8800
I5408
aS'342'
p8801
aS'507'
p8802
aa(lp8803
I5409
aS'510'
p8804
aS'669'
p8805
aa(lp8806
I5412
aS'873'
p8807
aS'1056'
p8808
aa(lp8809
I5413
aS'1141'
p8810
aS'1274'
p8811
aa(lp8812
I5415
aS'807'
p8813
aS'1398'
p8814
aasS'2GHO'
p8815
(lp8816
(lp8817
I529
aS'471'
p8818
aS'535'
p8819
aa(lp8820
I1874
aS'59'
p8821
aS'154'
p8822
aa(lp8823
I2150
aS'3'
aS'327'
p8824
aa(lp8825
I2154
aS'693'
p8826
aS'759'
p8827
aa(lp8828
I3356
aS'26'
p8829
aS'222'
p8830
aa(lp8831
I3506
aS'393'
p8832
aS'461'
p8833
aa(lp8834
I4338
aS'1028'
p8835
aS'1102'
p8836
aa(lp8837
I4339
aS'597'
p8838
aS'1026'
p8839
aa(lp8840
I4340
aS'18'
p8841
aS'379'
p8842
aa(lp8843
I4342
aS'142'
p8844
aS'334'
p8845
aa(lp8846
I5408
aS'329'
p8847
aS'470'
p8848
aa(lp8849
I5409
aS'477'
p8850
aS'662'
p8851
aa(lp8852
I5415
aS'773'
p8853
aS'1436'
p8854
aasS'4MEY'
p8855
(lp8856
(lp8857
I529
aS'591'
p8858
aS'656'
p8859
aa(lp8860
I1311
aS'458'
p8861
aS'533'
p8862
aa(lp8863
I1312
aS'379'
p8864
aS'448'
p8865
aa(lp8866
I1313
aS'547'
p8867
aS'600'
p8868
aa(lp8869
I1874
aS'60'
p8870
aS'156'
p8871
aa(lp8872
I2150
aS'15'
p8873
aS'332'
p8874
aa(lp8875
I2154
aS'674'
p8876
aS'763'
p8877
aa(lp8878
I2673
aS'96'
p8879
aS'126'
p8880
aa(lp8881
I3219
aS'247'
p8882
aS'308'
p8883
aa(lp8884
I3290
aS'10'
p8885
aS'59'
p8886
aa(lp8887
I3356
aS'29'
p8888
aS'228'
p8889
aa(lp8890
I3506
aS'513'
p8891
aS'580'
p8892
aa(lp8893
I4338
aS'1266'
p8894
aS'1340'
p8895
aa(lp8896
I4339
aS'717'
p8897
aS'1264'
p8898
aa(lp8899
I4340
aS'26'
p8900
aS'500'
p8901
aa(lp8902
I4342
aS'151'
p8903
aS'225'
p8904
aa(lp8905
I4342
aS'340'
p8906
aS'454'
p8907
aa(lp8908
I4564
aS'137'
p8909
aS'348'
p8910
aa(lp8911
I5408
aS'345'
p8912
aS'393'
p8913
aa(lp8914
I5408
aS'392'
p8915
aS'485'
p8916
aa(lp8917
I5409
aS'489'
p8918
aS'644'
p8919
aa(lp8920
I5415
aS'766'
p8921
aS'1321'
p8922
aasS'1TWC'
p8923
(lp8924
(lp8925
I1243
aS'4'
aS'40'
p8926
aa(lp8927
I1560
aS'29'
p8928
aS'60'
p8929
aa(lp8930
I1780
aS'7'
aS'146'
p8931
aa(lp8932
I1874
aS'49'
p8933
aS'170'
p8934
aa(lp8935
I2025
aS'74'
p8936
aS'111'
p8937
aa(lp8938
I2150
aS'12'
p8939
aS'329'
p8940
aa(lp8941
I2154
aS'695'
p8942
aS'800'
p8943
aa(lp8944
I2534
aS'142'
p8945
aS'214'
p8946
aa(lp8947
I2536
aS'6'
aS'99'
p8948
aa(lp8949
I2559
aS'31'
p8950
aS'102'
p8951
aa(lp8952
I3290
aS'80'
p8953
aS'132'
p8954
aa(lp8955
I3356
aS'20'
p8956
aS'254'
p8957
aa(lp8958
I3357
aS'1'
aS'59'
p8959
aa(lp8960
I3506
aS'481'
p8961
aS'543'
p8962
aa(lp8963
I4336
aS'681'
p8964
aS'745'
p8965
aa(lp8966
I4337
aS'580'
p8967
aS'641'
p8968
aa(lp8969
I4338
aS'1127'
p8970
aS'1218'
p8971
aa(lp8972
I4339
aS'753'
p8973
aS'1110'
p8974
aa(lp8975
I4340
aS'42'
p8976
aS'455'
p8977
aa(lp8978
I4342
aS'220'
p8979
aS'407'
p8980
aa(lp8981
I5408
aS'346'
p8982
aS'507'
p8983
aa(lp8984
I5409
aS'510'
p8985
aS'669'
p8986
aa(lp8987
I5412
aS'873'
p8988
aS'1056'
p8989
aa(lp8990
I5413
aS'1141'
p8991
aS'1274'
p8992
aa(lp8993
I5415
aS'807'
p8994
aS'1385'
p8995
aasS'3PO2'
p8996
(lp8997
(lp8998
I410
aS'9'
aS'79'
p8999
aa(lp9000
I1243
aS'4'
aS'40'
p9001
aa(lp9002
I1560
aS'29'
p9003
aS'60'
p9004
aa(lp9005
I1780
aS'7'
aS'146'
p9006
aa(lp9007
I1874
aS'49'
p9008
aS'170'
p9009
aa(lp9010
I2025
aS'74'
p9011
aS'111'
p9012
aa(lp9013
I2150
aS'12'
p9014
aS'340'
p9015
aa(lp9016
I2154
aS'695'
p9017
aS'800'
p9018
aa(lp9019
I2534
aS'142'
p9020
aS'214'
p9021
aa(lp9022
I2536
aS'6'
aS'99'
p9023
aa(lp9024
I2559
aS'31'
p9025
aS'102'
p9026
aa(lp9027
I2833
aS'80'
p9028
aS'157'
p9029
aa(lp9030
I3290
aS'80'
p9031
aS'132'
p9032
aa(lp9033
I3356
aS'20'
p9034
aS'254'
p9035
aa(lp9036
I3357
aS'1'
aS'59'
p9037
aa(lp9038
I3506
aS'481'
p9039
aS'543'
p9040
aa(lp9041
I4336
aS'681'
p9042
aS'745'
p9043
aa(lp9044
I4337
aS'580'
p9045
aS'641'
p9046
aa(lp9047
I4338
aS'1126'
p9048
aS'1218'
p9049
aa(lp9050
I4339
aS'753'
p9051
aS'1124'
p9052
aa(lp9053
I4340
aS'42'
p9054
aS'455'
p9055
aa(lp9056
I4342
aS'220'
p9057
aS'407'
p9058
aa(lp9059
I5408
aS'342'
p9060
aS'507'
p9061
aa(lp9062
I5409
aS'510'
p9063
aS'669'
p9064
aa(lp9065
I5412
aS'873'
p9066
aS'1056'
p9067
aa(lp9068
I5413
aS'1141'
p9069
aS'1274'
p9070
aa(lp9071
I5415
aS'807'
p9072
aS'1398'
p9073
aa(lp9074
I5642
aS'49'
p9075
aS'217'
p9076
aasS'3PO3'
p9077
(lp9078
(lp9079
I410
aS'9'
aS'79'
p9080
aa(lp9081
I1243
aS'4'
aS'40'
p9082
aa(lp9083
I1560
aS'29'
p9084
aS'60'
p9085
aa(lp9086
I1780
aS'7'
aS'146'
p9087
aa(lp9088
I1874
aS'49'
p9089
aS'170'
p9090
aa(lp9091
I2022
aS'147'
p9092
aS'255'
p9093
aa(lp9094
I2025
aS'269'
p9095
aS'307'
p9096
aa(lp9097
I2025
aS'74'
p9098
aS'111'
p9099
aa(lp9100
I2150
aS'12'
p9101
aS'340'
p9102
aa(lp9103
I2154
aS'695'
p9104
aS'800'
p9105
aa(lp9106
I2534
aS'142'
p9107
aS'214'
p9108
aa(lp9109
I2536
aS'6'
aS'99'
p9110
aa(lp9111
I2559
aS'31'
p9112
aS'102'
p9113
aa(lp9114
I2833
aS'80'
p9115
aS'157'
p9116
aa(lp9117
I3290
aS'80'
p9118
aS'132'
p9119
aa(lp9120
I3356
aS'20'
p9121
aS'254'
p9122
aa(lp9123
I3357
aS'1'
aS'59'
p9124
aa(lp9125
I3506
aS'481'
p9126
aS'543'
p9127
aa(lp9128
I4336
aS'681'
p9129
aS'745'
p9130
aa(lp9131
I4337
aS'580'
p9132
aS'641'
p9133
aa(lp9134
I4338
aS'1126'
p9135
aS'1218'
p9136
aa(lp9137
I4339
aS'753'
p9138
aS'1124'
p9139
aa(lp9140
I4340
aS'42'
p9141
aS'455'
p9142
aa(lp9143
I4342
aS'220'
p9144
aS'407'
p9145
aa(lp9146
I5408
aS'342'
p9147
aS'507'
p9148
aa(lp9149
I5409
aS'510'
p9150
aS'669'
p9151
aa(lp9152
I5412
aS'873'
p9153
aS'1056'
p9154
aa(lp9155
I5413
aS'1141'
p9156
aS'1274'
p9157
aa(lp9158
I5415
aS'807'
p9159
aS'1398'
p9160
aa(lp9161
I5642
aS'49'
p9162
aS'217'
p9163
aasS'2R92'
p9164
(lp9165
(lp9166
I410
aS'9'
aS'79'
p9167
aa(lp9168
I1243
aS'4'
aS'40'
p9169
aa(lp9170
I1560
aS'29'
p9171
aS'60'
p9172
aa(lp9173
I1780
aS'7'
aS'146'
p9174
aa(lp9175
I1874
aS'49'
p9176
aS'170'
p9177
aa(lp9178
I2025
aS'74'
p9179
aS'111'
p9180
aa(lp9181
I2150
aS'12'
p9182
aS'340'
p9183
aa(lp9184
I2154
aS'695'
p9185
aS'800'
p9186
aa(lp9187
I2534
aS'142'
p9188
aS'214'
p9189
aa(lp9190
I2536
aS'6'
aS'99'
p9191
aa(lp9192
I2559
aS'31'
p9193
aS'102'
p9194
aa(lp9195
I2833
aS'80'
p9196
aS'157'
p9197
aa(lp9198
I3290
aS'80'
p9199
aS'132'
p9200
aa(lp9201
I3356
aS'20'
p9202
aS'254'
p9203
aa(lp9204
I3357
aS'1'
aS'59'
p9205
aa(lp9206
I3506
aS'481'
p9207
aS'543'
p9208
aa(lp9209
I4336
aS'681'
p9210
aS'745'
p9211
aa(lp9212
I4337
aS'580'
p9213
aS'641'
p9214
aa(lp9215
I4338
aS'1126'
p9216
aS'1218'
p9217
aa(lp9218
I4339
aS'753'
p9219
aS'1124'
p9220
aa(lp9221
I4340
aS'42'
p9222
aS'455'
p9223
aa(lp9224
I4342
aS'220'
p9225
aS'407'
p9226
aa(lp9227
I5408
aS'342'
p9228
aS'507'
p9229
aa(lp9230
I5409
aS'510'
p9231
aS'669'
p9232
aa(lp9233
I5412
aS'873'
p9234
aS'1056'
p9235
aa(lp9236
I5413
aS'1141'
p9237
aS'1274'
p9238
aa(lp9239
I5415
aS'807'
p9240
aS'1398'
p9241
aa(lp9242
I5642
aS'49'
p9243
aS'217'
p9244
aasS'1TWA'
p9245
(lp9246
(lp9247
I1243
aS'4'
aS'40'
p9248
aa(lp9249
I1560
aS'29'
p9250
aS'60'
p9251
aa(lp9252
I1780
aS'7'
aS'146'
p9253
aa(lp9254
I1874
aS'49'
p9255
aS'170'
p9256
aa(lp9257
I2025
aS'74'
p9258
aS'111'
p9259
aa(lp9260
I2150
aS'12'
p9261
aS'327'
p9262
aa(lp9263
I2154
aS'695'
p9264
aS'800'
p9265
aa(lp9266
I2534
aS'142'
p9267
aS'214'
p9268
aa(lp9269
I2536
aS'6'
aS'99'
p9270
aa(lp9271
I2559
aS'31'
p9272
aS'102'
p9273
aa(lp9274
I3290
aS'80'
p9275
aS'132'
p9276
aa(lp9277
I3356
aS'20'
p9278
aS'254'
p9279
aa(lp9280
I3357
aS'1'
aS'59'
p9281
aa(lp9282
I3506
aS'481'
p9283
aS'543'
p9284
aa(lp9285
I4336
aS'681'
p9286
aS'745'
p9287
aa(lp9288
I4337
aS'580'
p9289
aS'641'
p9290
aa(lp9291
I4338
aS'1127'
p9292
aS'1218'
p9293
aa(lp9294
I4339
aS'753'
p9295
aS'1110'
p9296
aa(lp9297
I4340
aS'42'
p9298
aS'455'
p9299
aa(lp9300
I4342
aS'220'
p9301
aS'407'
p9302
aa(lp9303
I5408
aS'346'
p9304
aS'507'
p9305
aa(lp9306
I5409
aS'510'
p9307
aS'669'
p9308
aa(lp9309
I5412
aS'873'
p9310
aS'1056'
p9311
aa(lp9312
I5413
aS'1141'
p9313
aS'1274'
p9314
aa(lp9315
I5415
aS'807'
p9316
aS'1385'
p9317
aasS'3K1F'
p9318
(lp9319
(lp9320
I410
aS'9'
aS'79'
p9321
aa(lp9322
I1243
aS'4'
aS'40'
p9323
aa(lp9324
I1560
aS'29'
p9325
aS'60'
p9326
aa(lp9327
I1780
aS'7'
aS'146'
p9328
aa(lp9329
I1874
aS'49'
p9330
aS'170'
p9331
aa(lp9332
I2025
aS'74'
p9333
aS'111'
p9334
aa(lp9335
I2150
aS'12'
p9336
aS'340'
p9337
aa(lp9338
I2154
aS'695'
p9339
aS'800'
p9340
aa(lp9341
I2534
aS'142'
p9342
aS'214'
p9343
aa(lp9344
I2536
aS'6'
aS'99'
p9345
aa(lp9346
I2559
aS'31'
p9347
aS'102'
p9348
aa(lp9349
I2833
aS'80'
p9350
aS'157'
p9351
aa(lp9352
I2923
aS'23'
p9353
aS'66'
p9354
aa(lp9355
I3290
aS'80'
p9356
aS'132'
p9357
aa(lp9358
I3356
aS'20'
p9359
aS'254'
p9360
aa(lp9361
I3357
aS'1'
aS'59'
p9362
aa(lp9363
I3506
aS'481'
p9364
aS'543'
p9365
aa(lp9366
I4336
aS'681'
p9367
aS'745'
p9368
aa(lp9369
I4337
aS'580'
p9370
aS'641'
p9371
aa(lp9372
I4338
aS'1126'
p9373
aS'1218'
p9374
aa(lp9375
I4339
aS'753'
p9376
aS'1124'
p9377
aa(lp9378
I4340
aS'42'
p9379
aS'455'
p9380
aa(lp9381
I4342
aS'220'
p9382
aS'407'
p9383
aa(lp9384
I5408
aS'342'
p9385
aS'507'
p9386
aa(lp9387
I5409
aS'510'
p9388
aS'669'
p9389
aa(lp9390
I5412
aS'873'
p9391
aS'1056'
p9392
aa(lp9393
I5413
aS'1141'
p9394
aS'1274'
p9395
aa(lp9396
I5415
aS'807'
p9397
aS'1398'
p9398
aa(lp9399
I5642
aS'49'
p9400
aS'217'
p9401
aasS'1TWF'
p9402
(lp9403
(lp9404
I1243
aS'4'
aS'40'
p9405
aa(lp9406
I1560
aS'29'
p9407
aS'60'
p9408
aa(lp9409
I1780
aS'7'
aS'146'
p9410
aa(lp9411
I1874
aS'49'
p9412
aS'170'
p9413
aa(lp9414
I2025
aS'74'
p9415
aS'111'
p9416
aa(lp9417
I2150
aS'12'
p9418
aS'340'
p9419
aa(lp9420
I2154
aS'695'
p9421
aS'800'
p9422
aa(lp9423
I2534
aS'142'
p9424
aS'214'
p9425
aa(lp9426
I2536
aS'6'
aS'99'
p9427
aa(lp9428
I2559
aS'31'
p9429
aS'102'
p9430
aa(lp9431
I3290
aS'80'
p9432
aS'132'
p9433
aa(lp9434
I3356
aS'20'
p9435
aS'254'
p9436
aa(lp9437
I3357
aS'1'
aS'59'
p9438
aa(lp9439
I3506
aS'481'
p9440
aS'543'
p9441
aa(lp9442
I4336
aS'681'
p9443
aS'745'
p9444
aa(lp9445
I4337
aS'580'
p9446
aS'641'
p9447
aa(lp9448
I4338
aS'1127'
p9449
aS'1218'
p9450
aa(lp9451
I4339
aS'753'
p9452
aS'1110'
p9453
aa(lp9454
I4340
aS'42'
p9455
aS'455'
p9456
aa(lp9457
I4342
aS'220'
p9458
aS'407'
p9459
aa(lp9460
I5408
aS'342'
p9461
aS'507'
p9462
aa(lp9463
I5409
aS'510'
p9464
aS'669'
p9465
aa(lp9466
I5412
aS'873'
p9467
aS'1056'
p9468
aa(lp9469
I5413
aS'1141'
p9470
aS'1274'
p9471
aa(lp9472
I5415
aS'807'
p9473
aS'1398'
p9474
aasS'1TWG'
p9475
(lp9476
(lp9477
I1243
aS'4'
aS'40'
p9478
aa(lp9479
I1560
aS'29'
p9480
aS'60'
p9481
aa(lp9482
I1780
aS'7'
aS'146'
p9483
aa(lp9484
I1874
aS'49'
p9485
aS'170'
p9486
aa(lp9487
I2025
aS'74'
p9488
aS'111'
p9489
aa(lp9490
I2150
aS'12'
p9491
aS'327'
p9492
aa(lp9493
I2154
aS'695'
p9494
aS'800'
p9495
aa(lp9496
I2534
aS'142'
p9497
aS'214'
p9498
aa(lp9499
I2536
aS'6'
aS'99'
p9500
aa(lp9501
I2559
aS'31'
p9502
aS'102'
p9503
aa(lp9504
I3290
aS'80'
p9505
aS'132'
p9506
aa(lp9507
I3356
aS'20'
p9508
aS'254'
p9509
aa(lp9510
I3357
aS'1'
aS'59'
p9511
aa(lp9512
I3506
aS'481'
p9513
aS'543'
p9514
aa(lp9515
I4336
aS'681'
p9516
aS'745'
p9517
aa(lp9518
I4337
aS'580'
p9519
aS'641'
p9520
aa(lp9521
I4338
aS'1127'
p9522
aS'1218'
p9523
aa(lp9524
I4339
aS'753'
p9525
aS'1110'
p9526
aa(lp9527
I4340
aS'42'
p9528
aS'455'
p9529
aa(lp9530
I4342
aS'220'
p9531
aS'407'
p9532
aa(lp9533
I5408
aS'346'
p9534
aS'507'
p9535
aa(lp9536
I5409
aS'510'
p9537
aS'669'
p9538
aa(lp9539
I5412
aS'873'
p9540
aS'1056'
p9541
aa(lp9542
I5413
aS'1141'
p9543
aS'1274'
p9544
aa(lp9545
I5415
aS'807'
p9546
aS'1385'
p9547
aasS'4A93'
p9548
(lp9549
(lp9550
I410
aS'9'
aS'79'
p9551
aa(lp9552
I1243
aS'4'
aS'40'
p9553
aa(lp9554
I1560
aS'29'
p9555
aS'60'
p9556
aa(lp9557
I1780
aS'7'
aS'146'
p9558
aa(lp9559
I1874
aS'49'
p9560
aS'170'
p9561
aa(lp9562
I2025
aS'74'
p9563
aS'111'
p9564
aa(lp9565
I2150
aS'12'
p9566
aS'340'
p9567
aa(lp9568
I2154
aS'695'
p9569
aS'800'
p9570
aa(lp9571
I2534
aS'142'
p9572
aS'214'
p9573
aa(lp9574
I2536
aS'6'
aS'99'
p9575
aa(lp9576
I2559
aS'31'
p9577
aS'102'
p9578
aa(lp9579
I2833
aS'80'
p9580
aS'157'
p9581
aa(lp9582
I3290
aS'80'
p9583
aS'132'
p9584
aa(lp9585
I3356
aS'20'
p9586
aS'254'
p9587
aa(lp9588
I3357
aS'1'
aS'59'
p9589
aa(lp9590
I3506
aS'481'
p9591
aS'543'
p9592
aa(lp9593
I4336
aS'681'
p9594
aS'745'
p9595
aa(lp9596
I4337
aS'580'
p9597
aS'641'
p9598
aa(lp9599
I4338
aS'1126'
p9600
aS'1218'
p9601
aa(lp9602
I4339
aS'753'
p9603
aS'1124'
p9604
aa(lp9605
I4340
aS'42'
p9606
aS'455'
p9607
aa(lp9608
I4342
aS'220'
p9609
aS'407'
p9610
aa(lp9611
I5408
aS'342'
p9612
aS'507'
p9613
aa(lp9614
I5409
aS'510'
p9615
aS'669'
p9616
aa(lp9617
I5412
aS'873'
p9618
aS'1056'
p9619
aa(lp9620
I5413
aS'1141'
p9621
aS'1274'
p9622
aa(lp9623
I5415
aS'807'
p9624
aS'1398'
p9625
aa(lp9626
I5642
aS'49'
p9627
aS'217'
p9628
aasS'2A69'
p9629
(lp9630
(lp9631
I529
aS'471'
p9632
aS'535'
p9633
aa(lp9634
I1311
aS'266'
p9635
aS'344'
p9636
aa(lp9637
I1312
aS'187'
p9638
aS'256'
p9639
aa(lp9640
I1313
aS'357'
p9641
aS'409'
p9642
aa(lp9643
I1874
aS'59'
p9644
aS'154'
p9645
aa(lp9646
I2150
aS'2'
aS'159'
p9647
aa(lp9648
I2150
aS'457'
p9649
aS'618'
p9650
aa(lp9651
I2154
aS'984'
p9652
aS'1050'
p9653
aa(lp9654
I2673
aS'79'
p9655
aS'112'
p9656
aa(lp9657
I3290
aS'12'
p9658
aS'39'
p9659
aa(lp9660
I3356
aS'26'
p9661
aS'222'
p9662
aa(lp9663
I3506
aS'393'
p9664
aS'461'
p9665
aa(lp9666
I4338
aS'1028'
p9667
aS'1102'
p9668
aa(lp9669
I4339
aS'597'
p9670
aS'1026'
p9671
aa(lp9672
I4340
aS'18'
p9673
aS'379'
p9674
aa(lp9675
I4342
aS'142'
p9676
aS'334'
p9677
aa(lp9678
I5408
aS'620'
p9679
aS'761'
p9680
aa(lp9681
I5409
aS'768'
p9682
aS'953'
p9683
aa(lp9684
I5415
aS'1064'
p9685
aS'1436'
p9686
aasS'2A68'
p9687
(lp9688
(lp9689
I529
aS'471'
p9690
aS'535'
p9691
aa(lp9692
I1874
aS'59'
p9693
aS'154'
p9694
aa(lp9695
I2150
aS'2'
aS'159'
p9696
aa(lp9697
I2150
aS'457'
p9698
aS'618'
p9699
aa(lp9700
I2154
aS'984'
p9701
aS'1050'
p9702
aa(lp9703
I3356
aS'26'
p9704
aS'222'
p9705
aa(lp9706
I3506
aS'393'
p9707
aS'461'
p9708
aa(lp9709
I4338
aS'1028'
p9710
aS'1102'
p9711
aa(lp9712
I4339
aS'597'
p9713
aS'1026'
p9714
aa(lp9715
I4340
aS'18'
p9716
aS'379'
p9717
aa(lp9718
I4342
aS'142'
p9719
aS'334'
p9720
aa(lp9721
I5408
aS'620'
p9722
aS'761'
p9723
aa(lp9724
I5409
aS'768'
p9725
aS'953'
p9726
aa(lp9727
I5415
aS'1064'
p9728
aS'1436'
p9729
aasS'4X6A'
p9730
(lp9731
(lp9732
I1243
aS'4'
aS'40'
p9733
aa(lp9734
I1560
aS'29'
p9735
aS'60'
p9736
aa(lp9737
I1780
aS'7'
aS'146'
p9738
aa(lp9739
I1874
aS'49'
p9740
aS'170'
p9741
aa(lp9742
I2025
aS'74'
p9743
aS'111'
p9744
aa(lp9745
I2150
aS'12'
p9746
aS'340'
p9747
aa(lp9748
I2154
aS'695'
p9749
aS'800'
p9750
aa(lp9751
I2534
aS'142'
p9752
aS'214'
p9753
aa(lp9754
I2536
aS'6'
aS'99'
p9755
aa(lp9756
I2559
aS'31'
p9757
aS'102'
p9758
aa(lp9759
I3290
aS'80'
p9760
aS'132'
p9761
aa(lp9762
I3356
aS'20'
p9763
aS'254'
p9764
aa(lp9765
I3357
aS'1'
aS'59'
p9766
aa(lp9767
I3506
aS'481'
p9768
aS'543'
p9769
aa(lp9770
I4336
aS'681'
p9771
aS'745'
p9772
aa(lp9773
I4337
aS'580'
p9774
aS'641'
p9775
aa(lp9776
I4338
aS'1126'
p9777
aS'1218'
p9778
aa(lp9779
I4339
aS'753'
p9780
aS'1124'
p9781
aa(lp9782
I4340
aS'42'
p9783
aS'455'
p9784
aa(lp9785
I4342
aS'220'
p9786
aS'407'
p9787
aa(lp9788
I5408
aS'342'
p9789
aS'507'
p9790
aa(lp9791
I5409
aS'510'
p9792
aS'669'
p9793
aa(lp9794
I5412
aS'873'
p9795
aS'1056'
p9796
aa(lp9797
I5413
aS'1141'
p9798
aS'1274'
p9799
aa(lp9800
I5415
aS'807'
p9801
aS'1398'
p9802
aasS'1R5U'
p9803
(lp9804
(lp9805
I1243
aS'4'
aS'40'
p9806
aa(lp9807
I1560
aS'29'
p9808
aS'60'
p9809
aa(lp9810
I1780
aS'7'
aS'146'
p9811
aa(lp9812
I1874
aS'49'
p9813
aS'170'
p9814
aa(lp9815
I2025
aS'74'
p9816
aS'111'
p9817
aa(lp9818
I2150
aS'12'
p9819
aS'340'
p9820
aa(lp9821
I2154
aS'695'
p9822
aS'800'
p9823
aa(lp9824
I2534
aS'142'
p9825
aS'214'
p9826
aa(lp9827
I2536
aS'6'
aS'99'
p9828
aa(lp9829
I2559
aS'31'
p9830
aS'102'
p9831
aa(lp9832
I3290
aS'80'
p9833
aS'132'
p9834
aa(lp9835
I3356
aS'20'
p9836
aS'254'
p9837
aa(lp9838
I3357
aS'1'
aS'59'
p9839
aa(lp9840
I3506
aS'481'
p9841
aS'543'
p9842
aa(lp9843
I4336
aS'681'
p9844
aS'745'
p9845
aa(lp9846
I4337
aS'580'
p9847
aS'641'
p9848
aa(lp9849
I4338
aS'1126'
p9850
aS'1218'
p9851
aa(lp9852
I4339
aS'753'
p9853
aS'1124'
p9854
aa(lp9855
I4340
aS'42'
p9856
aS'455'
p9857
aa(lp9858
I4342
aS'220'
p9859
aS'407'
p9860
aa(lp9861
I5408
aS'342'
p9862
aS'507'
p9863
aa(lp9864
I5409
aS'510'
p9865
aS'669'
p9866
aa(lp9867
I5412
aS'873'
p9868
aS'1056'
p9869
aa(lp9870
I5413
aS'1141'
p9871
aS'1274'
p9872
aa(lp9873
I5415
aS'807'
p9874
aS'1398'
p9875
aasS'2O5J'
p9876
(lp9877
(lp9878
I529
aS'471'
p9879
aS'535'
p9880
aa(lp9881
I1874
aS'59'
p9882
aS'154'
p9883
aa(lp9884
I2150
aS'2'
aS'159'
p9885
aa(lp9886
I2150
aS'457'
p9887
aS'618'
p9888
aa(lp9889
I2154
aS'984'
p9890
aS'1050'
p9891
aa(lp9892
I3290
aS'12'
p9893
aS'72'
p9894
aa(lp9895
I3356
aS'26'
p9896
aS'222'
p9897
aa(lp9898
I3506
aS'393'
p9899
aS'461'
p9900
aa(lp9901
I4338
aS'1028'
p9902
aS'1102'
p9903
aa(lp9904
I4339
aS'597'
p9905
aS'1026'
p9906
aa(lp9907
I4340
aS'18'
p9908
aS'379'
p9909
aa(lp9910
I4342
aS'142'
p9911
aS'334'
p9912
aa(lp9913
I5408
aS'620'
p9914
aS'761'
p9915
aa(lp9916
I5409
aS'768'
p9917
aS'953'
p9918
aa(lp9919
I5415
aS'1064'
p9920
aS'1436'
p9921
aasS'2O5I'
p9922
(lp9923
(lp9924
I529
aS'471'
p9925
aS'535'
p9926
aa(lp9927
I1874
aS'59'
p9928
aS'154'
p9929
aa(lp9930
I2150
aS'2'
aS'159'
p9931
aa(lp9932
I2150
aS'457'
p9933
aS'618'
p9934
aa(lp9935
I2154
aS'984'
p9936
aS'1050'
p9937
aa(lp9938
I3290
aS'12'
p9939
aS'72'
p9940
aa(lp9941
I3356
aS'26'
p9942
aS'222'
p9943
aa(lp9944
I3506
aS'393'
p9945
aS'461'
p9946
aa(lp9947
I4338
aS'1028'
p9948
aS'1102'
p9949
aa(lp9950
I4339
aS'597'
p9951
aS'1026'
p9952
aa(lp9953
I4340
aS'18'
p9954
aS'379'
p9955
aa(lp9956
I4342
aS'142'
p9957
aS'334'
p9958
aa(lp9959
I5408
aS'620'
p9960
aS'761'
p9961
aa(lp9962
I5409
aS'768'
p9963
aS'953'
p9964
aa(lp9965
I5415
aS'1064'
p9966
aS'1436'
p9967
aasS'1I6V'
p9968
(lp9969
(lp9970
I529
aS'471'
p9971
aS'535'
p9972
aa(lp9973
I1874
aS'59'
p9974
aS'154'
p9975
aa(lp9976
I2150
aS'3'
aS'618'
p9977
aa(lp9978
I2154
aS'984'
p9979
aS'1050'
p9980
aa(lp9981
I3290
aS'12'
p9982
aS'73'
p9983
aa(lp9984
I3356
aS'26'
p9985
aS'222'
p9986
aa(lp9987
I3506
aS'393'
p9988
aS'461'
p9989
aa(lp9990
I4338
aS'1028'
p9991
aS'1102'
p9992
aa(lp9993
I4339
aS'597'
p9994
aS'1026'
p9995
aa(lp9996
I4340
aS'18'
p9997
aS'379'
p9998
aa(lp9999
I4342
aS'142'
p10000
aS'334'
p10001
aa(lp10002
I5408
aS'620'
p10003
aS'761'
p10004
aa(lp10005
I5409
aS'768'
p10006
aS'953'
p10007
aa(lp10008
I5415
aS'1064'
p10009
aS'1436'
p10010
aasS'1TWH'
p10011
(lp10012
(lp10013
I1243
aS'4'
aS'40'
p10014
aa(lp10015
I1560
aS'29'
p10016
aS'60'
p10017
aa(lp10018
I1780
aS'7'
aS'146'
p10019
aa(lp10020
I1874
aS'49'
p10021
aS'170'
p10022
aa(lp10023
I2025
aS'74'
p10024
aS'111'
p10025
aa(lp10026
I2150
aS'12'
p10027
aS'327'
p10028
aa(lp10029
I2154
aS'695'
p10030
aS'800'
p10031
aa(lp10032
I2534
aS'142'
p10033
aS'214'
p10034
aa(lp10035
I2536
aS'6'
aS'99'
p10036
aa(lp10037
I2559
aS'31'
p10038
aS'102'
p10039
aa(lp10040
I3290
aS'80'
p10041
aS'132'
p10042
aa(lp10043
I3356
aS'20'
p10044
aS'254'
p10045
aa(lp10046
I3357
aS'1'
aS'59'
p10047
aa(lp10048
I3506
aS'481'
p10049
aS'543'
p10050
aa(lp10051
I4336
aS'681'
p10052
aS'745'
p10053
aa(lp10054
I4337
aS'580'
p10055
aS'641'
p10056
aa(lp10057
I4338
aS'1127'
p10058
aS'1218'
p10059
aa(lp10060
I4339
aS'753'
p10061
aS'1110'
p10062
aa(lp10063
I4340
aS'42'
p10064
aS'455'
p10065
aa(lp10066
I4342
aS'220'
p10067
aS'407'
p10068
aa(lp10069
I5408
aS'346'
p10070
aS'507'
p10071
aa(lp10072
I5409
aS'510'
p10073
aS'669'
p10074
aa(lp10075
I5412
aS'873'
p10076
aS'1056'
p10077
aa(lp10078
I5413
aS'1141'
p10079
aS'1274'
p10080
aa(lp10081
I5415
aS'807'
p10082
aS'1385'
p10083
aasS'3S2D'
p10084
(lp10085
(lp10086
I1243
aS'4'
aS'40'
p10087
aa(lp10088
I1560
aS'29'
p10089
aS'60'
p10090
aa(lp10091
I1780
aS'7'
aS'146'
p10092
aa(lp10093
I1874
aS'49'
p10094
aS'170'
p10095
aa(lp10096
I2025
aS'74'
p10097
aS'111'
p10098
aa(lp10099
I2150
aS'12'
p10100
aS'340'
p10101
aa(lp10102
I2154
aS'695'
p10103
aS'800'
p10104
aa(lp10105
I2534
aS'142'
p10106
aS'214'
p10107
aa(lp10108
I2536
aS'6'
aS'99'
p10109
aa(lp10110
I2559
aS'31'
p10111
aS'102'
p10112
aa(lp10113
I3290
aS'80'
p10114
aS'132'
p10115
aa(lp10116
I3356
aS'20'
p10117
aS'254'
p10118
aa(lp10119
I3357
aS'1'
aS'59'
p10120
aa(lp10121
I3506
aS'481'
p10122
aS'543'
p10123
aa(lp10124
I4336
aS'681'
p10125
aS'745'
p10126
aa(lp10127
I4337
aS'580'
p10128
aS'641'
p10129
aa(lp10130
I4338
aS'1126'
p10131
aS'1218'
p10132
aa(lp10133
I4339
aS'753'
p10134
aS'1124'
p10135
aa(lp10136
I4340
aS'42'
p10137
aS'455'
p10138
aa(lp10139
I4342
aS'220'
p10140
aS'407'
p10141
aa(lp10142
I5408
aS'342'
p10143
aS'507'
p10144
aa(lp10145
I5409
aS'510'
p10146
aS'669'
p10147
aa(lp10148
I5412
aS'873'
p10149
aS'1056'
p10150
aa(lp10151
I5413
aS'1141'
p10152
aS'1274'
p10153
aa(lp10154
I5415
aS'807'
p10155
aS'1398'
p10156
aasS'3I4M'
p10157
(lp10158
(lp10159
I410
aS'9'
aS'79'
p10160
aa(lp10161
I1243
aS'4'
aS'40'
p10162
aa(lp10163
I1560
aS'29'
p10164
aS'60'
p10165
aa(lp10166
I1780
aS'7'
aS'146'
p10167
aa(lp10168
I1874
aS'49'
p10169
aS'170'
p10170
aa(lp10171
I2025
aS'74'
p10172
aS'111'
p10173
aa(lp10174
I2150
aS'12'
p10175
aS'340'
p10176
aa(lp10177
I2154
aS'695'
p10178
aS'800'
p10179
aa(lp10180
I2534
aS'142'
p10181
aS'214'
p10182
aa(lp10183
I2536
aS'6'
aS'99'
p10184
aa(lp10185
I2559
aS'31'
p10186
aS'102'
p10187
aa(lp10188
I2833
aS'80'
p10189
aS'157'
p10190
aa(lp10191
I3290
aS'80'
p10192
aS'132'
p10193
aa(lp10194
I3356
aS'20'
p10195
aS'254'
p10196
aa(lp10197
I3357
aS'1'
aS'59'
p10198
aa(lp10199
I3506
aS'481'
p10200
aS'543'
p10201
aa(lp10202
I4336
aS'681'
p10203
aS'745'
p10204
aa(lp10205
I4337
aS'580'
p10206
aS'641'
p10207
aa(lp10208
I4338
aS'1126'
p10209
aS'1218'
p10210
aa(lp10211
I4339
aS'753'
p10212
aS'1124'
p10213
aa(lp10214
I4340
aS'42'
p10215
aS'455'
p10216
aa(lp10217
I4342
aS'220'
p10218
aS'407'
p10219
aa(lp10220
I5408
aS'342'
p10221
aS'507'
p10222
aa(lp10223
I5409
aS'510'
p10224
aS'669'
p10225
aa(lp10226
I5412
aS'873'
p10227
aS'1056'
p10228
aa(lp10229
I5413
aS'1141'
p10230
aS'1274'
p10231
aa(lp10232
I5415
aS'807'
p10233
aS'1398'
p10234
aa(lp10235
I5642
aS'49'
p10236
aS'217'
p10237
aasS'3I4N'
p10238
(lp10239
(lp10240
I410
aS'9'
aS'79'
p10241
aa(lp10242
I1243
aS'4'
aS'40'
p10243
aa(lp10244
I1560
aS'29'
p10245
aS'60'
p10246
aa(lp10247
I1780
aS'7'
aS'146'
p10248
aa(lp10249
I1874
aS'49'
p10250
aS'170'
p10251
aa(lp10252
I2025
aS'74'
p10253
aS'111'
p10254
aa(lp10255
I2150
aS'12'
p10256
aS'340'
p10257
aa(lp10258
I2154
aS'695'
p10259
aS'800'
p10260
aa(lp10261
I2534
aS'142'
p10262
aS'214'
p10263
aa(lp10264
I2536
aS'6'
aS'99'
p10265
aa(lp10266
I2559
aS'31'
p10267
aS'102'
p10268
aa(lp10269
I2833
aS'80'
p10270
aS'157'
p10271
aa(lp10272
I3290
aS'80'
p10273
aS'132'
p10274
aa(lp10275
I3356
aS'20'
p10276
aS'254'
p10277
aa(lp10278
I3357
aS'1'
aS'59'
p10279
aa(lp10280
I3506
aS'481'
p10281
aS'543'
p10282
aa(lp10283
I4336
aS'681'
p10284
aS'745'
p10285
aa(lp10286
I4337
aS'580'
p10287
aS'641'
p10288
aa(lp10289
I4338
aS'1126'
p10290
aS'1218'
p10291
aa(lp10292
I4339
aS'753'
p10293
aS'1124'
p10294
aa(lp10295
I4340
aS'42'
p10296
aS'455'
p10297
aa(lp10298
I4342
aS'220'
p10299
aS'407'
p10300
aa(lp10301
I5408
aS'342'
p10302
aS'507'
p10303
aa(lp10304
I5409
aS'510'
p10305
aS'669'
p10306
aa(lp10307
I5412
aS'873'
p10308
aS'1056'
p10309
aa(lp10310
I5413
aS'1141'
p10311
aS'1274'
p10312
aa(lp10313
I5415
aS'807'
p10314
aS'1398'
p10315
aa(lp10316
I5642
aS'49'
p10317
aS'217'
p10318
aasS'2NVY'
p10319
(lp10320
(lp10321
I1243
aS'4'
aS'40'
p10322
aa(lp10323
I1560
aS'29'
p10324
aS'60'
p10325
aa(lp10326
I1780
aS'7'
aS'146'
p10327
aa(lp10328
I1874
aS'49'
p10329
aS'170'
p10330
aa(lp10331
I2025
aS'74'
p10332
aS'111'
p10333
aa(lp10334
I2150
aS'12'
p10335
aS'340'
p10336
aa(lp10337
I2154
aS'695'
p10338
aS'800'
p10339
aa(lp10340
I2534
aS'142'
p10341
aS'214'
p10342
aa(lp10343
I2536
aS'6'
aS'99'
p10344
aa(lp10345
I2559
aS'31'
p10346
aS'102'
p10347
aa(lp10348
I3290
aS'80'
p10349
aS'132'
p10350
aa(lp10351
I3356
aS'20'
p10352
aS'254'
p10353
aa(lp10354
I3357
aS'1'
aS'59'
p10355
aa(lp10356
I3506
aS'481'
p10357
aS'543'
p10358
aa(lp10359
I4336
aS'681'
p10360
aS'745'
p10361
aa(lp10362
I4337
aS'580'
p10363
aS'641'
p10364
aa(lp10365
I4338
aS'1127'
p10366
aS'1218'
p10367
aa(lp10368
I4339
aS'753'
p10369
aS'1110'
p10370
aa(lp10371
I4340
aS'42'
p10372
aS'455'
p10373
aa(lp10374
I4342
aS'220'
p10375
aS'407'
p10376
aa(lp10377
I5408
aS'342'
p10378
aS'507'
p10379
aa(lp10380
I5409
aS'510'
p10381
aS'669'
p10382
aa(lp10383
I5412
aS'873'
p10384
aS'1056'
p10385
aa(lp10386
I5413
aS'1141'
p10387
aS'1274'
p10388
aa(lp10389
I5415
aS'807'
p10390
aS'1398'
p10391
aasS'3S2H'
p10392
(lp10393
(lp10394
I1243
aS'4'
aS'40'
p10395
aa(lp10396
I1560
aS'29'
p10397
aS'60'
p10398
aa(lp10399
I1780
aS'7'
aS'146'
p10400
aa(lp10401
I1874
aS'49'
p10402
aS'170'
p10403
aa(lp10404
I2025
aS'74'
p10405
aS'111'
p10406
aa(lp10407
I2150
aS'12'
p10408
aS'340'
p10409
aa(lp10410
I2154
aS'695'
p10411
aS'800'
p10412
aa(lp10413
I2534
aS'142'
p10414
aS'214'
p10415
aa(lp10416
I2536
aS'6'
aS'99'
p10417
aa(lp10418
I2559
aS'31'
p10419
aS'102'
p10420
aa(lp10421
I3290
aS'80'
p10422
aS'132'
p10423
aa(lp10424
I3356
aS'20'
p10425
aS'254'
p10426
aa(lp10427
I3357
aS'1'
aS'59'
p10428
aa(lp10429
I3506
aS'481'
p10430
aS'543'
p10431
aa(lp10432
I4336
aS'681'
p10433
aS'745'
p10434
aa(lp10435
I4337
aS'580'
p10436
aS'641'
p10437
aa(lp10438
I4338
aS'1126'
p10439
aS'1218'
p10440
aa(lp10441
I4339
aS'753'
p10442
aS'1124'
p10443
aa(lp10444
I4340
aS'42'
p10445
aS'455'
p10446
aa(lp10447
I4342
aS'220'
p10448
aS'407'
p10449
aa(lp10450
I5408
aS'342'
p10451
aS'507'
p10452
aa(lp10453
I5409
aS'510'
p10454
aS'669'
p10455
aa(lp10456
I5412
aS'873'
p10457
aS'1056'
p10458
aa(lp10459
I5413
aS'1141'
p10460
aS'1274'
p10461
aa(lp10462
I5415
aS'807'
p10463
aS'1398'
p10464
aasS'2NVT'
p10465
(lp10466
(lp10467
I1243
aS'4'
aS'40'
p10468
aa(lp10469
I1560
aS'29'
p10470
aS'60'
p10471
aa(lp10472
I1780
aS'7'
aS'146'
p10473
aa(lp10474
I1874
aS'49'
p10475
aS'170'
p10476
aa(lp10477
I2025
aS'74'
p10478
aS'111'
p10479
aa(lp10480
I2150
aS'12'
p10481
aS'340'
p10482
aa(lp10483
I2154
aS'695'
p10484
aS'800'
p10485
aa(lp10486
I2534
aS'142'
p10487
aS'214'
p10488
aa(lp10489
I2536
aS'6'
aS'99'
p10490
aa(lp10491
I2559
aS'31'
p10492
aS'102'
p10493
aa(lp10494
I3290
aS'80'
p10495
aS'132'
p10496
aa(lp10497
I3356
aS'20'
p10498
aS'254'
p10499
aa(lp10500
I3357
aS'1'
aS'59'
p10501
aa(lp10502
I3506
aS'481'
p10503
aS'543'
p10504
aa(lp10505
I4336
aS'681'
p10506
aS'745'
p10507
aa(lp10508
I4337
aS'580'
p10509
aS'641'
p10510
aa(lp10511
I4338
aS'1126'
p10512
aS'1218'
p10513
aa(lp10514
I4339
aS'753'
p10515
aS'1124'
p10516
aa(lp10517
I4340
aS'42'
p10518
aS'455'
p10519
aa(lp10520
I4342
aS'220'
p10521
aS'407'
p10522
aa(lp10523
I5408
aS'342'
p10524
aS'507'
p10525
aa(lp10526
I5409
aS'510'
p10527
aS'669'
p10528
aa(lp10529
I5412
aS'873'
p10530
aS'1056'
p10531
aa(lp10532
I5413
aS'1141'
p10533
aS'1274'
p10534
aa(lp10535
I5415
aS'807'
p10536
aS'1398'
p10537
aasS'2NVQ'
p10538
(lp10539
(lp10540
I1243
aS'4'
aS'40'
p10541
aa(lp10542
I1560
aS'29'
p10543
aS'60'
p10544
aa(lp10545
I1780
aS'7'
aS'146'
p10546
aa(lp10547
I1874
aS'49'
p10548
aS'170'
p10549
aa(lp10550
I2025
aS'74'
p10551
aS'111'
p10552
aa(lp10553
I2150
aS'12'
p10554
aS'340'
p10555
aa(lp10556
I2154
aS'695'
p10557
aS'800'
p10558
aa(lp10559
I2534
aS'142'
p10560
aS'214'
p10561
aa(lp10562
I2536
aS'6'
aS'99'
p10563
aa(lp10564
I2559
aS'31'
p10565
aS'102'
p10566
aa(lp10567
I3290
aS'80'
p10568
aS'132'
p10569
aa(lp10570
I3356
aS'20'
p10571
aS'254'
p10572
aa(lp10573
I3357
aS'1'
aS'59'
p10574
aa(lp10575
I3506
aS'481'
p10576
aS'543'
p10577
aa(lp10578
I4336
aS'681'
p10579
aS'745'
p10580
aa(lp10581
I4337
aS'580'
p10582
aS'641'
p10583
aa(lp10584
I4338
aS'1126'
p10585
aS'1218'
p10586
aa(lp10587
I4339
aS'753'
p10588
aS'1124'
p10589
aa(lp10590
I4340
aS'42'
p10591
aS'455'
p10592
aa(lp10593
I4342
aS'220'
p10594
aS'407'
p10595
aa(lp10596
I5408
aS'342'
p10597
aS'507'
p10598
aa(lp10599
I5409
aS'510'
p10600
aS'669'
p10601
aa(lp10602
I5412
aS'873'
p10603
aS'1056'
p10604
aa(lp10605
I5413
aS'1141'
p10606
aS'1274'
p10607
aa(lp10608
I5415
aS'807'
p10609
aS'1398'
p10610
aasS'1ZYR'
p10611
(lp10612
(lp10613
I529
aS'471'
p10614
aS'535'
p10615
aa(lp10616
I1311
aS'266'
p10617
aS'344'
p10618
aa(lp10619
I1312
aS'187'
p10620
aS'256'
p10621
aa(lp10622
I1313
aS'357'
p10623
aS'409'
p10624
aa(lp10625
I1874
aS'59'
p10626
aS'154'
p10627
aa(lp10628
I2150
aS'2'
aS'159'
p10629
aa(lp10630
I2150
aS'457'
p10631
aS'618'
p10632
aa(lp10633
I2154
aS'984'
p10634
aS'1050'
p10635
aa(lp10636
I2673
aS'79'
p10637
aS'112'
p10638
aa(lp10639
I3290
aS'12'
p10640
aS'39'
p10641
aa(lp10642
I3356
aS'26'
p10643
aS'222'
p10644
aa(lp10645
I3506
aS'393'
p10646
aS'461'
p10647
aa(lp10648
I4338
aS'1028'
p10649
aS'1102'
p10650
aa(lp10651
I4339
aS'597'
p10652
aS'1026'
p10653
aa(lp10654
I4340
aS'18'
p10655
aS'379'
p10656
aa(lp10657
I4342
aS'142'
p10658
aS'334'
p10659
aa(lp10660
I5408
aS'620'
p10661
aS'761'
p10662
aa(lp10663
I5409
aS'768'
p10664
aS'953'
p10665
aa(lp10666
I5415
aS'1064'
p10667
aS'1436'
p10668
aasS'4KN4'
p10669
(lp10670
(lp10671
I529
aS'591'
p10672
aS'656'
p10673
aa(lp10674
I1311
aS'458'
p10675
aS'533'
p10676
aa(lp10677
I1312
aS'379'
p10678
aS'448'
p10679
aa(lp10680
I1313
aS'547'
p10681
aS'600'
p10682
aa(lp10683
I1874
aS'60'
p10684
aS'156'
p10685
aa(lp10686
I2150
aS'15'
p10687
aS'333'
p10688
aa(lp10689
I2154
aS'674'
p10690
aS'763'
p10691
aa(lp10692
I2671
aS'6'
aS'64'
p10693
aa(lp10694
I2673
aS'96'
p10695
aS'126'
p10696
aa(lp10697
I3219
aS'245'
p10698
aS'308'
p10699
aa(lp10700
I3290
aS'10'
p10701
aS'59'
p10702
aa(lp10703
I3356
aS'29'
p10704
aS'228'
p10705
aa(lp10706
I3506
aS'513'
p10707
aS'580'
p10708
aa(lp10709
I4338
aS'1266'
p10710
aS'1340'
p10711
aa(lp10712
I4339
aS'717'
p10713
aS'1264'
p10714
aa(lp10715
I4340
aS'26'
p10716
aS'500'
p10717
aa(lp10718
I4342
aS'151'
p10719
aS'225'
p10720
aa(lp10721
I4342
aS'340'
p10722
aS'454'
p10723
aa(lp10724
I4564
aS'137'
p10725
aS'348'
p10726
aa(lp10727
I5408
aS'344'
p10728
aS'393'
p10729
aa(lp10730
I5408
aS'392'
p10731
aS'485'
p10732
aa(lp10733
I5409
aS'489'
p10734
aS'644'
p10735
aa(lp10736
I5415
aS'766'
p10737
aS'1321'
p10738
aasS'4KN7'
p10739
(lp10740
(lp10741
I529
aS'591'
p10742
aS'656'
p10743
aa(lp10744
I1311
aS'458'
p10745
aS'533'
p10746
aa(lp10747
I1312
aS'379'
p10748
aS'448'
p10749
aa(lp10750
I1313
aS'547'
p10751
aS'600'
p10752
aa(lp10753
I1874
aS'60'
p10754
aS'156'
p10755
aa(lp10756
I2150
aS'15'
p10757
aS'333'
p10758
aa(lp10759
I2154
aS'674'
p10760
aS'763'
p10761
aa(lp10762
I2671
aS'6'
aS'64'
p10763
aa(lp10764
I2673
aS'96'
p10765
aS'126'
p10766
aa(lp10767
I3219
aS'245'
p10768
aS'308'
p10769
aa(lp10770
I3290
aS'10'
p10771
aS'59'
p10772
aa(lp10773
I3356
aS'29'
p10774
aS'228'
p10775
aa(lp10776
I3506
aS'513'
p10777
aS'580'
p10778
aa(lp10779
I4338
aS'1266'
p10780
aS'1340'
p10781
aa(lp10782
I4339
aS'717'
p10783
aS'1264'
p10784
aa(lp10785
I4340
aS'26'
p10786
aS'500'
p10787
aa(lp10788
I4342
aS'151'
p10789
aS'225'
p10790
aa(lp10791
I4342
aS'340'
p10792
aS'454'
p10793
aa(lp10794
I4564
aS'137'
p10795
aS'348'
p10796
aa(lp10797
I5408
aS'344'
p10798
aS'393'
p10799
aa(lp10800
I5408
aS'392'
p10801
aS'485'
p10802
aa(lp10803
I5409
aS'489'
p10804
aS'644'
p10805
aa(lp10806
I5415
aS'766'
p10807
aS'1321'
p10808
aasS'3M4O'
p10809
(lp10810
(lp10811
I1243
aS'4'
aS'40'
p10812
aa(lp10813
I1560
aS'29'
p10814
aS'60'
p10815
aa(lp10816
I1780
aS'7'
aS'146'
p10817
aa(lp10818
I1874
aS'49'
p10819
aS'170'
p10820
aa(lp10821
I2025
aS'74'
p10822
aS'111'
p10823
aa(lp10824
I2150
aS'12'
p10825
aS'340'
p10826
aa(lp10827
I2154
aS'695'
p10828
aS'800'
p10829
aa(lp10830
I2534
aS'142'
p10831
aS'214'
p10832
aa(lp10833
I2536
aS'6'
aS'99'
p10834
aa(lp10835
I2559
aS'31'
p10836
aS'102'
p10837
aa(lp10838
I3290
aS'80'
p10839
aS'132'
p10840
aa(lp10841
I3356
aS'20'
p10842
aS'254'
p10843
aa(lp10844
I3357
aS'1'
aS'59'
p10845
aa(lp10846
I3506
aS'481'
p10847
aS'543'
p10848
aa(lp10849
I4336
aS'681'
p10850
aS'745'
p10851
aa(lp10852
I4337
aS'580'
p10853
aS'641'
p10854
aa(lp10855
I4338
aS'1126'
p10856
aS'1218'
p10857
aa(lp10858
I4339
aS'753'
p10859
aS'1124'
p10860
aa(lp10861
I4340
aS'42'
p10862
aS'455'
p10863
aa(lp10864
I4342
aS'220'
p10865
aS'407'
p10866
aa(lp10867
I5408
aS'342'
p10868
aS'507'
p10869
aa(lp10870
I5409
aS'510'
p10871
aS'669'
p10872
aa(lp10873
I5412
aS'873'
p10874
aS'1056'
p10875
aa(lp10876
I5413
aS'1141'
p10877
aS'1274'
p10878
aa(lp10879
I5415
aS'807'
p10880
aS'1398'
p10881
aasS'2A6H'
p10882
(lp10883
(lp10884
I529
aS'471'
p10885
aS'535'
p10886
aa(lp10887
I1311
aS'266'
p10888
aS'344'
p10889
aa(lp10890
I1312
aS'187'
p10891
aS'256'
p10892
aa(lp10893
I1313
aS'357'
p10894
aS'409'
p10895
aa(lp10896
I1874
aS'59'
p10897
aS'154'
p10898
aa(lp10899
I2150
aS'2'
aS'159'
p10900
aa(lp10901
I2150
aS'457'
p10902
aS'618'
p10903
aa(lp10904
I2154
aS'984'
p10905
aS'1050'
p10906
aa(lp10907
I2673
aS'79'
p10908
aS'112'
p10909
aa(lp10910
I3290
aS'12'
p10911
aS'39'
p10912
aa(lp10913
I3356
aS'26'
p10914
aS'222'
p10915
aa(lp10916
I3506
aS'393'
p10917
aS'461'
p10918
aa(lp10919
I4338
aS'1028'
p10920
aS'1102'
p10921
aa(lp10922
I4339
aS'597'
p10923
aS'1026'
p10924
aa(lp10925
I4340
aS'18'
p10926
aS'379'
p10927
aa(lp10928
I4342
aS'142'
p10929
aS'334'
p10930
aa(lp10931
I5408
aS'620'
p10932
aS'761'
p10933
aa(lp10934
I5409
aS'768'
p10935
aS'953'
p10936
aa(lp10937
I5415
aS'1064'
p10938
aS'1436'
p10939
aasS'2A6E'
p10940
(lp10941
(lp10942
I529
aS'471'
p10943
aS'535'
p10944
aa(lp10945
I1311
aS'266'
p10946
aS'344'
p10947
aa(lp10948
I1312
aS'187'
p10949
aS'256'
p10950
aa(lp10951
I1313
aS'357'
p10952
aS'409'
p10953
aa(lp10954
I1874
aS'59'
p10955
aS'154'
p10956
aa(lp10957
I2150
aS'2'
aS'159'
p10958
aa(lp10959
I2150
aS'457'
p10960
aS'618'
p10961
aa(lp10962
I2154
aS'984'
p10963
aS'1050'
p10964
aa(lp10965
I2673
aS'79'
p10966
aS'112'
p10967
aa(lp10968
I3290
aS'12'
p10969
aS'39'
p10970
aa(lp10971
I3356
aS'26'
p10972
aS'222'
p10973
aa(lp10974
I3506
aS'393'
p10975
aS'461'
p10976
aa(lp10977
I4338
aS'1028'
p10978
aS'1102'
p10979
aa(lp10980
I4339
aS'597'
p10981
aS'1026'
p10982
aa(lp10983
I4340
aS'18'
p10984
aS'379'
p10985
aa(lp10986
I4342
aS'142'
p10987
aS'334'
p10988
aa(lp10989
I5408
aS'620'
p10990
aS'761'
p10991
aa(lp10992
I5409
aS'768'
p10993
aS'953'
p10994
aa(lp10995
I5415
aS'1064'
p10996
aS'1436'
p10997
aasS'1I6H'
p10998
(lp10999
(lp11000
I1243
aS'4'
aS'40'
p11001
aa(lp11002
I1560
aS'29'
p11003
aS'60'
p11004
aa(lp11005
I1780
aS'7'
aS'146'
p11006
aa(lp11007
I1874
aS'49'
p11008
aS'170'
p11009
aa(lp11010
I2025
aS'74'
p11011
aS'111'
p11012
aa(lp11013
I2150
aS'12'
p11014
aS'340'
p11015
aa(lp11016
I2154
aS'695'
p11017
aS'800'
p11018
aa(lp11019
I2534
aS'142'
p11020
aS'214'
p11021
aa(lp11022
I2536
aS'6'
aS'99'
p11023
aa(lp11024
I2559
aS'31'
p11025
aS'102'
p11026
aa(lp11027
I3290
aS'80'
p11028
aS'132'
p11029
aa(lp11030
I3356
aS'20'
p11031
aS'254'
p11032
aa(lp11033
I3357
aS'1'
aS'59'
p11034
aa(lp11035
I3506
aS'481'
p11036
aS'543'
p11037
aa(lp11038
I4336
aS'681'
p11039
aS'745'
p11040
aa(lp11041
I4337
aS'580'
p11042
aS'641'
p11043
aa(lp11044
I4338
aS'1126'
p11045
aS'1218'
p11046
aa(lp11047
I4339
aS'753'
p11048
aS'1124'
p11049
aa(lp11050
I4340
aS'42'
p11051
aS'455'
p11052
aa(lp11053
I4342
aS'220'
p11054
aS'407'
p11055
aa(lp11056
I5408
aS'342'
p11057
aS'507'
p11058
aa(lp11059
I5409
aS'510'
p11060
aS'669'
p11061
aa(lp11062
I5412
aS'873'
p11063
aS'1056'
p11064
aa(lp11065
I5413
aS'1141'
p11066
aS'1274'
p11067
aa(lp11068
I5415
aS'807'
p11069
aS'1398'
p11070
aasS'4X67'
p11071
(lp11072
(lp11073
I1243
aS'4'
aS'40'
p11074
aa(lp11075
I1560
aS'29'
p11076
aS'60'
p11077
aa(lp11078
I1780
aS'7'
aS'146'
p11079
aa(lp11080
I1874
aS'49'
p11081
aS'170'
p11082
aa(lp11083
I2025
aS'74'
p11084
aS'111'
p11085
aa(lp11086
I2150
aS'12'
p11087
aS'340'
p11088
aa(lp11089
I2154
aS'695'
p11090
aS'800'
p11091
aa(lp11092
I2534
aS'142'
p11093
aS'214'
p11094
aa(lp11095
I2536
aS'6'
aS'99'
p11096
aa(lp11097
I2559
aS'31'
p11098
aS'102'
p11099
aa(lp11100
I3290
aS'80'
p11101
aS'132'
p11102
aa(lp11103
I3356
aS'20'
p11104
aS'254'
p11105
aa(lp11106
I3357
aS'1'
aS'59'
p11107
aa(lp11108
I3506
aS'481'
p11109
aS'543'
p11110
aa(lp11111
I4336
aS'681'
p11112
aS'745'
p11113
aa(lp11114
I4337
aS'580'
p11115
aS'641'
p11116
aa(lp11117
I4338
aS'1126'
p11118
aS'1218'
p11119
aa(lp11120
I4339
aS'753'
p11121
aS'1124'
p11122
aa(lp11123
I4340
aS'42'
p11124
aS'455'
p11125
aa(lp11126
I4342
aS'220'
p11127
aS'407'
p11128
aa(lp11129
I5408
aS'342'
p11130
aS'507'
p11131
aa(lp11132
I5409
aS'510'
p11133
aS'669'
p11134
aa(lp11135
I5412
aS'873'
p11136
aS'1056'
p11137
aa(lp11138
I5413
aS'1141'
p11139
aS'1274'
p11140
aa(lp11141
I5415
aS'807'
p11142
aS'1398'
p11143
aasS'4A3I'
p11144
(lp11145
(lp11146
I410
aS'9'
aS'79'
p11147
aa(lp11148
I1243
aS'4'
aS'40'
p11149
aa(lp11150
I1560
aS'29'
p11151
aS'60'
p11152
aa(lp11153
I1780
aS'7'
aS'146'
p11154
aa(lp11155
I1874
aS'49'
p11156
aS'170'
p11157
aa(lp11158
I2025
aS'74'
p11159
aS'111'
p11160
aa(lp11161
I2150
aS'12'
p11162
aS'340'
p11163
aa(lp11164
I2154
aS'695'
p11165
aS'800'
p11166
aa(lp11167
I2534
aS'142'
p11168
aS'214'
p11169
aa(lp11170
I2536
aS'6'
aS'99'
p11171
aa(lp11172
I2559
aS'31'
p11173
aS'102'
p11174
aa(lp11175
I2833
aS'80'
p11176
aS'157'
p11177
aa(lp11178
I3290
aS'80'
p11179
aS'132'
p11180
aa(lp11181
I3356
aS'20'
p11182
aS'254'
p11183
aa(lp11184
I3357
aS'1'
aS'59'
p11185
aa(lp11186
I3506
aS'481'
p11187
aS'543'
p11188
aa(lp11189
I4336
aS'681'
p11190
aS'745'
p11191
aa(lp11192
I4337
aS'580'
p11193
aS'641'
p11194
aa(lp11195
I4338
aS'1126'
p11196
aS'1218'
p11197
aa(lp11198
I4339
aS'753'
p11199
aS'1124'
p11200
aa(lp11201
I4340
aS'42'
p11202
aS'455'
p11203
aa(lp11204
I4342
aS'220'
p11205
aS'407'
p11206
aa(lp11207
I5408
aS'342'
p11208
aS'507'
p11209
aa(lp11210
I5409
aS'510'
p11211
aS'669'
p11212
aa(lp11213
I5412
aS'873'
p11214
aS'1056'
p11215
aa(lp11216
I5413
aS'1141'
p11217
aS'1274'
p11218
aa(lp11219
I5415
aS'807'
p11220
aS'1398'
p11221
aa(lp11222
I5642
aS'49'
p11223
aS'217'
p11224
aasS'4A3J'
p11225
(lp11226
(lp11227
I410
aS'9'
aS'79'
p11228
aa(lp11229
I1243
aS'4'
aS'40'
p11230
aa(lp11231
I1560
aS'29'
p11232
aS'60'
p11233
aa(lp11234
I1780
aS'7'
aS'146'
p11235
aa(lp11236
I1874
aS'49'
p11237
aS'170'
p11238
aa(lp11239
I2025
aS'74'
p11240
aS'111'
p11241
aa(lp11242
I2150
aS'12'
p11243
aS'340'
p11244
aa(lp11245
I2154
aS'695'
p11246
aS'800'
p11247
aa(lp11248
I2534
aS'142'
p11249
aS'214'
p11250
aa(lp11251
I2536
aS'6'
aS'99'
p11252
aa(lp11253
I2559
aS'31'
p11254
aS'102'
p11255
aa(lp11256
I2833
aS'80'
p11257
aS'157'
p11258
aa(lp11259
I3290
aS'80'
p11260
aS'132'
p11261
aa(lp11262
I3356
aS'20'
p11263
aS'254'
p11264
aa(lp11265
I3357
aS'1'
aS'59'
p11266
aa(lp11267
I3506
aS'481'
p11268
aS'543'
p11269
aa(lp11270
I4336
aS'681'
p11271
aS'745'
p11272
aa(lp11273
I4337
aS'580'
p11274
aS'641'
p11275
aa(lp11276
I4338
aS'1126'
p11277
aS'1218'
p11278
aa(lp11279
I4339
aS'753'
p11280
aS'1124'
p11281
aa(lp11282
I4340
aS'42'
p11283
aS'455'
p11284
aa(lp11285
I4342
aS'220'
p11286
aS'407'
p11287
aa(lp11288
I5408
aS'342'
p11289
aS'507'
p11290
aa(lp11291
I5409
aS'510'
p11292
aS'669'
p11293
aa(lp11294
I5412
aS'873'
p11295
aS'1056'
p11296
aa(lp11297
I5413
aS'1141'
p11298
aS'1274'
p11299
aa(lp11300
I5415
aS'807'
p11301
aS'1398'
p11302
aa(lp11303
I5642
aS'49'
p11304
aS'217'
p11305
aasS'3DXJ'
p11306
(lp11307
(lp11308
I529
aS'471'
p11309
aS'535'
p11310
aa(lp11311
I1311
aS'266'
p11312
aS'344'
p11313
aa(lp11314
I1312
aS'187'
p11315
aS'256'
p11316
aa(lp11317
I1313
aS'357'
p11318
aS'409'
p11319
aa(lp11320
I1874
aS'59'
p11321
aS'154'
p11322
aa(lp11323
I2150
aS'2'
aS'159'
p11324
aa(lp11325
I2150
aS'457'
p11326
aS'618'
p11327
aa(lp11328
I2154
aS'984'
p11329
aS'1050'
p11330
aa(lp11331
I2673
aS'79'
p11332
aS'112'
p11333
aa(lp11334
I3290
aS'12'
p11335
aS'39'
p11336
aa(lp11337
I3356
aS'26'
p11338
aS'222'
p11339
aa(lp11340
I3506
aS'393'
p11341
aS'461'
p11342
aa(lp11343
I4338
aS'1028'
p11344
aS'1102'
p11345
aa(lp11346
I4339
aS'597'
p11347
aS'1026'
p11348
aa(lp11349
I4340
aS'18'
p11350
aS'379'
p11351
aa(lp11352
I4342
aS'142'
p11353
aS'334'
p11354
aa(lp11355
I5408
aS'620'
p11356
aS'761'
p11357
aa(lp11358
I5409
aS'768'
p11359
aS'953'
p11360
aa(lp11361
I5415
aS'1064'
p11362
aS'1436'
p11363
aasS'4A3L'
p11364
(lp11365
(lp11366
I410
aS'9'
aS'79'
p11367
aa(lp11368
I1243
aS'4'
aS'40'
p11369
aa(lp11370
I1560
aS'29'
p11371
aS'60'
p11372
aa(lp11373
I1780
aS'7'
aS'146'
p11374
aa(lp11375
I1874
aS'49'
p11376
aS'170'
p11377
aa(lp11378
I2025
aS'74'
p11379
aS'111'
p11380
aa(lp11381
I2150
aS'12'
p11382
aS'340'
p11383
aa(lp11384
I2154
aS'695'
p11385
aS'800'
p11386
aa(lp11387
I2534
aS'142'
p11388
aS'214'
p11389
aa(lp11390
I2536
aS'6'
aS'99'
p11391
aa(lp11392
I2559
aS'31'
p11393
aS'102'
p11394
aa(lp11395
I2833
aS'80'
p11396
aS'157'
p11397
aa(lp11398
I3290
aS'80'
p11399
aS'132'
p11400
aa(lp11401
I3356
aS'20'
p11402
aS'254'
p11403
aa(lp11404
I3357
aS'1'
aS'59'
p11405
aa(lp11406
I3506
aS'481'
p11407
aS'543'
p11408
aa(lp11409
I4336
aS'681'
p11410
aS'745'
p11411
aa(lp11412
I4337
aS'580'
p11413
aS'641'
p11414
aa(lp11415
I4338
aS'1126'
p11416
aS'1218'
p11417
aa(lp11418
I4339
aS'753'
p11419
aS'1124'
p11420
aa(lp11421
I4340
aS'42'
p11422
aS'455'
p11423
aa(lp11424
I4342
aS'220'
p11425
aS'407'
p11426
aa(lp11427
I5408
aS'342'
p11428
aS'507'
p11429
aa(lp11430
I5409
aS'510'
p11431
aS'669'
p11432
aa(lp11433
I5412
aS'873'
p11434
aS'1056'
p11435
aa(lp11436
I5413
aS'1141'
p11437
aS'1274'
p11438
aa(lp11439
I5415
aS'807'
p11440
aS'1398'
p11441
aa(lp11442
I5642
aS'49'
p11443
aS'217'
p11444
aasS'4A3M'
p11445
(lp11446
(lp11447
I410
aS'9'
aS'79'
p11448
aa(lp11449
I1243
aS'4'
aS'40'
p11450
aa(lp11451
I1560
aS'29'
p11452
aS'60'
p11453
aa(lp11454
I1780
aS'7'
aS'146'
p11455
aa(lp11456
I1874
aS'49'
p11457
aS'170'
p11458
aa(lp11459
I2025
aS'74'
p11460
aS'111'
p11461
aa(lp11462
I2150
aS'12'
p11463
aS'340'
p11464
aa(lp11465
I2154
aS'695'
p11466
aS'800'
p11467
aa(lp11468
I2534
aS'142'
p11469
aS'214'
p11470
aa(lp11471
I2536
aS'6'
aS'99'
p11472
aa(lp11473
I2559
aS'31'
p11474
aS'102'
p11475
aa(lp11476
I2833
aS'80'
p11477
aS'157'
p11478
aa(lp11479
I3290
aS'80'
p11480
aS'132'
p11481
aa(lp11482
I3356
aS'20'
p11483
aS'254'
p11484
aa(lp11485
I3357
aS'1'
aS'59'
p11486
aa(lp11487
I3506
aS'481'
p11488
aS'543'
p11489
aa(lp11490
I4336
aS'681'
p11491
aS'745'
p11492
aa(lp11493
I4337
aS'580'
p11494
aS'641'
p11495
aa(lp11496
I4338
aS'1126'
p11497
aS'1218'
p11498
aa(lp11499
I4339
aS'753'
p11500
aS'1124'
p11501
aa(lp11502
I4340
aS'42'
p11503
aS'455'
p11504
aa(lp11505
I4342
aS'220'
p11506
aS'407'
p11507
aa(lp11508
I5408
aS'342'
p11509
aS'507'
p11510
aa(lp11511
I5409
aS'510'
p11512
aS'669'
p11513
aa(lp11514
I5412
aS'873'
p11515
aS'1056'
p11516
aa(lp11517
I5413
aS'1141'
p11518
aS'1274'
p11519
aa(lp11520
I5415
aS'807'
p11521
aS'1398'
p11522
aa(lp11523
I5642
aS'49'
p11524
aS'217'
p11525
aasS'2B63'
p11526
(lp11527
(lp11528
I410
aS'9'
aS'79'
p11529
aa(lp11530
I1243
aS'4'
aS'40'
p11531
aa(lp11532
I1560
aS'29'
p11533
aS'60'
p11534
aa(lp11535
I1780
aS'7'
aS'146'
p11536
aa(lp11537
I1874
aS'49'
p11538
aS'170'
p11539
aa(lp11540
I2025
aS'74'
p11541
aS'111'
p11542
aa(lp11543
I2150
aS'12'
p11544
aS'340'
p11545
aa(lp11546
I2154
aS'695'
p11547
aS'800'
p11548
aa(lp11549
I2534
aS'142'
p11550
aS'214'
p11551
aa(lp11552
I2536
aS'6'
aS'99'
p11553
aa(lp11554
I2559
aS'31'
p11555
aS'102'
p11556
aa(lp11557
I2833
aS'80'
p11558
aS'157'
p11559
aa(lp11560
I3290
aS'80'
p11561
aS'132'
p11562
aa(lp11563
I3356
aS'20'
p11564
aS'254'
p11565
aa(lp11566
I3357
aS'1'
aS'59'
p11567
aa(lp11568
I3506
aS'481'
p11569
aS'543'
p11570
aa(lp11571
I4336
aS'681'
p11572
aS'745'
p11573
aa(lp11574
I4337
aS'580'
p11575
aS'641'
p11576
aa(lp11577
I4338
aS'1126'
p11578
aS'1218'
p11579
aa(lp11580
I4339
aS'753'
p11581
aS'1124'
p11582
aa(lp11583
I4340
aS'42'
p11584
aS'455'
p11585
aa(lp11586
I4342
aS'220'
p11587
aS'407'
p11588
aa(lp11589
I5408
aS'342'
p11590
aS'507'
p11591
aa(lp11592
I5409
aS'510'
p11593
aS'669'
p11594
aa(lp11595
I5412
aS'873'
p11596
aS'1056'
p11597
aa(lp11598
I5413
aS'1141'
p11599
aS'1274'
p11600
aa(lp11601
I5415
aS'807'
p11602
aS'1398'
p11603
aa(lp11604
I5642
aS'49'
p11605
aS'217'
p11606
aasS'4A3B'
p11607
(lp11608
(lp11609
I410
aS'9'
aS'79'
p11610
aa(lp11611
I1243
aS'4'
aS'40'
p11612
aa(lp11613
I1560
aS'29'
p11614
aS'60'
p11615
aa(lp11616
I1780
aS'7'
aS'146'
p11617
aa(lp11618
I1874
aS'49'
p11619
aS'170'
p11620
aa(lp11621
I2025
aS'74'
p11622
aS'111'
p11623
aa(lp11624
I2150
aS'12'
p11625
aS'340'
p11626
aa(lp11627
I2154
aS'695'
p11628
aS'800'
p11629
aa(lp11630
I2534
aS'142'
p11631
aS'214'
p11632
aa(lp11633
I2536
aS'6'
aS'99'
p11634
aa(lp11635
I2559
aS'31'
p11636
aS'102'
p11637
aa(lp11638
I2833
aS'80'
p11639
aS'157'
p11640
aa(lp11641
I3290
aS'80'
p11642
aS'132'
p11643
aa(lp11644
I3356
aS'20'
p11645
aS'254'
p11646
aa(lp11647
I3357
aS'1'
aS'59'
p11648
aa(lp11649
I3506
aS'481'
p11650
aS'543'
p11651
aa(lp11652
I4336
aS'681'
p11653
aS'745'
p11654
aa(lp11655
I4337
aS'580'
p11656
aS'641'
p11657
aa(lp11658
I4338
aS'1126'
p11659
aS'1218'
p11660
aa(lp11661
I4339
aS'753'
p11662
aS'1124'
p11663
aa(lp11664
I4340
aS'42'
p11665
aS'455'
p11666
aa(lp11667
I4342
aS'220'
p11668
aS'407'
p11669
aa(lp11670
I5408
aS'342'
p11671
aS'507'
p11672
aa(lp11673
I5409
aS'510'
p11674
aS'669'
p11675
aa(lp11676
I5412
aS'873'
p11677
aS'1056'
p11678
aa(lp11679
I5413
aS'1141'
p11680
aS'1274'
p11681
aa(lp11682
I5415
aS'807'
p11683
aS'1398'
p11684
aa(lp11685
I5642
aS'49'
p11686
aS'217'
p11687
aasS'4A3C'
p11688
(lp11689
(lp11690
I410
aS'9'
aS'79'
p11691
aa(lp11692
I1243
aS'4'
aS'40'
p11693
aa(lp11694
I1560
aS'29'
p11695
aS'60'
p11696
aa(lp11697
I1780
aS'7'
aS'146'
p11698
aa(lp11699
I1874
aS'49'
p11700
aS'170'
p11701
aa(lp11702
I2025
aS'74'
p11703
aS'111'
p11704
aa(lp11705
I2150
aS'12'
p11706
aS'340'
p11707
aa(lp11708
I2154
aS'695'
p11709
aS'800'
p11710
aa(lp11711
I2534
aS'142'
p11712
aS'214'
p11713
aa(lp11714
I2536
aS'6'
aS'99'
p11715
aa(lp11716
I2559
aS'31'
p11717
aS'102'
p11718
aa(lp11719
I2833
aS'80'
p11720
aS'157'
p11721
aa(lp11722
I3290
aS'80'
p11723
aS'132'
p11724
aa(lp11725
I3356
aS'20'
p11726
aS'254'
p11727
aa(lp11728
I3357
aS'1'
aS'59'
p11729
aa(lp11730
I3506
aS'481'
p11731
aS'543'
p11732
aa(lp11733
I4336
aS'681'
p11734
aS'745'
p11735
aa(lp11736
I4337
aS'580'
p11737
aS'641'
p11738
aa(lp11739
I4338
aS'1126'
p11740
aS'1218'
p11741
aa(lp11742
I4339
aS'753'
p11743
aS'1124'
p11744
aa(lp11745
I4340
aS'42'
p11746
aS'455'
p11747
aa(lp11748
I4342
aS'220'
p11749
aS'407'
p11750
aa(lp11751
I5408
aS'342'
p11752
aS'507'
p11753
aa(lp11754
I5409
aS'510'
p11755
aS'669'
p11756
aa(lp11757
I5412
aS'873'
p11758
aS'1056'
p11759
aa(lp11760
I5413
aS'1141'
p11761
aS'1274'
p11762
aa(lp11763
I5415
aS'807'
p11764
aS'1398'
p11765
aa(lp11766
I5642
aS'49'
p11767
aS'217'
p11768
aasS'4A3D'
p11769
(lp11770
(lp11771
I410
aS'9'
aS'79'
p11772
aa(lp11773
I1243
aS'4'
aS'40'
p11774
aa(lp11775
I1560
aS'29'
p11776
aS'60'
p11777
aa(lp11778
I1780
aS'7'
aS'146'
p11779
aa(lp11780
I1874
aS'49'
p11781
aS'170'
p11782
aa(lp11783
I2025
aS'74'
p11784
aS'111'
p11785
aa(lp11786
I2150
aS'12'
p11787
aS'340'
p11788
aa(lp11789
I2154
aS'695'
p11790
aS'800'
p11791
aa(lp11792
I2534
aS'142'
p11793
aS'214'
p11794
aa(lp11795
I2536
aS'6'
aS'99'
p11796
aa(lp11797
I2559
aS'31'
p11798
aS'102'
p11799
aa(lp11800
I2833
aS'80'
p11801
aS'157'
p11802
aa(lp11803
I3290
aS'80'
p11804
aS'132'
p11805
aa(lp11806
I3356
aS'20'
p11807
aS'254'
p11808
aa(lp11809
I3357
aS'1'
aS'59'
p11810
aa(lp11811
I3506
aS'481'
p11812
aS'543'
p11813
aa(lp11814
I4336
aS'681'
p11815
aS'745'
p11816
aa(lp11817
I4337
aS'580'
p11818
aS'641'
p11819
aa(lp11820
I4338
aS'1126'
p11821
aS'1218'
p11822
aa(lp11823
I4339
aS'753'
p11824
aS'1124'
p11825
aa(lp11826
I4340
aS'42'
p11827
aS'455'
p11828
aa(lp11829
I4342
aS'220'
p11830
aS'407'
p11831
aa(lp11832
I5408
aS'342'
p11833
aS'507'
p11834
aa(lp11835
I5409
aS'510'
p11836
aS'669'
p11837
aa(lp11838
I5412
aS'873'
p11839
aS'1056'
p11840
aa(lp11841
I5413
aS'1141'
p11842
aS'1274'
p11843
aa(lp11844
I5415
aS'807'
p11845
aS'1398'
p11846
aa(lp11847
I5642
aS'49'
p11848
aS'217'
p11849
aasS'4A3E'
p11850
(lp11851
(lp11852
I410
aS'9'
aS'79'
p11853
aa(lp11854
I1243
aS'4'
aS'40'
p11855
aa(lp11856
I1560
aS'29'
p11857
aS'60'
p11858
aa(lp11859
I1780
aS'7'
aS'146'
p11860
aa(lp11861
I1874
aS'49'
p11862
aS'170'
p11863
aa(lp11864
I2025
aS'74'
p11865
aS'111'
p11866
aa(lp11867
I2150
aS'12'
p11868
aS'340'
p11869
aa(lp11870
I2154
aS'695'
p11871
aS'800'
p11872
aa(lp11873
I2534
aS'142'
p11874
aS'214'
p11875
aa(lp11876
I2536
aS'6'
aS'99'
p11877
aa(lp11878
I2559
aS'31'
p11879
aS'102'
p11880
aa(lp11881
I2833
aS'80'
p11882
aS'157'
p11883
aa(lp11884
I3290
aS'80'
p11885
aS'132'
p11886
aa(lp11887
I3356
aS'20'
p11888
aS'254'
p11889
aa(lp11890
I3357
aS'1'
aS'59'
p11891
aa(lp11892
I3506
aS'481'
p11893
aS'543'
p11894
aa(lp11895
I4336
aS'681'
p11896
aS'745'
p11897
aa(lp11898
I4337
aS'580'
p11899
aS'641'
p11900
aa(lp11901
I4338
aS'1126'
p11902
aS'1218'
p11903
aa(lp11904
I4339
aS'753'
p11905
aS'1124'
p11906
aa(lp11907
I4340
aS'42'
p11908
aS'455'
p11909
aa(lp11910
I4342
aS'220'
p11911
aS'407'
p11912
aa(lp11913
I5408
aS'342'
p11914
aS'507'
p11915
aa(lp11916
I5409
aS'510'
p11917
aS'669'
p11918
aa(lp11919
I5412
aS'873'
p11920
aS'1056'
p11921
aa(lp11922
I5413
aS'1141'
p11923
aS'1274'
p11924
aa(lp11925
I5415
aS'807'
p11926
aS'1398'
p11927
aa(lp11928
I5642
aS'49'
p11929
aS'217'
p11930
aasS'4A3F'
p11931
(lp11932
(lp11933
I410
aS'9'
aS'79'
p11934
aa(lp11935
I1243
aS'4'
aS'40'
p11936
aa(lp11937
I1560
aS'29'
p11938
aS'60'
p11939
aa(lp11940
I1780
aS'7'
aS'146'
p11941
aa(lp11942
I1874
aS'49'
p11943
aS'170'
p11944
aa(lp11945
I2025
aS'74'
p11946
aS'111'
p11947
aa(lp11948
I2150
aS'12'
p11949
aS'340'
p11950
aa(lp11951
I2154
aS'695'
p11952
aS'800'
p11953
aa(lp11954
I2534
aS'142'
p11955
aS'214'
p11956
aa(lp11957
I2536
aS'6'
aS'99'
p11958
aa(lp11959
I2559
aS'31'
p11960
aS'102'
p11961
aa(lp11962
I2833
aS'80'
p11963
aS'157'
p11964
aa(lp11965
I3290
aS'80'
p11966
aS'132'
p11967
aa(lp11968
I3356
aS'20'
p11969
aS'254'
p11970
aa(lp11971
I3357
aS'1'
aS'59'
p11972
aa(lp11973
I3506
aS'481'
p11974
aS'543'
p11975
aa(lp11976
I4336
aS'681'
p11977
aS'745'
p11978
aa(lp11979
I4337
aS'580'
p11980
aS'641'
p11981
aa(lp11982
I4338
aS'1126'
p11983
aS'1218'
p11984
aa(lp11985
I4339
aS'753'
p11986
aS'1124'
p11987
aa(lp11988
I4340
aS'42'
p11989
aS'455'
p11990
aa(lp11991
I4342
aS'220'
p11992
aS'407'
p11993
aa(lp11994
I5408
aS'342'
p11995
aS'507'
p11996
aa(lp11997
I5409
aS'510'
p11998
aS'669'
p11999
aa(lp12000
I5412
aS'873'
p12001
aS'1056'
p12002
aa(lp12003
I5413
aS'1141'
p12004
aS'1274'
p12005
aa(lp12006
I5415
aS'807'
p12007
aS'1398'
p12008
aa(lp12009
I5642
aS'49'
p12010
aS'217'
p12011
aasS'4A3G'
p12012
(lp12013
(lp12014
I410
aS'9'
aS'79'
p12015
aa(lp12016
I1243
aS'4'
aS'40'
p12017
aa(lp12018
I1560
aS'29'
p12019
aS'60'
p12020
aa(lp12021
I1780
aS'7'
aS'146'
p12022
aa(lp12023
I1874
aS'49'
p12024
aS'170'
p12025
aa(lp12026
I2025
aS'74'
p12027
aS'111'
p12028
aa(lp12029
I2150
aS'12'
p12030
aS'340'
p12031
aa(lp12032
I2154
aS'695'
p12033
aS'800'
p12034
aa(lp12035
I2534
aS'142'
p12036
aS'214'
p12037
aa(lp12038
I2536
aS'6'
aS'99'
p12039
aa(lp12040
I2559
aS'31'
p12041
aS'102'
p12042
aa(lp12043
I2833
aS'80'
p12044
aS'157'
p12045
aa(lp12046
I3290
aS'80'
p12047
aS'132'
p12048
aa(lp12049
I3356
aS'20'
p12050
aS'254'
p12051
aa(lp12052
I3357
aS'1'
aS'59'
p12053
aa(lp12054
I3506
aS'481'
p12055
aS'543'
p12056
aa(lp12057
I4336
aS'681'
p12058
aS'745'
p12059
aa(lp12060
I4337
aS'580'
p12061
aS'641'
p12062
aa(lp12063
I4338
aS'1126'
p12064
aS'1218'
p12065
aa(lp12066
I4339
aS'753'
p12067
aS'1124'
p12068
aa(lp12069
I4340
aS'42'
p12070
aS'455'
p12071
aa(lp12072
I4342
aS'220'
p12073
aS'407'
p12074
aa(lp12075
I5408
aS'342'
p12076
aS'507'
p12077
aa(lp12078
I5409
aS'510'
p12079
aS'669'
p12080
aa(lp12081
I5412
aS'873'
p12082
aS'1056'
p12083
aa(lp12084
I5413
aS'1141'
p12085
aS'1274'
p12086
aa(lp12087
I5415
aS'807'
p12088
aS'1398'
p12089
aa(lp12090
I5642
aS'49'
p12091
aS'217'
p12092
aasS'2E2J'
p12093
(lp12094
(lp12095
I1243
aS'4'
aS'40'
p12096
aa(lp12097
I1560
aS'29'
p12098
aS'60'
p12099
aa(lp12100
I1780
aS'7'
aS'146'
p12101
aa(lp12102
I1874
aS'49'
p12103
aS'170'
p12104
aa(lp12105
I2025
aS'74'
p12106
aS'111'
p12107
aa(lp12108
I2150
aS'12'
p12109
aS'340'
p12110
aa(lp12111
I2154
aS'695'
p12112
aS'800'
p12113
aa(lp12114
I2534
aS'142'
p12115
aS'214'
p12116
aa(lp12117
I2536
aS'6'
aS'99'
p12118
aa(lp12119
I2559
aS'31'
p12120
aS'102'
p12121
aa(lp12122
I3290
aS'80'
p12123
aS'132'
p12124
aa(lp12125
I3356
aS'20'
p12126
aS'254'
p12127
aa(lp12128
I3357
aS'1'
aS'59'
p12129
aa(lp12130
I3506
aS'481'
p12131
aS'543'
p12132
aa(lp12133
I4336
aS'681'
p12134
aS'745'
p12135
aa(lp12136
I4337
aS'580'
p12137
aS'641'
p12138
aa(lp12139
I4338
aS'1126'
p12140
aS'1218'
p12141
aa(lp12142
I4339
aS'753'
p12143
aS'1124'
p12144
aa(lp12145
I4340
aS'42'
p12146
aS'455'
p12147
aa(lp12148
I4342
aS'220'
p12149
aS'407'
p12150
aa(lp12151
I5408
aS'342'
p12152
aS'507'
p12153
aa(lp12154
I5409
aS'510'
p12155
aS'669'
p12156
aa(lp12157
I5412
aS'873'
p12158
aS'1056'
p12159
aa(lp12160
I5413
aS'1141'
p12161
aS'1274'
p12162
aa(lp12163
I5415
aS'807'
p12164
aS'1398'
p12165
aasS'4GZY'
p12166
(lp12167
(lp12168
I529
aS'471'
p12169
aS'535'
p12170
aa(lp12171
I1874
aS'59'
p12172
aS'154'
p12173
aa(lp12174
I2150
aS'2'
aS'159'
p12175
aa(lp12176
I2150
aS'457'
p12177
aS'618'
p12178
aa(lp12179
I2154
aS'984'
p12180
aS'1050'
p12181
aa(lp12182
I3290
aS'12'
p12183
aS'72'
p12184
aa(lp12185
I3356
aS'26'
p12186
aS'222'
p12187
aa(lp12188
I3506
aS'393'
p12189
aS'461'
p12190
aa(lp12191
I4338
aS'1028'
p12192
aS'1102'
p12193
aa(lp12194
I4339
aS'597'
p12195
aS'1026'
p12196
aa(lp12197
I4340
aS'18'
p12198
aS'379'
p12199
aa(lp12200
I4342
aS'142'
p12201
aS'334'
p12202
aa(lp12203
I5408
aS'620'
p12204
aS'761'
p12205
aa(lp12206
I5409
aS'768'
p12207
aS'953'
p12208
aa(lp12209
I5415
aS'1064'
p12210
aS'1436'
p12211
aasS'3GTP'
p12212
(lp12213
(lp12214
I1243
aS'4'
aS'40'
p12215
aa(lp12216
I1560
aS'29'
p12217
aS'60'
p12218
aa(lp12219
I1780
aS'7'
aS'146'
p12220
aa(lp12221
I1874
aS'49'
p12222
aS'170'
p12223
aa(lp12224
I2025
aS'74'
p12225
aS'111'
p12226
aa(lp12227
I2150
aS'12'
p12228
aS'340'
p12229
aa(lp12230
I2154
aS'695'
p12231
aS'800'
p12232
aa(lp12233
I2534
aS'142'
p12234
aS'214'
p12235
aa(lp12236
I2536
aS'6'
aS'99'
p12237
aa(lp12238
I2559
aS'31'
p12239
aS'102'
p12240
aa(lp12241
I3290
aS'80'
p12242
aS'132'
p12243
aa(lp12244
I3356
aS'20'
p12245
aS'254'
p12246
aa(lp12247
I3357
aS'1'
aS'59'
p12248
aa(lp12249
I3506
aS'481'
p12250
aS'543'
p12251
aa(lp12252
I4336
aS'681'
p12253
aS'745'
p12254
aa(lp12255
I4337
aS'580'
p12256
aS'641'
p12257
aa(lp12258
I4338
aS'1126'
p12259
aS'1218'
p12260
aa(lp12261
I4339
aS'753'
p12262
aS'1124'
p12263
aa(lp12264
I4340
aS'42'
p12265
aS'455'
p12266
aa(lp12267
I4342
aS'220'
p12268
aS'407'
p12269
aa(lp12270
I5408
aS'342'
p12271
aS'507'
p12272
aa(lp12273
I5409
aS'510'
p12274
aS'669'
p12275
aa(lp12276
I5412
aS'873'
p12277
aS'1056'
p12278
aa(lp12279
I5413
aS'1141'
p12280
aS'1274'
p12281
aa(lp12282
I5415
aS'807'
p12283
aS'1398'
p12284
aasS'1NIK'
p12285
(lp12286
(lp12287
I1243
aS'4'
aS'40'
p12288
aa(lp12289
I1560
aS'29'
p12290
aS'60'
p12291
aa(lp12292
I1780
aS'7'
aS'146'
p12293
aa(lp12294
I1874
aS'49'
p12295
aS'170'
p12296
aa(lp12297
I2025
aS'74'
p12298
aS'111'
p12299
aa(lp12300
I2150
aS'12'
p12301
aS'340'
p12302
aa(lp12303
I2154
aS'695'
p12304
aS'800'
p12305
aa(lp12306
I2534
aS'142'
p12307
aS'214'
p12308
aa(lp12309
I2536
aS'6'
aS'99'
p12310
aa(lp12311
I2559
aS'31'
p12312
aS'102'
p12313
aa(lp12314
I3290
aS'80'
p12315
aS'132'
p12316
aa(lp12317
I3356
aS'20'
p12318
aS'254'
p12319
aa(lp12320
I3357
aS'1'
aS'59'
p12321
aa(lp12322
I3506
aS'481'
p12323
aS'543'
p12324
aa(lp12325
I4336
aS'681'
p12326
aS'745'
p12327
aa(lp12328
I4337
aS'580'
p12329
aS'641'
p12330
aa(lp12331
I4338
aS'1126'
p12332
aS'1218'
p12333
aa(lp12334
I4339
aS'753'
p12335
aS'1124'
p12336
aa(lp12337
I4340
aS'42'
p12338
aS'455'
p12339
aa(lp12340
I4342
aS'220'
p12341
aS'407'
p12342
aa(lp12343
I5408
aS'342'
p12344
aS'507'
p12345
aa(lp12346
I5409
aS'510'
p12347
aS'669'
p12348
aa(lp12349
I5412
aS'873'
p12350
aS'1056'
p12351
aa(lp12352
I5413
aS'1141'
p12353
aS'1274'
p12354
aa(lp12355
I5415
aS'807'
p12356
aS'1398'
p12357
aas.