(dp1
S'2AW3'
p2
(lp3
(lp4
I6971
aS'91'
p5
aS'794'
p6
aasS'3K7E'
p7
(lp8
(lp9
I5280
aS'45'
p10
aS'288'
p11
aasS'3N93'
p12
(lp13
(lp14
I6284
aS'38'
p15
aS'99'
p16
aa(lp17
I7017
aS'-347'
p18
aS'-52'
p19
aasS'3N94'
p20
(lp21
(lp22
I6284
aS'52'
p23
aS'116'
p24
aa(lp25
I7017
aS'-325'
p26
aS'-30'
p27
aasS'3N95'
p28
(lp29
(lp30
I6284
aS'38'
p31
aS'99'
p32
aa(lp33
I7017
aS'-347'
p34
aS'-52'
p35
aasS'3N96'
p36
(lp37
(lp38
I6284
aS'38'
p39
aS'99'
p40
aa(lp41
I7017
aS'-347'
p42
aS'-52'
p43
aasS'1KMC'
p44
(lp45
(lp46
I5280
aS'163'
p47
aS'400'
p48
aasS'1GG8'
p49
(lp50
(lp51
I6971
aS'113'
p52
aS'828'
p53
aasS'3MT9'
p54
(lp55
(lp56
I6971
aS'113'
p57
aS'828'
p58
aasS'4KYC'
p59
(lp60
(lp61
I7017
aS'23'
p62
aS'318'
p63
aasS'1CP3'
p64
(lp65
(lp66
I5280
aS'45'
p67
aS'275'
p68
aasS'3WZP'
p69
(lp70
(lp71
I1080
aS'17'
p72
aS'131'
p73
aasS'3WZN'
p74
(lp75
(lp76
I1080
aS'17'
p77
aS'131'
p78
aasS'3PU5'
p79
(lp80
(lp81
I7017
aS'52'
p82
aS'318'
p83
aasS'3WZQ'
p84
(lp85
(lp86
I1080
aS'17'
p87
aS'131'
p88
aasS'1F1J'
p89
(lp90
(lp91
I5280
aS'68'
p92
aS'301'
p93
aasS'4KEG'
p94
(lp95
(lp96
I1881
aS'1058'
p97
aS'1233'
p98
aa(lp99
I7017
aS'23'
p100
aS'318'
p101
aasS'1FA9'
p102
(lp103
(lp104
I6971
aS'113'
p105
aS'828'
p106
aasS'3MBP'
p107
(lp108
(lp109
I7017
aS'23'
p110
aS'318'
p111
aasS'4MY2'
p112
(lp113
(lp114
I319
aS'1048'
p115
aS'1132'
p116
aa(lp117
I7017
aS'25'
p118
aS'320'
p119
aasS'1FC0'
p120
(lp121
(lp122
I6971
aS'113'
p123
aS'828'
p124
aasS'3UOR'
p125
(lp126
(lp127
I7017
aS'44'
p128
aS'354'
p129
aasS'4EDQ'
p130
(lp131
(lp132
I5590
aS'378'
p133
aS'477'
p134
aa(lp135
I7017
aS'24'
p136
aS'319'
p137
aasS'4EDP'
p138
(lp139
(lp140
I7017
aS'50'
p141
aS'313'
p142
aasS'2ECP'
p143
(lp144
(lp145
I6971
aS'112'
p146
aS'826'
p147
aasS'1PTS'
p148
(lp149
(lp150
I1080
aS'17'
p151
aS'131'
p152
aasS'1NL5'
p153
(lp154
(lp155
I7017
aS'23'
p156
aS'318'
p157
aasS'4BBO'
p158
(lp159
(lp160
I1080
aS'3'
aS'110'
p161
aasS'3S0J'
p162
(lp163
(lp164
I6971
aS'113'
p165
aS'828'
p166
aasS'4MBP'
p167
(lp168
(lp169
I7017
aS'23'
p170
aS'318'
p171
aasS'1FQD'
p172
(lp173
(lp174
I7017
aS'23'
p175
aS'318'
p176
aasS'1FQB'
p177
(lp178
(lp179
I7017
aS'23'
p180
aS'318'
p181
aasS'1FQC'
p182
(lp183
(lp184
I7017
aS'23'
p185
aS'318'
p186
aasS'1FQA'
p187
(lp188
(lp189
I7017
aS'23'
p190
aS'318'
p191
aasS'4JKM'
p192
(lp193
(lp194
I2202
aS'276'
p195
aS'592'
p196
aa(lp197
I2203
aS'9'
aS'181'
p198
aa(lp199
I7017
aS'111'
p200
aS'327'
p201
aa(lp202
I7238
aS'184'
p203
aS'274'
p204
aasS'4MRA'
p205
(lp206
(lp207
I6971
aS'113'
p208
aS'828'
p209
aasS'4MI9'
p210
(lp211
(lp212
I6971
aS'113'
p213
aS'828'
p214
aasS'2CDR'
p215
(lp216
(lp217
I5280
aS'45'
p218
aS'174'
p219
aa(lp220
I5280
aS'181'
p221
aS'275'
p222
aasS'3OAI'
p223
(lp224
(lp225
I2388
aS'1005'
p226
aS'1117'
p227
aa(lp228
I7017
aS'23'
p229
aS'318'
p230
aasS'3D4G'
p231
(lp232
(lp233
I4784
aS'376'
p234
aS'473'
p235
aa(lp236
I7017
aS'24'
p237
aS'319'
p238
aasS'1JXQ'
p239
(lp240
(lp241
I5280
aS'163'
p242
aS'400'
p243
aasS'3D4C'
p244
(lp245
(lp246
I4784
aS'376'
p247
aS'473'
p248
aa(lp249
I7017
aS'24'
p250
aS'319'
p251
aasS'3MS4'
p252
(lp253
(lp254
I6971
aS'113'
p255
aS'828'
p256
aasS'2F01'
p257
(lp258
(lp259
I1080
aS'17'
p260
aS'131'
p261
aasS'3PUX'
p262
(lp263
(lp264
I3570
aS'283'
p265
aS'355'
p266
aa(lp267
I3945
aS'20'
p268
aS'161'
p269
aa(lp270
I4927
aS'298'
p271
aS'501'
p272
aa(lp273
I4927
aS'111'
p274
aS'287'
p275
aa(lp276
I4967
aS'100'
p277
aS'260'
p278
aa(lp279
I7017
aS'23'
p280
aS'318'
p281
aasS'3PUY'
p282
(lp283
(lp284
I3570
aS'283'
p285
aS'355'
p286
aa(lp287
I3945
aS'20'
p288
aS'161'
p289
aa(lp290
I4927
aS'298'
p291
aS'501'
p292
aa(lp293
I4927
aS'111'
p294
aS'287'
p295
aa(lp296
I4967
aS'100'
p297
aS'260'
p298
aa(lp299
I7017
aS'23'
p300
aS'318'
p301
aasS'3PUV'
p302
(lp303
(lp304
I3570
aS'283'
p305
aS'355'
p306
aa(lp307
I3945
aS'20'
p308
aS'161'
p309
aa(lp310
I4927
aS'298'
p311
aS'501'
p312
aa(lp313
I4927
aS'111'
p314
aS'287'
p315
aa(lp316
I4967
aS'100'
p317
aS'260'
p318
aa(lp319
I7017
aS'23'
p320
aS'318'
p321
aasS'3PUW'
p322
(lp323
(lp324
I3570
aS'283'
p325
aS'355'
p326
aa(lp327
I3945
aS'20'
p328
aS'161'
p329
aa(lp330
I4927
aS'298'
p331
aS'501'
p332
aa(lp333
I4927
aS'111'
p334
aS'287'
p335
aa(lp336
I4967
aS'100'
p337
aS'260'
p338
aa(lp339
I7017
aS'23'
p340
aS'318'
p341
aasS'1GGN'
p342
(lp343
(lp344
I6971
aS'113'
p345
aS'828'
p346
aasS'4PRZ'
p347
(lp348
(lp349
I5280
aS'234'
p350
aS'476'
p351
aasS'1NW9'
p352
(lp353
(lp354
I1597
aS'268'
p355
aS'330'
p356
aa(lp357
I5280
aS'161'
p358
aS'413'
p359
aasS'3EW2'
p360
(lp361
(lp362
I1080
aS'15'
p363
aS'122'
p364
aasS'1ZMG'
p365
(lp366
(lp367
I7017
aS'23'
p368
aS'318'
p369
aasS'3NP9'
p370
(lp371
(lp372
I6971
aS'113'
p373
aS'828'
p374
aasS'3EHS'
p375
(lp376
(lp377
I6284
aS'42'
p378
aS'104'
p379
aa(lp380
I7017
aS'-326'
p381
aS'-31'
p382
aasS'1I51'
p383
(lp384
(lp385
I5280
aS'68'
p386
aS'196'
p387
aa(lp388
I5280
aS'212'
p389
aS'301'
p390
aasS'4WMV'
p391
(lp392
(lp393
I2848
aS'213'
p394
aS'312'
p395
aa(lp396
I7017
aS'-173'
p397
aS'122'
p398
aasS'3NP7'
p399
(lp400
(lp401
I6971
aS'113'
p402
aS'828'
p403
aasS'3MRV'
p404
(lp405
(lp406
I6971
aS'113'
p407
aS'828'
p408
aasS'4PE2'
p409
(lp410
(lp411
I7017
aS'23'
p412
aS'318'
p413
aasS'2GJ4'
p414
(lp415
(lp416
I6971
aS'113'
p417
aS'828'
p418
aasS'2Y1L'
p419
(lp420
(lp421
I5280
aS'234'
p422
aS'371'
p423
aa(lp424
I5280
aS'392'
p425
aS'476'
p426
aa(lp427
I7453
aS'113'
p428
aS'165'
p429
aa(lp430
I7455
aS'18'
p431
aS'110'
p432
aasS'1NOI'
p433
(lp434
(lp435
I6971
aS'113'
p436
aS'828'
p437
aa(lp438
I6971
aS'113'
p439
aS'828'
p440
aasS'2ZSC'
p441
(lp442
(lp443
I1080
aS'7'
aS'119'
p444
aasS'3WZO'
p445
(lp446
(lp447
I1080
aS'17'
p448
aS'131'
p449
aasS'3PD0'
p450
(lp451
(lp452
I5280
aS'45'
p453
aS'275'
p454
aasS'3NKF'
p455
(lp456
(lp457
I5280
aS'45'
p458
aS'288'
p459
aasS'1STR'
p460
(lp461
(lp462
I1080
aS'17'
p463
aS'131'
p464
aasS'1STS'
p465
(lp466
(lp467
I1080
aS'17'
p468
aS'131'
p469
aasS'1T0K'
p470
(lp471
(lp472
I6625
aS'9'
aS'101'
p473
aa(lp474
I7017
aS'23'
p475
aS'318'
p476
aasS'1N3X'
p477
(lp478
(lp479
I7017
aS'23'
p480
aS'318'
p481
aasS'3NR2'
p482
(lp483
(lp484
I5280
aS'45'
p485
aS'288'
p486
aasS'3F5F'
p487
(lp488
(lp489
I2570
aS'1072'
p490
aS'1326'
p491
aa(lp492
I7017
aS'23'
p493
aS'318'
p494
aasS'3MSC'
p495
(lp496
(lp497
I6971
aS'113'
p498
aS'828'
p499
aasS'1N3W'
p500
(lp501
(lp502
I7017
aS'23'
p503
aS'318'
p504
aasS'2W7Y'
p505
(lp506
(lp507
I7017
aS'62'
p508
aS'360'
p509
aasS'3O3U'
p510
(lp511
(lp512
I158
aS'1023'
p513
aS'1117'
p514
aa(lp515
I725
aS'1124'
p516
aS'1218'
p517
aa(lp518
I7017
aS'23'
p519
aS'318'
p520
aasS'3SYR'
p521
(lp522
(lp523
I6971
aS'113'
p524
aS'828'
p525
aasS'3R7B'
p526
(lp527
(lp528
I5280
aS'200'
p529
aS'332'
p530
aa(lp531
I5280
aS'357'
p532
aS'432'
p533
aasS'1GQF'
p534
(lp535
(lp536
I5280
aS'163'
p537
aS'400'
p538
aasS'3R7N'
p539
(lp540
(lp541
I5280
aS'200'
p542
aS'332'
p543
aa(lp544
I5280
aS'357'
p545
aS'432'
p546
aasS'4FXO'
p547
(lp548
(lp549
I5280
aS'45'
p550
aS'288'
p551
aasS'2BC3'
p552
(lp553
(lp554
I1080
aS'17'
p555
aS'131'
p556
aasS'3J9Y'
p557
(lp558
(lp559
I143
aS'8'
aS'223'
p560
aa(lp561
I143
aS'8'
aS'223'
p562
aa(lp563
I145
aS'2'
aS'94'
p564
aa(lp565
I145
aS'2'
aS'94'
p566
aa(lp567
I147
aS'10'
p568
aS'73'
p569
aa(lp570
I147
aS'10'
p571
aS'73'
p572
aa(lp573
I148
aS'3'
aS'91'
p574
aa(lp575
I148
aS'3'
aS'91'
p576
aa(lp577
I1731
aS'20'
p578
aS'116'
p579
aa(lp580
I1731
aS'20'
p581
aS'116'
p582
aa(lp583
I1732
aS'4'
aS'131'
p584
aa(lp585
I1732
aS'4'
aS'131'
p586
aa(lp587
I1733
aS'71'
p588
aS'139'
p589
aa(lp590
I1733
aS'71'
p591
aS'139'
p592
aa(lp593
I1734
aS'5'
aS'101'
p594
aa(lp595
I1734
aS'5'
aS'101'
p596
aa(lp597
I1735
aS'15'
p598
aS'138'
p599
aa(lp600
I1735
aS'15'
p601
aS'138'
p602
aa(lp603
I1736
aS'54'
p604
aS'120'
p605
aa(lp606
I1736
aS'54'
p607
aS'120'
p608
aa(lp609
I1739
aS'2'
aS'112'
p610
aa(lp611
I1739
aS'2'
aS'112'
p612
aa(lp613
I1787
aS'83'
p614
aS'176'
p615
aa(lp616
I1787
aS'83'
p617
aS'176'
p618
aa(lp619
I2019
aS'6'
aS'52'
p620
aa(lp621
I2019
aS'6'
aS'52'
p622
aa(lp623
I2020
aS'1'
aS'65'
p624
aa(lp625
I2020
aS'1'
aS'65'
p626
aa(lp627
I2021
aS'4'
aS'53'
p628
aa(lp629
I2021
aS'4'
aS'53'
p630
aa(lp631
I2023
aS'1'
aS'38'
p632
aa(lp633
I2023
aS'1'
aS'38'
p634
aa(lp635
I2024
aS'1'
aS'44'
p636
aa(lp637
I2024
aS'1'
aS'44'
p638
aa(lp639
I2417
aS'7'
aS'36'
p640
aa(lp641
I2417
aS'7'
aS'36'
p642
aa(lp643
I2446
aS'119'
p644
aS'201'
p645
aa(lp646
I2446
aS'119'
p647
aS'201'
p648
aa(lp649
I2577
aS'64'
p650
aS'148'
p651
aa(lp652
I2577
aS'64'
p653
aS'148'
p654
aa(lp655
I2585
aS'1'
aS'45'
p656
aa(lp657
I2585
aS'1'
aS'45'
p658
aa(lp659
I2767
aS'4'
aS'91'
p660
aa(lp661
I2767
aS'4'
aS'91'
p662
aa(lp663
I2772
aS'10'
p664
aS'81'
p665
aa(lp666
I2772
aS'89'
p667
aS'163'
p668
aa(lp669
I2772
aS'10'
p670
aS'81'
p671
aa(lp672
I2772
aS'89'
p673
aS'163'
p674
aa(lp675
I2835
aS'96'
p676
aS'142'
p677
aa(lp678
I2835
aS'96'
p679
aS'142'
p680
aa(lp681
I3071
aS'1'
aS'122'
p682
aa(lp683
I3071
aS'1'
aS'122'
p684
aa(lp685
I3544
aS'2'
aS'107'
p686
aa(lp687
I3544
aS'2'
aS'107'
p688
aa(lp689
I3545
aS'7'
aS'100'
p690
aa(lp691
I3545
aS'7'
aS'100'
p692
aa(lp693
I3547
aS'8'
aS'68'
p694
aa(lp695
I3547
aS'8'
aS'68'
p696
aa(lp697
I3548
aS'9'
aS'75'
p698
aa(lp699
I3548
aS'9'
aS'75'
p700
aa(lp701
I3549
aS'47'
p702
aS'100'
p703
aa(lp704
I3549
aS'47'
p705
aS'100'
p706
aa(lp707
I3550
aS'8'
aS'87'
p708
aa(lp709
I3550
aS'8'
aS'87'
p710
aa(lp711
I3553
aS'18'
p712
aS'67'
p713
aa(lp714
I3553
aS'18'
p715
aS'67'
p716
aa(lp717
I3809
aS'86'
p718
aS'156'
p719
aa(lp720
I3809
aS'86'
p721
aS'156'
p722
aa(lp723
I4161
aS'2'
aS'117'
p724
aa(lp725
I4161
aS'2'
aS'117'
p726
aa(lp727
I4162
aS'28'
p728
aS'143'
p729
aa(lp730
I4162
aS'28'
p731
aS'143'
p732
aa(lp733
I4492
aS'1'
aS'59'
p734
aa(lp735
I4492
aS'1'
aS'59'
p736
aa(lp737
I5041
aS'4'
aS'128'
p738
aa(lp739
I5041
aS'4'
aS'128'
p740
aa(lp741
I5042
aS'9'
aS'129'
p742
aa(lp743
I5042
aS'9'
aS'129'
p744
aa(lp745
I5050
aS'1'
aS'148'
p746
aa(lp747
I5050
aS'1'
aS'148'
p748
aa(lp749
I5265
aS'416'
p750
aS'531'
p751
aa(lp752
I5265
aS'416'
p753
aS'531'
p754
aa(lp755
I5271
aS'342'
p756
aS'414'
p757
aa(lp758
I5271
aS'342'
p759
aS'414'
p760
aa(lp761
I5273
aS'124'
p762
aS'248'
p763
aa(lp764
I5273
aS'124'
p765
aS'248'
p766
aa(lp767
I5434
aS'1'
aS'56'
p768
aa(lp769
I5434
aS'1'
aS'56'
p770
aa(lp771
I5516
aS'23'
p772
aS'79'
p773
aa(lp774
I5516
aS'23'
p775
aS'79'
p776
aa(lp777
I5517
aS'13'
p778
aS'198'
p779
aa(lp780
I5517
aS'13'
p781
aS'198'
p782
aa(lp783
I5520
aS'27'
p784
aS'182'
p785
aa(lp786
I5520
aS'27'
p787
aS'182'
p788
aa(lp789
I5521
aS'41'
p790
aS'116'
p791
aa(lp792
I5521
aS'41'
p793
aS'116'
p794
aa(lp795
I5532
aS'5'
aS'122'
p796
aa(lp797
I5532
aS'5'
aS'122'
p798
aa(lp799
I5533
aS'7'
aS'78'
p800
aa(lp801
I5533
aS'7'
aS'78'
p802
aa(lp803
I5589
aS'534'
p804
aS'617'
p805
aa(lp806
I5589
aS'534'
p807
aS'617'
p808
aa(lp809
I5683
aS'8'
aS'66'
p810
aa(lp811
I5683
aS'8'
aS'66'
p812
aa(lp813
I5991
aS'2'
aS'61'
p814
aa(lp815
I5991
aS'2'
aS'61'
p816
aa(lp817
I5992
aS'4'
aS'60'
p818
aa(lp819
I5992
aS'4'
aS'60'
p820
aa(lp821
I5995
aS'2'
aS'108'
p822
aa(lp823
I5995
aS'2'
aS'108'
p824
aa(lp825
I5996
aS'5'
aS'108'
p826
aa(lp827
I5996
aS'5'
aS'108'
p828
aa(lp829
I5997
aS'9'
aS'93'
p830
aa(lp831
I5997
aS'9'
aS'93'
p832
aa(lp833
I6226
aS'2'
aS'237'
p834
aa(lp835
I6226
aS'2'
aS'237'
p836
aa(lp837
I6228
aS'1'
aS'96'
p838
aa(lp839
I6228
aS'1'
aS'96'
p840
aa(lp841
I6345
aS'37'
p842
aS'110'
p843
aa(lp844
I6345
aS'37'
p845
aS'110'
p846
aa(lp847
I6403
aS'18'
p848
aS'127'
p849
aa(lp850
I6403
aS'18'
p851
aS'127'
p852
aa(lp853
I6412
aS'2'
aS'80'
p854
aa(lp855
I6412
aS'2'
aS'80'
p856
aa(lp857
I7148
aS'2'
aS'83'
p858
aa(lp859
I7148
aS'2'
aS'83'
p860
aa(lp861
I7507
aS'3'
aS'55'
p862
aa(lp863
I7507
aS'3'
aS'55'
p864
aasS'3R7S'
p865
(lp866
(lp867
I5280
aS'200'
p868
aS'332'
p869
aa(lp870
I5280
aS'357'
p871
aS'432'
p872
aasS'3SYM'
p873
(lp874
(lp875
I6971
aS'113'
p876
aS'828'
p877
aasS'1OMP'
p878
(lp879
(lp880
I7017
aS'23'
p881
aS'318'
p882
aasS'3QUF'
p883
(lp884
(lp885
I7017
aS'54'
p886
aS'358'
p887
aasS'4EJ2'
p888
(lp889
(lp890
I6971
aS'113'
p891
aS'828'
p892
aasS'3NPA'
p893
(lp894
(lp895
I6971
aS'113'
p896
aS'828'
p897
aasS'3MG5'
p898
(lp899
(lp900
I1080
aS'17'
p901
aS'130'
p902
aasS'4EQB'
p903
(lp904
(lp905
I7017
aS'50'
p906
aS'320'
p907
aasS'1MDP'
p908
(lp909
(lp910
I7017
aS'23'
p911
aS'318'
p912
aasS'2ASV'
p913
(lp914
(lp915
I6971
aS'91'
p916
aS'794'
p917
aasS'1FTW'
p918
(lp919
(lp920
I6971
aS'113'
p921
aS'828'
p922
aasS'1FTQ'
p923
(lp924
(lp925
I6971
aS'113'
p926
aS'828'
p927
aasS'2HQ0'
p928
(lp929
(lp930
I7017
aS'24'
p931
aS'327'
p932
aasS'2QNB'
p933
(lp934
(lp935
I6971
aS'113'
p936
aS'828'
p937
aasS'2OBG'
p938
(lp939
(lp940
I4017
aS'1003'
p941
aS'1077'
p942
aa(lp943
I7017
aS'23'
p944
aS'318'
p945
aasS'1FTY'
p946
(lp947
(lp948
I6971
aS'113'
p949
aS'828'
p950
aasS'3VD8'
p951
(lp952
(lp953
I5335
aS'1009'
p954
aS'1082'
p955
aa(lp956
I7017
aS'23'
p957
aS'318'
p958
aasS'1AHP'
p959
(lp960
(lp961
I6971
aS'91'
p962
aS'793'
p963
aasS'4EKY'
p964
(lp965
(lp966
I6971
aS'113'
p967
aS'828'
p968
aasS'3T3H'
p969
(lp970
(lp971
I6971
aS'113'
p972
aS'828'
p973
aasS'3T3I'
p974
(lp975
(lp976
I6971
aS'113'
p977
aS'828'
p978
aasS'4EXK'
p979
(lp980
(lp981
I2794
aS'352'
p982
aS'473'
p983
aa(lp984
I7017
aS'23'
p985
aS'318'
p986
aasS'9GPB'
p987
(lp988
(lp989
I6971
aS'113'
p990
aS'828'
p991
aasS'3T3D'
p992
(lp993
(lp994
I6971
aS'113'
p995
aS'828'
p996
aasS'3T3E'
p997
(lp998
(lp999
I6971
aS'113'
p1000
aS'828'
p1001
aasS'3T3G'
p1002
(lp1003
(lp1004
I6971
aS'113'
p1005
aS'828'
p1006
aasS'3CUU'
p1007
(lp1008
(lp1009
I6971
aS'113'
p1010
aS'828'
p1011
aasS'3CUT'
p1012
(lp1013
(lp1014
I6971
aS'113'
p1015
aS'828'
p1016
aasS'3CUW'
p1017
(lp1018
(lp1019
I6971
aS'113'
p1020
aS'828'
p1021
aasS'4GJV'
p1022
(lp1023
(lp1024
I1080
aS'17'
p1025
aS'131'
p1026
aasS'3JYR'
p1027
(lp1028
(lp1029
I7017
aS'23'
p1030
aS'317'
p1031
aasS'4GJS'
p1032
(lp1033
(lp1034
I1080
aS'17'
p1035
aS'131'
p1036
aasS'2RTM'
p1037
(lp1038
(lp1039
I1080
aS'17'
p1040
aS'131'
p1041
aasS'3SEY'
p1042
(lp1043
(lp1044
I7017
aS'24'
p1045
aS'319'
p1046
aasS'1C8L'
p1047
(lp1048
(lp1049
I6971
aS'113'
p1050
aS'828'
p1051
aasS'4MFI'
p1052
(lp1053
(lp1054
I7017
aS'67'
p1055
aS'356'
p1056
aasS'4QU5'
p1057
(lp1058
(lp1059
I5280
aS'45'
p1060
aS'275'
p1061
aasS'1XC7'
p1062
(lp1063
(lp1064
I6971
aS'113'
p1065
aS'828'
p1066
aasS'1C8K'
p1067
(lp1068
(lp1069
I6971
aS'113'
p1070
aS'828'
p1071
aasS'1EM6'
p1072
(lp1073
(lp1074
I6971
aS'113'
p1075
aS'828'
p1076
aasS'4PQK'
p1077
(lp1078
(lp1079
I7017
aS'24'
p1080
aS'319'
p1081
aasS'2QN7'
p1082
(lp1083
(lp1084
I6971
aS'113'
p1085
aS'828'
p1086
aasS'2QN1'
p1087
(lp1088
(lp1089
I6971
aS'113'
p1090
aS'828'
p1091
aasS'2QN3'
p1092
(lp1093
(lp1094
I6971
aS'113'
p1095
aS'828'
p1096
aasS'2QN2'
p1097
(lp1098
(lp1099
I6971
aS'113'
p1100
aS'828'
p1101
aasS'4JQZ'
p1102
(lp1103
(lp1104
I5280
aS'45'
p1105
aS'275'
p1106
aasS'2QN9'
p1107
(lp1108
(lp1109
I6971
aS'113'
p1110
aS'828'
p1111
aa(lp1112
I6971
aS'113'
p1113
aS'828'
p1114
aasS'2QN8'
p1115
(lp1116
(lp1117
I6971
aS'113'
p1118
aS'828'
p1119
aasS'1BMQ'
p1120
(lp1121
(lp1122
I5280
aS'163'
p1123
aS'288'
p1124
aa(lp1125
I5280
aS'318'
p1126
aS'400'
p1127
aasS'1P4G'
p1128
(lp1129
(lp1130
I6971
aS'113'
p1131
aS'828'
p1132
aasS'4RG5'
p1133
(lp1134
(lp1135
I7017
aS'23'
p1136
aS'318'
p1137
aasS'1P4J'
p1138
(lp1139
(lp1140
I6971
aS'113'
p1141
aS'828'
p1142
aasS'1P4H'
p1143
(lp1144
(lp1145
I6971
aS'113'
p1146
aS'828'
p1147
aasS'4EQ7'
p1148
(lp1149
(lp1150
I7017
aS'42'
p1151
aS'301'
p1152
aasS'2K7Z'
p1153
(lp1154
(lp1155
I5280
aS'234'
p1156
aS'476'
p1157
aasS'2H5I'
p1158
(lp1159
(lp1160
I5280
aS'45'
p1161
aS'173'
p1162
aa(lp1163
I5280
aS'185'
p1164
aS'275'
p1165
aasS'3SZI'
p1166
(lp1167
(lp1168
I1080
aS'10'
p1169
aS'117'
p1170
aasS'3SZJ'
p1171
(lp1172
(lp1173
I1080
aS'10'
p1174
aS'117'
p1175
aasS'2H5J'
p1176
(lp1177
(lp1178
I5280
aS'45'
p1179
aS'173'
p1180
aa(lp1181
I5280
aS'185'
p1182
aS'275'
p1183
aasS'5DFM'
p1184
(lp1185
(lp1186
I7017
aS'23'
p1187
aS'318'
p1188
aasS'8GPB'
p1189
(lp1190
(lp1191
I6971
aS'113'
p1192
aS'828'
p1193
aasS'2FF5'
p1194
(lp1195
(lp1196
I6971
aS'113'
p1197
aS'828'
p1198
aasS'4IKM'
p1199
(lp1200
(lp1201
I630
aS'374'
p1202
aS'455'
p1203
aa(lp1204
I7017
aS'24'
p1205
aS'319'
p1206
aasS'1MPC'
p1207
(lp1208
(lp1209
I7017
aS'23'
p1210
aS'318'
p1211
aasS'3AMV'
p1212
(lp1213
(lp1214
I6971
aS'113'
p1215
aS'828'
p1216
aasS'1DMB'
p1217
(lp1218
(lp1219
I7017
aS'23'
p1220
aS'318'
p1221
aasS'2PT2'
p1222
(lp1223
(lp1224
I7017
aS'61'
p1225
aS'333'
p1226
aasS'2PT1'
p1227
(lp1228
(lp1229
I7017
aS'61'
p1230
aS'333'
p1231
aasS'1RHM'
p1232
(lp1233
(lp1234
I5280
aS'163'
p1235
aS'295'
p1236
aa(lp1237
I5280
aS'320'
p1238
aS'400'
p1239
aasS'1EZP'
p1240
(lp1241
(lp1242
I7017
aS'23'
p1243
aS'318'
p1244
aasS'1RHK'
p1245
(lp1246
(lp1247
I5280
aS'163'
p1248
aS'295'
p1249
aa(lp1250
I5280
aS'320'
p1251
aS'400'
p1252
aasS'1RHJ'
p1253
(lp1254
(lp1255
I5280
aS'163'
p1256
aS'295'
p1257
aa(lp1258
I5280
aS'320'
p1259
aS'400'
p1260
aa(lp1261
I5280
aS'163'
p1262
aS'295'
p1263
aa(lp1264
I5280
aS'320'
p1265
aS'400'
p1266
aasS'1RHU'
p1267
(lp1268
(lp1269
I5280
aS'163'
p1270
aS'295'
p1271
aa(lp1272
I5280
aS'320'
p1273
aS'400'
p1274
aasS'1RHQ'
p1275
(lp1276
(lp1277
I5280
aS'163'
p1278
aS'295'
p1279
aa(lp1280
I5280
aS'320'
p1281
aS'400'
p1282
aasS'1RHR'
p1283
(lp1284
(lp1285
I5280
aS'163'
p1286
aS'295'
p1287
aa(lp1288
I5280
aS'320'
p1289
aS'400'
p1290
aasS'1MM9'
p1291
(lp1292
(lp1293
I1080
aS'17'
p1294
aS'131'
p1295
aasS'1WV0'
p1296
(lp1297
(lp1298
I6971
aS'113'
p1299
aS'828'
p1300
aasS'1WV1'
p1301
(lp1302
(lp1303
I6971
aS'113'
p1304
aS'828'
p1305
aasS'1QTN'
p1306
(lp1307
(lp1308
I5280
aS'234'
p1309
aS'373'
p1310
aa(lp1311
I5280
aS'390'
p1312
aS'476'
p1313
aasS'1R6Z'
p1314
(lp1315
(lp1316
I2099
aS'618'
p1317
aS'716'
p1318
aa(lp1319
I7017
aS'22'
p1320
aS'317'
p1321
aasS'1LCZ'
p1322
(lp1323
(lp1324
I1080
aS'17'
p1325
aS'131'
p1326
aasS'4QTX'
p1327
(lp1328
(lp1329
I5280
aS'45'
p1330
aS'275'
p1331
aasS'1LCV'
p1332
(lp1333
(lp1334
I1080
aS'17'
p1335
aS'131'
p1336
aasS'1LCW'
p1337
(lp1338
(lp1339
I1080
aS'17'
p1340
aS'131'
p1341
aasS'4N7M'
p1342
(lp1343
(lp1344
I5280
aS'45'
p1345
aS'288'
p1346
aasS'4N7J'
p1347
(lp1348
(lp1349
I5280
aS'45'
p1350
aS'288'
p1351
aasS'2CNO'
p1352
(lp1353
(lp1354
I5280
aS'45'
p1355
aS'174'
p1356
aa(lp1357
I5280
aS'185'
p1358
aS'275'
p1359
aasS'2CNN'
p1360
(lp1361
(lp1362
I5280
aS'45'
p1363
aS'174'
p1364
aa(lp1365
I5280
aS'181'
p1366
aS'275'
p1367
aasS'2CNL'
p1368
(lp1369
(lp1370
I5280
aS'45'
p1371
aS'174'
p1372
aa(lp1373
I5280
aS'181'
p1374
aS'275'
p1375
aasS'2CNK'
p1376
(lp1377
(lp1378
I5280
aS'45'
p1379
aS'174'
p1380
aa(lp1381
I5280
aS'181'
p1382
aS'275'
p1383
aasS'1PEB'
p1384
(lp1385
(lp1386
I7017
aS'23'
p1387
aS'318'
p1388
aasS'3T6L'
p1389
(lp1390
(lp1391
I1080
aS'17'
p1392
aS'131'
p1393
aasS'3RDO'
p1394
(lp1395
(lp1396
I1080
aS'17'
p1397
aS'131'
p1398
aasS'3RDM'
p1399
(lp1400
(lp1401
I1080
aS'30'
p1402
aS'144'
p1403
aasS'2C1E'
p1404
(lp1405
(lp1406
I5280
aS'45'
p1407
aS'174'
p1408
aa(lp1409
I5280
aS'181'
p1410
aS'275'
p1411
aasS'2QLB'
p1412
(lp1413
(lp1414
I5280
aS'68'
p1415
aS'195'
p1416
aa(lp1417
I5280
aS'212'
p1418
aS'301'
p1419
aasS'4HQ0'
p1420
(lp1421
(lp1422
I5280
aS'68'
p1423
aS'301'
p1424
aasS'2FFR'
p1425
(lp1426
(lp1427
I6971
aS'113'
p1428
aS'828'
p1429
aasS'2H51'
p1430
(lp1431
(lp1432
I5280
aS'163'
p1433
aS'288'
p1434
aa(lp1435
I5280
aS'318'
p1436
aS'400'
p1437
aasS'1K08'
p1438
(lp1439
(lp1440
I6971
aS'113'
p1441
aS'828'
p1442
aasS'3RDQ'
p1443
(lp1444
(lp1445
I1080
aS'17'
p1446
aS'131'
p1447
aasS'2H54'
p1448
(lp1449
(lp1450
I5280
aS'163'
p1451
aS'288'
p1452
aa(lp1453
I5280
aS'318'
p1454
aS'400'
p1455
aasS'3RDU'
p1456
(lp1457
(lp1458
I1080
aS'17'
p1459
aS'131'
p1460
aasS'2C1Q'
p1461
(lp1462
(lp1463
I1080
aS'6'
aS'122'
p1464
aasS'2J31'
p1465
(lp1466
(lp1467
I5280
aS'45'
p1468
aS'275'
p1469
aasS'2J30'
p1470
(lp1471
(lp1472
I5280
aS'45'
p1473
aS'275'
p1474
aasS'2J33'
p1475
(lp1476
(lp1477
I5280
aS'45'
p1478
aS'275'
p1479
aasS'2J32'
p1480
(lp1481
(lp1482
I5280
aS'45'
p1483
aS'275'
p1484
aasS'1VWH'
p1485
(lp1486
(lp1487
I1080
aS'17'
p1488
aS'131'
p1489
aasS'3EF7'
p1490
(lp1491
(lp1492
I4784
aS'376'
p1493
aS'473'
p1494
aa(lp1495
I7017
aS'24'
p1496
aS'319'
p1497
aasS'1VWJ'
p1498
(lp1499
(lp1500
I1080
aS'17'
p1501
aS'131'
p1502
aasS'1VWK'
p1503
(lp1504
(lp1505
I1080
aS'17'
p1506
aS'131'
p1507
aasS'1VWD'
p1508
(lp1509
(lp1510
I1080
aS'17'
p1511
aS'131'
p1512
aasS'1VWE'
p1513
(lp1514
(lp1515
I1080
aS'17'
p1516
aS'131'
p1517
aasS'1VWF'
p1518
(lp1519
(lp1520
I1080
aS'17'
p1521
aS'131'
p1522
aasS'4JHQ'
p1523
(lp1524
(lp1525
I1080
aS'5'
aS'121'
p1526
aasS'1VWA'
p1527
(lp1528
(lp1529
I1080
aS'17'
p1530
aS'131'
p1531
aasS'1VWB'
p1532
(lp1533
(lp1534
I1080
aS'17'
p1535
aS'131'
p1536
aasS'3VFJ'
p1537
(lp1538
(lp1539
I7017
aS'23'
p1540
aS'318'
p1541
aasS'1QM5'
p1542
(lp1543
(lp1544
I6971
aS'91'
p1545
aS'794'
p1546
aasS'4EUO'
p1547
(lp1548
(lp1549
I7017
aS'42'
p1550
aS'301'
p1551
aa(lp1552
I7017
aS'42'
p1553
aS'301'
p1554
aasS'3H3G'
p1555
(lp1556
(lp1557
I6284
aS'107'
p1558
aS'172'
p1559
aa(lp1560
I7017
aS'-321'
p1561
aS'-26'
p1562
aa(lp1563
I7536
aS'13'
p1564
aS'34'
p1565
aasS'3IBF'
p1566
(lp1567
(lp1568
I5280
aS'68'
p1569
aS'195'
p1570
aa(lp1571
I5280
aS'212'
p1572
aS'301'
p1573
aasS'4MI3'
p1574
(lp1575
(lp1576
I6971
aS'113'
p1577
aS'828'
p1578
aasS'1VWP'
p1579
(lp1580
(lp1581
I1080
aS'17'
p1582
aS'131'
p1583
aasS'1VWQ'
p1584
(lp1585
(lp1586
I1080
aS'17'
p1587
aS'131'
p1588
aasS'1VWR'
p1589
(lp1590
(lp1591
I1080
aS'17'
p1592
aS'131'
p1593
aasS'2OFB'
p1594
(lp1595
(lp1596
I1080
aS'5'
aS'119'
p1597
aasS'2OFA'
p1598
(lp1599
(lp1600
I1080
aS'5'
aS'119'
p1601
aasS'2OFF'
p1602
(lp1603
(lp1604
I6971
aS'113'
p1605
aS'828'
p1606
aasS'1E4O'
p1607
(lp1608
(lp1609
I6971
aS'91'
p1610
aS'794'
p1611
aasS'2R6G'
p1612
(lp1613
(lp1614
I3570
aS'283'
p1615
aS'355'
p1616
aa(lp1617
I3945
aS'20'
p1618
aS'161'
p1619
aa(lp1620
I4927
aS'298'
p1621
aS'501'
p1622
aa(lp1623
I4927
aS'111'
p1624
aS'287'
p1625
aa(lp1626
I4967
aS'100'
p1627
aS'260'
p1628
aa(lp1629
I7017
aS'23'
p1630
aS'318'
p1631
aasS'2AVI'
p1632
(lp1633
(lp1634
I1080
aS'5'
aS'121'
p1635
aasS'4ELQ'
p1636
(lp1637
(lp1638
I7017
aS'38'
p1639
aS'296'
p1640
aasS'3DEJ'
p1641
(lp1642
(lp1643
I5280
aS'45'
p1644
aS'275'
p1645
aasS'3DEK'
p1646
(lp1647
(lp1648
I5280
aS'45'
p1649
aS'275'
p1650
aasS'3MQ9'
p1651
(lp1652
(lp1653
I5467
aS'370'
p1654
aS'454'
p1655
aa(lp1656
I7017
aS'23'
p1657
aS'318'
p1658
aasS'3DEI'
p1659
(lp1660
(lp1661
I5280
aS'45'
p1662
aS'275'
p1663
aasS'2XD2'
p1664
(lp1665
(lp1666
I7017
aS'57'
p1667
aS'358'
p1668
aasS'3E3L'
p1669
(lp1670
(lp1671
I6971
aS'113'
p1672
aS'828'
p1673
aasS'3E3O'
p1674
(lp1675
(lp1676
I6971
aS'113'
p1677
aS'828'
p1678
aasS'3E3N'
p1679
(lp1680
(lp1681
I6971
aS'113'
p1682
aS'828'
p1683
aasS'2ZB2'
p1684
(lp1685
(lp1686
I6971
aS'113'
p1687
aS'828'
p1688
aasS'3MQF'
p1689
(lp1690
(lp1691
I6971
aS'113'
p1692
aS'828'
p1693
aasS'2AV6'
p1694
(lp1695
(lp1696
I6971
aS'91'
p1697
aS'794'
p1698
aasS'4IRL'
p1699
(lp1700
(lp1701
I630
aS'377'
p1702
aS'459'
p1703
aa(lp1704
I7017
aS'24'
p1705
aS'319'
p1706
aasS'4PS1'
p1707
(lp1708
(lp1709
I5280
aS'234'
p1710
aS'476'
p1711
aasS'4PS0'
p1712
(lp1713
(lp1714
I5280
aS'45'
p1715
aS'275'
p1716
aasS'4WJV'
p1717
(lp1718
(lp1719
I7017
aS'33'
p1720
aS'328'
p1721
aa(lp1722
I7213
aS'141'
p1723
aS'172'
p1724
aa(lp1725
I7213
aS'178'
p1726
aS'214'
p1727
aa(lp1728
I7213
aS'218'
p1729
aS'264'
p1730
aa(lp1731
I7213
aS'269'
p1732
aS'305'
p1733
aa(lp1734
I7213
aS'394'
p1735
aS'430'
p1736
aa(lp1737
I7213
aS'434'
p1738
aS'472'
p1739
aa(lp1740
I7213
aS'481'
p1741
aS'513'
p1742
aasS'4IRW'
p1743
(lp1744
(lp1745
I1080
aS'7'
aS'121'
p1746
aasS'2OF9'
p1747
(lp1748
(lp1749
I1080
aS'5'
aS'119'
p1750
aasS'2OF8'
p1751
(lp1752
(lp1753
I1080
aS'5'
aS'119'
p1754
aasS'2MV0'
p1755
(lp1756
(lp1757
I7017
aS'23'
p1758
aS'318'
p1759
aasS'1K86'
p1760
(lp1761
(lp1762
I5280
aS'68'
p1763
aS'301'
p1764
aasS'4H1G'
p1765
(lp1766
(lp1767
I4645
aS'353'
p1768
aS'682'
p1769
aa(lp1770
I7017
aS'-347'
p1771
aS'-52'
p1772
aasS'4DCO'
p1773
(lp1774
(lp1775
I5280
aS'45'
p1776
aS'174'
p1777
aa(lp1778
I5280
aS'185'
p1779
aS'275'
p1780
aasS'1K88'
p1781
(lp1782
(lp1783
I5280
aS'68'
p1784
aS'301'
p1785
aasS'4DCJ'
p1786
(lp1787
(lp1788
I5280
aS'45'
p1789
aS'173'
p1790
aa(lp1791
I5280
aS'185'
p1792
aS'275'
p1793
aasS'3G2L'
p1794
(lp1795
(lp1796
I6971
aS'113'
p1797
aS'828'
p1798
aasS'3G2N'
p1799
(lp1800
(lp1801
I6971
aS'113'
p1802
aS'828'
p1803
aasS'1XL0'
p1804
(lp1805
(lp1806
I6971
aS'113'
p1807
aS'828'
p1808
aasS'2A8G'
p1809
(lp1810
(lp1811
I1080
aS'5'
aS'121'
p1812
aasS'3G2I'
p1813
(lp1814
(lp1815
I6971
aS'113'
p1816
aS'828'
p1817
aasS'3G2J'
p1818
(lp1819
(lp1820
I6971
aS'113'
p1821
aS'828'
p1822
aasS'3G2K'
p1823
(lp1824
(lp1825
I6971
aS'113'
p1826
aS'828'
p1827
aasS'1C50'
p1828
(lp1829
(lp1830
I6971
aS'113'
p1831
aS'828'
p1832
aasS'1WUY'
p1833
(lp1834
(lp1835
I6971
aS'113'
p1836
aS'828'
p1837
aasS'3R6G'
p1838
(lp1839
(lp1840
I5280
aS'200'
p1841
aS'332'
p1842
aa(lp1843
I5280
aS'357'
p1844
aS'432'
p1845
aasS'3R6L'
p1846
(lp1847
(lp1848
I5280
aS'200'
p1849
aS'332'
p1850
aa(lp1851
I5280
aS'357'
p1852
aS'432'
p1853
aasS'4DCP'
p1854
(lp1855
(lp1856
I5280
aS'45'
p1857
aS'174'
p1858
aa(lp1859
I5280
aS'185'
p1860
aS'275'
p1861
aasS'4Y59'
p1862
(lp1863
(lp1864
I1080
aS'17'
p1865
aS'131'
p1866
aasS'1HQQ'
p1867
(lp1868
(lp1869
I1080
aS'17'
p1870
aS'131'
p1871
aasS'4QTY'
p1872
(lp1873
(lp1874
I5280
aS'45'
p1875
aS'275'
p1876
aasS'1ABB'
p1877
(lp1878
(lp1879
I6971
aS'113'
p1880
aS'828'
p1881
aasS'1WUT'
p1882
(lp1883
(lp1884
I6971
aS'113'
p1885
aS'828'
p1886
aasS'2C4M'
p1887
(lp1888
(lp1889
I6971
aS'92'
p1890
aS'787'
p1891
aasS'2QRQ'
p1892
(lp1893
(lp1894
I6971
aS'113'
p1895
aS'828'
p1896
aasS'2C4I'
p1897
(lp1898
(lp1899
I1080
aS'5'
aS'66'
p1900
aa(lp1901
I1080
aS'84'
p1902
aS'187'
p1903
aa(lp1904
I1080
aS'205'
p1905
aS'273'
p1906
aa(lp1907
I1080
aS'5'
aS'66'
p1908
aa(lp1909
I1080
aS'84'
p1910
aS'187'
p1911
aa(lp1912
I1080
aS'205'
p1913
aS'273'
p1914
aasS'4OGM'
p1915
(lp1916
(lp1917
I7017
aS'24'
p1918
aS'319'
p1919
aasS'2H25'
p1920
(lp1921
(lp1922
I7017
aS'23'
p1923
aS'318'
p1924
aasS'1SC4'
p1925
(lp1926
(lp1927
I5280
aS'163'
p1928
aS'288'
p1929
aa(lp1930
I5280
aS'318'
p1931
aS'400'
p1932
aasS'4HVA'
p1933
(lp1934
(lp1935
I5280
aS'45'
p1936
aS'288'
p1937
aasS'1SC1'
p1938
(lp1939
(lp1940
I5280
aS'163'
p1941
aS'288'
p1942
aa(lp1943
I5280
aS'318'
p1944
aS'400'
p1945
aasS'2AMV'
p1946
(lp1947
(lp1948
I6971
aS'113'
p1949
aS'828'
p1950
aasS'1SC3'
p1951
(lp1952
(lp1953
I5280
aS'163'
p1954
aS'288'
p1955
aa(lp1956
I5280
aS'318'
p1957
aS'400'
p1958
aasS'2CJY'
p1959
(lp1960
(lp1961
I5280
aS'45'
p1962
aS'174'
p1963
aa(lp1964
I5280
aS'181'
p1965
aS'275'
p1966
aasS'2CJX'
p1967
(lp1968
(lp1969
I5280
aS'45'
p1970
aS'174'
p1971
aa(lp1972
I5280
aS'186'
p1973
aS'275'
p1974
aasS'3BIJ'
p1975
(lp1976
(lp1977
I5280
aS'5'
aS'268'
p1978
aasS'2G9V'
p1979
(lp1980
(lp1981
I6971
aS'113'
p1982
aS'828'
p1983
aasS'4LSZ'
p1984
(lp1985
(lp1986
I5280
aS'68'
p1987
aS'197'
p1988
aa(lp1989
I5280
aS'210'
p1990
aS'301'
p1991
aa(lp1992
I7453
aS'113'
p1993
aS'164'
p1994
aa(lp1995
I7455
aS'18'
p1996
aS'109'
p1997
aasS'2SKC'
p1998
(lp1999
(lp2000
I6971
aS'113'
p2001
aS'828'
p2002
aasS'4AQ4'
p2003
(lp2004
(lp2005
I7017
aS'21'
p2006
aS'346'
p2007
aasS'2V84'
p2008
(lp2009
(lp2010
I7017
aS'22'
p2011
aS'281'
p2012
aasS'4BQE'
p2013
(lp2014
(lp2015
I6971
aS'115'
p2016
aS'836'
p2017
aasS'4BQF'
p2018
(lp2019
(lp2020
I6971
aS'115'
p2021
aS'836'
p2022
aasS'3ITN'
p2023
(lp2024
(lp2025
I5280
aS'45'
p2026
aS'275'
p2027
aasS'3E4C'
p2028
(lp2029
(lp2030
I5280
aS'163'
p2031
aS'400'
p2032
aasS'3EW1'
p2033
(lp2034
(lp2035
I1080
aS'15'
p2036
aS'122'
p2037
aasS'2SKD'
p2038
(lp2039
(lp2040
I6971
aS'113'
p2041
aS'828'
p2042
aasS'4BQI'
p2043
(lp2044
(lp2045
I6971
aS'115'
p2046
aS'836'
p2047
aasS'4Y5D'
p2048
(lp2049
(lp2050
I1080
aS'17'
p2051
aS'131'
p2052
aasS'3T6F'
p2053
(lp2054
(lp2055
I1080
aS'17'
p2056
aS'131'
p2057
aasS'1PYG'
p2058
(lp2059
(lp2060
I6971
aS'113'
p2061
aS'828'
p2062
aasS'3CSG'
p2063
(lp2064
(lp2065
I4017
aS'373'
p2066
aS'447'
p2067
aa(lp2068
I7017
aS'23'
p2069
aS'318'
p2070
aasS'4PRY'
p2071
(lp2072
(lp2073
I5280
aS'45'
p2074
aS'275'
p2075
aasS'3WOA'
p2076
(lp2077
(lp2078
I7017
aS'72'
p2079
aS'367'
p2080
aasS'1B4D'
p2081
(lp2082
(lp2083
I6971
aS'113'
p2084
aS'828'
p2085
aasS'2VGQ'
p2086
(lp2087
(lp2088
I1638
aS'376'
p2089
aS'458'
p2090
aa(lp2091
I7017
aS'23'
p2092
aS'318'
p2093
aasS'3RPW'
p2094
(lp2095
(lp2096
I7017
aS'50'
p2097
aS'299'
p2098
aasS'4JR2'
p2099
(lp2100
(lp2101
I5280
aS'68'
p2102
aS'301'
p2103
aasS'4EJF'
p2104
(lp2105
(lp2106
I5280
aS'45'
p2107
aS'288'
p2108
aasS'2SKE'
p2109
(lp2110
(lp2111
I6971
aS'113'
p2112
aS'828'
p2113
aasS'3EBO'
p2114
(lp2115
(lp2116
I6971
aS'113'
p2117
aS'828'
p2118
aasS'2QLM'
p2119
(lp2120
(lp2121
I6971
aS'113'
p2122
aS'828'
p2123
aasS'4CTO'
p2124
(lp2125
(lp2126
I6971
aS'113'
p2127
aS'828'
p2128
aasS'4CTN'
p2129
(lp2130
(lp2131
I6971
aS'113'
p2132
aS'828'
p2133
aasS'4CTM'
p2134
(lp2135
(lp2136
I6971
aS'113'
p2137
aS'828'
p2138
aasS'2QLL'
p2139
(lp2140
(lp2141
I6971
aS'113'
p2142
aS'828'
p2143
aasS'1L5R'
p2144
(lp2145
(lp2146
I6971
aS'113'
p2147
aS'828'
p2148
aasS'3EBP'
p2149
(lp2150
(lp2151
I6971
aS'113'
p2152
aS'828'
p2153
aasS'2I58'
p2154
(lp2155
(lp2156
I7017
aS'24'
p2157
aS'327'
p2158
aasS'2QLJ'
p2159
(lp2160
(lp2161
I5280
aS'68'
p2162
aS'195'
p2163
aa(lp2164
I5280
aS'212'
p2165
aS'301'
p2166
aasS'1XKX'
p2167
(lp2168
(lp2169
I6971
aS'113'
p2170
aS'828'
p2171
aasS'3PK2'
p2172
(lp2173
(lp2174
I1080
aS'17'
p2175
aS'131'
p2176
aasS'3MM0'
p2177
(lp2178
(lp2179
I1080
aS'5'
aS'121'
p2180
aasS'3CUV'
p2181
(lp2182
(lp2183
I6971
aS'113'
p2184
aS'828'
p2185
aasS'3NS7'
p2186
(lp2187
(lp2188
I5280
aS'163'
p2189
aS'288'
p2190
aa(lp2191
I5280
aS'318'
p2192
aS'400'
p2193
aasS'2F3S'
p2194
(lp2195
(lp2196
I6971
aS'113'
p2197
aS'828'
p2198
aasS'2H65'
p2199
(lp2200
(lp2201
I5280
aS'45'
p2202
aS'173'
p2203
aa(lp2204
I5280
aS'186'
p2205
aS'275'
p2206
aasS'2QLF'
p2207
(lp2208
(lp2209
I5280
aS'68'
p2210
aS'195'
p2211
aa(lp2212
I5280
aS'212'
p2213
aS'301'
p2214
aasS'4GDA'
p2215
(lp2216
(lp2217
I1080
aS'53'
p2218
aS'131'
p2219
aa(lp2220
I1080
aS'217'
p2221
aS'248'
p2222
aasS'1H5U'
p2223
(lp2224
(lp2225
I6971
aS'113'
p2226
aS'828'
p2227
aasS'4GD9'
p2228
(lp2229
(lp2230
I1080
aS'52'
p2231
aS'131'
p2232
aa(lp2233
I1080
aS'217'
p2234
aS'248'
p2235
aasS'3DD1'
p2236
(lp2237
(lp2238
I6971
aS'113'
p2239
aS'828'
p2240
aasS'4YUA'
p2241
(lp2242
(lp2243
I6971
aS'113'
p2244
aS'828'
p2245
aasS'1NME'
p2246
(lp2247
(lp2248
I5280
aS'45'
p2249
aS'173'
p2250
aa(lp2251
I5280
aS'186'
p2252
aS'275'
p2253
aasS'2Y0B'
p2254
(lp2255
(lp2256
I5280
aS'45'
p2257
aS'174'
p2258
aa(lp2259
I5280
aS'184'
p2260
aS'275'
p2261
aa(lp2262
I7455
aS'20'
p2263
aS'110'
p2264
aasS'4EGC'
p2265
(lp2266
(lp2267
I1215
aS'504'
p2268
aS'550'
p2269
aa(lp2270
I5196
aS'269'
p2271
aS'512'
p2272
aa(lp2273
I7017
aS'23'
p2274
aS'318'
p2275
aa(lp2276
I7322
aS'379'
p2277
aS'489'
p2278
aasS'4AFP'
p2279
(lp2280
(lp2281
I5280
aS'74'
p2282
aS'327'
p2283
aasS'1NMS'
p2284
(lp2285
(lp2286
I5280
aS'45'
p2287
aS'275'
p2288
aasS'1NMQ'
p2289
(lp2290
(lp2291
I5280
aS'45'
p2292
aS'275'
p2293
aasS'1NMU'
p2294
(lp2295
(lp2296
I6625
aS'9'
aS'101'
p2297
aa(lp2298
I7017
aS'23'
p2299
aS'318'
p2300
aasS'3GJT'
p2301
(lp2302
(lp2303
I5280
aS'45'
p2304
aS'174'
p2305
aa(lp2306
I5280
aS'186'
p2307
aS'275'
p2308
aasS'2FUN'
p2309
(lp2310
(lp2311
I4526
aS'2'
aS'295'
p2312
aa(lp2313
I5280
aS'2234'
p2314
aS'2476'
p2315
aasS'3GJR'
p2316
(lp2317
(lp2318
I5280
aS'45'
p2319
aS'174'
p2320
aa(lp2321
I5280
aS'186'
p2322
aS'275'
p2323
aasS'3JZJ'
p2324
(lp2325
(lp2326
I7017
aS'38'
p2327
aS'344'
p2328
aasS'4I1D'
p2329
(lp2330
(lp2331
I7017
aS'68'
p2332
aS'321'
p2333
aasS'1ZKB'
p2334
(lp2335
(lp2336
I7017
aS'23'
p2337
aS'318'
p2338
aasS'1NDJ'
p2339
(lp2340
(lp2341
I1080
aS'17'
p2342
aS'131'
p2343
aasS'1RE1'
p2344
(lp2345
(lp2346
I5280
aS'163'
p2347
aS'295'
p2348
aa(lp2349
I5280
aS'320'
p2350
aS'400'
p2351
aasS'4QSZ'
p2352
(lp2353
(lp2354
I4894
aS'41'
p2355
aS'297'
p2356
aa(lp2357
I7017
aS'-348'
p2358
aS'-53'
p2359
aasS'3BD8'
p2360
(lp2361
(lp2362
I6971
aS'113'
p2363
aS'828'
p2364
aasS'3RLF'
p2365
(lp2366
(lp2367
I3570
aS'283'
p2368
aS'355'
p2369
aa(lp2370
I3945
aS'20'
p2371
aS'161'
p2372
aa(lp2373
I4927
aS'298'
p2374
aS'501'
p2375
aa(lp2376
I4927
aS'111'
p2377
aS'287'
p2378
aa(lp2379
I4967
aS'100'
p2380
aS'260'
p2381
aa(lp2382
I7017
aS'23'
p2383
aS'318'
p2384
aasS'4N5D'
p2385
(lp2386
(lp2387
I5280
aS'45'
p2388
aS'288'
p2389
aasS'2IEG'
p2390
(lp2391
(lp2392
I6971
aS'113'
p2393
aS'828'
p2394
aasS'3BD7'
p2395
(lp2396
(lp2397
I6971
aS'113'
p2398
aS'828'
p2399
aasS'3BD6'
p2400
(lp2401
(lp2402
I6971
aS'113'
p2403
aS'828'
p2404
aasS'3H1P'
p2405
(lp2406
(lp2407
I5280
aS'68'
p2408
aS'301'
p2409
aasS'4N4X'
p2410
(lp2411
(lp2412
I1881
aS'1058'
p2413
aS'1233'
p2414
aa(lp2415
I7017
aS'23'
p2416
aS'318'
p2417
aasS'4JBZ'
p2418
(lp2419
(lp2420
I7017
aS'23'
p2421
aS'318'
p2422
aasS'1L7X'
p2423
(lp2424
(lp2425
I6971
aS'113'
p2426
aS'828'
p2427
aasS'3K02'
p2428
(lp2429
(lp2430
I7017
aS'38'
p2431
aS'344'
p2432
aasS'3K00'
p2433
(lp2434
(lp2435
I7017
aS'38'
p2436
aS'344'
p2437
aasS'3K01'
p2438
(lp2439
(lp2440
I7017
aS'38'
p2441
aS'344'
p2442
aasS'4TSM'
p2443
(lp2444
(lp2445
I7017
aS'23'
p2446
aS'318'
p2447
aasS'1ANF'
p2448
(lp2449
(lp2450
I7017
aS'23'
p2451
aS'318'
p2452
aasS'2RTQ'
p2453
(lp2454
(lp2455
I1080
aS'17'
p2456
aS'131'
p2457
aasS'1IJ8'
p2458
(lp2459
(lp2460
I1080
aS'5'
aS'121'
p2461
aasS'3R5J'
p2462
(lp2463
(lp2464
I5280
aS'200'
p2465
aS'332'
p2466
aa(lp2467
I5280
aS'357'
p2468
aS'432'
p2469
aasS'3R5K'
p2470
(lp2471
(lp2472
I5280
aS'68'
p2473
aS'301'
p2474
aasS'1FS4'
p2475
(lp2476
(lp2477
I6971
aS'113'
p2478
aS'828'
p2479
aasS'2RTR'
p2480
(lp2481
(lp2482
I1080
aS'17'
p2483
aS'131'
p2484
aasS'2AR9'
p2485
(lp2486
(lp2487
I5280
aS'161'
p2488
aS'413'
p2489
aasS'3P45'
p2490
(lp2491
(lp2492
I5280
aS'45'
p2493
aS'163'
p2494
aa(lp2495
I5280
aS'198'
p2496
aS'288'
p2497
aasS'4BL8'
p2498
(lp2499
(lp2500
I1563
aS'404'
p2501
aS'580'
p2502
aa(lp2503
I5616
aS'593'
p2504
aS'813'
p2505
aa(lp2506
I7017
aS'24'
p2507
aS'319'
p2508
aasS'2WDP'
p2509
(lp2510
(lp2511
I5280
aS'45'
p2512
aS'288'
p2513
aasS'1MK5'
p2514
(lp2515
(lp2516
I1080
aS'17'
p2517
aS'131'
p2518
aasS'1E1Y'
p2519
(lp2520
(lp2521
I6971
aS'113'
p2522
aS'828'
p2523
aasS'2GM9'
p2524
(lp2525
(lp2526
I6971
aS'113'
p2527
aS'828'
p2528
aasS'1MEP'
p2529
(lp2530
(lp2531
I1080
aS'17'
p2532
aS'131'
p2533
aasS'4KV3'
p2534
(lp2535
(lp2536
I35
aS'375'
p2537
aS'459'
p2538
aa(lp2539
I7017
aS'24'
p2540
aS'319'
p2541
aasS'3RDS'
p2542
(lp2543
(lp2544
I1080
aS'17'
p2545
aS'131'
p2546
aasS'3SZH'
p2547
(lp2548
(lp2549
I1080
aS'10'
p2550
aS'117'
p2551
aasS'3RDX'
p2552
(lp2553
(lp2554
I1080
aS'17'
p2555
aS'131'
p2556
aasS'3RUM'
p2557
(lp2558
(lp2559
I7017
aS'24'
p2560
aS'319'
p2561
aasS'4R6K'
p2562
(lp2563
(lp2564
I7017
aS'31'
p2565
aS'333'
p2566
aasS'3P4U'
p2567
(lp2568
(lp2569
I5280
aS'45'
p2570
aS'173'
p2571
aa(lp2572
I5280
aS'198'
p2573
aS'288'
p2574
aasS'3D6F'
p2575
(lp2576
(lp2577
I5280
aS'163'
p2578
aS'288'
p2579
aa(lp2580
I5280
aS'317'
p2581
aS'400'
p2582
aasS'3T2X'
p2583
(lp2584
(lp2585
I1080
aS'10'
p2586
aS'117'
p2587
aasS'1WW3'
p2588
(lp2589
(lp2590
I6971
aS'113'
p2591
aS'828'
p2592
aasS'1WW2'
p2593
(lp2594
(lp2595
I6971
aS'113'
p2596
aS'828'
p2597
aasS'4V6V'
p2598
(lp2599
(lp2600
I143
aS'8'
aS'223'
p2601
aa(lp2602
I145
aS'2'
aS'94'
p2603
aa(lp2604
I147
aS'10'
p2605
aS'73'
p2606
aa(lp2607
I148
aS'3'
aS'91'
p2608
aa(lp2609
I1731
aS'20'
p2610
aS'116'
p2611
aa(lp2612
I1732
aS'4'
aS'131'
p2613
aa(lp2614
I1733
aS'71'
p2615
aS'139'
p2616
aa(lp2617
I1734
aS'4'
aS'100'
p2618
aa(lp2619
I1735
aS'15'
p2620
aS'138'
p2621
aa(lp2622
I1739
aS'2'
aS'112'
p2623
aa(lp2624
I1787
aS'83'
p2625
aS'176'
p2626
aa(lp2627
I2019
aS'6'
aS'52'
p2628
aa(lp2629
I2020
aS'1'
aS'65'
p2630
aa(lp2631
I2021
aS'4'
aS'53'
p2632
aa(lp2633
I2023
aS'1'
aS'38'
p2634
aa(lp2635
I2024
aS'1'
aS'44'
p2636
aa(lp2637
I2417
aS'7'
aS'36'
p2638
aa(lp2639
I2446
aS'119'
p2640
aS'201'
p2641
aa(lp2642
I2577
aS'64'
p2643
aS'148'
p2644
aa(lp2645
I2585
aS'1'
aS'45'
p2646
aa(lp2647
I2767
aS'4'
aS'91'
p2648
aa(lp2649
I2772
aS'10'
p2650
aS'81'
p2651
aa(lp2652
I2772
aS'89'
p2653
aS'163'
p2654
aa(lp2655
I2835
aS'96'
p2656
aS'142'
p2657
aa(lp2658
I3071
aS'1'
aS'123'
p2659
aa(lp2660
I3544
aS'2'
aS'107'
p2661
aa(lp2662
I3545
aS'7'
aS'100'
p2663
aa(lp2664
I3547
aS'8'
aS'68'
p2665
aa(lp2666
I3548
aS'9'
aS'75'
p2667
aa(lp2668
I3549
aS'46'
p2669
aS'99'
p2670
aa(lp2671
I3550
aS'8'
aS'87'
p2672
aa(lp2673
I3553
aS'18'
p2674
aS'67'
p2675
aa(lp2676
I3809
aS'86'
p2677
aS'156'
p2678
aa(lp2679
I4161
aS'2'
aS'117'
p2680
aa(lp2681
I4162
aS'28'
p2682
aS'143'
p2683
aa(lp2684
I4492
aS'1'
aS'59'
p2685
aa(lp2686
I5041
aS'4'
aS'128'
p2687
aa(lp2688
I5042
aS'9'
aS'129'
p2689
aa(lp2690
I5050
aS'1'
aS'148'
p2691
aa(lp2692
I5265
aS'416'
p2693
aS'531'
p2694
aa(lp2695
I5271
aS'342'
p2696
aS'414'
p2697
aa(lp2698
I5273
aS'124'
p2699
aS'248'
p2700
aa(lp2701
I5434
aS'1'
aS'56'
p2702
aa(lp2703
I5516
aS'23'
p2704
aS'79'
p2705
aa(lp2706
I5517
aS'13'
p2707
aS'198'
p2708
aa(lp2709
I5519
aS'28'
p2710
aS'220'
p2711
aa(lp2712
I5520
aS'27'
p2713
aS'182'
p2714
aa(lp2715
I5521
aS'41'
p2716
aS'116'
p2717
aa(lp2718
I5532
aS'5'
aS'122'
p2719
aa(lp2720
I5533
aS'1'
aS'81'
p2721
aa(lp2722
I5589
aS'534'
p2723
aS'615'
p2724
aa(lp2725
I5683
aS'8'
aS'66'
p2726
aa(lp2727
I5991
aS'2'
aS'61'
p2728
aa(lp2729
I5992
aS'4'
aS'60'
p2730
aa(lp2731
I5995
aS'2'
aS'108'
p2732
aa(lp2733
I5996
aS'5'
aS'108'
p2734
aa(lp2735
I5997
aS'9'
aS'95'
p2736
aa(lp2737
I6226
aS'2'
aS'237'
p2738
aa(lp2739
I6228
aS'1'
aS'96'
p2740
aa(lp2741
I6345
aS'37'
p2742
aS'110'
p2743
aa(lp2744
I6403
aS'18'
p2745
aS'127'
p2746
aa(lp2747
I6412
aS'2'
aS'82'
p2748
aa(lp2749
I7148
aS'1'
aS'83'
p2750
aa(lp2751
I7507
aS'3'
aS'55'
p2752
aasS'3T2W'
p2753
(lp2754
(lp2755
I1080
aS'10'
p2756
aS'117'
p2757
aasS'3D6H'
p2758
(lp2759
(lp2760
I5280
aS'163'
p2761
aS'288'
p2762
aa(lp2763
I5280
aS'317'
p2764
aS'400'
p2765
aasS'4V6L'
p2766
(lp2767
(lp2768
I143
aS'8'
aS'223'
p2769
aa(lp2770
I145
aS'2'
aS'94'
p2771
aa(lp2772
I147
aS'10'
p2773
aS'73'
p2774
aa(lp2775
I148
aS'3'
aS'91'
p2776
aa(lp2777
I1731
aS'20'
p2778
aS'116'
p2779
aa(lp2780
I1732
aS'4'
aS'131'
p2781
aa(lp2782
I1733
aS'71'
p2783
aS'139'
p2784
aa(lp2785
I1735
aS'15'
p2786
aS'138'
p2787
aa(lp2788
I1739
aS'2'
aS'112'
p2789
aa(lp2790
I1787
aS'83'
p2791
aS'176'
p2792
aa(lp2793
I2019
aS'6'
aS'52'
p2794
aa(lp2795
I2020
aS'1'
aS'65'
p2796
aa(lp2797
I2021
aS'4'
aS'53'
p2798
aa(lp2799
I2023
aS'1'
aS'38'
p2800
aa(lp2801
I2024
aS'1'
aS'44'
p2802
aa(lp2803
I2417
aS'7'
aS'36'
p2804
aa(lp2805
I2446
aS'119'
p2806
aS'201'
p2807
aa(lp2808
I2577
aS'64'
p2809
aS'148'
p2810
aa(lp2811
I2585
aS'1'
aS'45'
p2812
aa(lp2813
I2767
aS'4'
aS'91'
p2814
aa(lp2815
I2772
aS'10'
p2816
aS'81'
p2817
aa(lp2818
I2772
aS'89'
p2819
aS'163'
p2820
aa(lp2821
I2835
aS'96'
p2822
aS'142'
p2823
aa(lp2824
I3071
aS'1'
aS'123'
p2825
aa(lp2826
I3544
aS'2'
aS'107'
p2827
aa(lp2828
I3545
aS'7'
aS'100'
p2829
aa(lp2830
I3547
aS'8'
aS'68'
p2831
aa(lp2832
I3548
aS'9'
aS'75'
p2833
aa(lp2834
I3549
aS'46'
p2835
aS'99'
p2836
aa(lp2837
I3550
aS'8'
aS'87'
p2838
aa(lp2839
I3553
aS'18'
p2840
aS'67'
p2841
aa(lp2842
I3809
aS'86'
p2843
aS'156'
p2844
aa(lp2845
I4161
aS'2'
aS'117'
p2846
aa(lp2847
I4162
aS'28'
p2848
aS'143'
p2849
aa(lp2850
I4492
aS'1'
aS'59'
p2851
aa(lp2852
I4654
aS'224'
p2853
aS'292'
p2854
aa(lp2855
I4655
aS'297'
p2856
aS'391'
p2857
aa(lp2858
I5041
aS'4'
aS'128'
p2859
aa(lp2860
I5042
aS'9'
aS'129'
p2861
aa(lp2862
I5050
aS'1'
aS'148'
p2863
aa(lp2864
I5273
aS'124'
p2865
aS'248'
p2866
aa(lp2867
I5434
aS'1'
aS'56'
p2868
aa(lp2869
I5516
aS'23'
p2870
aS'79'
p2871
aa(lp2872
I5517
aS'13'
p2873
aS'198'
p2874
aa(lp2875
I5519
aS'28'
p2876
aS'220'
p2877
aa(lp2878
I5520
aS'27'
p2879
aS'182'
p2880
aa(lp2881
I5521
aS'41'
p2882
aS'116'
p2883
aa(lp2884
I5532
aS'5'
aS'122'
p2885
aa(lp2886
I5533
aS'1'
aS'81'
p2887
aa(lp2888
I5683
aS'8'
aS'66'
p2889
aa(lp2890
I5991
aS'2'
aS'61'
p2891
aa(lp2892
I5992
aS'4'
aS'60'
p2893
aa(lp2894
I5995
aS'2'
aS'108'
p2895
aa(lp2896
I5996
aS'5'
aS'108'
p2897
aa(lp2898
I5997
aS'9'
aS'95'
p2899
aa(lp2900
I6226
aS'9'
aS'200'
p2901
aa(lp2902
I6228
aS'1'
aS'96'
p2903
aa(lp2904
I6345
aS'37'
p2905
aS'110'
p2906
aa(lp2907
I6403
aS'18'
p2908
aS'127'
p2909
aa(lp2910
I6412
aS'2'
aS'82'
p2911
aa(lp2912
I7148
aS'1'
aS'83'
p2913
aa(lp2914
I7507
aS'3'
aS'55'
p2915
aasS'3H13'
p2916
(lp2917
(lp2918
I5280
aS'262'
p2919
aS'473'
p2920
aasS'3H11'
p2921
(lp2922
(lp2923
I5280
aS'262'
p2924
aS'473'
p2925
aa(lp2926
I5280
aS'219'
p2927
aS'461'
p2928
aasS'4V6K'
p2929
(lp2930
(lp2931
I143
aS'8'
aS'223'
p2932
aa(lp2933
I145
aS'2'
aS'94'
p2934
aa(lp2935
I147
aS'10'
p2936
aS'73'
p2937
aa(lp2938
I148
aS'3'
aS'91'
p2939
aa(lp2940
I1731
aS'20'
p2941
aS'116'
p2942
aa(lp2943
I1732
aS'4'
aS'131'
p2944
aa(lp2945
I1733
aS'71'
p2946
aS'139'
p2947
aa(lp2948
I1735
aS'15'
p2949
aS'138'
p2950
aa(lp2951
I1739
aS'2'
aS'112'
p2952
aa(lp2953
I1787
aS'83'
p2954
aS'176'
p2955
aa(lp2956
I2019
aS'6'
aS'52'
p2957
aa(lp2958
I2020
aS'1'
aS'65'
p2959
aa(lp2960
I2021
aS'4'
aS'53'
p2961
aa(lp2962
I2023
aS'1'
aS'38'
p2963
aa(lp2964
I2024
aS'1'
aS'44'
p2965
aa(lp2966
I2417
aS'7'
aS'36'
p2967
aa(lp2968
I2446
aS'119'
p2969
aS'201'
p2970
aa(lp2971
I2577
aS'64'
p2972
aS'148'
p2973
aa(lp2974
I2585
aS'1'
aS'45'
p2975
aa(lp2976
I2767
aS'4'
aS'91'
p2977
aa(lp2978
I2772
aS'10'
p2979
aS'81'
p2980
aa(lp2981
I2772
aS'89'
p2982
aS'163'
p2983
aa(lp2984
I2835
aS'96'
p2985
aS'142'
p2986
aa(lp2987
I3071
aS'1'
aS'123'
p2988
aa(lp2989
I3544
aS'2'
aS'107'
p2990
aa(lp2991
I3545
aS'7'
aS'100'
p2992
aa(lp2993
I3547
aS'8'
aS'68'
p2994
aa(lp2995
I3548
aS'9'
aS'75'
p2996
aa(lp2997
I3549
aS'46'
p2998
aS'99'
p2999
aa(lp3000
I3550
aS'8'
aS'87'
p3001
aa(lp3002
I3553
aS'18'
p3003
aS'67'
p3004
aa(lp3005
I3809
aS'86'
p3006
aS'156'
p3007
aa(lp3008
I4161
aS'2'
aS'117'
p3009
aa(lp3010
I4162
aS'28'
p3011
aS'143'
p3012
aa(lp3013
I4492
aS'1'
aS'59'
p3014
aa(lp3015
I4654
aS'224'
p3016
aS'292'
p3017
aa(lp3018
I4655
aS'297'
p3019
aS'391'
p3020
aa(lp3021
I5041
aS'4'
aS'128'
p3022
aa(lp3023
I5042
aS'9'
aS'129'
p3024
aa(lp3025
I5050
aS'1'
aS'148'
p3026
aa(lp3027
I5273
aS'124'
p3028
aS'248'
p3029
aa(lp3030
I5434
aS'1'
aS'56'
p3031
aa(lp3032
I5516
aS'23'
p3033
aS'79'
p3034
aa(lp3035
I5517
aS'13'
p3036
aS'198'
p3037
aa(lp3038
I5519
aS'28'
p3039
aS'220'
p3040
aa(lp3041
I5520
aS'27'
p3042
aS'182'
p3043
aa(lp3044
I5521
aS'41'
p3045
aS'116'
p3046
aa(lp3047
I5532
aS'5'
aS'122'
p3048
aa(lp3049
I5533
aS'1'
aS'81'
p3050
aa(lp3051
I5683
aS'8'
aS'66'
p3052
aa(lp3053
I5991
aS'2'
aS'61'
p3054
aa(lp3055
I5992
aS'4'
aS'60'
p3056
aa(lp3057
I5995
aS'2'
aS'108'
p3058
aa(lp3059
I5996
aS'5'
aS'108'
p3060
aa(lp3061
I5997
aS'9'
aS'95'
p3062
aa(lp3063
I6226
aS'9'
aS'200'
p3064
aa(lp3065
I6228
aS'1'
aS'96'
p3066
aa(lp3067
I6345
aS'37'
p3068
aS'110'
p3069
aa(lp3070
I6403
aS'18'
p3071
aS'127'
p3072
aa(lp3073
I6412
aS'2'
aS'82'
p3074
aa(lp3075
I7148
aS'1'
aS'83'
p3076
aa(lp3077
I7507
aS'3'
aS'55'
p3078
aasS'3BDA'
p3079
(lp3080
(lp3081
I6971
aS'113'
p3082
aS'828'
p3083
aasS'4JB8'
p3084
(lp3085
(lp3086
I5280
aS'68'
p3087
aS'196'
p3088
aa(lp3089
I5280
aS'211'
p3090
aS'301'
p3091
aa(lp3092
I7455
aS'21'
p3093
aS'110'
p3094
aa(lp3095
I7455
aS'112'
p3096
aS'166'
p3097
aasS'2FNC'
p3098
(lp3099
(lp3100
I7017
aS'22'
p3101
aS'320'
p3102
aasS'1VWL'
p3103
(lp3104
(lp3105
I1080
aS'17'
p3106
aS'131'
p3107
aasS'1VWM'
p3108
(lp3109
(lp3110
I1080
aS'17'
p3111
aS'131'
p3112
aasS'1VWN'
p3113
(lp3114
(lp3115
I1080
aS'17'
p3116
aS'131'
p3117
aasS'2UZ2'
p3118
(lp3119
(lp3120
I1080
aS'7'
aS'120'
p3121
aasS'4KI0'
p3122
(lp3123
(lp3124
I3570
aS'283'
p3125
aS'355'
p3126
aa(lp3127
I3945
aS'20'
p3128
aS'161'
p3129
aa(lp3130
I4927
aS'298'
p3131
aS'501'
p3132
aa(lp3133
I4927
aS'111'
p3134
aS'287'
p3135
aa(lp3136
I4967
aS'100'
p3137
aS'260'
p3138
aa(lp3139
I7017
aS'23'
p3140
aS'318'
p3141
aasS'4WMS'
p3142
(lp3143
(lp3144
I2848
aS'213'
p3145
aS'312'
p3146
aa(lp3147
I7017
aS'-173'
p3148
aS'122'
p3149
aasS'1LWN'
p3150
(lp3151
(lp3152
I6971
aS'113'
p3153
aS'828'
p3154
aasS'1LWO'
p3155
(lp3156
(lp3157
I6971
aS'113'
p3158
aS'828'
p3159
aasS'3MRX'
p3160
(lp3161
(lp3162
I6971
aS'113'
p3163
aS'828'
p3164
aasS'4WMW'
p3165
(lp3166
(lp3167
I2848
aS'213'
p3168
aS'312'
p3169
aa(lp3170
I7017
aS'-173'
p3171
aS'122'
p3172
aasS'3L7D'
p3173
(lp3174
(lp3175
I6971
aS'113'
p3176
aS'828'
p3177
aasS'1KTI'
p3178
(lp3179
(lp3180
I6971
aS'113'
p3181
aS'828'
p3182
aasS'3MRT'
p3183
(lp3184
(lp3185
I6971
aS'113'
p3186
aS'828'
p3187
aasS'3L7A'
p3188
(lp3189
(lp3190
I6971
aS'113'
p3191
aS'828'
p3192
aasS'3L7B'
p3193
(lp3194
(lp3195
I6971
aS'113'
p3196
aS'828'
p3197
aasS'3L7C'
p3198
(lp3199
(lp3200
I6971
aS'113'
p3201
aS'828'
p3202
aasS'4CPF'
p3203
(lp3204
(lp3205
I1080
aS'17'
p3206
aS'131'
p3207
aasS'4CPE'
p3208
(lp3209
(lp3210
I1080
aS'17'
p3211
aS'131'
p3212
aasS'4MIC'
p3213
(lp3214
(lp3215
I6971
aS'113'
p3216
aS'828'
p3217
aasS'4CPI'
p3218
(lp3219
(lp3220
I1080
aS'17'
p3221
aS'131'
p3222
aasS'4CPH'
p3223
(lp3224
(lp3225
I1080
aS'17'
p3226
aS'131'
p3227
aa(lp3228
I1080
aS'17'
p3229
aS'131'
p3230
aasS'2F3P'
p3231
(lp3232
(lp3233
I6971
aS'113'
p3234
aS'828'
p3235
aasS'1VWO'
p3236
(lp3237
(lp3238
I1080
aS'17'
p3239
aS'131'
p3240
aasS'1M72'
p3241
(lp3242
(lp3243
I5280
aS'61'
p3244
aS'293'
p3245
aasS'1SRF'
p3246
(lp3247
(lp3248
I1080
aS'17'
p3249
aS'131'
p3250
aasS'1SRG'
p3251
(lp3252
(lp3253
I1080
aS'17'
p3254
aS'131'
p3255
aasS'4WMX'
p3256
(lp3257
(lp3258
I2848
aS'213'
p3259
aS'312'
p3260
aa(lp3261
I7017
aS'-173'
p3262
aS'122'
p3263
aasS'1SRE'
p3264
(lp3265
(lp3266
I1080
aS'17'
p3267
aS'131'
p3268
aasS'1SRJ'
p3269
(lp3270
(lp3271
I1080
aS'17'
p3272
aS'131'
p3273
aasS'7GPB'
p3274
(lp3275
(lp3276
I6971
aS'113'
p3277
aS'828'
p3278
aa(lp3279
I6971
aS'113'
p3280
aS'828'
p3281
aasS'1SRH'
p3282
(lp3283
(lp3284
I1080
aS'17'
p3285
aS'131'
p3286
aasS'1SRI'
p3287
(lp3288
(lp3289
I1080
aS'17'
p3290
aS'131'
p3291
aasS'1LEL'
p3292
(lp3293
(lp3294
I1080
aS'5'
aS'121'
p3295
aasS'2QRP'
p3296
(lp3297
(lp3298
I6971
aS'113'
p3299
aS'828'
p3300
aasS'1VWG'
p3301
(lp3302
(lp3303
I1080
aS'17'
p3304
aS'131'
p3305
aasS'1L6I'
p3306
(lp3307
(lp3308
I6971
aS'91'
p3309
aS'794'
p3310
aasS'4GQO'
p3311
(lp3312
(lp3313
I7017
aS'54'
p3314
aS'380'
p3315
aasS'2PRI'
p3316
(lp3317
(lp3318
I6971
aS'113'
p3319
aS'828'
p3320
aasS'2PRJ'
p3321
(lp3322
(lp3323
I6971
aS'113'
p3324
aS'828'
p3325
aasS'4NBK'
p3326
(lp3327
(lp3328
I5280
aS'45'
p3329
aS'288'
p3330
aasS'4NBL'
p3331
(lp3332
(lp3333
I5280
aS'45'
p3334
aS'288'
p3335
aasS'4NBN'
p3336
(lp3337
(lp3338
I5280
aS'45'
p3339
aS'288'
p3340
aasS'1MPB'
p3341
(lp3342
(lp3343
I7017
aS'23'
p3344
aS'318'
p3345
aasS'2QRH'
p3346
(lp3347
(lp3348
I6971
aS'113'
p3349
aS'828'
p3350
aasS'1K06'
p3351
(lp3352
(lp3353
I6971
aS'113'
p3354
aS'828'
p3355
aasS'1VWC'
p3356
(lp3357
(lp3358
I1080
aS'17'
p3359
aS'131'
p3360
aasS'4MI6'
p3361
(lp3362
(lp3363
I6971
aS'113'
p3364
aS'828'
p3365
aasS'1MPD'
p3366
(lp3367
(lp3368
I7017
aS'23'
p3369
aS'318'
p3370
aasS'3GJQ'
p3371
(lp3372
(lp3373
I5280
aS'45'
p3374
aS'174'
p3375
aa(lp3376
I5280
aS'185'
p3377
aS'275'
p3378
aasS'1LLS'
p3379
(lp3380
(lp3381
I7017
aS'23'
p3382
aS'318'
p3383
aasS'3L79'
p3384
(lp3385
(lp3386
I6971
aS'113'
p3387
aS'828'
p3388
aasS'1A8I'
p3389
(lp3390
(lp3391
I6971
aS'113'
p3392
aS'828'
p3393
aasS'3GJS'
p3394
(lp3395
(lp3396
I5280
aS'45'
p3397
aS'174'
p3398
aa(lp3399
I5280
aS'184'
p3400
aS'275'
p3401
aasS'1VWI'
p3402
(lp3403
(lp3404
I1080
aS'17'
p3405
aS'131'
p3406
aasS'2RTL'
p3407
(lp3408
(lp3409
I1080
aS'17'
p3410
aS'131'
p3411
aasS'2QLN'
p3412
(lp3413
(lp3414
I6971
aS'113'
p3415
aS'828'
p3416
aasS'2RTN'
p3417
(lp3418
(lp3419
I1080
aS'17'
p3420
aS'131'
p3421
aasS'2RTO'
p3422
(lp3423
(lp3424
I1080
aS'17'
p3425
aS'131'
p3426
aasS'2RTH'
p3427
(lp3428
(lp3429
I1080
aS'17'
p3430
aS'131'
p3431
aasS'2RTI'
p3432
(lp3433
(lp3434
I1080
aS'17'
p3435
aS'131'
p3436
aasS'2RTJ'
p3437
(lp3438
(lp3439
I1080
aS'17'
p3440
aS'131'
p3441
aasS'2RTK'
p3442
(lp3443
(lp3444
I1080
aS'17'
p3445
aS'131'
p3446
aasS'2RTD'
p3447
(lp3448
(lp3449
I1080
aS'17'
p3450
aS'131'
p3451
aasS'2RTE'
p3452
(lp3453
(lp3454
I1080
aS'17'
p3455
aS'131'
p3456
aasS'2RTF'
p3457
(lp3458
(lp3459
I1080
aS'17'
p3460
aS'131'
p3461
aasS'2RTG'
p3462
(lp3463
(lp3464
I1080
aS'17'
p3465
aS'131'
p3466
aasS'1P29'
p3467
(lp3468
(lp3469
I6971
aS'113'
p3470
aS'828'
p3471
aasS'2RTA'
p3472
(lp3473
(lp3474
I1080
aS'17'
p3475
aS'131'
p3476
aasS'2RTB'
p3477
(lp3478
(lp3479
I1080
aS'17'
p3480
aS'131'
p3481
aasS'2RTC'
p3482
(lp3483
(lp3484
I1080
aS'17'
p3485
aS'131'
p3486
aasS'3SIP'
p3487
(lp3488
(lp3489
I1597
aS'47'
p3490
aS'110'
p3491
aa(lp3492
I5280
aS'21'
p3493
aS'149'
p3494
aa(lp3495
I5280
aS'163'
p3496
aS'252'
p3497
aasS'3SIR'
p3498
(lp3499
(lp3500
I5280
aS'21'
p3501
aS'252'
p3502
aasS'2A5B'
p3503
(lp3504
(lp3505
I1080
aS'5'
aS'121'
p3506
aasS'2A5C'
p3507
(lp3508
(lp3509
I1080
aS'5'
aS'121'
p3510
aasS'2RTP'
p3511
(lp3512
(lp3513
I1080
aS'17'
p3514
aS'131'
p3515
aasS'3RY1'
p3516
(lp3517
(lp3518
I1080
aS'17'
p3519
aS'131'
p3520
aasS'3RY2'
p3521
(lp3522
(lp3523
I1080
aS'17'
p3524
aS'131'
p3525
aasS'3BCR'
p3526
(lp3527
(lp3528
I6971
aS'113'
p3529
aS'828'
p3530
aasS'2PYD'
p3531
(lp3532
(lp3533
I6971
aS'113'
p3534
aS'828'
p3535
aasS'1MOY'
p3536
(lp3537
(lp3538
I1080
aS'17'
p3539
aS'131'
p3540
aasS'1JW4'
p3541
(lp3542
(lp3543
I7017
aS'23'
p3544
aS'318'
p3545
aasS'1JW5'
p3546
(lp3547
(lp3548
I7017
aS'23'
p3549
aS'318'
p3550
aasS'3BCU'
p3551
(lp3552
(lp3553
I6971
aS'113'
p3554
aS'828'
p3555
aasS'3CEM'
p3556
(lp3557
(lp3558
I6971
aS'113'
p3559
aS'828'
p3560
aasS'1EXV'
p3561
(lp3562
(lp3563
I6971
aS'113'
p3564
aS'828'
p3565
aasS'2PYI'
p3566
(lp3567
(lp3568
I6971
aS'113'
p3569
aS'828'
p3570
aasS'3CEH'
p3571
(lp3572
(lp3573
I6971
aS'113'
p3574
aS'828'
p3575
aasS'3CEJ'
p3576
(lp3577
(lp3578
I6971
aS'113'
p3579
aS'828'
p3580
aasS'1PAU'
p3581
(lp3582
(lp3583
I5280
aS'163'
p3584
aS'295'
p3585
aa(lp3586
I5280
aS'320'
p3587
aS'400'
p3588
aasS'1XOI'
p3589
(lp3590
(lp3591
I6971
aS'113'
p3592
aS'828'
p3593
aasS'4JO6'
p3594
(lp3595
(lp3596
I1080
aS'17'
p3597
aS'131'
p3598
aasS'2G5L'
p3599
(lp3600
(lp3601
I1080
aS'17'
p3602
aS'131'
p3603
aasS'4R9G'
p3604
(lp3605
(lp3606
I7017
aS'36'
p3607
aS'360'
p3608
aasS'3VHI'
p3609
(lp3610
(lp3611
I1080
aS'5'
aS'121'
p3612
aasS'4F6O'
p3613
(lp3614
(lp3615
I5280
aS'136'
p3616
aS'425'
p3617
aasS'3VHM'
p3618
(lp3619
(lp3620
I1080
aS'5'
aS'121'
p3621
aasS'1KFF'
p3622
(lp3623
(lp3624
I1080
aS'17'
p3625
aS'131'
p3626
aasS'3DDW'
p3627
(lp3628
(lp3629
I6971
aS'113'
p3630
aS'828'
p3631
aa(lp3632
I6971
aS'113'
p3633
aS'828'
p3634
aasS'1P2D'
p3635
(lp3636
(lp3637
I6971
aS'113'
p3638
aS'828'
p3639
aasS'1P2G'
p3640
(lp3641
(lp3642
I6971
aS'113'
p3643
aS'828'
p3644
aasS'1XL1'
p3645
(lp3646
(lp3647
I6971
aS'113'
p3648
aS'828'
p3649
aasS'2QL9'
p3650
(lp3651
(lp3652
I5280
aS'68'
p3653
aS'195'
p3654
aa(lp3655
I5280
aS'212'
p3656
aS'301'
p3657
aasS'1P2B'
p3658
(lp3659
(lp3660
I6971
aS'113'
p3661
aS'828'
p3662
aasS'2QL7'
p3663
(lp3664
(lp3665
I5280
aS'68'
p3666
aS'195'
p3667
aa(lp3668
I5280
aS'212'
p3669
aS'301'
p3670
aasS'2QL5'
p3671
(lp3672
(lp3673
I5280
aS'68'
p3674
aS'195'
p3675
aa(lp3676
I5280
aS'212'
p3677
aS'301'
p3678
aasS'4F6P'
p3679
(lp3680
(lp3681
I5280
aS'136'
p3682
aS'425'
p3683
aasS'4U46'
p3684
(lp3685
(lp3686
I1080
aS'5'
aS'121'
p3687
aasS'4EHL'
p3688
(lp3689
(lp3690
I5280
aS'45'
p3691
aS'275'
p3692
aasS'2GH7'
p3693
(lp3694
(lp3695
I1080
aS'17'
p3696
aS'131'
p3697
aasS'4EHN'
p3698
(lp3699
(lp3700
I5280
aS'45'
p3701
aS'275'
p3702
aasS'4EHH'
p3703
(lp3704
(lp3705
I5280
aS'45'
p3706
aS'275'
p3707
aasS'4EHK'
p3708
(lp3709
(lp3710
I5280
aS'45'
p3711
aS'275'
p3712
aasS'4EHD'
p3713
(lp3714
(lp3715
I5280
aS'45'
p3716
aS'275'
p3717
aasS'4EHF'
p3718
(lp3719
(lp3720
I5280
aS'45'
p3721
aS'275'
p3722
aasS'2GH9'
p3723
(lp3724
(lp3725
I7017
aS'22'
p3726
aS'320'
p3727
aasS'2XYP'
p3728
(lp3729
(lp3730
I5280
aS'45'
p3731
aS'173'
p3732
aa(lp3733
I5280
aS'186'
p3734
aS'275'
p3735
aasS'2IZA'
p3736
(lp3737
(lp3738
I1080
aS'17'
p3739
aS'131'
p3740
aasS'2IZC'
p3741
(lp3742
(lp3743
I1080
aS'17'
p3744
aS'131'
p3745
aasS'2IZB'
p3746
(lp3747
(lp3748
I1080
aS'17'
p3749
aS'131'
p3750
aasS'2IZE'
p3751
(lp3752
(lp3753
I1080
aS'17'
p3754
aS'131'
p3755
aasS'2IZD'
p3756
(lp3757
(lp3758
I1080
aS'17'
p3759
aS'131'
p3760
aasS'2IZG'
p3761
(lp3762
(lp3763
I1080
aS'17'
p3764
aS'131'
p3765
aasS'2IZF'
p3766
(lp3767
(lp3768
I1080
aS'17'
p3769
aS'131'
p3770
aasS'2IZI'
p3771
(lp3772
(lp3773
I1080
aS'17'
p3774
aS'131'
p3775
aasS'2IZH'
p3776
(lp3777
(lp3778
I1080
aS'17'
p3779
aS'131'
p3780
aasS'2XYG'
p3781
(lp3782
(lp3783
I5280
aS'45'
p3784
aS'173'
p3785
aa(lp3786
I5280
aS'186'
p3787
aS'275'
p3788
aasS'2IZJ'
p3789
(lp3790
(lp3791
I1080
aS'17'
p3792
aS'131'
p3793
aasS'2V93'
p3794
(lp3795
(lp3796
I7017
aS'23'
p3797
aS'318'
p3798
aa(lp3799
I7017
aS'23'
p3800
aS'318'
p3801
aasS'2IZL'
p3802
(lp3803
(lp3804
I1080
aS'17'
p3805
aS'131'
p3806
aasS'2IEI'
p3807
(lp3808
(lp3809
I6971
aS'113'
p3810
aS'828'
p3811
aasS'2UYW'
p3812
(lp3813
(lp3814
I1080
aS'7'
aS'120'
p3815
aasS'4XAJ'
p3816
(lp3817
(lp3818
I5563
aS'1183'
p3819
aS'1364'
p3820
aa(lp3821
I7017
aS'25'
p3822
aS'320'
p3823
aasS'4XAI'
p3824
(lp3825
(lp3826
I5563
aS'1198'
p3827
aS'1379'
p3828
aa(lp3829
I7017
aS'25'
p3830
aS'320'
p3831
aasS'1QX3'
p3832
(lp3833
(lp3834
I5280
aS'45'
p3835
aS'275'
p3836
aasS'4RWG'
p3837
(lp3838
(lp3839
I446
aS'1038'
p3840
aS'1110'
p3841
aa(lp3842
I6284
aS'2063'
p3843
aS'2129'
p3844
aa(lp3845
I7017
aS'25'
p3846
aS'320'
p3847
aasS'4RWF'
p3848
(lp3849
(lp3850
I65
aS'35'
p3851
aS'52'
p3852
aa(lp3853
I446
aS'1066'
p3854
aS'1139'
p3855
aa(lp3856
I6284
aS'2063'
p3857
aS'2129'
p3858
aa(lp3859
I7017
aS'25'
p3860
aS'320'
p3861
aasS'2OK2'
p3862
(lp3863
(lp3864
I7017
aS'23'
p3865
aS'318'
p3866
aasS'1Y4C'
p3867
(lp3868
(lp3869
I7017
aS'23'
p3870
aS'318'
p3871
aasS'1ZJL'
p3872
(lp3873
(lp3874
I7017
aS'23'
p3875
aS'318'
p3876
aasS'3WAE'
p3877
(lp3878
(lp3879
I7017
aS'38'
p3880
aS'296'
p3881
aasS'1NC9'
p3882
(lp3883
(lp3884
I1080
aS'17'
p3885
aS'131'
p3886
aasS'3WAF'
p3887
(lp3888
(lp3889
I7017
aS'38'
p3890
aS'296'
p3891
aasS'3BCS'
p3892
(lp3893
(lp3894
I6971
aS'113'
p3895
aS'828'
p3896
aasS'3WAI'
p3897
(lp3898
(lp3899
I7017
aS'23'
p3900
aS'318'
p3901
aasS'1SWL'
p3902
(lp3903
(lp3904
I1080
aS'17'
p3905
aS'131'
p3906
aasS'3QNW'
p3907
(lp3908
(lp3909
I5280
aS'45'
p3910
aS'164'
p3911
aa(lp3912
I5280
aS'200'
p3913
aS'288'
p3914
aasS'2KLF'
p3915
(lp3916
(lp3917
I7017
aS'23'
p3918
aS'318'
p3919
aasS'3DEH'
p3920
(lp3921
(lp3922
I5280
aS'45'
p3923
aS'275'
p3924
aasS'4BCS'
p3925
(lp3926
(lp3927
I1080
aS'5'
aS'119'
p3928
aasS'4QVH'
p3929
(lp3930
(lp3931
I2402
aS'481'
p3932
aS'555'
p3933
aa(lp3934
I7017
aS'24'
p3935
aS'319'
p3936
aasS'1RST'
p3937
(lp3938
(lp3939
I1080
aS'17'
p3940
aS'131'
p3941
aasS'1RSU'
p3942
(lp3943
(lp3944
I1080
aS'17'
p3945
aS'131'
p3946
aasS'2NN3'
p3947
(lp3948
(lp3949
I5280
aS'61'
p3950
aS'293'
p3951
aasS'4WVG'
p3952
(lp3953
(lp3954
I1347
aS'382'
p3955
aS'450'
p3956
aa(lp3957
I7017
aS'30'
p3958
aS'324'
p3959
aasS'2P2C'
p3960
(lp3961
(lp3962
I5280
aS'35'
p3963
aS'167'
p3964
aa(lp3965
I5280
aS'209'
p3966
aS'285'
p3967
aa(lp3968
I7453
aS'117'
p3969
aS'165'
p3970
aa(lp3971
I7455
aS'18'
p3972
aS'110'
p3973
aasS'4WVI'
p3974
(lp3975
(lp3976
I1347
aS'382'
p3977
aS'450'
p3978
aa(lp3979
I7017
aS'30'
p3980
aS'324'
p3981
aasS'4WVH'
p3982
(lp3983
(lp3984
I1347
aS'382'
p3985
aS'450'
p3986
aa(lp3987
I7017
aS'30'
p3988
aS'324'
p3989
aasS'4WVJ'
p3990
(lp3991
(lp3992
I1347
aS'382'
p3993
aS'450'
p3994
aa(lp3995
I7017
aS'30'
p3996
aS'324'
p3997
aasS'2Y32'
p3998
(lp3999
(lp4000
I1080
aS'3'
aS'110'
p4001
aasS'2XD3'
p4002
(lp4003
(lp4004
I7017
aS'57'
p4005
aS'358'
p4006
aasS'4OKA'
p4007
(lp4008
(lp4009
I1080
aS'17'
p4010
aS'131'
p4011
aasS'2GHA'
p4012
(lp4013
(lp4014
I7017
aS'22'
p4015
aS'319'
p4016
aasS'3KJN'
p4017
(lp4018
(lp4019
I5280
aS'234'
p4020
aS'373'
p4021
aa(lp4022
I5280
aS'390'
p4023
aS'476'
p4024
aasS'2GHB'
p4025
(lp4026
(lp4027
I7017
aS'22'
p4028
aS'319'
p4029
aasS'1I3O'
p4030
(lp4031
(lp4032
I1597
aS'166'
p4033
aS'230'
p4034
aa(lp4035
I5280
aS'163'
p4036
aS'296'
p4037
aa(lp4038
I5280
aS'315'
p4039
aS'400'
p4040
aasS'4HW8'
p4041
(lp4042
(lp4043
I7017
aS'61'
p4044
aS'351'
p4045
aasS'4IFP'
p4046
(lp4047
(lp4048
I630
aS'373'
p4049
aS'454'
p4050
aa(lp4051
I7017
aS'24'
p4052
aS'319'
p4053
aasS'3SEU'
p4054
(lp4055
(lp4056
I7017
aS'24'
p4057
aS'319'
p4058
aasS'3SET'
p4059
(lp4060
(lp4061
I7017
aS'24'
p4062
aS'319'
p4063
aasS'3SEW'
p4064
(lp4065
(lp4066
I7017
aS'24'
p4067
aS'319'
p4068
aasS'1EZO'
p4069
(lp4070
(lp4071
I7017
aS'23'
p4072
aS'318'
p4073
aasS'3SES'
p4074
(lp4075
(lp4076
I7017
aS'24'
p4077
aS'319'
p4078
aasS'3SER'
p4079
(lp4080
(lp4081
I7017
aS'26'
p4082
aS'319'
p4083
aasS'1VYO'
p4084
(lp4085
(lp4086
I1080
aS'5'
aS'121'
p4087
aasS'1YTV'
p4088
(lp4089
(lp4090
I7017
aS'37'
p4091
aS'332'
p4092
aasS'3SEX'
p4093
(lp4094
(lp4095
I7017
aS'24'
p4096
aS'319'
p4097
aasS'1SHL'
p4098
(lp4099
(lp4100
I5280
aS'68'
p4101
aS'301'
p4102
aasS'4GGT'
p4103
(lp4104
(lp4105
I1080
aS'12'
p4106
aS'109'
p4107
aasS'4GGR'
p4108
(lp4109
(lp4110
I1080
aS'12'
p4111
aS'109'
p4112
aasS'1SHJ'
p4113
(lp4114
(lp4115
I5280
aS'68'
p4116
aS'301'
p4117
aasS'1QDU'
p4118
(lp4119
(lp4120
I5280
aS'163'
p4121
aS'298'
p4122
aa(lp4123
I5280
aS'319'
p4124
aS'400'
p4125
aasS'1NQN'
p4126
(lp4127
(lp4128
I1080
aS'5'
aS'121'
p4129
aasS'4JJE'
p4130
(lp4131
(lp4132
I5280
aS'45'
p4133
aS'275'
p4134
aasS'1NQM'
p4135
(lp4136
(lp4137
I1080
aS'17'
p4138
aS'131'
p4139
aasS'4GGZ'
p4140
(lp4141
(lp4142
I1080
aS'12'
p4143
aS'109'
p4144
aasS'1STP'
p4145
(lp4146
(lp4147
I1080
aS'17'
p4148
aS'131'
p4149
aasS'4GL0'
p4150
(lp4151
(lp4152
I7017
aS'50'
p4153
aS'321'
p4154
aasS'1GFZ'
p4155
(lp4156
(lp4157
I6971
aS'113'
p4158
aS'828'
p4159
aasS'1Z62'
p4160
(lp4161
(lp4162
I6971
aS'113'
p4163
aS'828'
p4164
aasS'3S8E'
p4165
(lp4166
(lp4167
I5280
aS'45'
p4168
aS'288'
p4169
aasS'4UAC'
p4170
(lp4171
(lp4172
I7017
aS'66'
p4173
aS'360'
p4174
aasS'4OZQ'
p4175
(lp4176
(lp4177
I4645
aS'399'
p4178
aS'734'
p4179
aa(lp4180
I7017
aS'-347'
p4181
aS'-52'
p4182
aasS'1GFW'
p4183
(lp4184
(lp4185
I5280
aS'45'
p4186
aS'173'
p4187
aa(lp4188
I5280
aS'185'
p4189
aS'275'
p4190
aasS'2ATI'
p4191
(lp4192
(lp4193
I6971
aS'113'
p4194
aS'828'
p4195
aasS'4WMT'
p4196
(lp4197
(lp4198
I2848
aS'213'
p4199
aS'312'
p4200
aa(lp4201
I7017
aS'-173'
p4202
aS'122'
p4203
aasS'4AFV'
p4204
(lp4205
(lp4206
I5280
aS'74'
p4207
aS'327'
p4208
aasS'2G9R'
p4209
(lp4210
(lp4211
I6971
aS'113'
p4212
aS'828'
p4213
aasS'1KL4'
p4214
(lp4215
(lp4216
I1080
aS'17'
p4217
aS'131'
p4218
aasS'2G9Q'
p4219
(lp4220
(lp4221
I6971
aS'113'
p4222
aS'828'
p4223
aasS'4BJ8'
p4224
(lp4225
(lp4226
I1080
aS'7'
aS'119'
p4227
aasS'2G9U'
p4228
(lp4229
(lp4230
I6971
aS'113'
p4231
aS'828'
p4232
aasS'4HQR'
p4233
(lp4234
(lp4235
I5280
aS'68'
p4236
aS'301'
p4237
aasS'3CSB'
p4238
(lp4239
(lp4240
I4017
aS'376'
p4241
aS'449'
p4242
aa(lp4243
I7017
aS'23'
p4244
aS'318'
p4245
aasS'1Z6Q'
p4246
(lp4247
(lp4248
I6971
aS'113'
p4249
aS'828'
p4250
aasS'1Z6P'
p4251
(lp4252
(lp4253
I6971
aS'113'
p4254
aS'828'
p4255
aasS'3G7W'
p4256
(lp4257
(lp4258
I65
aS'362'
p4259
aS'391'
p4260
aa(lp4261
I7017
aS'23'
p4262
aS'318'
p4263
aasS'3G7V'
p4264
(lp4265
(lp4266
I65
aS'362'
p4267
aS'399'
p4268
aa(lp4269
I7017
aS'23'
p4270
aS'318'
p4271
aasS'1SWR'
p4272
(lp4273
(lp4274
I1080
aS'17'
p4275
aS'131'
p4276
aasS'3GPB'
p4277
(lp4278
(lp4279
I6971
aS'113'
p4280
aS'828'
p4281
aasS'4GLI'
p4282
(lp4283
(lp4284
I5241
aS'362'
p4285
aS'388'
p4286
aa(lp4287
I7017
aS'23'
p4288
aS'318'
p4289
aasS'1HLF'
p4290
(lp4291
(lp4292
I6971
aS'113'
p4293
aS'828'
p4294
aasS'2AZD'
p4295
(lp4296
(lp4297
I6971
aS'91'
p4298
aS'794'
p4299
aasS'1SVX'
p4300
(lp4301
(lp4302
I7017
aS'23'
p4303
aS'318'
p4304
aa(lp4305
I7453
aS'116'
p4306
aS'165'
p4307
aa(lp4308
I7455
aS'18'
p4309
aS'110'
p4310
aasS'4AFR'
p4311
(lp4312
(lp4313
I5280
aS'74'
p4314
aS'327'
p4315
aasS'1AVD'
p4316
(lp4317
(lp4318
I1080
aS'5'
aS'121'
p4319
aasS'1AVE'
p4320
(lp4321
(lp4322
I1080
aS'5'
aS'121'
p4323
aasS'1IBC'
p4324
(lp4325
(lp4326
I5280
aS'163'
p4327
aS'288'
p4328
aa(lp4329
I5280
aS'318'
p4330
aS'400'
p4331
aasS'3HPI'
p4332
(lp4333
(lp4334
I7017
aS'23'
p4335
aS'318'
p4336
aasS'3EDQ'
p4337
(lp4338
(lp4339
I5280
aS'45'
p4340
aS'174'
p4341
aa(lp4342
I5280
aS'186'
p4343
aS'275'
p4344
aasS'3EDR'
p4345
(lp4346
(lp4347
I5280
aS'68'
p4348
aS'195'
p4349
aa(lp4350
I5280
aS'211'
p4351
aS'301'
p4352
aasS'4JJ7'
p4353
(lp4354
(lp4355
I5280
aS'234'
p4356
aS'476'
p4357
aasS'4JJ8'
p4358
(lp4359
(lp4360
I5280
aS'68'
p4361
aS'301'
p4362
aasS'2JGS'
p4363
(lp4364
(lp4365
I1080
aS'4'
aS'79'
p4366
aa(lp4367
I1080
aS'97'
p4368
aS'129'
p4369
aasS'1A7L'
p4370
(lp4371
(lp4372
I7017
aS'23'
p4373
aS'318'
p4374
aasS'1EZ9'
p4375
(lp4376
(lp4377
I7017
aS'23'
p4378
aS'318'
p4379
aasS'1LDO'
p4380
(lp4381
(lp4382
I1080
aS'5'
aS'121'
p4383
aasS'1GPA'
p4384
(lp4385
(lp4386
I6971
aS'113'
p4387
aS'828'
p4388
aa(lp4389
I6971
aS'113'
p4390
aS'828'
p4391
aasS'1GPB'
p4392
(lp4393
(lp4394
I6971
aS'113'
p4395
aS'828'
p4396
aasS'4ELR'
p4397
(lp4398
(lp4399
I7017
aS'38'
p4400
aS'296'
p4401
aasS'4GPB'
p4402
(lp4403
(lp4404
I6971
aS'113'
p4405
aS'828'
p4406
aasS'1UZU'
p4407
(lp4408
(lp4409
I6971
aS'113'
p4410
aS'828'
p4411
aasS'2HEU'
p4412
(lp4413
(lp4414
I7017
aS'37'
p4415
aS'340'
p4416
aa(lp4417
I7017
aS'37'
p4418
aS'340'
p4419
aasS'5GPB'
p4420
(lp4421
(lp4422
I6971
aS'113'
p4423
aS'828'
p4424
aasS'1F9E'
p4425
(lp4426
(lp4427
I5280
aS'163'
p4428
aS'298'
p4429
aa(lp4430
I5280
aS'319'
p4431
aS'400'
p4432
aasS'3OD5'
p4433
(lp4434
(lp4435
I5280
aS'45'
p4436
aS'288'
p4437
aasS'3IBC'
p4438
(lp4439
(lp4440
I5280
aS'68'
p4441
aS'195'
p4442
aa(lp4443
I5280
aS'212'
p4444
aS'301'
p4445
aasS'1GPY'
p4446
(lp4447
(lp4448
I6971
aS'113'
p4449
aS'828'
p4450
aasS'1LDQ'
p4451
(lp4452
(lp4453
I1080
aS'5'
aS'121'
p4454
aasS'3KJQ'
p4455
(lp4456
(lp4457
I5280
aS'234'
p4458
aS'373'
p4459
aa(lp4460
I5280
aS'390'
p4461
aS'476'
p4462
aasS'3KJT'
p4463
(lp4464
(lp4465
I7017
aS'23'
p4466
aS'318'
p4467
aasS'1I4O'
p4468
(lp4469
(lp4470
I5280
aS'68'
p4471
aS'301'
p4472
aasS'1WBI'
p4473
(lp4474
(lp4475
I1080
aS'5'
aS'119'
p4476
aasS'4Z5X'
p4477
(lp4478
(lp4479
I6971
aS'113'
p4480
aS'828'
p4481
aasS'1I4E'
p4482
(lp4483
(lp4484
I4526
aS'2'
aS'295'
p4485
aa(lp4486
I5280
aS'2234'
p4487
aS'2476'
p4488
aasS'4UA8'
p4489
(lp4490
(lp4491
I7017
aS'66'
p4492
aS'360'
p4493
aasS'3KJF'
p4494
(lp4495
(lp4496
I5280
aS'45'
p4497
aS'173'
p4498
aa(lp4499
I5280
aS'181'
p4500
aS'275'
p4501
aasS'2ZYK'
p4502
(lp4503
(lp4504
I7017
aS'39'
p4505
aS'335'
p4506
aasS'4KHZ'
p4507
(lp4508
(lp4509
I3570
aS'283'
p4510
aS'355'
p4511
aa(lp4512
I3945
aS'20'
p4513
aS'161'
p4514
aa(lp4515
I4927
aS'298'
p4516
aS'501'
p4517
aa(lp4518
I4927
aS'111'
p4519
aS'283'
p4520
aa(lp4521
I4967
aS'100'
p4522
aS'260'
p4523
aa(lp4524
I7017
aS'23'
p4525
aS'318'
p4526
aasS'1KL3'
p4527
(lp4528
(lp4529
I1080
aS'17'
p4530
aS'131'
p4531
aasS'2QRG'
p4532
(lp4533
(lp4534
I6971
aS'113'
p4535
aS'828'
p4536
aasS'1KL5'
p4537
(lp4538
(lp4539
I1080
aS'17'
p4540
aS'131'
p4541
aasS'2ZYM'
p4542
(lp4543
(lp4544
I7017
aS'39'
p4545
aS'335'
p4546
aasS'1RWX'
p4547
(lp4548
(lp4549
I5280
aS'163'
p4550
aS'288'
p4551
aa(lp4552
I5280
aS'318'
p4553
aS'400'
p4554
aasS'2QCB'
p4555
(lp4556
(lp4557
I1080
aS'17'
p4558
aS'131'
p4559
aasS'3VHH'
p4560
(lp4561
(lp4562
I1080
aS'5'
aS'121'
p4563
aasS'3H0E'
p4564
(lp4565
(lp4566
I5280
aS'45'
p4567
aS'275'
p4568
aasS'4EHA'
p4569
(lp4570
(lp4571
I5280
aS'45'
p4572
aS'275'
p4573
aasS'1RAV'
p4574
(lp4575
(lp4576
I1080
aS'5'
aS'121'
p4577
aasS'1A99'
p4578
(lp4579
(lp4580
I7017
aS'45'
p4581
aS'335'
p4582
aasS'4IYR'
p4583
(lp4584
(lp4585
I5280
aS'45'
p4586
aS'288'
p4587
aasS'1RXH'
p4588
(lp4589
(lp4590
I1080
aS'17'
p4591
aS'131'
p4592
aasS'1RXK'
p4593
(lp4594
(lp4595
I1080
aS'17'
p4596
aS'131'
p4597
aasS'1RXJ'
p4598
(lp4599
(lp4600
I1080
aS'17'
p4601
aS'131'
p4602
aasS'2FHL'
p4603
(lp4604
(lp4605
I1080
aS'5'
aS'119'
p4606
aasS'4JDF'
p4607
(lp4608
(lp4609
I7017
aS'45'
p4610
aS'335'
p4611
aasS'2FHN'
p4612
(lp4613
(lp4614
I1080
aS'5'
aS'119'
p4615
aasS'4EL5'
p4616
(lp4617
(lp4618
I6971
aS'113'
p4619
aS'828'
p4620
aasS'1RWP'
p4621
(lp4622
(lp4623
I5280
aS'163'
p4624
aS'288'
p4625
aa(lp4626
I5280
aS'318'
p4627
aS'400'
p4628
aasS'1RWV'
p4629
(lp4630
(lp4631
I5280
aS'163'
p4632
aS'288'
p4633
aa(lp4634
I5280
aS'318'
p4635
aS'400'
p4636
aasS'1RWW'
p4637
(lp4638
(lp4639
I5280
aS'163'
p4640
aS'288'
p4641
aa(lp4642
I5280
aS'318'
p4643
aS'400'
p4644
aasS'4L22'
p4645
(lp4646
(lp4647
I6971
aS'83'
p4648
aS'756'
p4649
aasS'1RWK'
p4650
(lp4651
(lp4652
I5280
aS'163'
p4653
aS'288'
p4654
aa(lp4655
I5280
aS'318'
p4656
aS'400'
p4657
aasS'4BX6'
p4658
(lp4659
(lp4660
I1080
aS'17'
p4661
aS'131'
p4662
aa(lp4663
I1080
aS'17'
p4664
aS'131'
p4665
aasS'4BX7'
p4666
(lp4667
(lp4668
I1080
aS'17'
p4669
aS'131'
p4670
aa(lp4671
I1080
aS'17'
p4672
aS'131'
p4673
aasS'1BX3'
p4674
(lp4675
(lp4676
I6971
aS'113'
p4677
aS'828'
p4678
aasS'4BX5'
p4679
(lp4680
(lp4681
I1080
aS'17'
p4682
aS'131'
p4683
aa(lp4684
I1080
aS'17'
p4685
aS'131'
p4686
aasS'4HS7'
p4687
(lp4688
(lp4689
I7017
aS'61'
p4690
aS'351'
p4691
aasS'2XYH'
p4692
(lp4693
(lp4694
I5280
aS'45'
p4695
aS'173'
p4696
aa(lp4697
I5280
aS'186'
p4698
aS'275'
p4699
aasS'2N44'
p4700
(lp4701
(lp4702
I7017
aS'23'
p4703
aS'318'
p4704
aasS'4FDL'
p4705
(lp4706
(lp4707
I5280
aS'68'
p4708
aS'301'
p4709
aasS'1JVY'
p4710
(lp4711
(lp4712
I7017
aS'23'
p4713
aS'299'
p4714
aasS'3MT7'
p4715
(lp4716
(lp4717
I6971
aS'113'
p4718
aS'828'
p4719
aasS'1RWN'
p4720
(lp4721
(lp4722
I5280
aS'163'
p4723
aS'288'
p4724
aa(lp4725
I5280
aS'318'
p4726
aS'400'
p4727
aasS'3TTM'
p4728
(lp4729
(lp4730
I7017
aS'44'
p4731
aS'332'
p4732
aasS'2Y3F'
p4733
(lp4734
(lp4735
I1080
aS'17'
p4736
aS'131'
p4737
aasS'3TTN'
p4738
(lp4739
(lp4740
I7017
aS'43'
p4741
aS'327'
p4742
aasS'3PCX'
p4743
(lp4744
(lp4745
I5280
aS'45'
p4746
aS'275'
p4747
aasS'3TTK'
p4748
(lp4749
(lp4750
I7017
aS'44'
p4751
aS'332'
p4752
aasS'3V6M'
p4753
(lp4754
(lp4755
I5280
aS'45'
p4756
aS'288'
p4757
aasS'4BLB'
p4758
(lp4759
(lp4760
I1563
aS'404'
p4761
aS'580'
p4762
aa(lp4763
I5616
aS'593'
p4764
aS'617'
p4765
aa(lp4766
I5616
aS'627'
p4767
aS'735'
p4768
aa(lp4769
I7017
aS'24'
p4770
aS'319'
p4771
aasS'4Z28'
p4772
(lp4773
(lp4774
I1080
aS'18'
p4775
aS'130'
p4776
aasS'2IZK'
p4777
(lp4778
(lp4779
I1080
aS'17'
p4780
aS'131'
p4781
aasS'1N43'
p4782
(lp4783
(lp4784
I1080
aS'17'
p4785
aS'131'
p4786
aasS'2Y3E'
p4787
(lp4788
(lp4789
I1080
aS'17'
p4790
aS'131'
p4791
aasS'1SLD'
p4792
(lp4793
(lp4794
I1080
aS'17'
p4795
aS'131'
p4796
aasS'1SLE'
p4797
(lp4798
(lp4799
I1080
aS'17'
p4800
aS'131'
p4801
aasS'1SLF'
p4802
(lp4803
(lp4804
I1080
aS'17'
p4805
aS'131'
p4806
aasS'1SLG'
p4807
(lp4808
(lp4809
I1080
aS'17'
p4810
aS'131'
p4811
aasS'3PD1'
p4812
(lp4813
(lp4814
I5280
aS'45'
p4815
aS'275'
p4816
aasS'1AXR'
p4817
(lp4818
(lp4819
I6971
aS'113'
p4820
aS'828'
p4821
aasS'4JNJ'
p4822
(lp4823
(lp4824
I1080
aS'17'
p4825
aS'131'
p4826
aasS'4BLA'
p4827
(lp4828
(lp4829
I1563
aS'404'
p4830
aS'580'
p4831
aa(lp4832
I5616
aS'593'
p4833
aS'618'
p4834
aa(lp4835
I5616
aS'626'
p4836
aS'738'
p4837
aa(lp4838
I7017
aS'24'
p4839
aS'319'
p4840
aasS'2GPA'
p4841
(lp4842
(lp4843
I6971
aS'113'
p4844
aS'828'
p4845
aasS'3X00'
p4846
(lp4847
(lp4848
I1080
aS'17'
p4849
aS'131'
p4850
aasS'2GPB'
p4851
(lp4852
(lp4853
I6971
aS'113'
p4854
aS'828'
p4855
aasS'3HST'
p4856
(lp4857
(lp4858
I840
aS'46'
p4859
aS'131'
p4860
aa(lp4861
I7017
aS'31'
p4862
aS'326'
p4863
aasS'2CAM'
p4864
(lp4865
(lp4866
I1080
aS'5'
aS'121'
p4867
aasS'1DF8'
p4868
(lp4869
(lp4870
I1080
aS'17'
p4871
aS'131'
p4872
aasS'2MF6'
p4873
(lp4874
(lp4875
I1080
aS'5'
aS'121'
p4876
aasS'3G2H'
p4877
(lp4878
(lp4879
I6971
aS'113'
p4880
aS'828'
p4881
aasS'3MS2'
p4882
(lp4883
(lp4884
I6971
aS'113'
p4885
aS'828'
p4886
aasS'2DKO'
p4887
(lp4888
(lp4889
I5280
aS'45'
p4890
aS'173'
p4891
aa(lp4892
I5280
aS'181'
p4893
aS'275'
p4894
aasS'4O2X'
p4895
(lp4896
(lp4897
I5632
aS'406'
p4898
aS'476'
p4899
aa(lp4900
I5632
aS'406'
p4901
aS'476'
p4902
aa(lp4903
I7017
aS'24'
p4904
aS'319'
p4905
aa(lp4906
I7017
aS'24'
p4907
aS'319'
p4908
aasS'3MS7'
p4909
(lp4910
(lp4911
I6971
aS'113'
p4912
aS'828'
p4913
aasS'1RWM'
p4914
(lp4915
(lp4916
I5280
aS'163'
p4917
aS'288'
p4918
aa(lp4919
I5280
aS'318'
p4920
aS'400'
p4921
aasS'2XZT'
p4922
(lp4923
(lp4924
I5280
aS'45'
p4925
aS'174'
p4926
aa(lp4927
I5280
aS'184'
p4928
aS'275'
p4929
aa(lp4930
I7455
aS'20'
p4931
aS'110'
p4932
aasS'4EKE'
p4933
(lp4934
(lp4935
I6971
aS'113'
p4936
aS'828'
p4937
aasS'1FU8'
p4938
(lp4939
(lp4940
I6971
aS'113'
p4941
aS'828'
p4942
aasS'2FQQ'
p4943
(lp4944
(lp4945
I5280
aS'163'
p4946
aS'288'
p4947
aa(lp4948
I5280
aS'318'
p4949
aS'400'
p4950
aasS'1NOJ'
p4951
(lp4952
(lp4953
I6971
aS'113'
p4954
aS'828'
p4955
aasS'1NOK'
p4956
(lp4957
(lp4958
I6971
aS'113'
p4959
aS'828'
p4960
aasS'3ZCR'
p4961
(lp4962
(lp4963
I6971
aS'113'
p4964
aS'828'
p4965
aasS'3ZCS'
p4966
(lp4967
(lp4968
I6971
aS'113'
p4969
aS'828'
p4970
aasS'3ZCP'
p4971
(lp4972
(lp4973
I6971
aS'113'
p4974
aS'828'
p4975
aasS'1RWO'
p4976
(lp4977
(lp4978
I5280
aS'163'
p4979
aS'288'
p4980
aa(lp4981
I5280
aS'318'
p4982
aS'400'
p4983
aasS'3ZCV'
p4984
(lp4985
(lp4986
I6971
aS'113'
p4987
aS'828'
p4988
aasS'1FU7'
p4989
(lp4990
(lp4991
I6971
aS'113'
p4992
aS'828'
p4993
aasS'1FU4'
p4994
(lp4995
(lp4996
I6971
aS'113'
p4997
aS'828'
p4998
aasS'3ZCU'
p4999
(lp5000
(lp5001
I6971
aS'113'
p5002
aS'828'
p5003
aasS'2XZD'
p5004
(lp5005
(lp5006
I5280
aS'45'
p5007
aS'174'
p5008
aa(lp5009
I5280
aS'184'
p5010
aS'275'
p5011
aa(lp5012
I7455
aS'20'
p5013
aS'110'
p5014
aasS'4EKV'
p5015
(lp5016
(lp5017
I1080
aS'17'
p5018
aS'131'
p5019
aasS'2HBY'
p5020
(lp5021
(lp5022
I5280
aS'163'
p5023
aS'288'
p5024
aa(lp5025
I5280
aS'318'
p5026
aS'400'
p5027
aasS'2HBZ'
p5028
(lp5029
(lp5030
I5280
aS'163'
p5031
aS'288'
p5032
aa(lp5033
I5280
aS'318'
p5034
aS'400'
p5035
aasS'2HBQ'
p5036
(lp5037
(lp5038
I5280
aS'163'
p5039
aS'288'
p5040
aa(lp5041
I5280
aS'318'
p5042
aS'400'
p5043
aasS'2HBR'
p5044
(lp5045
(lp5046
I5280
aS'163'
p5047
aS'288'
p5048
aa(lp5049
I5280
aS'318'
p5050
aS'400'
p5051
aasS'3NC4'
p5052
(lp5053
(lp5054
I6971
aS'113'
p5055
aS'828'
p5056
aasS'4JQY'
p5057
(lp5058
(lp5059
I5280
aS'45'
p5060
aS'275'
p5061
aasS'4MHS'
p5062
(lp5063
(lp5064
I6971
aS'113'
p5065
aS'828'
p5066
aasS'1N4J'
p5067
(lp5068
(lp5069
I1080
aS'17'
p5070
aS'131'
p5071
aasS'2WPU'
p5072
(lp5073
(lp5074
I1080
aS'17'
p5075
aS'131'
p5076
aasS'4Z2O'
p5077
(lp5078
(lp5079
I1080
aS'18'
p5080
aS'130'
p5081
aasS'2QRM'
p5082
(lp5083
(lp5084
I6971
aS'113'
p5085
aS'828'
p5086
aasS'4Z2V'
p5087
(lp5088
(lp5089
I1080
aS'18'
p5090
aS'130'
p5091
aasS'4Z2P'
p5092
(lp5093
(lp5094
I1080
aS'18'
p5095
aS'130'
p5096
aasS'3MTD'
p5097
(lp5098
(lp5099
I6971
aS'113'
p5100
aS'828'
p5101
aasS'2D21'
p5102
(lp5103
(lp5104
I7017
aS'23'
p5105
aS'318'
p5106
aasS'4MHO'
p5107
(lp5108
(lp5109
I6971
aS'113'
p5110
aS'828'
p5111
aasS'3MTA'
p5112
(lp5113
(lp5114
I6971
aS'113'
p5115
aS'828'
p5116
aasS'3MTB'
p5117
(lp5118
(lp5119
I6971
aS'113'
p5120
aS'828'
p5121
aasS'4WGI'
p5122
(lp5123
(lp5124
I2848
aS'213'
p5125
aS'312'
p5126
aa(lp5127
I7017
aS'-173'
p5128
aS'122'
p5129
aasS'4N6G'
p5130
(lp5131
(lp5132
I5280
aS'45'
p5133
aS'288'
p5134
aasS'3ZCQ'
p5135
(lp5136
(lp5137
I6971
aS'113'
p5138
aS'828'
p5139
aasS'3RJM'
p5140
(lp5141
(lp5142
I5280
aS'35'
p5143
aS'167'
p5144
aa(lp5145
I5280
aS'209'
p5146
aS'285'
p5147
aasS'2FP3'
p5148
(lp5149
(lp5150
I5280
aS'199'
p5151
aS'442'
p5152
aasS'2FET'
p5153
(lp5154
(lp5155
I6971
aS'113'
p5156
aS'828'
p5157
aasS'4QUB'
p5158
(lp5159
(lp5160
I5280
aS'45'
p5161
aS'275'
p5162
aasS'4QUA'
p5163
(lp5164
(lp5165
I5280
aS'45'
p5166
aS'275'
p5167
aasS'4QUG'
p5168
(lp5169
(lp5170
I5280
aS'45'
p5171
aS'275'
p5172
aasS'4QUD'
p5173
(lp5174
(lp5175
I5280
aS'45'
p5176
aS'275'
p5177
aasS'4QUE'
p5178
(lp5179
(lp5180
I5280
aS'45'
p5181
aS'275'
p5182
aasS'4QUJ'
p5183
(lp5184
(lp5185
I5280
aS'45'
p5186
aS'275'
p5187
aasS'3MT8'
p5188
(lp5189
(lp5190
I6971
aS'113'
p5191
aS'828'
p5192
aasS'4QUH'
p5193
(lp5194
(lp5195
I5280
aS'45'
p5196
aS'275'
p5197
aasS'4QUI'
p5198
(lp5199
(lp5200
I5280
aS'45'
p5201
aS'275'
p5202
aasS'4QUL'
p5203
(lp5204
(lp5205
I5280
aS'45'
p5206
aS'275'
p5207
aasS'2N45'
p5208
(lp5209
(lp5210
I7017
aS'23'
p5211
aS'318'
p5212
aa(lp5213
I7017
aS'23'
p5214
aS'318'
p5215
aasS'3OB4'
p5216
(lp5217
(lp5218
I4440
aS'1042'
p5219
aS'1145'
p5220
aa(lp5221
I7017
aS'23'
p5222
aS'318'
p5223
aasS'1MG1'
p5224
(lp5225
(lp5226
I1393
aS'365'
p5227
aS'454'
p5228
aa(lp5229
I7017
aS'24'
p5230
aS'319'
p5231
aasS'3OSQ'
p5232
(lp5233
(lp5234
I1607
aS'173'
p5235
aS'256'
p5236
aa(lp5237
I1607
aS'280'
p5238
aS'430'
p5239
aa(lp5240
I7017
aS'424'
p5241
aS'565'
p5242
aa(lp5243
I7019
aS'19'
p5244
aS'180'
p5245
aasS'2C2K'
p5246
(lp5247
(lp5248
I5280
aS'45'
p5249
aS'174'
p5250
aa(lp5251
I5280
aS'181'
p5252
aS'275'
p5253
aasS'1L5V'
p5254
(lp5255
(lp5256
I6971
aS'91'
p5257
aS'794'
p5258
aasS'1L5W'
p5259
(lp5260
(lp5261
I6971
aS'91'
p5262
aS'794'
p5263
aasS'2C2O'
p5264
(lp5265
(lp5266
I5280
aS'45'
p5267
aS'174'
p5268
aa(lp5269
I5280
aS'181'
p5270
aS'275'
p5271
aasS'1L5Q'
p5272
(lp5273
(lp5274
I6971
aS'113'
p5275
aS'828'
p5276
aasS'2C2M'
p5277
(lp5278
(lp5279
I5280
aS'45'
p5280
aS'174'
p5281
aa(lp5282
I5280
aS'181'
p5283
aS'275'
p5284
aasS'1L5S'
p5285
(lp5286
(lp5287
I6971
aS'113'
p5288
aS'828'
p5289
aasS'2C2Z'
p5290
(lp5291
(lp5292
I5280
aS'234'
p5293
aS'372'
p5294
aa(lp5295
I5280
aS'390'
p5296
aS'476'
p5297
aasS'6GPB'
p5298
(lp5299
(lp5300
I6971
aS'113'
p5301
aS'828'
p5302
aasS'4LOG'
p5303
(lp5304
(lp5305
I5563
aS'1219'
p5306
aS'1391'
p5307
aa(lp5308
I7017
aS'25'
p5309
aS'320'
p5310
aasS'1JVX'
p5311
(lp5312
(lp5313
I7017
aS'23'
p5314
aS'299'
p5315
aasS'1HXZ'
p5316
(lp5317
(lp5318
I1080
aS'17'
p5319
aS'131'
p5320
aasS'4M9R'
p5321
(lp5322
(lp5323
I5280
aS'243'
p5324
aS'494'
p5325
aasS'3H4Z'
p5326
(lp5327
(lp5328
I6308
aS'1019'
p5329
aS'1212'
p5330
aa(lp5331
I7017
aS'23'
p5332
aS'318'
p5333
aasS'3WYQ'
p5334
(lp5335
(lp5336
I1080
aS'17'
p5337
aS'131'
p5338
aasS'3WYP'
p5339
(lp5340
(lp5341
I1080
aS'17'
p5342
aS'131'
p5343
aasS'1HXL'
p5344
(lp5345
(lp5346
I1080
aS'17'
p5347
aS'131'
p5348
aasS'4ELP'
p5349
(lp5350
(lp5351
I7017
aS'38'
p5352
aS'296'
p5353
aasS'2F3U'
p5354
(lp5355
(lp5356
I6971
aS'113'
p5357
aS'828'
p5358
aasS'2F3Q'
p5359
(lp5360
(lp5361
I6971
aS'113'
p5362
aS'828'
p5363
aasS'3RE5'
p5364
(lp5365
(lp5366
I1080
aS'17'
p5367
aS'131'
p5368
aasS'3RE6'
p5369
(lp5370
(lp5371
I1080
aS'17'
p5372
aS'131'
p5373
aasS'3ZCT'
p5374
(lp5375
(lp5376
I6971
aS'113'
p5377
aS'828'
p5378
aasS'4QU0'
p5379
(lp5380
(lp5381
I5280
aS'45'
p5382
aS'275'
p5383
aasS'1ELJ'
p5384
(lp5385
(lp5386
I7017
aS'25'
p5387
aS'320'
p5388
aasS'3TTL'
p5389
(lp5390
(lp5391
I7017
aS'43'
p5392
aS'327'
p5393
aasS'4QU8'
p5394
(lp5395
(lp5396
I5280
aS'45'
p5397
aS'275'
p5398
aasS'4QU9'
p5399
(lp5400
(lp5401
I5280
aS'45'
p5402
aS'275'
p5403
aasS'2H4Y'
p5404
(lp5405
(lp5406
I5280
aS'163'
p5407
aS'288'
p5408
aa(lp5409
I5280
aS'318'
p5410
aS'400'
p5411
aasS'4DNE'
p5412
(lp5413
(lp5414
I1080
aS'17'
p5415
aS'131'
p5416
aasS'3L2J'
p5417
(lp5418
(lp5419
I6284
aS'107'
p5420
aS'172'
p5421
aa(lp5422
I7017
aS'-321'
p5423
aS'-26'
p5424
aasS'4V69'
p5425
(lp5426
(lp5427
I143
aS'8'
aS'223'
p5428
aa(lp5429
I145
aS'2'
aS'94'
p5430
aa(lp5431
I147
aS'10'
p5432
aS'73'
p5433
aa(lp5434
I148
aS'3'
aS'91'
p5435
aa(lp5436
I1731
aS'20'
p5437
aS'116'
p5438
aa(lp5439
I1732
aS'4'
aS'131'
p5440
aa(lp5441
I1733
aS'71'
p5442
aS'139'
p5443
aa(lp5444
I1735
aS'15'
p5445
aS'138'
p5446
aa(lp5447
I1739
aS'2'
aS'112'
p5448
aa(lp5449
I1787
aS'83'
p5450
aS'176'
p5451
aa(lp5452
I2019
aS'6'
aS'52'
p5453
aa(lp5454
I2021
aS'4'
aS'53'
p5455
aa(lp5456
I2023
aS'1'
aS'38'
p5457
aa(lp5458
I2024
aS'1'
aS'44'
p5459
aa(lp5460
I2417
aS'7'
aS'36'
p5461
aa(lp5462
I2446
aS'119'
p5463
aS'201'
p5464
aa(lp5465
I2577
aS'64'
p5466
aS'148'
p5467
aa(lp5468
I2585
aS'1'
aS'45'
p5469
aa(lp5470
I2767
aS'4'
aS'91'
p5471
aa(lp5472
I2772
aS'10'
p5473
aS'81'
p5474
aa(lp5475
I2772
aS'89'
p5476
aS'163'
p5477
aa(lp5478
I2835
aS'96'
p5479
aS'142'
p5480
aa(lp5481
I3071
aS'1'
aS'121'
p5482
aa(lp5483
I3544
aS'2'
aS'107'
p5484
aa(lp5485
I3545
aS'7'
aS'100'
p5486
aa(lp5487
I3547
aS'8'
aS'68'
p5488
aa(lp5489
I3548
aS'9'
aS'75'
p5490
aa(lp5491
I3549
aS'46'
p5492
aS'99'
p5493
aa(lp5494
I3550
aS'8'
aS'87'
p5495
aa(lp5496
I3553
aS'19'
p5497
aS'67'
p5498
aa(lp5499
I3809
aS'86'
p5500
aS'156'
p5501
aa(lp5502
I4161
aS'3'
aS'117'
p5503
aa(lp5504
I4162
aS'28'
p5505
aS'143'
p5506
aa(lp5507
I4492
aS'1'
aS'59'
p5508
aa(lp5509
I4654
aS'224'
p5510
aS'292'
p5511
aa(lp5512
I4655
aS'297'
p5513
aS'391'
p5514
aa(lp5515
I5041
aS'4'
aS'128'
p5516
aa(lp5517
I5042
aS'9'
aS'129'
p5518
aa(lp5519
I5050
aS'2'
aS'148'
p5520
aa(lp5521
I5273
aS'124'
p5522
aS'248'
p5523
aa(lp5524
I5434
aS'1'
aS'56'
p5525
aa(lp5526
I5516
aS'23'
p5527
aS'79'
p5528
aa(lp5529
I5517
aS'13'
p5530
aS'198'
p5531
aa(lp5532
I5519
aS'28'
p5533
aS'220'
p5534
aa(lp5535
I5520
aS'27'
p5536
aS'182'
p5537
aa(lp5538
I5521
aS'41'
p5539
aS'116'
p5540
aa(lp5541
I5532
aS'5'
aS'122'
p5542
aa(lp5543
I5533
aS'6'
aS'81'
p5544
aa(lp5545
I5683
aS'8'
aS'66'
p5546
aa(lp5547
I5991
aS'2'
aS'61'
p5548
aa(lp5549
I5992
aS'4'
aS'60'
p5550
aa(lp5551
I5995
aS'2'
aS'108'
p5552
aa(lp5553
I5996
aS'5'
aS'108'
p5554
aa(lp5555
I5997
aS'9'
aS'92'
p5556
aa(lp5557
I6226
aS'9'
aS'200'
p5558
aa(lp5559
I6228
aS'1'
aS'96'
p5560
aa(lp5561
I6345
aS'37'
p5562
aS'110'
p5563
aa(lp5564
I6403
aS'18'
p5565
aS'127'
p5566
aa(lp5567
I6412
aS'2'
aS'79'
p5568
aa(lp5569
I7148
aS'2'
aS'83'
p5570
aa(lp5571
I7507
aS'3'
aS'52'
p5572
aasS'4V8O'
p5573
(lp5574
(lp5575
I143
aS'10'
p5576
aS'223'
p5577
aa(lp5578
I145
aS'3'
aS'98'
p5579
aa(lp5580
I147
aS'6'
aS'70'
p5581
aa(lp5582
I148
aS'3'
aS'92'
p5583
aa(lp5584
I1731
aS'20'
p5585
aS'117'
p5586
aa(lp5587
I1732
aS'4'
aS'132'
p5588
aa(lp5589
I1735
aS'12'
p5590
aS'136'
p5591
aa(lp5592
I1739
aS'6'
aS'113'
p5593
aa(lp5594
I1787
aS'87'
p5595
aS'180'
p5596
aa(lp5597
I2019
aS'8'
aS'53'
p5598
aa(lp5599
I2020
aS'4'
aS'48'
p5600
aa(lp5601
I2021
aS'4'
aS'54'
p5602
aa(lp5603
I2023
aS'1'
aS'37'
p5604
aa(lp5605
I2024
aS'1'
aS'43'
p5606
aa(lp5607
I2417
aS'9'
aS'40'
p5608
aa(lp5609
I2446
aS'120'
p5610
aS'202'
p5611
aa(lp5612
I2767
aS'5'
aS'88'
p5613
aa(lp5614
I2772
aS'12'
p5615
aS'82'
p5616
aa(lp5617
I2772
aS'91'
p5618
aS'164'
p5619
aa(lp5620
I2835
aS'100'
p5621
aS'146'
p5622
aa(lp5623
I2994
aS'2'
aS'26'
p5624
aa(lp5625
I3071
aS'1'
aS'122'
p5626
aa(lp5627
I3544
aS'3'
aS'109'
p5628
aa(lp5629
I3545
aS'5'
aS'99'
p5630
aa(lp5631
I3547
aS'8'
aS'67'
p5632
aa(lp5633
I3548
aS'8'
aS'74'
p5634
aa(lp5635
I3549
aS'9'
aS'60'
p5636
aa(lp5637
I3550
aS'8'
aS'88'
p5638
aa(lp5639
I3553
aS'33'
p5640
aS'79'
p5641
aa(lp5642
I3809
aS'82'
p5643
aS'152'
p5644
aa(lp5645
I4161
aS'11'
p5646
aS'109'
p5647
aa(lp5648
I4162
aS'27'
p5649
aS'145'
p5650
aa(lp5651
I4492
aS'2'
aS'62'
p5652
aa(lp5653
I4654
aS'314'
p5654
aS'380'
p5655
aa(lp5656
I4903
aS'95'
p5657
aS'177'
p5658
aa(lp5659
I5041
aS'4'
aS'138'
p5660
aa(lp5661
I5042
aS'8'
aS'128'
p5662
aa(lp5663
I5050
aS'2'
aS'149'
p5664
aa(lp5665
I5273
aS'126'
p5666
aS'251'
p5667
aa(lp5668
I5434
aS'5'
aS'59'
p5669
aa(lp5670
I5516
aS'27'
p5671
aS'83'
p5672
aa(lp5673
I5517
aS'26'
p5674
aS'204'
p5675
aa(lp5676
I5519
aS'29'
p5677
aS'221'
p5678
aa(lp5679
I5520
aS'93'
p5680
aS'175'
p5681
aa(lp5682
I5521
aS'42'
p5683
aS'118'
p5684
aa(lp5685
I5532
aS'6'
aS'126'
p5686
aa(lp5687
I5533
aS'2'
aS'81'
p5688
aa(lp5689
I5991
aS'3'
aS'65'
p5690
aa(lp5691
I5992
aS'12'
p5692
aS'67'
p5693
aa(lp5694
I5995
aS'3'
aS'109'
p5695
aa(lp5696
I5996
aS'5'
aS'107'
p5697
aa(lp5698
I5997
aS'6'
aS'90'
p5699
aa(lp5700
I6226
aS'13'
p5701
aS'277'
p5702
aa(lp5703
I6228
aS'1'
aS'94'
p5704
aa(lp5705
I6345
aS'39'
p5706
aS'110'
p5707
aa(lp5708
I6403
aS'17'
p5709
aS'126'
p5710
aa(lp5711
I6412
aS'4'
aS'82'
p5712
aa(lp5713
I6965
aS'387'
p5714
aS'514'
p5715
aa(lp5716
I7148
aS'11'
p5717
aS'88'
p5718
aasS'4R0Y'
p5719
(lp5720
(lp5721
I2725
aS'355'
p5722
aS'912'
p5723
aa(lp5724
I7017
aS'23'
p5725
aS'318'
p5726
aasS'4R9F'
p5727
(lp5728
(lp5729
I7017
aS'36'
p5730
aS'360'
p5731
aasS'3D6M'
p5732
(lp5733
(lp5734
I5280
aS'163'
p5735
aS'288'
p5736
aa(lp5737
I5280
aS'317'
p5738
aS'400'
p5739
aasS'2ZYO'
p5740
(lp5741
(lp5742
I7017
aS'39'
p5743
aS'335'
p5744
aasS'1SWA'
p5745
(lp5746
(lp5747
I1080
aS'17'
p5748
aS'131'
p5749
aasS'1SWC'
p5750
(lp5751
(lp5752
I1080
aS'17'
p5753
aS'131'
p5754
aasS'1SWB'
p5755
(lp5756
(lp5757
I1080
aS'17'
p5758
aS'131'
p5759
aasS'1SWE'
p5760
(lp5761
(lp5762
I1080
aS'17'
p5763
aS'131'
p5764
aasS'1SWD'
p5765
(lp5766
(lp5767
I1080
aS'17'
p5768
aS'131'
p5769
aasS'1SWG'
p5770
(lp5771
(lp5772
I1080
aS'53'
p5773
aS'131'
p5774
aa(lp5775
I1080
aS'17'
p5776
aS'45'
p5777
aasS'1SWF'
p5778
(lp5779
(lp5780
I1080
aS'53'
p5781
aS'131'
p5782
aa(lp5783
I1080
aS'17'
p5784
aS'45'
p5785
aasS'1SWH'
p5786
(lp5787
(lp5788
I1080
aS'17'
p5789
aS'131'
p5790
aasS'1SWK'
p5791
(lp5792
(lp5793
I1080
aS'17'
p5794
aS'131'
p5795
aasS'1SWJ'
p5796
(lp5797
(lp5798
I1080
aS'17'
p5799
aS'131'
p5800
aasS'3FDC'
p5801
(lp5802
(lp5803
I1080
aS'5'
aS'121'
p5804
aasS'1LUQ'
p5805
(lp5806
(lp5807
I1080
aS'1017'
p5808
aS'1131'
p5809
aasS'1SWO'
p5810
(lp5811
(lp5812
I1080
aS'17'
p5813
aS'131'
p5814
aasS'1SWN'
p5815
(lp5816
(lp5817
I1080
aS'17'
p5818
aS'131'
p5819
aa(lp5820
I1080
aS'17'
p5821
aS'131'
p5822
aasS'1SWQ'
p5823
(lp5824
(lp5825
I1080
aS'17'
p5826
aS'131'
p5827
aasS'1SWP'
p5828
(lp5829
(lp5830
I1080
aS'17'
p5831
aS'131'
p5832
aasS'1SWS'
p5833
(lp5834
(lp5835
I1080
aS'17'
p5836
aS'131'
p5837
aasS'4OVJ'
p5838
(lp5839
(lp5840
I7017
aS'67'
p5841
aS'362'
p5842
aasS'1SWU'
p5843
(lp5844
(lp5845
I1080
aS'17'
p5846
aS'131'
p5847
aasS'1SWT'
p5848
(lp5849
(lp5850
I1080
aS'17'
p5851
aS'131'
p5852
aasS'3PGF'
p5853
(lp5854
(lp5855
I1690
aS'126'
p5856
aS'206'
p5857
aa(lp5858
I1690
aS'120'
p5859
aS'205'
p5860
aa(lp5861
I2388
aS'12'
p5862
aS'111'
p5863
aa(lp5864
I2388
aS'6'
aS'106'
p5865
aa(lp5866
I7017
aS'23'
p5867
aS'318'
p5868
aasS'3V6L'
p5869
(lp5870
(lp5871
I5280
aS'45'
p5872
aS'288'
p5873
aasS'5AFI'
p5874
(lp5875
(lp5876
I143
aS'8'
aS'223'
p5877
aa(lp5878
I145
aS'2'
aS'94'
p5879
aa(lp5880
I147
aS'10'
p5881
aS'73'
p5882
aa(lp5883
I148
aS'3'
aS'91'
p5884
aa(lp5885
I1731
aS'20'
p5886
aS'116'
p5887
aa(lp5888
I1732
aS'4'
aS'131'
p5889
aa(lp5890
I1733
aS'71'
p5891
aS'139'
p5892
aa(lp5893
I1734
aS'5'
aS'101'
p5894
aa(lp5895
I1735
aS'15'
p5896
aS'138'
p5897
aa(lp5898
I1739
aS'2'
aS'112'
p5899
aa(lp5900
I1787
aS'83'
p5901
aS'176'
p5902
aa(lp5903
I2019
aS'6'
aS'52'
p5904
aa(lp5905
I2020
aS'1'
aS'65'
p5906
aa(lp5907
I2021
aS'4'
aS'53'
p5908
aa(lp5909
I2023
aS'1'
aS'38'
p5910
aa(lp5911
I2024
aS'1'
aS'44'
p5912
aa(lp5913
I2417
aS'7'
aS'36'
p5914
aa(lp5915
I2446
aS'119'
p5916
aS'201'
p5917
aa(lp5918
I2577
aS'64'
p5919
aS'148'
p5920
aa(lp5921
I2585
aS'1'
aS'45'
p5922
aa(lp5923
I2767
aS'4'
aS'91'
p5924
aa(lp5925
I2772
aS'10'
p5926
aS'81'
p5927
aa(lp5928
I2772
aS'89'
p5929
aS'163'
p5930
aa(lp5931
I2835
aS'96'
p5932
aS'142'
p5933
aa(lp5934
I3071
aS'1'
aS'122'
p5935
aa(lp5936
I3544
aS'2'
aS'107'
p5937
aa(lp5938
I3545
aS'7'
aS'100'
p5939
aa(lp5940
I3547
aS'8'
aS'68'
p5941
aa(lp5942
I3548
aS'9'
aS'75'
p5943
aa(lp5944
I3549
aS'47'
p5945
aS'100'
p5946
aa(lp5947
I3550
aS'8'
aS'87'
p5948
aa(lp5949
I3553
aS'18'
p5950
aS'67'
p5951
aa(lp5952
I3809
aS'86'
p5953
aS'156'
p5954
aa(lp5955
I4161
aS'2'
aS'117'
p5956
aa(lp5957
I4162
aS'28'
p5958
aS'143'
p5959
aa(lp5960
I4492
aS'1'
aS'59'
p5961
aa(lp5962
I4654
aS'224'
p5963
aS'292'
p5964
aa(lp5965
I4655
aS'297'
p5966
aS'391'
p5967
aa(lp5968
I5041
aS'4'
aS'128'
p5969
aa(lp5970
I5042
aS'9'
aS'129'
p5971
aa(lp5972
I5050
aS'1'
aS'148'
p5973
aa(lp5974
I5273
aS'124'
p5975
aS'248'
p5976
aa(lp5977
I5434
aS'1'
aS'56'
p5978
aa(lp5979
I5516
aS'23'
p5980
aS'79'
p5981
aa(lp5982
I5517
aS'13'
p5983
aS'198'
p5984
aa(lp5985
I5520
aS'27'
p5986
aS'182'
p5987
aa(lp5988
I5521
aS'41'
p5989
aS'116'
p5990
aa(lp5991
I5532
aS'5'
aS'122'
p5992
aa(lp5993
I5533
aS'7'
aS'78'
p5994
aa(lp5995
I5683
aS'8'
aS'66'
p5996
aa(lp5997
I5991
aS'2'
aS'61'
p5998
aa(lp5999
I5992
aS'4'
aS'60'
p6000
aa(lp6001
I5995
aS'2'
aS'108'
p6002
aa(lp6003
I5996
aS'5'
aS'108'
p6004
aa(lp6005
I5997
aS'9'
aS'93'
p6006
aa(lp6007
I6226
aS'9'
aS'200'
p6008
aa(lp6009
I6228
aS'1'
aS'96'
p6010
aa(lp6011
I6345
aS'37'
p6012
aS'110'
p6013
aa(lp6014
I6403
aS'18'
p6015
aS'127'
p6016
aa(lp6017
I6412
aS'2'
aS'80'
p6018
aa(lp6019
I7148
aS'2'
aS'83'
p6020
aa(lp6021
I7507
aS'3'
aS'55'
p6022
aasS'2ZYN'
p6023
(lp6024
(lp6025
I7017
aS'39'
p6026
aS'335'
p6027
aa(lp6028
I7017
aS'39'
p6029
aS'335'
p6030
aasS'1YGP'
p6031
(lp6032
(lp6033
I6971
aS'113N'
p6034
aS'828'
p6035
aasS'4V89'
p6036
(lp6037
(lp6038
I143
aS'8'
aS'223'
p6039
aa(lp6040
I145
aS'2'
aS'94'
p6041
aa(lp6042
I147
aS'10'
p6043
aS'73'
p6044
aa(lp6045
I148
aS'3'
aS'91'
p6046
aa(lp6047
I1339
aS'3'
aS'30'
p6048
aa(lp6049
I1731
aS'20'
p6050
aS'116'
p6051
aa(lp6052
I1732
aS'4'
aS'131'
p6053
aa(lp6054
I1733
aS'71'
p6055
aS'139'
p6056
aa(lp6057
I1734
aS'5'
aS'101'
p6058
aa(lp6059
I1735
aS'15'
p6060
aS'138'
p6061
aa(lp6062
I1739
aS'2'
aS'112'
p6063
aa(lp6064
I1787
aS'83'
p6065
aS'176'
p6066
aa(lp6067
I2019
aS'6'
aS'52'
p6068
aa(lp6069
I2021
aS'4'
aS'53'
p6070
aa(lp6071
I2023
aS'1'
aS'38'
p6072
aa(lp6073
I2024
aS'1'
aS'44'
p6074
aa(lp6075
I2417
aS'7'
aS'36'
p6076
aa(lp6077
I2446
aS'119'
p6078
aS'201'
p6079
aa(lp6080
I2767
aS'4'
aS'91'
p6081
aa(lp6082
I2772
aS'10'
p6083
aS'81'
p6084
aa(lp6085
I2772
aS'89'
p6086
aS'163'
p6087
aa(lp6088
I2835
aS'96'
p6089
aS'142'
p6090
aa(lp6091
I3071
aS'1'
aS'122'
p6092
aa(lp6093
I3544
aS'2'
aS'107'
p6094
aa(lp6095
I3545
aS'7'
aS'100'
p6096
aa(lp6097
I3547
aS'8'
aS'68'
p6098
aa(lp6099
I3548
aS'9'
aS'75'
p6100
aa(lp6101
I3549
aS'46'
p6102
aS'99'
p6103
aa(lp6104
I3550
aS'8'
aS'87'
p6105
aa(lp6106
I3553
aS'19'
p6107
aS'67'
p6108
aa(lp6109
I3809
aS'86'
p6110
aS'156'
p6111
aa(lp6112
I4161
aS'2'
aS'117'
p6113
aa(lp6114
I4162
aS'28'
p6115
aS'143'
p6116
aa(lp6117
I4492
aS'1'
aS'59'
p6118
aa(lp6119
I4654
aS'314'
p6120
aS'380'
p6121
aa(lp6122
I5041
aS'4'
aS'128'
p6123
aa(lp6124
I5042
aS'9'
aS'129'
p6125
aa(lp6126
I5050
aS'1'
aS'148'
p6127
aa(lp6128
I5273
aS'124'
p6129
aS'248'
p6130
aa(lp6131
I5434
aS'1'
aS'56'
p6132
aa(lp6133
I5516
aS'23'
p6134
aS'79'
p6135
aa(lp6136
I5517
aS'13'
p6137
aS'198'
p6138
aa(lp6139
I5520
aS'27'
p6140
aS'182'
p6141
aa(lp6142
I5521
aS'41'
p6143
aS'116'
p6144
aa(lp6145
I5532
aS'5'
aS'122'
p6146
aa(lp6147
I5533
aS'6'
aS'81'
p6148
aa(lp6149
I5683
aS'8'
aS'66'
p6150
aa(lp6151
I5991
aS'2'
aS'61'
p6152
aa(lp6153
I5992
aS'4'
aS'60'
p6154
aa(lp6155
I5995
aS'2'
aS'108'
p6156
aa(lp6157
I5996
aS'5'
aS'108'
p6158
aa(lp6159
I5997
aS'9'
aS'93'
p6160
aa(lp6161
I6226
aS'13'
p6162
aS'277'
p6163
aa(lp6164
I6228
aS'1'
aS'96'
p6165
aa(lp6166
I6345
aS'37'
p6167
aS'110'
p6168
aa(lp6169
I6403
aS'18'
p6170
aS'127'
p6171
aa(lp6172
I6412
aS'2'
aS'80'
p6173
aa(lp6174
I6965
aS'387'
p6175
aS'514'
p6176
aa(lp6177
I7148
aS'2'
aS'83'
p6178
aa(lp6179
I7507
aS'3'
aS'53'
p6180
aasS'4EL0'
p6181
(lp6182
(lp6183
I6971
aS'113'
p6184
aS'828'
p6185
aasS'1ICE'
p6186
(lp6187
(lp6188
I5280
aS'163'
p6189
aS'288'
p6190
aa(lp6191
I5280
aS'318'
p6192
aS'400'
p6193
aasS'3C4M'
p6194
(lp6195
(lp6196
I6284
aS'107'
p6197
aS'172'
p6198
aa(lp6199
I7017
aS'-321'
p6200
aS'-26'
p6201
aasS'3S70'
p6202
(lp6203
(lp6204
I5280
aS'45'
p6205
aS'288'
p6206
aasS'3VGW'
p6207
(lp6208
(lp6209
I1080
aS'5'
aS'121'
p6210
aasS'4Z27'
p6211
(lp6212
(lp6213
I1080
aS'18'
p6214
aS'130'
p6215
aasS'2H48'
p6216
(lp6217
(lp6218
I5280
aS'163'
p6219
aS'288'
p6220
aa(lp6221
I5280
aS'318'
p6222
aS'400'
p6223
aasS'2C1S'
p6224
(lp6225
(lp6226
I1080
aS'6'
aS'122'
p6227
aasS'1N7Y'
p6228
(lp6229
(lp6230
I1080
aS'17'
p6231
aS'131'
p6232
aasS'1N9M'
p6233
(lp6234
(lp6235
I1080
aS'17'
p6236
aS'131'
p6237
aasS'4JR0'
p6238
(lp6239
(lp6240
I5280
aS'45'
p6241
aS'275'
p6242
aasS'4JR1'
p6243
(lp6244
(lp6245
I5280
aS'68'
p6246
aS'301'
p6247
aasS'4V85'
p6248
(lp6249
(lp6250
I143
aS'8'
aS'223'
p6251
aa(lp6252
I145
aS'2'
aS'94'
p6253
aa(lp6254
I147
aS'10'
p6255
aS'73'
p6256
aa(lp6257
I148
aS'3'
aS'91'
p6258
aa(lp6259
I1339
aS'3'
aS'30'
p6260
aa(lp6261
I1731
aS'20'
p6262
aS'116'
p6263
aa(lp6264
I1732
aS'4'
aS'131'
p6265
aa(lp6266
I1733
aS'71'
p6267
aS'139'
p6268
aa(lp6269
I1734
aS'5'
aS'101'
p6270
aa(lp6271
I1735
aS'15'
p6272
aS'138'
p6273
aa(lp6274
I1739
aS'2'
aS'112'
p6275
aa(lp6276
I1787
aS'83'
p6277
aS'176'
p6278
aa(lp6279
I2019
aS'6'
aS'52'
p6280
aa(lp6281
I2021
aS'4'
aS'53'
p6282
aa(lp6283
I2023
aS'1'
aS'38'
p6284
aa(lp6285
I2024
aS'1'
aS'44'
p6286
aa(lp6287
I2417
aS'7'
aS'36'
p6288
aa(lp6289
I2446
aS'119'
p6290
aS'201'
p6291
aa(lp6292
I2767
aS'4'
aS'91'
p6293
aa(lp6294
I2772
aS'10'
p6295
aS'81'
p6296
aa(lp6297
I2772
aS'89'
p6298
aS'163'
p6299
aa(lp6300
I2835
aS'96'
p6301
aS'142'
p6302
aa(lp6303
I3071
aS'1'
aS'122'
p6304
aa(lp6305
I3544
aS'2'
aS'107'
p6306
aa(lp6307
I3545
aS'7'
aS'100'
p6308
aa(lp6309
I3547
aS'8'
aS'68'
p6310
aa(lp6311
I3548
aS'9'
aS'75'
p6312
aa(lp6313
I3549
aS'46'
p6314
aS'99'
p6315
aa(lp6316
I3550
aS'8'
aS'87'
p6317
aa(lp6318
I3553
aS'19'
p6319
aS'67'
p6320
aa(lp6321
I3809
aS'86'
p6322
aS'156'
p6323
aa(lp6324
I4161
aS'2'
aS'117'
p6325
aa(lp6326
I4162
aS'28'
p6327
aS'143'
p6328
aa(lp6329
I4492
aS'1'
aS'59'
p6330
aa(lp6331
I4654
aS'314'
p6332
aS'380'
p6333
aa(lp6334
I5041
aS'4'
aS'128'
p6335
aa(lp6336
I5042
aS'9'
aS'129'
p6337
aa(lp6338
I5050
aS'1'
aS'148'
p6339
aa(lp6340
I5273
aS'124'
p6341
aS'248'
p6342
aa(lp6343
I5434
aS'1'
aS'56'
p6344
aa(lp6345
I5516
aS'23'
p6346
aS'79'
p6347
aa(lp6348
I5517
aS'13'
p6349
aS'198'
p6350
aa(lp6351
I5520
aS'27'
p6352
aS'182'
p6353
aa(lp6354
I5521
aS'41'
p6355
aS'116'
p6356
aa(lp6357
I5532
aS'5'
aS'122'
p6358
aa(lp6359
I5533
aS'6'
aS'81'
p6360
aa(lp6361
I5683
aS'8'
aS'66'
p6362
aa(lp6363
I5991
aS'2'
aS'61'
p6364
aa(lp6365
I5992
aS'4'
aS'60'
p6366
aa(lp6367
I5995
aS'2'
aS'108'
p6368
aa(lp6369
I5996
aS'5'
aS'108'
p6370
aa(lp6371
I5997
aS'9'
aS'93'
p6372
aa(lp6373
I6226
aS'13'
p6374
aS'277'
p6375
aa(lp6376
I6228
aS'1'
aS'96'
p6377
aa(lp6378
I6345
aS'37'
p6379
aS'110'
p6380
aa(lp6381
I6403
aS'18'
p6382
aS'127'
p6383
aa(lp6384
I6412
aS'2'
aS'80'
p6385
aa(lp6386
I6965
aS'387'
p6387
aS'514'
p6388
aa(lp6389
I7148
aS'2'
aS'83'
p6390
aa(lp6391
I7507
aS'3'
aS'53'
p6392
aasS'1Y52'
p6393
(lp6394
(lp6395
I1080
aS'5'
aS'119'
p6396
aasS'4AF8'
p6397
(lp6398
(lp6399
I5280
aS'74'
p6400
aS'327'
p6401
aasS'1IUD'
p6402
(lp6403
(lp6404
I7017
aS'23'
p6405
aS'318'
p6406
aasS'2HFB'
p6407
(lp6408
(lp6409
I7017
aS'24'
p6410
aS'327'
p6411
aasS'2GPN'
p6412
(lp6413
(lp6414
I6971
aS'113'
p6415
aS'828'
p6416
aasS'1N9Y'
p6417
(lp6418
(lp6419
I1080
aS'17'
p6420
aS'131'
p6421
aasS'2H4W'
p6422
(lp6423
(lp6424
I5280
aS'163'
p6425
aS'288'
p6426
aa(lp6427
I5280
aS'318'
p6428
aS'400'
p6429
aasS'4Z6J'
p6430
(lp6431
(lp6432
I1080
aS'18'
p6433
aS'130'
p6434
aasS'1NBX'
p6435
(lp6436
(lp6437
I1080
aS'17'
p6438
aS'131'
p6439
aasS'4FEA'
p6440
(lp6441
(lp6442
I5280
aS'68'
p6443
aS'301'
p6444
aasS'1ZIU'
p6445
(lp6446
(lp6447
I7017
aS'23'
p6448
aS'318'
p6449
aasS'1I9H'
p6450
(lp6451
(lp6452
I1080
aS'17'
p6453
aS'131'
p6454
aasS'2XZ3'
p6455
(lp6456
(lp6457
I1393
aS'390'
p6458
aS'487'
p6459
aa(lp6460
I7017
aS'49'
p6461
aS'344'
p6462
aasS'4I60'
p6463
(lp6464
(lp6465
I1080
aS'5'
aS'121'
p6466
aasS'1Y55'
p6467
(lp6468
(lp6469
I1080
aS'5'
aS'119'
p6470
aasS'1Y53'
p6471
(lp6472
(lp6473
I1080
aS'5'
aS'119'
p6474
aasS'1Z8D'
p6475
(lp6476
(lp6477
I6971
aS'113'
p6478
aS'828'
p6479
aasS'3MP8'
p6480
(lp6481
(lp6482
I2702
aS'1128'
p6483
aS'1249'
p6484
aa(lp6485
I7017
aS'761'
p6486
aS'1056'
p6487
aas.