(dp1
S'2CD2'
p2
(lp3
(lp4
I5470
aS'7'
aS'177'
p5
aasS'4KYA'
p6
(lp7
(lp8
I5470
aS'5'
aS'231'
p9
aa(lp10
I6270
aS'326'
p11
aS'610'
p12
aasS'3N0H'
p13
(lp14
(lp15
I5470
aS'4'
aS'184'
p16
aasS'3LG4'
p17
(lp18
(lp19
I5470
aS'2'
aS'156'
p20
aasS'1KMV'
p21
(lp22
(lp23
I5470
aS'4'
aS'184'
p24
aasS'3FYV'
p25
(lp26
(lp27
I5470
aS'2'
aS'156'
p28
aasS'3FYW'
p29
(lp30
(lp31
I5470
aS'2'
aS'156'
p32
aasS'3QLX'
p33
(lp34
(lp35
I5470
aS'8'
aS'155'
p36
aasS'3QLY'
p37
(lp38
(lp39
I5470
aS'8'
aS'155'
p40
aasS'3IA5'
p41
(lp42
(lp43
I5470
aS'3'
aS'160'
p44
aasS'3IA4'
p45
(lp46
(lp47
I5470
aS'3'
aS'160'
p48
aasS'2QK8'
p49
(lp50
(lp51
I5470
aS'3'
aS'160'
p52
aasS'3QLR'
p53
(lp54
(lp55
I5470
aS'9'
aS'164'
p56
aasS'3QLS'
p57
(lp58
(lp59
I5470
aS'9'
aS'164'
p60
aasS'2INQ'
p61
(lp62
(lp63
I5470
aS'1'
aS'158'
p64
aasS'3QLW'
p65
(lp66
(lp67
I5470
aS'9'
aS'164'
p68
aasS'1JGP'
p69
(lp70
(lp71
I143
aS'10'
p72
aS'223'
p73
aa(lp74
I145
aS'3'
aS'98'
p75
aa(lp76
I147
aS'6'
aS'70'
p77
aa(lp78
I148
aS'3'
aS'92'
p79
aa(lp80
I2446
aS'120'
p81
aS'202'
p82
aa(lp83
I2835
aS'100'
p84
aS'146'
p85
aa(lp86
I2994
aS'2'
aS'25'
p87
aa(lp88
I3544
aS'3'
aS'109'
p89
aa(lp90
I3545
aS'5'
aS'99'
p91
aa(lp92
I3547
aS'8'
aS'67'
p93
aa(lp94
I3548
aS'8'
aS'74'
p95
aa(lp96
I3549
aS'9'
aS'60'
p97
aa(lp98
I3550
aS'8'
aS'88'
p99
aa(lp100
I3553
aS'33'
p101
aS'79'
p102
aa(lp103
I3809
aS'82'
p104
aS'152'
p105
aa(lp106
I5041
aS'4'
aS'138'
p107
aa(lp108
I5042
aS'8'
aS'128'
p109
aa(lp110
I5050
aS'2'
aS'149'
p111
aa(lp112
I5532
aS'6'
aS'126'
p113
aa(lp114
I6345
aS'39'
p115
aS'110'
p116
aa(lp117
I6403
aS'17'
p118
aS'126'
p119
aa(lp120
I6412
aS'3'
aS'81'
p121
aa(lp122
I7148
aS'11'
p123
aS'88'
p124
aasS'1JGQ'
p125
(lp126
(lp127
I143
aS'10'
p128
aS'223'
p129
aa(lp130
I145
aS'3'
aS'98'
p131
aa(lp132
I147
aS'6'
aS'70'
p133
aa(lp134
I148
aS'3'
aS'92'
p135
aa(lp136
I2446
aS'120'
p137
aS'202'
p138
aa(lp139
I2835
aS'100'
p140
aS'146'
p141
aa(lp142
I2994
aS'2'
aS'25'
p143
aa(lp144
I3544
aS'3'
aS'109'
p145
aa(lp146
I3545
aS'5'
aS'99'
p147
aa(lp148
I3547
aS'8'
aS'67'
p149
aa(lp150
I3548
aS'8'
aS'74'
p151
aa(lp152
I3549
aS'9'
aS'60'
p153
aa(lp154
I3550
aS'8'
aS'88'
p155
aa(lp156
I3553
aS'33'
p157
aS'79'
p158
aa(lp159
I3809
aS'82'
p160
aS'152'
p161
aa(lp162
I5041
aS'4'
aS'138'
p163
aa(lp164
I5042
aS'8'
aS'128'
p165
aa(lp166
I5050
aS'2'
aS'149'
p167
aa(lp168
I5532
aS'6'
aS'126'
p169
aa(lp170
I6345
aS'39'
p171
aS'110'
p172
aa(lp173
I6403
aS'17'
p174
aS'126'
p175
aa(lp176
I6412
aS'3'
aS'81'
p177
aa(lp178
I7148
aS'11'
p179
aS'88'
p180
aasS'4OR7'
p181
(lp182
(lp183
I5470
aS'1'
aS'158'
p184
aasS'4H98'
p185
(lp186
(lp187
I5470
aS'8'
aS'155'
p188
aasS'2ANQ'
p189
(lp190
(lp191
I5470
aS'1'
aS'158'
p192
aasS'4H97'
p193
(lp194
(lp195
I5470
aS'9'
aS'164'
p196
aasS'4H96'
p197
(lp198
(lp199
I5470
aS'9'
aS'164'
p200
aasS'4H95'
p201
(lp202
(lp203
I5470
aS'9'
aS'164'
p204
aasS'1DIU'
p205
(lp206
(lp207
I5470
aS'3'
aS'160'
p208
aasS'3QL0'
p209
(lp210
(lp211
I5470
aS'1'
aS'158'
p212
aasS'4HOG'
p213
(lp214
(lp215
I5470
aS'8'
aS'155'
p216
aasS'3QL3'
p217
(lp218
(lp219
I5470
aS'1'
aS'158'
p220
aasS'1XMO'
p221
(lp222
(lp223
I143
aS'10'
p224
aS'223'
p225
aa(lp226
I145
aS'3'
aS'98'
p227
aa(lp228
I147
aS'6'
aS'70'
p229
aa(lp230
I148
aS'3'
aS'92'
p231
aa(lp232
I2446
aS'120'
p233
aS'202'
p234
aa(lp235
I2835
aS'100'
p236
aS'146'
p237
aa(lp238
I2994
aS'2'
aS'25'
p239
aa(lp240
I3544
aS'3'
aS'109'
p241
aa(lp242
I3545
aS'5'
aS'99'
p243
aa(lp244
I3547
aS'8'
aS'67'
p245
aa(lp246
I3548
aS'8'
aS'74'
p247
aa(lp248
I3549
aS'9'
aS'60'
p249
aa(lp250
I3550
aS'8'
aS'88'
p251
aa(lp252
I3553
aS'33'
p253
aS'79'
p254
aa(lp255
I3809
aS'82'
p256
aS'152'
p257
aa(lp258
I5041
aS'4'
aS'138'
p259
aa(lp260
I5042
aS'8'
aS'128'
p261
aa(lp262
I5050
aS'2'
aS'149'
p263
aa(lp264
I5532
aS'6'
aS'126'
p265
aa(lp266
I6345
aS'39'
p267
aS'110'
p268
aa(lp269
I6403
aS'17'
p270
aS'126'
p271
aa(lp272
I6412
aS'3'
aS'81'
p273
aa(lp274
I7148
aS'11'
p275
aS'88'
p276
aasS'1XMQ'
p277
(lp278
(lp279
I143
aS'10'
p280
aS'223'
p281
aa(lp282
I145
aS'3'
aS'98'
p283
aa(lp284
I147
aS'6'
aS'70'
p285
aa(lp286
I148
aS'3'
aS'92'
p287
aa(lp288
I2446
aS'120'
p289
aS'202'
p290
aa(lp291
I2835
aS'100'
p292
aS'146'
p293
aa(lp294
I2994
aS'2'
aS'25'
p295
aa(lp296
I3544
aS'3'
aS'109'
p297
aa(lp298
I3545
aS'5'
aS'99'
p299
aa(lp300
I3547
aS'8'
aS'67'
p301
aa(lp302
I3548
aS'8'
aS'74'
p303
aa(lp304
I3549
aS'9'
aS'60'
p305
aa(lp306
I3550
aS'8'
aS'88'
p307
aa(lp308
I3553
aS'33'
p309
aS'79'
p310
aa(lp311
I3809
aS'82'
p312
aS'152'
p313
aa(lp314
I5041
aS'4'
aS'138'
p315
aa(lp316
I5042
aS'8'
aS'128'
p317
aa(lp318
I5050
aS'2'
aS'149'
p319
aa(lp320
I5532
aS'6'
aS'126'
p321
aa(lp322
I6345
aS'39'
p323
aS'110'
p324
aa(lp325
I6403
aS'17'
p326
aS'126'
p327
aa(lp328
I6412
aS'3'
aS'81'
p329
aa(lp330
I7148
aS'11'
p331
aS'88'
p332
aasS'4TU5'
p333
(lp334
(lp335
I5470
aS'2'
aS'156'
p336
aasS'4YHH'
p337
(lp338
(lp339
I143
aS'10'
p340
aS'223'
p341
aa(lp342
I145
aS'3'
aS'98'
p343
aa(lp344
I147
aS'6'
aS'70'
p345
aa(lp346
I148
aS'3'
aS'92'
p347
aa(lp348
I2446
aS'120'
p349
aS'202'
p350
aa(lp351
I2835
aS'100'
p352
aS'146'
p353
aa(lp354
I2994
aS'2'
aS'25'
p355
aa(lp356
I3544
aS'3'
aS'109'
p357
aa(lp358
I3545
aS'5'
aS'99'
p359
aa(lp360
I3547
aS'8'
aS'67'
p361
aa(lp362
I3548
aS'8'
aS'74'
p363
aa(lp364
I3549
aS'9'
aS'60'
p365
aa(lp366
I3550
aS'8'
aS'88'
p367
aa(lp368
I3553
aS'33'
p369
aS'79'
p370
aa(lp371
I3809
aS'82'
p372
aS'152'
p373
aa(lp374
I5041
aS'4'
aS'138'
p375
aa(lp376
I5042
aS'8'
aS'128'
p377
aa(lp378
I5050
aS'3'
aS'149'
p379
aa(lp380
I5532
aS'6'
aS'126'
p381
aa(lp382
I6345
aS'39'
p383
aS'110'
p384
aa(lp385
I6403
aS'17'
p386
aS'124'
p387
aa(lp388
I6412
aS'3'
aS'83'
p389
aasS'2JYB'
p390
(lp391
(lp392
I5470
aS'3'
aS'148'
p393
aasS'4KY4'
p394
(lp395
(lp396
I5470
aS'75'
p397
aS'196'
p398
aa(lp399
I6270
aS'326'
p400
aS'610'
p401
aasS'3DFR'
p402
(lp403
(lp404
I5470
aS'3'
aS'160'
p405
aasS'4V4R'
p406
(lp407
(lp408
I143
aS'10'
p409
aS'223'
p410
aa(lp411
I145
aS'3'
aS'98'
p412
aa(lp413
I147
aS'6'
aS'70'
p414
aa(lp415
I148
aS'3'
aS'92'
p416
aa(lp417
I424
aS'9'
aS'199'
p418
aa(lp419
I1731
aS'20'
p420
aS'117'
p421
aa(lp422
I1732
aS'12'
p423
aS'128'
p424
aa(lp425
I1733
aS'71'
p426
aS'139'
p427
aa(lp428
I1735
aS'12'
p429
aS'109'
p430
aa(lp431
I1787
aS'68'
p432
aS'154'
p433
aa(lp434
I2019
aS'8'
aS'54'
p435
aa(lp436
I2020
aS'1'
aS'64'
p437
aa(lp438
I2021
aS'4'
aS'54'
p439
aa(lp440
I2023
aS'2'
aS'36'
p441
aa(lp442
I2024
aS'1'
aS'44'
p443
aa(lp444
I2393
aS'207'
p445
aS'316'
p446
aa(lp447
I2417
aS'45'
p448
aS'75'
p449
aa(lp450
I2446
aS'120'
p451
aS'202'
p452
aa(lp453
I2577
aS'64'
p454
aS'146'
p455
aa(lp456
I2585
aS'1'
aS'47'
p457
aa(lp458
I2767
aS'12'
p459
aS'83'
p460
aa(lp461
I2772
aS'10'
p462
aS'81'
p463
aa(lp464
I2772
aS'89'
p465
aS'163'
p466
aa(lp467
I2835
aS'100'
p468
aS'146'
p469
aa(lp470
I2994
aS'2'
aS'25'
p471
aa(lp472
I3071
aS'1'
aS'122'
p473
aa(lp474
I3544
aS'3'
aS'109'
p475
aa(lp476
I3545
aS'5'
aS'99'
p477
aa(lp478
I3547
aS'8'
aS'67'
p479
aa(lp480
I3548
aS'8'
aS'74'
p481
aa(lp482
I3549
aS'9'
aS'60'
p483
aa(lp484
I3550
aS'8'
aS'88'
p485
aa(lp486
I3553
aS'33'
p487
aS'79'
p488
aa(lp489
I3809
aS'82'
p490
aS'152'
p491
aa(lp492
I4161
aS'10'
p493
aS'129'
p494
aa(lp495
I4162
aS'51'
p496
aS'142'
p497
aa(lp498
I4492
aS'2'
aS'62'
p499
aa(lp500
I4903
aS'91'
p501
aS'175'
p502
aa(lp503
I5041
aS'4'
aS'138'
p504
aa(lp505
I5042
aS'8'
aS'128'
p506
aa(lp507
I5050
aS'2'
aS'149'
p508
aa(lp509
I5273
aS'124'
p510
aS'237'
p511
aa(lp512
I5434
aS'5'
aS'59'
p513
aa(lp514
I5516
aS'12'
p515
aS'64'
p516
aa(lp517
I5517
aS'16'
p518
aS'246'
p519
aa(lp520
I5520
aS'38'
p521
aS'320'
p522
aa(lp523
I5521
aS'60'
p524
aS'117'
p525
aa(lp526
I5532
aS'6'
aS'126'
p527
aa(lp528
I5533
aS'2'
aS'80'
p529
aa(lp530
I5683
aS'9'
aS'66'
p531
aa(lp532
I5992
aS'6'
aS'62'
p533
aa(lp534
I5993
aS'1'
aS'113'
p535
aa(lp536
I5995
aS'3'
aS'109'
p537
aa(lp538
I5996
aS'5'
aS'107'
p539
aa(lp540
I5997
aS'3'
aS'69'
p541
aa(lp542
I6228
aS'1'
aS'93'
p543
aa(lp544
I6345
aS'39'
p545
aS'110'
p546
aa(lp547
I6403
aS'17'
p548
aS'126'
p549
aa(lp550
I6412
aS'3'
aS'81'
p551
aa(lp552
I6703
aS'4'
aS'56'
p553
aa(lp554
I7148
aS'11'
p555
aS'88'
p556
aasS'4V4S'
p557
(lp558
(lp559
I143
aS'10'
p560
aS'223'
p561
aa(lp562
I145
aS'3'
aS'98'
p563
aa(lp564
I147
aS'6'
aS'70'
p565
aa(lp566
I148
aS'3'
aS'92'
p567
aa(lp568
I424
aS'23'
p569
aS'208'
p570
aa(lp571
I1731
aS'20'
p572
aS'117'
p573
aa(lp574
I1732
aS'12'
p575
aS'128'
p576
aa(lp577
I1733
aS'71'
p578
aS'139'
p579
aa(lp580
I1735
aS'12'
p581
aS'109'
p582
aa(lp583
I1787
aS'68'
p584
aS'154'
p585
aa(lp586
I2019
aS'8'
aS'54'
p587
aa(lp588
I2020
aS'1'
aS'64'
p589
aa(lp590
I2021
aS'4'
aS'54'
p591
aa(lp592
I2023
aS'2'
aS'36'
p593
aa(lp594
I2024
aS'1'
aS'44'
p595
aa(lp596
I2393
aS'217'
p597
aS'325'
p598
aa(lp599
I2417
aS'45'
p600
aS'75'
p601
aa(lp602
I2446
aS'120'
p603
aS'202'
p604
aa(lp605
I2577
aS'64'
p606
aS'146'
p607
aa(lp608
I2585
aS'1'
aS'47'
p609
aa(lp610
I2767
aS'12'
p611
aS'83'
p612
aa(lp613
I2772
aS'10'
p614
aS'81'
p615
aa(lp616
I2772
aS'89'
p617
aS'163'
p618
aa(lp619
I2835
aS'100'
p620
aS'146'
p621
aa(lp622
I2994
aS'2'
aS'25'
p623
aa(lp624
I3071
aS'1'
aS'122'
p625
aa(lp626
I3544
aS'3'
aS'109'
p627
aa(lp628
I3545
aS'5'
aS'99'
p629
aa(lp630
I3547
aS'8'
aS'67'
p631
aa(lp632
I3548
aS'8'
aS'74'
p633
aa(lp634
I3549
aS'9'
aS'60'
p635
aa(lp636
I3550
aS'8'
aS'88'
p637
aa(lp638
I3553
aS'33'
p639
aS'79'
p640
aa(lp641
I3809
aS'82'
p642
aS'152'
p643
aa(lp644
I4161
aS'10'
p645
aS'129'
p646
aa(lp647
I4162
aS'51'
p648
aS'142'
p649
aa(lp650
I4492
aS'2'
aS'62'
p651
aa(lp652
I4903
aS'91'
p653
aS'175'
p654
aa(lp655
I5041
aS'4'
aS'138'
p656
aa(lp657
I5042
aS'8'
aS'128'
p658
aa(lp659
I5050
aS'2'
aS'149'
p660
aa(lp661
I5273
aS'124'
p662
aS'237'
p663
aa(lp664
I5434
aS'5'
aS'59'
p665
aa(lp666
I5516
aS'12'
p667
aS'64'
p668
aa(lp669
I5517
aS'16'
p670
aS'246'
p671
aa(lp672
I5520
aS'38'
p673
aS'320'
p674
aa(lp675
I5521
aS'60'
p676
aS'117'
p677
aa(lp678
I5532
aS'6'
aS'126'
p679
aa(lp680
I5533
aS'2'
aS'80'
p681
aa(lp682
I5683
aS'9'
aS'66'
p683
aa(lp684
I5992
aS'6'
aS'62'
p685
aa(lp686
I5993
aS'1'
aS'113'
p687
aa(lp688
I5995
aS'3'
aS'109'
p689
aa(lp690
I5996
aS'5'
aS'107'
p691
aa(lp692
I5997
aS'3'
aS'69'
p693
aa(lp694
I6228
aS'1'
aS'93'
p695
aa(lp696
I6345
aS'39'
p697
aS'110'
p698
aa(lp699
I6403
aS'17'
p700
aS'126'
p701
aa(lp702
I6412
aS'3'
aS'81'
p703
aa(lp704
I6703
aS'4'
aS'56'
p705
aa(lp706
I7148
aS'11'
p707
aS'88'
p708
aasS'3FY8'
p709
(lp710
(lp711
I5470
aS'2'
aS'156'
p712
aasS'3FY9'
p713
(lp714
(lp715
I5470
aS'2'
aS'156'
p716
aasS'3K74'
p717
(lp718
(lp719
I2388
aS'170'
p720
aS'274'
p721
aa(lp722
I5470
aS'1'
aS'158'
p723
aasS'1DHI'
p724
(lp725
(lp726
I5470
aS'1'
aS'158'
p727
aasS'1HNX'
p728
(lp729
(lp730
I143
aS'10'
p731
aS'223'
p732
aa(lp733
I145
aS'3'
aS'98'
p734
aa(lp735
I147
aS'6'
aS'70'
p736
aa(lp737
I148
aS'3'
aS'92'
p738
aa(lp739
I2446
aS'120'
p740
aS'202'
p741
aa(lp742
I2835
aS'100'
p743
aS'146'
p744
aa(lp745
I2994
aS'2'
aS'25'
p746
aa(lp747
I3544
aS'3'
aS'109'
p748
aa(lp749
I3545
aS'5'
aS'99'
p750
aa(lp751
I3547
aS'8'
aS'67'
p752
aa(lp753
I3548
aS'8'
aS'74'
p754
aa(lp755
I3549
aS'9'
aS'60'
p756
aa(lp757
I3550
aS'8'
aS'88'
p758
aa(lp759
I3553
aS'33'
p760
aS'79'
p761
aa(lp762
I3809
aS'82'
p763
aS'152'
p764
aa(lp765
I5041
aS'4'
aS'138'
p766
aa(lp767
I5042
aS'8'
aS'128'
p768
aa(lp769
I5050
aS'2'
aS'149'
p770
aa(lp771
I5532
aS'6'
aS'126'
p772
aa(lp773
I6345
aS'39'
p774
aS'110'
p775
aa(lp776
I6403
aS'17'
p777
aS'126'
p778
aa(lp779
I6412
aS'3'
aS'81'
p780
aa(lp781
I7148
aS'11'
p782
aS'88'
p783
aasS'1DAJ'
p784
(lp785
(lp786
I5470
aS'7'
aS'177'
p787
aasS'1HNZ'
p788
(lp789
(lp790
I143
aS'10'
p791
aS'223'
p792
aa(lp793
I145
aS'3'
aS'98'
p794
aa(lp795
I147
aS'6'
aS'70'
p796
aa(lp797
I148
aS'3'
aS'92'
p798
aa(lp799
I2446
aS'120'
p800
aS'202'
p801
aa(lp802
I2835
aS'100'
p803
aS'146'
p804
aa(lp805
I2994
aS'2'
aS'25'
p806
aa(lp807
I3544
aS'3'
aS'109'
p808
aa(lp809
I3545
aS'5'
aS'99'
p810
aa(lp811
I3547
aS'8'
aS'67'
p812
aa(lp813
I3548
aS'8'
aS'74'
p814
aa(lp815
I3549
aS'9'
aS'60'
p816
aa(lp817
I3550
aS'8'
aS'88'
p818
aa(lp819
I3553
aS'33'
p820
aS'79'
p821
aa(lp822
I3809
aS'82'
p823
aS'152'
p824
aa(lp825
I5041
aS'4'
aS'138'
p826
aa(lp827
I5042
aS'8'
aS'128'
p828
aa(lp829
I5050
aS'2'
aS'149'
p830
aa(lp831
I5532
aS'6'
aS'126'
p832
aa(lp833
I6345
aS'39'
p834
aS'110'
p835
aa(lp836
I6403
aS'17'
p837
aS'126'
p838
aa(lp839
I6412
aS'3'
aS'81'
p840
aa(lp841
I7148
aS'11'
p842
aS'88'
p843
aasS'1HNW'
p844
(lp845
(lp846
I143
aS'10'
p847
aS'223'
p848
aa(lp849
I145
aS'3'
aS'98'
p850
aa(lp851
I147
aS'6'
aS'70'
p852
aa(lp853
I148
aS'3'
aS'92'
p854
aa(lp855
I2446
aS'120'
p856
aS'202'
p857
aa(lp858
I2835
aS'100'
p859
aS'146'
p860
aa(lp861
I2994
aS'2'
aS'25'
p862
aa(lp863
I3544
aS'3'
aS'109'
p864
aa(lp865
I3545
aS'5'
aS'99'
p866
aa(lp867
I3547
aS'8'
aS'67'
p868
aa(lp869
I3548
aS'8'
aS'74'
p870
aa(lp871
I3549
aS'9'
aS'60'
p872
aa(lp873
I3550
aS'8'
aS'88'
p874
aa(lp875
I3553
aS'33'
p876
aS'79'
p877
aa(lp878
I3809
aS'82'
p879
aS'152'
p880
aa(lp881
I5041
aS'4'
aS'138'
p882
aa(lp883
I5042
aS'8'
aS'128'
p884
aa(lp885
I5050
aS'2'
aS'149'
p886
aa(lp887
I5532
aS'6'
aS'126'
p888
aa(lp889
I6345
aS'39'
p890
aS'110'
p891
aa(lp892
I6403
aS'17'
p893
aS'126'
p894
aa(lp895
I6412
aS'3'
aS'81'
p896
aa(lp897
I7148
aS'11'
p898
aS'88'
p899
aasS'4LEK'
p900
(lp901
(lp902
I5470
aS'3'
aS'157'
p903
aasS'1KMS'
p904
(lp905
(lp906
I5470
aS'4'
aS'184'
p907
aasS'4JYA'
p908
(lp909
(lp910
I143
aS'10'
p911
aS'223'
p912
aa(lp913
I145
aS'3'
aS'98'
p914
aa(lp915
I147
aS'6'
aS'70'
p916
aa(lp917
I148
aS'3'
aS'92'
p918
aa(lp919
I2446
aS'120'
p920
aS'202'
p921
aa(lp922
I2835
aS'100'
p923
aS'146'
p924
aa(lp925
I2994
aS'2'
aS'25'
p926
aa(lp927
I3544
aS'3'
aS'109'
p928
aa(lp929
I3545
aS'5'
aS'99'
p930
aa(lp931
I3547
aS'8'
aS'67'
p932
aa(lp933
I3548
aS'8'
aS'74'
p934
aa(lp935
I3549
aS'9'
aS'60'
p936
aa(lp937
I3550
aS'8'
aS'88'
p938
aa(lp939
I3553
aS'33'
p940
aS'79'
p941
aa(lp942
I3809
aS'82'
p943
aS'152'
p944
aa(lp945
I5041
aS'4'
aS'138'
p946
aa(lp947
I5042
aS'8'
aS'128'
p948
aa(lp949
I5050
aS'3'
aS'149'
p950
aa(lp951
I5532
aS'6'
aS'126'
p952
aa(lp953
I6345
aS'39'
p954
aS'110'
p955
aa(lp956
I6403
aS'17'
p957
aS'126'
p958
aa(lp959
I6412
aS'4'
aS'80'
p960
aa(lp961
I7148
aS'11'
p962
aS'88'
p963
aasS'3FRF'
p964
(lp965
(lp966
I5470
aS'2'
aS'156'
p967
aasS'4KBN'
p968
(lp969
(lp970
I5470
aS'4'
aS'184'
p971
aasS'2UU9'
p972
(lp973
(lp974
I143
aS'10'
p975
aS'223'
p976
aa(lp977
I145
aS'3'
aS'98'
p978
aa(lp979
I147
aS'6'
aS'70'
p980
aa(lp981
I148
aS'3'
aS'92'
p982
aa(lp983
I2446
aS'120'
p984
aS'202'
p985
aa(lp986
I2835
aS'100'
p987
aS'146'
p988
aa(lp989
I2994
aS'2'
aS'26'
p990
aa(lp991
I3544
aS'3'
aS'109'
p992
aa(lp993
I3545
aS'5'
aS'99'
p994
aa(lp995
I3547
aS'8'
aS'67'
p996
aa(lp997
I3548
aS'8'
aS'74'
p998
aa(lp999
I3549
aS'9'
aS'60'
p1000
aa(lp1001
I3550
aS'8'
aS'88'
p1002
aa(lp1003
I3553
aS'33'
p1004
aS'79'
p1005
aa(lp1006
I3809
aS'82'
p1007
aS'152'
p1008
aa(lp1009
I5041
aS'4'
aS'138'
p1010
aa(lp1011
I5042
aS'8'
aS'128'
p1012
aa(lp1013
I5050
aS'2'
aS'149'
p1014
aa(lp1015
I5532
aS'6'
aS'126'
p1016
aa(lp1017
I6345
aS'39'
p1018
aS'110'
p1019
aa(lp1020
I6403
aS'17'
p1021
aS'126'
p1022
aa(lp1023
I6412
aS'3'
aS'82'
p1024
aa(lp1025
I7148
aS'11'
p1026
aS'88'
p1027
aasS'2HHH'
p1028
(lp1029
(lp1030
I143
aS'10'
p1031
aS'223'
p1032
aa(lp1033
I145
aS'3'
aS'98'
p1034
aa(lp1035
I147
aS'6'
aS'70'
p1036
aa(lp1037
I148
aS'3'
aS'92'
p1038
aa(lp1039
I2446
aS'120'
p1040
aS'202'
p1041
aa(lp1042
I2835
aS'100'
p1043
aS'146'
p1044
aa(lp1045
I2994
aS'2'
aS'25'
p1046
aa(lp1047
I3544
aS'3'
aS'109'
p1048
aa(lp1049
I3545
aS'5'
aS'99'
p1050
aa(lp1051
I3547
aS'8'
aS'67'
p1052
aa(lp1053
I3548
aS'8'
aS'74'
p1054
aa(lp1055
I3549
aS'9'
aS'60'
p1056
aa(lp1057
I3550
aS'8'
aS'88'
p1058
aa(lp1059
I3553
aS'33'
p1060
aS'79'
p1061
aa(lp1062
I3809
aS'82'
p1063
aS'152'
p1064
aa(lp1065
I5041
aS'4'
aS'138'
p1066
aa(lp1067
I5042
aS'8'
aS'128'
p1068
aa(lp1069
I5050
aS'2'
aS'149'
p1070
aa(lp1071
I5532
aS'6'
aS'126'
p1072
aa(lp1073
I6345
aS'39'
p1074
aS'110'
p1075
aa(lp1076
I6403
aS'17'
p1077
aS'126'
p1078
aa(lp1079
I6412
aS'3'
aS'81'
p1080
aa(lp1081
I7148
aS'11'
p1082
aS'88'
p1083
aasS'3CL9'
p1084
(lp1085
(lp1086
I5470
aS'23'
p1087
aS'191'
p1088
aa(lp1089
I6270
aS'238'
p1090
aS'514'
p1091
aasS'4DFR'
p1092
(lp1093
(lp1094
I5470
aS'1'
aS'158'
p1095
aasS'3CLB'
p1096
(lp1097
(lp1098
I5470
aS'23'
p1099
aS'191'
p1100
aa(lp1101
I6270
aS'238'
p1102
aS'516'
p1103
aasS'4JV5'
p1104
(lp1105
(lp1106
I143
aS'10'
p1107
aS'223'
p1108
aa(lp1109
I145
aS'3'
aS'98'
p1110
aa(lp1111
I147
aS'6'
aS'70'
p1112
aa(lp1113
I148
aS'3'
aS'92'
p1114
aa(lp1115
I2446
aS'120'
p1116
aS'202'
p1117
aa(lp1118
I2835
aS'100'
p1119
aS'146'
p1120
aa(lp1121
I2994
aS'2'
aS'25'
p1122
aa(lp1123
I3544
aS'3'
aS'109'
p1124
aa(lp1125
I3545
aS'5'
aS'99'
p1126
aa(lp1127
I3547
aS'8'
aS'67'
p1128
aa(lp1129
I3548
aS'8'
aS'74'
p1130
aa(lp1131
I3549
aS'9'
aS'60'
p1132
aa(lp1133
I3550
aS'8'
aS'88'
p1134
aa(lp1135
I3553
aS'33'
p1136
aS'79'
p1137
aa(lp1138
I3809
aS'82'
p1139
aS'152'
p1140
aa(lp1141
I5041
aS'4'
aS'138'
p1142
aa(lp1143
I5042
aS'8'
aS'128'
p1144
aa(lp1145
I5050
aS'3'
aS'149'
p1146
aa(lp1147
I5532
aS'6'
aS'126'
p1148
aa(lp1149
I6345
aS'39'
p1150
aS'110'
p1151
aa(lp1152
I6403
aS'17'
p1153
aS'126'
p1154
aa(lp1155
I6412
aS'4'
aS'80'
p1156
aa(lp1157
I7148
aS'11'
p1158
aS'88'
p1159
aasS'2UUA'
p1160
(lp1161
(lp1162
I143
aS'10'
p1163
aS'223'
p1164
aa(lp1165
I145
aS'3'
aS'98'
p1166
aa(lp1167
I147
aS'6'
aS'70'
p1168
aa(lp1169
I148
aS'3'
aS'92'
p1170
aa(lp1171
I2446
aS'120'
p1172
aS'202'
p1173
aa(lp1174
I2835
aS'100'
p1175
aS'146'
p1176
aa(lp1177
I2994
aS'2'
aS'26'
p1178
aa(lp1179
I3544
aS'3'
aS'109'
p1180
aa(lp1181
I3545
aS'5'
aS'99'
p1182
aa(lp1183
I3547
aS'8'
aS'67'
p1184
aa(lp1185
I3548
aS'8'
aS'74'
p1186
aa(lp1187
I3549
aS'9'
aS'60'
p1188
aa(lp1189
I3550
aS'8'
aS'88'
p1190
aa(lp1191
I3553
aS'33'
p1192
aS'79'
p1193
aa(lp1194
I3809
aS'82'
p1195
aS'152'
p1196
aa(lp1197
I5041
aS'4'
aS'138'
p1198
aa(lp1199
I5042
aS'8'
aS'128'
p1200
aa(lp1201
I5050
aS'2'
aS'149'
p1202
aa(lp1203
I5532
aS'6'
aS'126'
p1204
aa(lp1205
I6345
aS'39'
p1206
aS'110'
p1207
aa(lp1208
I6403
aS'17'
p1209
aS'126'
p1210
aa(lp1211
I6412
aS'3'
aS'82'
p1212
aa(lp1213
I7148
aS'11'
p1214
aS'88'
p1215
aasS'2UUB'
p1216
(lp1217
(lp1218
I143
aS'10'
p1219
aS'223'
p1220
aa(lp1221
I145
aS'3'
aS'98'
p1222
aa(lp1223
I147
aS'6'
aS'70'
p1224
aa(lp1225
I148
aS'3'
aS'92'
p1226
aa(lp1227
I2446
aS'120'
p1228
aS'202'
p1229
aa(lp1230
I2835
aS'100'
p1231
aS'146'
p1232
aa(lp1233
I2994
aS'2'
aS'26'
p1234
aa(lp1235
I3544
aS'3'
aS'109'
p1236
aa(lp1237
I3545
aS'5'
aS'99'
p1238
aa(lp1239
I3547
aS'8'
aS'67'
p1240
aa(lp1241
I3548
aS'8'
aS'74'
p1242
aa(lp1243
I3549
aS'9'
aS'60'
p1244
aa(lp1245
I3550
aS'8'
aS'88'
p1246
aa(lp1247
I3553
aS'33'
p1248
aS'79'
p1249
aa(lp1250
I3809
aS'82'
p1251
aS'152'
p1252
aa(lp1253
I5041
aS'4'
aS'138'
p1254
aa(lp1255
I5042
aS'8'
aS'128'
p1256
aa(lp1257
I5050
aS'2'
aS'149'
p1258
aa(lp1259
I5532
aS'6'
aS'126'
p1260
aa(lp1261
I6345
aS'39'
p1262
aS'110'
p1263
aa(lp1264
I6403
aS'17'
p1265
aS'126'
p1266
aa(lp1267
I6412
aS'3'
aS'82'
p1268
aa(lp1269
I7148
aS'11'
p1270
aS'88'
p1271
aasS'2UUC'
p1272
(lp1273
(lp1274
I143
aS'10'
p1275
aS'223'
p1276
aa(lp1277
I145
aS'3'
aS'98'
p1278
aa(lp1279
I147
aS'6'
aS'70'
p1280
aa(lp1281
I148
aS'3'
aS'92'
p1282
aa(lp1283
I2446
aS'120'
p1284
aS'202'
p1285
aa(lp1286
I2835
aS'100'
p1287
aS'146'
p1288
aa(lp1289
I2994
aS'2'
aS'26'
p1290
aa(lp1291
I3544
aS'3'
aS'109'
p1292
aa(lp1293
I3545
aS'5'
aS'99'
p1294
aa(lp1295
I3547
aS'8'
aS'67'
p1296
aa(lp1297
I3548
aS'8'
aS'74'
p1298
aa(lp1299
I3549
aS'9'
aS'60'
p1300
aa(lp1301
I3550
aS'8'
aS'88'
p1302
aa(lp1303
I3553
aS'33'
p1304
aS'79'
p1305
aa(lp1306
I3809
aS'82'
p1307
aS'152'
p1308
aa(lp1309
I5041
aS'4'
aS'138'
p1310
aa(lp1311
I5042
aS'8'
aS'128'
p1312
aa(lp1313
I5050
aS'2'
aS'149'
p1314
aa(lp1315
I5532
aS'6'
aS'126'
p1316
aa(lp1317
I6345
aS'39'
p1318
aS'110'
p1319
aa(lp1320
I6403
aS'17'
p1321
aS'126'
p1322
aa(lp1323
I6412
aS'3'
aS'82'
p1324
aa(lp1325
I7148
aS'11'
p1326
aS'88'
p1327
aasS'1QZF'
p1328
(lp1329
(lp1330
I5470
aS'9'
aS'176'
p1331
aa(lp1332
I6270
aS'239'
p1333
aS'521'
p1334
aasS'4ECK'
p1335
(lp1336
(lp1337
I5470
aS'75'
p1338
aS'193'
p1339
aa(lp1340
I6270
aS'326'
p1341
aS'610'
p1342
aasS'1N32'
p1343
(lp1344
(lp1345
I143
aS'10'
p1346
aS'223'
p1347
aa(lp1348
I145
aS'3'
aS'98'
p1349
aa(lp1350
I147
aS'6'
aS'70'
p1351
aa(lp1352
I148
aS'3'
aS'92'
p1353
aa(lp1354
I2446
aS'120'
p1355
aS'202'
p1356
aa(lp1357
I2835
aS'100'
p1358
aS'146'
p1359
aa(lp1360
I2994
aS'2'
aS'25'
p1361
aa(lp1362
I3544
aS'3'
aS'109'
p1363
aa(lp1364
I3545
aS'5'
aS'99'
p1365
aa(lp1366
I3547
aS'8'
aS'67'
p1367
aa(lp1368
I3548
aS'8'
aS'74'
p1369
aa(lp1370
I3549
aS'9'
aS'60'
p1371
aa(lp1372
I3550
aS'8'
aS'88'
p1373
aa(lp1374
I3553
aS'33'
p1375
aS'79'
p1376
aa(lp1377
I3809
aS'82'
p1378
aS'152'
p1379
aa(lp1380
I5041
aS'4'
aS'138'
p1381
aa(lp1382
I5042
aS'8'
aS'128'
p1383
aa(lp1384
I5050
aS'3'
aS'149'
p1385
aa(lp1386
I5532
aS'6'
aS'126'
p1387
aa(lp1388
I6345
aS'39'
p1389
aS'110'
p1390
aa(lp1391
I6403
aS'17'
p1392
aS'126'
p1393
aa(lp1394
I6412
aS'3'
aS'81'
p1395
aa(lp1396
I7148
aS'11'
p1397
aS'88'
p1398
aasS'1N33'
p1399
(lp1400
(lp1401
I143
aS'10'
p1402
aS'223'
p1403
aa(lp1404
I145
aS'3'
aS'98'
p1405
aa(lp1406
I147
aS'6'
aS'70'
p1407
aa(lp1408
I148
aS'3'
aS'92'
p1409
aa(lp1410
I2446
aS'120'
p1411
aS'202'
p1412
aa(lp1413
I2835
aS'100'
p1414
aS'146'
p1415
aa(lp1416
I2994
aS'2'
aS'25'
p1417
aa(lp1418
I3544
aS'3'
aS'109'
p1419
aa(lp1420
I3545
aS'5'
aS'99'
p1421
aa(lp1422
I3547
aS'8'
aS'67'
p1423
aa(lp1424
I3548
aS'8'
aS'74'
p1425
aa(lp1426
I3549
aS'9'
aS'60'
p1427
aa(lp1428
I3550
aS'8'
aS'88'
p1429
aa(lp1430
I3553
aS'33'
p1431
aS'79'
p1432
aa(lp1433
I3809
aS'82'
p1434
aS'152'
p1435
aa(lp1436
I5041
aS'4'
aS'138'
p1437
aa(lp1438
I5042
aS'8'
aS'128'
p1439
aa(lp1440
I5050
aS'3'
aS'149'
p1441
aa(lp1442
I5532
aS'6'
aS'126'
p1443
aa(lp1444
I6345
aS'39'
p1445
aS'110'
p1446
aa(lp1447
I6403
aS'17'
p1448
aS'126'
p1449
aa(lp1450
I6412
aS'3'
aS'81'
p1451
aa(lp1452
I7148
aS'11'
p1453
aS'88'
p1454
aasS'1N34'
p1455
(lp1456
(lp1457
I143
aS'10'
p1458
aS'223'
p1459
aa(lp1460
I145
aS'3'
aS'98'
p1461
aa(lp1462
I147
aS'6'
aS'70'
p1463
aa(lp1464
I148
aS'3'
aS'92'
p1465
aa(lp1466
I2446
aS'120'
p1467
aS'202'
p1468
aa(lp1469
I2835
aS'100'
p1470
aS'146'
p1471
aa(lp1472
I2994
aS'2'
aS'25'
p1473
aa(lp1474
I3544
aS'3'
aS'109'
p1475
aa(lp1476
I3545
aS'5'
aS'99'
p1477
aa(lp1478
I3547
aS'8'
aS'67'
p1479
aa(lp1480
I3548
aS'8'
aS'74'
p1481
aa(lp1482
I3549
aS'9'
aS'60'
p1483
aa(lp1484
I3550
aS'8'
aS'88'
p1485
aa(lp1486
I3553
aS'33'
p1487
aS'79'
p1488
aa(lp1489
I3809
aS'82'
p1490
aS'152'
p1491
aa(lp1492
I5041
aS'4'
aS'138'
p1493
aa(lp1494
I5042
aS'8'
aS'128'
p1495
aa(lp1496
I5050
aS'3'
aS'149'
p1497
aa(lp1498
I5532
aS'6'
aS'126'
p1499
aa(lp1500
I6345
aS'39'
p1501
aS'110'
p1502
aa(lp1503
I6403
aS'17'
p1504
aS'126'
p1505
aa(lp1506
I6412
aS'3'
aS'81'
p1507
aa(lp1508
I7148
aS'11'
p1509
aS'88'
p1510
aasS'1N36'
p1511
(lp1512
(lp1513
I143
aS'10'
p1514
aS'223'
p1515
aa(lp1516
I145
aS'3'
aS'98'
p1517
aa(lp1518
I147
aS'6'
aS'70'
p1519
aa(lp1520
I148
aS'3'
aS'92'
p1521
aa(lp1522
I2446
aS'120'
p1523
aS'202'
p1524
aa(lp1525
I2835
aS'100'
p1526
aS'146'
p1527
aa(lp1528
I2994
aS'2'
aS'25'
p1529
aa(lp1530
I3544
aS'3'
aS'109'
p1531
aa(lp1532
I3545
aS'5'
aS'99'
p1533
aa(lp1534
I3547
aS'8'
aS'67'
p1535
aa(lp1536
I3548
aS'8'
aS'74'
p1537
aa(lp1538
I3549
aS'9'
aS'60'
p1539
aa(lp1540
I3550
aS'8'
aS'88'
p1541
aa(lp1542
I3553
aS'33'
p1543
aS'79'
p1544
aa(lp1545
I3809
aS'82'
p1546
aS'152'
p1547
aa(lp1548
I5041
aS'4'
aS'138'
p1549
aa(lp1550
I5042
aS'8'
aS'128'
p1551
aa(lp1552
I5050
aS'3'
aS'149'
p1553
aa(lp1554
I5532
aS'6'
aS'126'
p1555
aa(lp1556
I6345
aS'39'
p1557
aS'110'
p1558
aa(lp1559
I6403
aS'17'
p1560
aS'126'
p1561
aa(lp1562
I6412
aS'3'
aS'81'
p1563
aa(lp1564
I7148
aS'11'
p1565
aS'88'
p1566
aasS'4QHV'
p1567
(lp1568
(lp1569
I5470
aS'4'
aS'184'
p1570
aasS'1RD7'
p1571
(lp1572
(lp1573
I5470
aS'1'
aS'158'
p1574
aasS'1MVS'
p1575
(lp1576
(lp1577
I5470
aS'4'
aS'184'
p1578
aasS'1MVT'
p1579
(lp1580
(lp1581
I5470
aS'4'
aS'184'
p1582
aasS'4EJ1'
p1583
(lp1584
(lp1585
I2388
aS'11'
p1586
aS'126'
p1587
aa(lp1588
I5470
aS'1'
aS'158'
p1589
aasS'1J5E'
p1590
(lp1591
(lp1592
I143
aS'10'
p1593
aS'223'
p1594
aa(lp1595
I143
aS'10'
p1596
aS'223'
p1597
aa(lp1598
I145
aS'3'
aS'98'
p1599
aa(lp1600
I145
aS'3'
aS'98'
p1601
aa(lp1602
I147
aS'6'
aS'70'
p1603
aa(lp1604
I147
aS'6'
aS'70'
p1605
aa(lp1606
I148
aS'3'
aS'92'
p1607
aa(lp1608
I148
aS'3'
aS'92'
p1609
aa(lp1610
I2446
aS'120'
p1611
aS'202'
p1612
aa(lp1613
I2446
aS'120'
p1614
aS'202'
p1615
aa(lp1616
I2835
aS'100'
p1617
aS'146'
p1618
aa(lp1619
I2835
aS'100'
p1620
aS'146'
p1621
aa(lp1622
I2994
aS'2'
aS'25'
p1623
aa(lp1624
I2994
aS'2'
aS'25'
p1625
aa(lp1626
I3544
aS'3'
aS'109'
p1627
aa(lp1628
I3544
aS'3'
aS'109'
p1629
aa(lp1630
I3545
aS'5'
aS'99'
p1631
aa(lp1632
I3545
aS'5'
aS'99'
p1633
aa(lp1634
I3547
aS'8'
aS'67'
p1635
aa(lp1636
I3547
aS'8'
aS'67'
p1637
aa(lp1638
I3548
aS'8'
aS'74'
p1639
aa(lp1640
I3548
aS'8'
aS'74'
p1641
aa(lp1642
I3549
aS'9'
aS'60'
p1643
aa(lp1644
I3549
aS'9'
aS'60'
p1645
aa(lp1646
I3550
aS'8'
aS'88'
p1647
aa(lp1648
I3550
aS'8'
aS'88'
p1649
aa(lp1650
I3553
aS'33'
p1651
aS'79'
p1652
aa(lp1653
I3553
aS'33'
p1654
aS'79'
p1655
aa(lp1656
I3809
aS'82'
p1657
aS'152'
p1658
aa(lp1659
I3809
aS'82'
p1660
aS'152'
p1661
aa(lp1662
I5041
aS'4'
aS'138'
p1663
aa(lp1664
I5041
aS'4'
aS'138'
p1665
aa(lp1666
I5042
aS'8'
aS'128'
p1667
aa(lp1668
I5042
aS'8'
aS'128'
p1669
aa(lp1670
I5050
aS'3'
aS'149'
p1671
aa(lp1672
I5050
aS'3'
aS'149'
p1673
aa(lp1674
I5532
aS'6'
aS'126'
p1675
aa(lp1676
I5532
aS'6'
aS'126'
p1677
aa(lp1678
I6345
aS'39'
p1679
aS'110'
p1680
aa(lp1681
I6345
aS'39'
p1682
aS'110'
p1683
aa(lp1684
I6403
aS'17'
p1685
aS'126'
p1686
aa(lp1687
I6403
aS'17'
p1688
aS'126'
p1689
aa(lp1690
I6412
aS'3'
aS'81'
p1691
aa(lp1692
I6412
aS'3'
aS'81'
p1693
aa(lp1694
I7148
aS'11'
p1695
aS'88'
p1696
aa(lp1697
I7148
aS'11'
p1698
aS'88'
p1699
aasS'2ANO'
p1700
(lp1701
(lp1702
I5470
aS'1'
aS'158'
p1703
aasS'2ZZA'
p1704
(lp1705
(lp1706
I5470
aS'3'
aS'160'
p1707
aasS'4RGC'
p1708
(lp1709
(lp1710
I5470
aS'1'
aS'158'
p1711
aasS'2ZM6'
p1712
(lp1713
(lp1714
I143
aS'10'
p1715
aS'223'
p1716
aa(lp1717
I145
aS'3'
aS'98'
p1718
aa(lp1719
I147
aS'6'
aS'70'
p1720
aa(lp1721
I148
aS'3'
aS'92'
p1722
aa(lp1723
I2446
aS'120'
p1724
aS'202'
p1725
aa(lp1726
I2835
aS'100'
p1727
aS'146'
p1728
aa(lp1729
I2994
aS'2'
aS'25'
p1730
aa(lp1731
I3544
aS'3'
aS'109'
p1732
aa(lp1733
I3545
aS'5'
aS'99'
p1734
aa(lp1735
I3547
aS'8'
aS'67'
p1736
aa(lp1737
I3548
aS'8'
aS'74'
p1738
aa(lp1739
I3549
aS'9'
aS'60'
p1740
aa(lp1741
I3550
aS'8'
aS'88'
p1742
aa(lp1743
I3553
aS'33'
p1744
aS'79'
p1745
aa(lp1746
I3809
aS'82'
p1747
aS'152'
p1748
aa(lp1749
I5041
aS'4'
aS'138'
p1750
aa(lp1751
I5042
aS'8'
aS'128'
p1752
aa(lp1753
I5050
aS'3'
aS'149'
p1754
aa(lp1755
I5532
aS'6'
aS'126'
p1756
aa(lp1757
I6345
aS'39'
p1758
aS'110'
p1759
aa(lp1760
I6403
aS'17'
p1761
aS'125'
p1762
aa(lp1763
I6412
aS'3'
aS'81'
p1764
aa(lp1765
I7148
aS'11'
p1766
aS'88'
p1767
aasS'3QGT'
p1768
(lp1769
(lp1770
I5470
aS'99'
p1771
aS'228'
p1772
aa(lp1773
I6270
aS'327'
p1774
aS'607'
p1775
aasS'3SGY'
p1776
(lp1777
(lp1778
I5470
aS'2'
aS'156'
p1779
aasS'1JGO'
p1780
(lp1781
(lp1782
I143
aS'10'
p1783
aS'223'
p1784
aa(lp1785
I145
aS'3'
aS'98'
p1786
aa(lp1787
I147
aS'6'
aS'70'
p1788
aa(lp1789
I148
aS'3'
aS'92'
p1790
aa(lp1791
I2446
aS'120'
p1792
aS'202'
p1793
aa(lp1794
I2835
aS'100'
p1795
aS'146'
p1796
aa(lp1797
I2994
aS'2'
aS'25'
p1798
aa(lp1799
I3544
aS'3'
aS'109'
p1800
aa(lp1801
I3545
aS'5'
aS'99'
p1802
aa(lp1803
I3547
aS'8'
aS'67'
p1804
aa(lp1805
I3548
aS'8'
aS'74'
p1806
aa(lp1807
I3549
aS'9'
aS'60'
p1808
aa(lp1809
I3550
aS'8'
aS'88'
p1810
aa(lp1811
I3553
aS'33'
p1812
aS'79'
p1813
aa(lp1814
I3809
aS'82'
p1815
aS'152'
p1816
aa(lp1817
I5041
aS'4'
aS'138'
p1818
aa(lp1819
I5042
aS'8'
aS'128'
p1820
aa(lp1821
I5050
aS'2'
aS'149'
p1822
aa(lp1823
I5532
aS'6'
aS'126'
p1824
aa(lp1825
I6345
aS'39'
p1826
aS'110'
p1827
aa(lp1828
I6403
aS'17'
p1829
aS'126'
p1830
aa(lp1831
I6412
aS'3'
aS'81'
p1832
aa(lp1833
I7148
aS'11'
p1834
aS'88'
p1835
aasS'2F4V'
p1836
(lp1837
(lp1838
I143
aS'10'
p1839
aS'223'
p1840
aa(lp1841
I145
aS'3'
aS'98'
p1842
aa(lp1843
I147
aS'6'
aS'70'
p1844
aa(lp1845
I148
aS'3'
aS'92'
p1846
aa(lp1847
I2446
aS'120'
p1848
aS'202'
p1849
aa(lp1850
I2835
aS'100'
p1851
aS'146'
p1852
aa(lp1853
I3544
aS'3'
aS'109'
p1854
aa(lp1855
I3545
aS'5'
aS'99'
p1856
aa(lp1857
I3547
aS'8'
aS'67'
p1858
aa(lp1859
I3548
aS'8'
aS'74'
p1860
aa(lp1861
I3549
aS'9'
aS'60'
p1862
aa(lp1863
I3550
aS'8'
aS'88'
p1864
aa(lp1865
I3553
aS'33'
p1866
aS'79'
p1867
aa(lp1868
I3809
aS'82'
p1869
aS'152'
p1870
aa(lp1871
I5041
aS'4'
aS'138'
p1872
aa(lp1873
I5042
aS'8'
aS'128'
p1874
aa(lp1875
I5050
aS'2'
aS'149'
p1876
aa(lp1877
I5532
aS'6'
aS'126'
p1878
aa(lp1879
I6345
aS'39'
p1880
aS'110'
p1881
aa(lp1882
I6403
aS'17'
p1883
aS'126'
p1884
aa(lp1885
I6412
aS'3'
aS'83'
p1886
aa(lp1887
I7148
aS'11'
p1888
aS'88'
p1889
aasS'4G8Z'
p1890
(lp1891
(lp1892
I5470
aS'7'
aS'177'
p1893
aasS'1RC4'
p1894
(lp1895
(lp1896
I5470
aS'1'
aS'158'
p1897
aasS'3VCO'
p1898
(lp1899
(lp1900
I5470
aS'3'
aS'178'
p1901
aasS'4KEB'
p1902
(lp1903
(lp1904
I5470
aS'4'
aS'184'
p1905
aasS'1JUV'
p1906
(lp1907
(lp1908
I5470
aS'22'
p1909
aS'157'
p1910
aasS'1YHO'
p1911
(lp1912
(lp1913
I5470
aS'4'
aS'184'
p1914
aasS'4OX9'
p1915
(lp1916
(lp1917
I143
aS'10'
p1918
aS'223'
p1919
aa(lp1920
I145
aS'3'
aS'98'
p1921
aa(lp1922
I147
aS'6'
aS'70'
p1923
aa(lp1924
I148
aS'3'
aS'92'
p1925
aa(lp1926
I2446
aS'120'
p1927
aS'202'
p1928
aa(lp1929
I2835
aS'100'
p1930
aS'146'
p1931
aa(lp1932
I2994
aS'2'
aS'25'
p1933
aa(lp1934
I3544
aS'3'
aS'109'
p1935
aa(lp1936
I3545
aS'5'
aS'99'
p1937
aa(lp1938
I3547
aS'8'
aS'67'
p1939
aa(lp1940
I3548
aS'8'
aS'74'
p1941
aa(lp1942
I3549
aS'9'
aS'60'
p1943
aa(lp1944
I3550
aS'8'
aS'88'
p1945
aa(lp1946
I3553
aS'33'
p1947
aS'79'
p1948
aa(lp1949
I3809
aS'82'
p1950
aS'152'
p1951
aa(lp1952
I5041
aS'4'
aS'138'
p1953
aa(lp1954
I5042
aS'8'
aS'128'
p1955
aa(lp1956
I5050
aS'3'
aS'149'
p1957
aa(lp1958
I5532
aS'6'
aS'126'
p1959
aa(lp1960
I5814
aS'27'
p1961
aS'106'
p1962
aa(lp1963
I6345
aS'39'
p1964
aS'110'
p1965
aa(lp1966
I6403
aS'17'
p1967
aS'126'
p1968
aa(lp1969
I6412
aS'3'
aS'81'
p1970
aa(lp1971
I7148
aS'11'
p1972
aS'88'
p1973
aasS'4DR1'
p1974
(lp1975
(lp1976
I143
aS'10'
p1977
aS'223'
p1978
aa(lp1979
I145
aS'3'
aS'98'
p1980
aa(lp1981
I147
aS'6'
aS'70'
p1982
aa(lp1983
I148
aS'3'
aS'92'
p1984
aa(lp1985
I2446
aS'120'
p1986
aS'202'
p1987
aa(lp1988
I2835
aS'100'
p1989
aS'146'
p1990
aa(lp1991
I2994
aS'2'
aS'25'
p1992
aa(lp1993
I3544
aS'3'
aS'109'
p1994
aa(lp1995
I3545
aS'5'
aS'99'
p1996
aa(lp1997
I3547
aS'8'
aS'67'
p1998
aa(lp1999
I3548
aS'8'
aS'74'
p2000
aa(lp2001
I3549
aS'9'
aS'60'
p2002
aa(lp2003
I3550
aS'8'
aS'88'
p2004
aa(lp2005
I3553
aS'33'
p2006
aS'79'
p2007
aa(lp2008
I3809
aS'82'
p2009
aS'152'
p2010
aa(lp2011
I5041
aS'4'
aS'138'
p2012
aa(lp2013
I5042
aS'8'
aS'128'
p2014
aa(lp2015
I5050
aS'2'
aS'149'
p2016
aa(lp2017
I5532
aS'6'
aS'126'
p2018
aa(lp2019
I6345
aS'39'
p2020
aS'110'
p2021
aa(lp2022
I6403
aS'17'
p2023
aS'126'
p2024
aa(lp2025
I6412
aS'3'
aS'81'
p2026
aa(lp2027
I7148
aS'11'
p2028
aS'88'
p2029
aasS'3FRA'
p2030
(lp2031
(lp2032
I5470
aS'2'
aS'156'
p2033
aasS'3QG2'
p2034
(lp2035
(lp2036
I5470
aS'99'
p2037
aS'228'
p2038
aa(lp2039
I6270
aS'327'
p2040
aS'607'
p2041
aasS'3FRE'
p2042
(lp2043
(lp2044
I5470
aS'2'
aS'156'
p2045
aasS'3FRD'
p2046
(lp2047
(lp2048
I5470
aS'2'
aS'156'
p2049
aasS'4DR7'
p2050
(lp2051
(lp2052
I143
aS'10'
p2053
aS'223'
p2054
aa(lp2055
I145
aS'3'
aS'98'
p2056
aa(lp2057
I147
aS'6'
aS'70'
p2058
aa(lp2059
I148
aS'3'
aS'92'
p2060
aa(lp2061
I2446
aS'120'
p2062
aS'202'
p2063
aa(lp2064
I2835
aS'100'
p2065
aS'146'
p2066
aa(lp2067
I2994
aS'2'
aS'26'
p2068
aa(lp2069
I3544
aS'3'
aS'109'
p2070
aa(lp2071
I3545
aS'5'
aS'99'
p2072
aa(lp2073
I3547
aS'8'
aS'67'
p2074
aa(lp2075
I3548
aS'8'
aS'74'
p2076
aa(lp2077
I3549
aS'9'
aS'60'
p2078
aa(lp2079
I3550
aS'8'
aS'88'
p2080
aa(lp2081
I3553
aS'33'
p2082
aS'79'
p2083
aa(lp2084
I3809
aS'82'
p2085
aS'152'
p2086
aa(lp2087
I5041
aS'4'
aS'138'
p2088
aa(lp2089
I5042
aS'8'
aS'128'
p2090
aa(lp2091
I5050
aS'2'
aS'149'
p2092
aa(lp2093
I5532
aS'6'
aS'126'
p2094
aa(lp2095
I6345
aS'39'
p2096
aS'110'
p2097
aa(lp2098
I6403
aS'17'
p2099
aS'126'
p2100
aa(lp2101
I6412
aS'3'
aS'82'
p2102
aa(lp2103
I7148
aS'11'
p2104
aS'88'
p2105
aasS'2HQP'
p2106
(lp2107
(lp2108
I5470
aS'3'
aS'160'
p2109
aasS'2DHF'
p2110
(lp2111
(lp2112
I5470
aS'4'
aS'184'
p2113
aasS'5DFR'
p2114
(lp2115
(lp2116
I5470
aS'1'
aS'158'
p2117
aasS'2ITH'
p2118
(lp2119
(lp2120
I5470
aS'3'
aS'148'
p2121
aasS'3FRB'
p2122
(lp2123
(lp2124
I5470
aS'2'
aS'156'
p2125
aasS'4KNE'
p2126
(lp2127
(lp2128
I5470
aS'1'
aS'156'
p2129
aasS'2H2Q'
p2130
(lp2131
(lp2132
I5470
aS'23'
p2133
aS'191'
p2134
aa(lp2135
I6270
aS'238'
p2136
aS'515'
p2137
aasS'2VQF'
p2138
(lp2139
(lp2140
I143
aS'10'
p2141
aS'223'
p2142
aa(lp2143
I145
aS'3'
aS'98'
p2144
aa(lp2145
I147
aS'6'
aS'70'
p2146
aa(lp2147
I148
aS'3'
aS'92'
p2148
aa(lp2149
I2446
aS'120'
p2150
aS'202'
p2151
aa(lp2152
I2835
aS'100'
p2153
aS'146'
p2154
aa(lp2155
I2994
aS'2'
aS'26'
p2156
aa(lp2157
I3544
aS'3'
aS'109'
p2158
aa(lp2159
I3545
aS'5'
aS'99'
p2160
aa(lp2161
I3547
aS'8'
aS'67'
p2162
aa(lp2163
I3548
aS'8'
aS'74'
p2164
aa(lp2165
I3549
aS'9'
aS'60'
p2166
aa(lp2167
I3550
aS'8'
aS'88'
p2168
aa(lp2169
I3553
aS'33'
p2170
aS'79'
p2171
aa(lp2172
I3809
aS'82'
p2173
aS'152'
p2174
aa(lp2175
I5041
aS'4'
aS'138'
p2176
aa(lp2177
I5042
aS'8'
aS'128'
p2178
aa(lp2179
I5050
aS'2'
aS'149'
p2180
aa(lp2181
I5532
aS'6'
aS'126'
p2182
aa(lp2183
I6345
aS'39'
p2184
aS'110'
p2185
aa(lp2186
I6403
aS'17'
p2187
aS'126'
p2188
aa(lp2189
I6412
aS'3'
aS'82'
p2190
aa(lp2191
I7148
aS'11'
p2192
aS'88'
p2193
aasS'2VQE'
p2194
(lp2195
(lp2196
I143
aS'10'
p2197
aS'223'
p2198
aa(lp2199
I145
aS'3'
aS'98'
p2200
aa(lp2201
I147
aS'6'
aS'70'
p2202
aa(lp2203
I148
aS'3'
aS'92'
p2204
aa(lp2205
I2446
aS'120'
p2206
aS'202'
p2207
aa(lp2208
I2835
aS'100'
p2209
aS'146'
p2210
aa(lp2211
I2994
aS'2'
aS'26'
p2212
aa(lp2213
I3544
aS'3'
aS'109'
p2214
aa(lp2215
I3545
aS'5'
aS'99'
p2216
aa(lp2217
I3547
aS'8'
aS'67'
p2218
aa(lp2219
I3548
aS'8'
aS'74'
p2220
aa(lp2221
I3549
aS'9'
aS'60'
p2222
aa(lp2223
I3550
aS'8'
aS'88'
p2224
aa(lp2225
I3553
aS'33'
p2226
aS'79'
p2227
aa(lp2228
I3809
aS'82'
p2229
aS'152'
p2230
aa(lp2231
I5041
aS'4'
aS'138'
p2232
aa(lp2233
I5042
aS'8'
aS'128'
p2234
aa(lp2235
I5050
aS'2'
aS'149'
p2236
aa(lp2237
I5532
aS'6'
aS'126'
p2238
aa(lp2239
I6345
aS'39'
p2240
aS'110'
p2241
aa(lp2242
I6403
aS'17'
p2243
aS'126'
p2244
aa(lp2245
I6412
aS'3'
aS'82'
p2246
aa(lp2247
I7148
aS'11'
p2248
aS'88'
p2249
aasS'4Q0E'
p2250
(lp2251
(lp2252
I5470
aS'9'
aS'176'
p2253
aa(lp2254
I6270
aS'239'
p2255
aS'521'
p2256
aasS'4Q0D'
p2257
(lp2258
(lp2259
I5470
aS'9'
aS'176'
p2260
aa(lp2261
I6270
aS'239'
p2262
aS'521'
p2263
aasS'1DLR'
p2264
(lp2265
(lp2266
I5470
aS'4'
aS'184'
p2267
aasS'4K0K'
p2268
(lp2269
(lp2270
I143
aS'10'
p2271
aS'223'
p2272
aa(lp2273
I145
aS'3'
aS'98'
p2274
aa(lp2275
I147
aS'6'
aS'70'
p2276
aa(lp2277
I148
aS'3'
aS'92'
p2278
aa(lp2279
I2446
aS'120'
p2280
aS'202'
p2281
aa(lp2282
I2835
aS'100'
p2283
aS'146'
p2284
aa(lp2285
I2994
aS'2'
aS'26'
p2286
aa(lp2287
I3544
aS'3'
aS'109'
p2288
aa(lp2289
I3545
aS'5'
aS'99'
p2290
aa(lp2291
I3547
aS'8'
aS'67'
p2292
aa(lp2293
I3548
aS'8'
aS'74'
p2294
aa(lp2295
I3549
aS'9'
aS'60'
p2296
aa(lp2297
I3550
aS'8'
aS'88'
p2298
aa(lp2299
I3553
aS'33'
p2300
aS'79'
p2301
aa(lp2302
I3809
aS'82'
p2303
aS'152'
p2304
aa(lp2305
I5041
aS'4'
aS'138'
p2306
aa(lp2307
I5042
aS'8'
aS'128'
p2308
aa(lp2309
I5050
aS'3'
aS'149'
p2310
aa(lp2311
I5532
aS'6'
aS'126'
p2312
aa(lp2313
I6345
aS'39'
p2314
aS'110'
p2315
aa(lp2316
I6403
aS'17'
p2317
aS'126'
p2318
aa(lp2319
I6412
aS'4'
aS'81'
p2320
aa(lp2321
I7148
aS'11'
p2322
aS'88'
p2323
aasS'2OIP'
p2324
(lp2325
(lp2326
I5470
aS'9'
aS'176'
p2327
aa(lp2328
I6270
aS'239'
p2329
aS'521'
p2330
aasS'1RH3'
p2331
(lp2332
(lp2333
I5470
aS'1'
aS'158'
p2334
aasS'4M7U'
p2335
(lp2336
(lp2337
I5470
aS'1'
aS'161'
p2338
aasS'4M7V'
p2339
(lp2340
(lp2341
I5470
aS'1'
aS'161'
p2342
aasS'1AI9'
p2343
(lp2344
(lp2345
I5470
aS'9'
aS'164'
p2346
aasS'4UJE'
p2347
(lp2348
(lp2349
I62
aS'19'
p2350
aS'100'
p2351
aa(lp2352
I86
aS'2'
aS'69'
p2353
aa(lp2354
I125
aS'24'
p2355
aS'101'
p2356
aa(lp2357
I143
aS'19'
p2358
aS'112'
p2359
aa(lp2360
I143
aS'114'
p2361
aS'182'
p2362
aa(lp2363
I145
aS'10'
p2364
aS'63'
p2365
aa(lp2366
I147
aS'102'
p2367
aS'166'
p2368
aa(lp2369
I341
aS'6'
aS'99'
p2370
aa(lp2371
I472
aS'275'
p2372
aS'348'
p2373
aa(lp2374
I481
aS'4'
aS'145'
p2375
aa(lp2376
I512
aS'2'
aS'60'
p2377
aa(lp2378
I587
aS'2'
aS'96'
p2379
aa(lp2380
I625
aS'8'
aS'68'
p2381
aa(lp2382
I672
aS'2'
aS'190'
p2383
aa(lp2384
I905
aS'17'
p2385
aS'124'
p2386
aa(lp2387
I1127
aS'212'
p2388
aS'258'
p2389
aa(lp2390
I1431
aS'38'
p2391
aS'67'
p2392
aa(lp2393
I1484
aS'3'
aS'88'
p2394
aa(lp2395
I1732
aS'12'
p2396
aS'165'
p2397
aa(lp2398
I1735
aS'16'
p2399
aS'116'
p2400
aa(lp2401
I1787
aS'67'
p2402
aS'165'
p2403
aa(lp2404
I1801
aS'9'
aS'184'
p2405
aa(lp2406
I2021
aS'90'
p2407
aS'140'
p2408
aa(lp2409
I2074
aS'2'
aS'190'
p2410
aa(lp2411
I2075
aS'78'
p2412
aS'127'
p2413
aa(lp2414
I2266
aS'3'
aS'99'
p2415
aa(lp2416
I2417
aS'51'
p2417
aS'83'
p2418
aa(lp2419
I2417
aS'7'
aS'35'
p2420
aa(lp2421
I2417
aS'178'
p2422
aS'211'
p2423
aa(lp2424
I2446
aS'106'
p2425
aS'188'
p2426
aa(lp2427
I2502
aS'3'
aS'39'
p2428
aa(lp2429
I2772
aS'12'
p2430
aS'85'
p2431
aa(lp2432
I2772
aS'99'
p2433
aS'178'
p2434
aa(lp2435
I2835
aS'108'
p2436
aS'151'
p2437
aa(lp2438
I3026
aS'52'
p2439
aS'136'
p2440
aa(lp2441
I3055
aS'7'
aS'130'
p2442
aa(lp2443
I3071
aS'22'
p2444
aS'139'
p2445
aa(lp2446
I3282
aS'7'
aS'191'
p2447
aa(lp2448
I3544
aS'14'
p2449
aS'142'
p2450
aa(lp2451
I3545
aS'21'
p2452
aS'115'
p2453
aa(lp2454
I3548
aS'75'
p2455
aS'144'
p2456
aa(lp2457
I3549
aS'9'
aS'54'
p2458
aa(lp2459
I3550
aS'74'
p2460
aS'147'
p2461
aa(lp2462
I3651
aS'17'
p2463
aS'87'
p2464
aa(lp2465
I3767
aS'21'
p2466
aS'221'
p2467
aa(lp2468
I3809
aS'185'
p2469
aS'256'
p2470
aa(lp2471
I3813
aS'6'
aS'56'
p2472
aa(lp2473
I4048
aS'202'
p2474
aS'219'
p2475
aa(lp2476
I4161
aS'27'
p2477
aS'173'
p2478
aa(lp2479
I4162
aS'28'
p2480
aS'146'
p2481
aa(lp2482
I4222
aS'2'
aS'54'
p2483
aa(lp2484
I4304
aS'5'
aS'73'
p2485
aa(lp2486
I4410
aS'47'
p2487
aS'120'
p2488
aa(lp2489
I4667
aS'5'
aS'139'
p2490
aa(lp2491
I4691
aS'9'
aS'49'
p2492
aa(lp2493
I4935
aS'2'
aS'119'
p2494
aa(lp2495
I4980
aS'3'
aS'42'
p2496
aa(lp2497
I5041
aS'6'
aS'130'
p2498
aa(lp2499
I5042
aS'14'
p2500
aS'146'
p2501
aa(lp2502
I5050
aS'62'
p2503
aS'204'
p2504
aa(lp2505
I5273
aS'97'
p2506
aS'230'
p2507
aa(lp2508
I5516
aS'10'
p2509
aS'63'
p2510
aa(lp2511
I5517
aS'22'
p2512
aS'262'
p2513
aa(lp2514
I5519
aS'12'
p2515
aS'207'
p2516
aa(lp2517
I5520
aS'2'
aS'375'
p2518
aa(lp2519
I5521
aS'13'
p2520
aS'90'
p2521
aa(lp2522
I5532
aS'9'
aS'140'
p2523
aa(lp2524
I5807
aS'1'
aS'79'
p2525
aa(lp2526
I5992
aS'8'
aS'63'
p2527
aa(lp2528
I5993
aS'8'
aS'122'
p2529
aa(lp2530
I5996
aS'18'
p2531
aS'151'
p2532
aa(lp2533
I5997
aS'76'
p2534
aS'140'
p2535
aa(lp2536
I6062
aS'192'
p2537
aS'283'
p2538
aa(lp2539
I6235
aS'1'
aS'25'
p2540
aa(lp2541
I6236
aS'17'
p2542
aS'94'
p2543
aa(lp2544
I6345
aS'20'
p2545
aS'92'
p2546
aa(lp2547
I6388
aS'3'
aS'95'
p2548
aa(lp2549
I6403
aS'29'
p2550
aS'147'
p2551
aa(lp2552
I6412
aS'47'
p2553
aS'128'
p2554
aa(lp2555
I6453
aS'16'
p2556
aS'117'
p2557
aa(lp2558
I6484
aS'181'
p2559
aS'288'
p2560
aa(lp2561
I6625
aS'17'
p2562
aS'110'
p2563
aa(lp2564
I6625
aS'131'
p2565
aS'212'
p2566
aa(lp2567
I6625
aS'13'
p2568
aS'105'
p2569
aa(lp2570
I6680
aS'95'
p2571
aS'169'
p2572
aa(lp2573
I6703
aS'1'
aS'64'
p2574
aa(lp2575
I6753
aS'5'
aS'104'
p2576
aa(lp2577
I6925
aS'1'
aS'126'
p2578
aa(lp2579
I7161
aS'40'
p2580
aS'112'
p2581
aa(lp2582
I7213
aS'9'
aS'44'
p2583
aa(lp2584
I7213
aS'55'
p2585
aS'91'
p2586
aa(lp2587
I7213
aS'96'
p2588
aS'133'
p2589
aa(lp2590
I7213
aS'145'
p2591
aS'178'
p2592
aa(lp2593
I7213
aS'188'
p2594
aS'220'
p2595
aa(lp2596
I7213
aS'225'
p2597
aS'260'
p2598
aa(lp2599
I7223
aS'5'
aS'120'
p2600
aa(lp2601
I7397
aS'28'
p2602
aS'82'
p2603
aa(lp2604
I7432
aS'2'
aS'97'
p2605
aa(lp2606
I7504
aS'102'
p2607
aS'147'
p2608
aasS'4UJD'
p2609
(lp2610
(lp2611
I62
aS'19'
p2612
aS'100'
p2613
aa(lp2614
I86
aS'2'
aS'69'
p2615
aa(lp2616
I125
aS'24'
p2617
aS'101'
p2618
aa(lp2619
I143
aS'19'
p2620
aS'112'
p2621
aa(lp2622
I143
aS'114'
p2623
aS'182'
p2624
aa(lp2625
I145
aS'10'
p2626
aS'63'
p2627
aa(lp2628
I147
aS'102'
p2629
aS'166'
p2630
aa(lp2631
I341
aS'6'
aS'99'
p2632
aa(lp2633
I472
aS'275'
p2634
aS'348'
p2635
aa(lp2636
I481
aS'4'
aS'145'
p2637
aa(lp2638
I512
aS'2'
aS'60'
p2639
aa(lp2640
I587
aS'2'
aS'96'
p2641
aa(lp2642
I625
aS'8'
aS'68'
p2643
aa(lp2644
I672
aS'2'
aS'190'
p2645
aa(lp2646
I905
aS'17'
p2647
aS'124'
p2648
aa(lp2649
I1127
aS'212'
p2650
aS'258'
p2651
aa(lp2652
I1431
aS'38'
p2653
aS'67'
p2654
aa(lp2655
I1484
aS'3'
aS'88'
p2656
aa(lp2657
I1732
aS'12'
p2658
aS'165'
p2659
aa(lp2660
I1735
aS'16'
p2661
aS'116'
p2662
aa(lp2663
I1787
aS'67'
p2664
aS'165'
p2665
aa(lp2666
I1801
aS'9'
aS'184'
p2667
aa(lp2668
I2021
aS'90'
p2669
aS'140'
p2670
aa(lp2671
I2074
aS'2'
aS'190'
p2672
aa(lp2673
I2075
aS'78'
p2674
aS'127'
p2675
aa(lp2676
I2266
aS'3'
aS'99'
p2677
aa(lp2678
I2417
aS'51'
p2679
aS'83'
p2680
aa(lp2681
I2417
aS'7'
aS'35'
p2682
aa(lp2683
I2417
aS'178'
p2684
aS'211'
p2685
aa(lp2686
I2446
aS'106'
p2687
aS'188'
p2688
aa(lp2689
I2502
aS'3'
aS'39'
p2690
aa(lp2691
I2772
aS'12'
p2692
aS'85'
p2693
aa(lp2694
I2772
aS'99'
p2695
aS'178'
p2696
aa(lp2697
I2835
aS'108'
p2698
aS'151'
p2699
aa(lp2700
I3026
aS'52'
p2701
aS'136'
p2702
aa(lp2703
I3055
aS'7'
aS'130'
p2704
aa(lp2705
I3071
aS'22'
p2706
aS'139'
p2707
aa(lp2708
I3282
aS'7'
aS'191'
p2709
aa(lp2710
I3544
aS'14'
p2711
aS'142'
p2712
aa(lp2713
I3545
aS'21'
p2714
aS'115'
p2715
aa(lp2716
I3548
aS'75'
p2717
aS'144'
p2718
aa(lp2719
I3549
aS'9'
aS'54'
p2720
aa(lp2721
I3550
aS'74'
p2722
aS'147'
p2723
aa(lp2724
I3651
aS'17'
p2725
aS'87'
p2726
aa(lp2727
I3767
aS'21'
p2728
aS'221'
p2729
aa(lp2730
I3809
aS'185'
p2731
aS'256'
p2732
aa(lp2733
I3813
aS'6'
aS'56'
p2734
aa(lp2735
I4048
aS'202'
p2736
aS'219'
p2737
aa(lp2738
I4161
aS'27'
p2739
aS'173'
p2740
aa(lp2741
I4162
aS'28'
p2742
aS'146'
p2743
aa(lp2744
I4222
aS'2'
aS'54'
p2745
aa(lp2746
I4304
aS'5'
aS'73'
p2747
aa(lp2748
I4410
aS'47'
p2749
aS'120'
p2750
aa(lp2751
I4654
aS'1084'
p2752
aS'1160'
p2753
aa(lp2754
I4667
aS'5'
aS'139'
p2755
aa(lp2756
I4691
aS'9'
aS'49'
p2757
aa(lp2758
I4935
aS'2'
aS'119'
p2759
aa(lp2760
I4980
aS'3'
aS'42'
p2761
aa(lp2762
I5041
aS'6'
aS'130'
p2763
aa(lp2764
I5042
aS'14'
p2765
aS'146'
p2766
aa(lp2767
I5050
aS'62'
p2768
aS'204'
p2769
aa(lp2770
I5273
aS'97'
p2771
aS'230'
p2772
aa(lp2773
I5516
aS'10'
p2774
aS'63'
p2775
aa(lp2776
I5517
aS'22'
p2777
aS'262'
p2778
aa(lp2779
I5519
aS'12'
p2780
aS'207'
p2781
aa(lp2782
I5520
aS'2'
aS'375'
p2783
aa(lp2784
I5521
aS'13'
p2785
aS'90'
p2786
aa(lp2787
I5532
aS'9'
aS'140'
p2788
aa(lp2789
I5807
aS'1'
aS'79'
p2790
aa(lp2791
I5903
aS'1189'
p2792
aS'1283'
p2793
aa(lp2794
I5992
aS'8'
aS'63'
p2795
aa(lp2796
I5993
aS'8'
aS'122'
p2797
aa(lp2798
I5996
aS'18'
p2799
aS'151'
p2800
aa(lp2801
I5997
aS'76'
p2802
aS'140'
p2803
aa(lp2804
I6062
aS'192'
p2805
aS'283'
p2806
aa(lp2807
I6226
aS'847'
p2808
aS'1057'
p2809
aa(lp2810
I6235
aS'1'
aS'25'
p2811
aa(lp2812
I6236
aS'17'
p2813
aS'94'
p2814
aa(lp2815
I6345
aS'20'
p2816
aS'92'
p2817
aa(lp2818
I6388
aS'3'
aS'95'
p2819
aa(lp2820
I6403
aS'29'
p2821
aS'147'
p2822
aa(lp2823
I6412
aS'47'
p2824
aS'128'
p2825
aa(lp2826
I6453
aS'16'
p2827
aS'117'
p2828
aa(lp2829
I6484
aS'181'
p2830
aS'288'
p2831
aa(lp2832
I6625
aS'131'
p2833
aS'212'
p2834
aa(lp2835
I6625
aS'13'
p2836
aS'105'
p2837
aa(lp2838
I6625
aS'17'
p2839
aS'110'
p2840
aa(lp2841
I6680
aS'95'
p2842
aS'169'
p2843
aa(lp2844
I6703
aS'1'
aS'64'
p2845
aa(lp2846
I6753
aS'5'
aS'104'
p2847
aa(lp2848
I6925
aS'1'
aS'126'
p2849
aa(lp2850
I7161
aS'40'
p2851
aS'112'
p2852
aa(lp2853
I7213
aS'9'
aS'44'
p2854
aa(lp2855
I7213
aS'55'
p2856
aS'91'
p2857
aa(lp2858
I7213
aS'96'
p2859
aS'133'
p2860
aa(lp2861
I7213
aS'145'
p2862
aS'178'
p2863
aa(lp2864
I7213
aS'188'
p2865
aS'220'
p2866
aa(lp2867
I7213
aS'225'
p2868
aS'260'
p2869
aa(lp2870
I7223
aS'5'
aS'120'
p2871
aa(lp2872
I7397
aS'28'
p2873
aS'82'
p2874
aa(lp2875
I7432
aS'2'
aS'97'
p2876
aa(lp2877
I7504
aS'102'
p2878
aS'147'
p2879
aasS'4UJC'
p2880
(lp2881
(lp2882
I62
aS'19'
p2883
aS'100'
p2884
aa(lp2885
I86
aS'2'
aS'69'
p2886
aa(lp2887
I125
aS'24'
p2888
aS'101'
p2889
aa(lp2890
I143
aS'19'
p2891
aS'112'
p2892
aa(lp2893
I143
aS'114'
p2894
aS'182'
p2895
aa(lp2896
I145
aS'10'
p2897
aS'63'
p2898
aa(lp2899
I147
aS'102'
p2900
aS'166'
p2901
aa(lp2902
I341
aS'6'
aS'99'
p2903
aa(lp2904
I472
aS'275'
p2905
aS'348'
p2906
aa(lp2907
I481
aS'4'
aS'145'
p2908
aa(lp2909
I512
aS'2'
aS'60'
p2910
aa(lp2911
I587
aS'2'
aS'96'
p2912
aa(lp2913
I625
aS'8'
aS'68'
p2914
aa(lp2915
I672
aS'2'
aS'190'
p2916
aa(lp2917
I905
aS'17'
p2918
aS'124'
p2919
aa(lp2920
I1127
aS'212'
p2921
aS'258'
p2922
aa(lp2923
I1431
aS'38'
p2924
aS'67'
p2925
aa(lp2926
I1484
aS'3'
aS'88'
p2927
aa(lp2928
I1732
aS'12'
p2929
aS'165'
p2930
aa(lp2931
I1735
aS'16'
p2932
aS'116'
p2933
aa(lp2934
I1787
aS'67'
p2935
aS'165'
p2936
aa(lp2937
I1801
aS'9'
aS'184'
p2938
aa(lp2939
I2021
aS'90'
p2940
aS'140'
p2941
aa(lp2942
I2074
aS'2'
aS'190'
p2943
aa(lp2944
I2075
aS'78'
p2945
aS'127'
p2946
aa(lp2947
I2266
aS'3'
aS'99'
p2948
aa(lp2949
I2417
aS'51'
p2950
aS'83'
p2951
aa(lp2952
I2417
aS'7'
aS'35'
p2953
aa(lp2954
I2417
aS'178'
p2955
aS'211'
p2956
aa(lp2957
I2446
aS'106'
p2958
aS'188'
p2959
aa(lp2960
I2502
aS'3'
aS'39'
p2961
aa(lp2962
I2772
aS'12'
p2963
aS'85'
p2964
aa(lp2965
I2772
aS'99'
p2966
aS'178'
p2967
aa(lp2968
I2835
aS'108'
p2969
aS'151'
p2970
aa(lp2971
I3026
aS'52'
p2972
aS'136'
p2973
aa(lp2974
I3055
aS'7'
aS'130'
p2975
aa(lp2976
I3071
aS'22'
p2977
aS'139'
p2978
aa(lp2979
I3282
aS'7'
aS'191'
p2980
aa(lp2981
I3544
aS'14'
p2982
aS'142'
p2983
aa(lp2984
I3545
aS'21'
p2985
aS'115'
p2986
aa(lp2987
I3548
aS'75'
p2988
aS'144'
p2989
aa(lp2990
I3549
aS'9'
aS'54'
p2991
aa(lp2992
I3550
aS'74'
p2993
aS'147'
p2994
aa(lp2995
I3651
aS'17'
p2996
aS'87'
p2997
aa(lp2998
I3767
aS'21'
p2999
aS'221'
p3000
aa(lp3001
I3809
aS'185'
p3002
aS'256'
p3003
aa(lp3004
I3813
aS'6'
aS'56'
p3005
aa(lp3006
I4048
aS'202'
p3007
aS'219'
p3008
aa(lp3009
I4161
aS'27'
p3010
aS'173'
p3011
aa(lp3012
I4162
aS'28'
p3013
aS'146'
p3014
aa(lp3015
I4222
aS'2'
aS'54'
p3016
aa(lp3017
I4304
aS'5'
aS'73'
p3018
aa(lp3019
I4410
aS'47'
p3020
aS'120'
p3021
aa(lp3022
I4654
aS'1084'
p3023
aS'1160'
p3024
aa(lp3025
I4667
aS'5'
aS'139'
p3026
aa(lp3027
I4691
aS'9'
aS'49'
p3028
aa(lp3029
I4935
aS'2'
aS'119'
p3030
aa(lp3031
I4980
aS'3'
aS'42'
p3032
aa(lp3033
I5041
aS'6'
aS'130'
p3034
aa(lp3035
I5042
aS'14'
p3036
aS'146'
p3037
aa(lp3038
I5050
aS'62'
p3039
aS'204'
p3040
aa(lp3041
I5273
aS'97'
p3042
aS'230'
p3043
aa(lp3044
I5516
aS'10'
p3045
aS'63'
p3046
aa(lp3047
I5517
aS'22'
p3048
aS'262'
p3049
aa(lp3050
I5519
aS'12'
p3051
aS'207'
p3052
aa(lp3053
I5520
aS'2'
aS'375'
p3054
aa(lp3055
I5521
aS'13'
p3056
aS'90'
p3057
aa(lp3058
I5532
aS'9'
aS'140'
p3059
aa(lp3060
I5807
aS'1'
aS'79'
p3061
aa(lp3062
I5903
aS'1189'
p3063
aS'1283'
p3064
aa(lp3065
I5992
aS'8'
aS'63'
p3066
aa(lp3067
I5993
aS'8'
aS'122'
p3068
aa(lp3069
I5996
aS'18'
p3070
aS'151'
p3071
aa(lp3072
I5997
aS'76'
p3073
aS'140'
p3074
aa(lp3075
I6062
aS'192'
p3076
aS'283'
p3077
aa(lp3078
I6226
aS'847'
p3079
aS'1057'
p3080
aa(lp3081
I6235
aS'1'
aS'25'
p3082
aa(lp3083
I6236
aS'17'
p3084
aS'94'
p3085
aa(lp3086
I6345
aS'20'
p3087
aS'92'
p3088
aa(lp3089
I6388
aS'3'
aS'95'
p3090
aa(lp3091
I6403
aS'29'
p3092
aS'147'
p3093
aa(lp3094
I6412
aS'47'
p3095
aS'128'
p3096
aa(lp3097
I6453
aS'16'
p3098
aS'117'
p3099
aa(lp3100
I6484
aS'181'
p3101
aS'288'
p3102
aa(lp3103
I6625
aS'131'
p3104
aS'212'
p3105
aa(lp3106
I6625
aS'13'
p3107
aS'105'
p3108
aa(lp3109
I6625
aS'17'
p3110
aS'110'
p3111
aa(lp3112
I6680
aS'95'
p3113
aS'169'
p3114
aa(lp3115
I6703
aS'1'
aS'64'
p3116
aa(lp3117
I6753
aS'5'
aS'104'
p3118
aa(lp3119
I6925
aS'1'
aS'126'
p3120
aa(lp3121
I7161
aS'40'
p3122
aS'112'
p3123
aa(lp3124
I7213
aS'9'
aS'44'
p3125
aa(lp3126
I7213
aS'55'
p3127
aS'91'
p3128
aa(lp3129
I7213
aS'96'
p3130
aS'133'
p3131
aa(lp3132
I7213
aS'145'
p3133
aS'178'
p3134
aa(lp3135
I7213
aS'188'
p3136
aS'220'
p3137
aa(lp3138
I7213
aS'225'
p3139
aS'260'
p3140
aa(lp3141
I7223
aS'5'
aS'120'
p3142
aa(lp3143
I7397
aS'28'
p3144
aS'82'
p3145
aa(lp3146
I7432
aS'2'
aS'97'
p3147
aa(lp3148
I7504
aS'102'
p3149
aS'147'
p3150
aasS'1BZF'
p3151
(lp3152
(lp3153
I5470
aS'3'
aS'160'
p3154
aasS'1IBK'
p3155
(lp3156
(lp3157
I143
aS'10'
p3158
aS'223'
p3159
aa(lp3160
I145
aS'3'
aS'98'
p3161
aa(lp3162
I147
aS'6'
aS'70'
p3163
aa(lp3164
I148
aS'3'
aS'92'
p3165
aa(lp3166
I2446
aS'120'
p3167
aS'202'
p3168
aa(lp3169
I2835
aS'100'
p3170
aS'146'
p3171
aa(lp3172
I2994
aS'2'
aS'25'
p3173
aa(lp3174
I3544
aS'3'
aS'109'
p3175
aa(lp3176
I3545
aS'5'
aS'99'
p3177
aa(lp3178
I3547
aS'8'
aS'67'
p3179
aa(lp3180
I3548
aS'8'
aS'74'
p3181
aa(lp3182
I3549
aS'9'
aS'60'
p3183
aa(lp3184
I3550
aS'8'
aS'88'
p3185
aa(lp3186
I3553
aS'33'
p3187
aS'79'
p3188
aa(lp3189
I3809
aS'82'
p3190
aS'152'
p3191
aa(lp3192
I5041
aS'4'
aS'138'
p3193
aa(lp3194
I5042
aS'8'
aS'128'
p3195
aa(lp3196
I5050
aS'2'
aS'149'
p3197
aa(lp3198
I5532
aS'6'
aS'126'
p3199
aa(lp3200
I6345
aS'39'
p3201
aS'110'
p3202
aa(lp3203
I6403
aS'17'
p3204
aS'126'
p3205
aa(lp3206
I6412
aS'3'
aS'81'
p3207
aa(lp3208
I7148
aS'11'
p3209
aS'88'
p3210
aasS'1IBL'
p3211
(lp3212
(lp3213
I143
aS'10'
p3214
aS'223'
p3215
aa(lp3216
I145
aS'3'
aS'98'
p3217
aa(lp3218
I147
aS'6'
aS'70'
p3219
aa(lp3220
I148
aS'3'
aS'92'
p3221
aa(lp3222
I2446
aS'120'
p3223
aS'202'
p3224
aa(lp3225
I2835
aS'100'
p3226
aS'146'
p3227
aa(lp3228
I2994
aS'2'
aS'25'
p3229
aa(lp3230
I3544
aS'3'
aS'109'
p3231
aa(lp3232
I3545
aS'5'
aS'99'
p3233
aa(lp3234
I3547
aS'8'
aS'67'
p3235
aa(lp3236
I3548
aS'8'
aS'74'
p3237
aa(lp3238
I3549
aS'9'
aS'60'
p3239
aa(lp3240
I3550
aS'8'
aS'88'
p3241
aa(lp3242
I3553
aS'33'
p3243
aS'79'
p3244
aa(lp3245
I3809
aS'82'
p3246
aS'152'
p3247
aa(lp3248
I5041
aS'4'
aS'138'
p3249
aa(lp3250
I5042
aS'8'
aS'128'
p3251
aa(lp3252
I5050
aS'2'
aS'149'
p3253
aa(lp3254
I5532
aS'6'
aS'126'
p3255
aa(lp3256
I6345
aS'39'
p3257
aS'110'
p3258
aa(lp3259
I6403
aS'17'
p3260
aS'126'
p3261
aa(lp3262
I6412
aS'3'
aS'83'
p3263
aa(lp3264
I7148
aS'11'
p3265
aS'88'
p3266
aasS'3FQC'
p3267
(lp3268
(lp3269
I5470
aS'2'
aS'156'
p3270
aasS'3FQF'
p3271
(lp3272
(lp3273
I5470
aS'2'
aS'156'
p3274
aasS'3FQO'
p3275
(lp3276
(lp3277
I5470
aS'2'
aS'156'
p3278
aasS'4PSS'
p3279
(lp3280
(lp3281
I5470
aS'1'
aS'158'
p3282
aasS'4PST'
p3283
(lp3284
(lp3285
I5470
aS'1'
aS'158'
p3286
aasS'3FQV'
p3287
(lp3288
(lp3289
I5470
aS'2'
aS'156'
p3290
aasS'4PSY'
p3291
(lp3292
(lp3293
I5470
aS'1'
aS'158'
p3294
aasS'3FQZ'
p3295
(lp3296
(lp3297
I5470
aS'2'
aS'156'
p3298
aasS'4D5L'
p3299
(lp3300
(lp3301
I125
aS'24'
p3302
aS'101'
p3303
aa(lp3304
I143
aS'19'
p3305
aS'112'
p3306
aa(lp3307
I143
aS'114'
p3308
aS'182'
p3309
aa(lp3310
I145
aS'10'
p3311
aS'63'
p3312
aa(lp3313
I147
aS'102'
p3314
aS'166'
p3315
aa(lp3316
I512
aS'2'
aS'60'
p3317
aa(lp3318
I625
aS'8'
aS'68'
p3319
aa(lp3320
I672
aS'2'
aS'190'
p3321
aa(lp3322
I1127
aS'212'
p3323
aS'258'
p3324
aa(lp3325
I2417
aS'178'
p3326
aS'211'
p3327
aa(lp3328
I2446
aS'106'
p3329
aS'188'
p3330
aa(lp3331
I2502
aS'3'
aS'39'
p3332
aa(lp3333
I2835
aS'108'
p3334
aS'151'
p3335
aa(lp3336
I3282
aS'7'
aS'191'
p3337
aa(lp3338
I3544
aS'14'
p3339
aS'142'
p3340
aa(lp3341
I3545
aS'21'
p3342
aS'115'
p3343
aa(lp3344
I3548
aS'75'
p3345
aS'144'
p3346
aa(lp3347
I3549
aS'9'
aS'54'
p3348
aa(lp3349
I3550
aS'74'
p3350
aS'147'
p3351
aa(lp3352
I3767
aS'21'
p3353
aS'221'
p3354
aa(lp3355
I3809
aS'185'
p3356
aS'256'
p3357
aa(lp3358
I3813
aS'6'
aS'56'
p3359
aa(lp3360
I4048
aS'202'
p3361
aS'219'
p3362
aa(lp3363
I4304
aS'5'
aS'73'
p3364
aa(lp3365
I4667
aS'5'
aS'139'
p3366
aa(lp3367
I4935
aS'2'
aS'119'
p3368
aa(lp3369
I5041
aS'6'
aS'130'
p3370
aa(lp3371
I5042
aS'14'
p3372
aS'146'
p3373
aa(lp3374
I5050
aS'62'
p3375
aS'204'
p3376
aa(lp3377
I5532
aS'9'
aS'140'
p3378
aa(lp3379
I5807
aS'1'
aS'79'
p3380
aa(lp3381
I6345
aS'20'
p3382
aS'92'
p3383
aa(lp3384
I6388
aS'3'
aS'95'
p3385
aa(lp3386
I6403
aS'29'
p3387
aS'147'
p3388
aa(lp3389
I6412
aS'47'
p3390
aS'128'
p3391
aa(lp3392
I6625
aS'17'
p3393
aS'110'
p3394
aa(lp3395
I6680
aS'95'
p3396
aS'169'
p3397
aa(lp3398
I6925
aS'1'
aS'126'
p3399
aa(lp3400
I7161
aS'40'
p3401
aS'112'
p3402
aa(lp3403
I7213
aS'9'
aS'44'
p3404
aa(lp3405
I7213
aS'55'
p3406
aS'91'
p3407
aa(lp3408
I7213
aS'96'
p3409
aS'133'
p3410
aa(lp3411
I7213
aS'145'
p3412
aS'178'
p3413
aa(lp3414
I7213
aS'188'
p3415
aS'220'
p3416
aa(lp3417
I7213
aS'225'
p3418
aS'260'
p3419
aa(lp3420
I7397
aS'28'
p3421
aS'82'
p3422
aa(lp3423
I7432
aS'2'
aS'97'
p3424
aa(lp3425
I7504
aS'102'
p3426
aS'147'
p3427
aasS'4KAK'
p3428
(lp3429
(lp3430
I5470
aS'4'
aS'184'
p3431
aasS'3FQ0'
p3432
(lp3433
(lp3434
I5470
aS'2'
aS'156'
p3435
aasS'1DDS'
p3436
(lp3437
(lp3438
I5470
aS'1'
aS'158'
p3439
aasS'1DDR'
p3440
(lp3441
(lp3442
I5470
aS'1'
aS'158'
p3443
aasS'3S9U'
p3444
(lp3445
(lp3446
I5470
aS'3'
aS'160'
p3447
aasS'4KY8'
p3448
(lp3449
(lp3450
I5470
aS'9'
aS'176'
p3451
aa(lp3452
I6270
aS'239'
p3453
aS'521'
p3454
aasS'3F8Y'
p3455
(lp3456
(lp3457
I5470
aS'4'
aS'184'
p3458
aasS'3NXR'
p3459
(lp3460
(lp3461
I5470
aS'4'
aS'184'
p3462
aasS'3NXV'
p3463
(lp3464
(lp3465
I5470
aS'4'
aS'184'
p3466
aasS'3NXT'
p3467
(lp3468
(lp3469
I5470
aS'4'
aS'184'
p3470
aasS'4DUZ'
p3471
(lp3472
(lp3473
I143
aS'10'
p3474
aS'223'
p3475
aa(lp3476
I145
aS'3'
aS'98'
p3477
aa(lp3478
I147
aS'6'
aS'70'
p3479
aa(lp3480
I148
aS'3'
aS'92'
p3481
aa(lp3482
I2446
aS'120'
p3483
aS'202'
p3484
aa(lp3485
I2835
aS'100'
p3486
aS'146'
p3487
aa(lp3488
I2994
aS'2'
aS'25'
p3489
aa(lp3490
I3544
aS'3'
aS'109'
p3491
aa(lp3492
I3545
aS'5'
aS'99'
p3493
aa(lp3494
I3547
aS'8'
aS'67'
p3495
aa(lp3496
I3548
aS'8'
aS'74'
p3497
aa(lp3498
I3549
aS'9'
aS'60'
p3499
aa(lp3500
I3550
aS'8'
aS'88'
p3501
aa(lp3502
I3553
aS'33'
p3503
aS'79'
p3504
aa(lp3505
I3809
aS'82'
p3506
aS'152'
p3507
aa(lp3508
I5041
aS'4'
aS'138'
p3509
aa(lp3510
I5042
aS'8'
aS'128'
p3511
aa(lp3512
I5050
aS'2'
aS'149'
p3513
aa(lp3514
I5532
aS'6'
aS'126'
p3515
aa(lp3516
I6345
aS'39'
p3517
aS'110'
p3518
aa(lp3519
I6403
aS'17'
p3520
aS'126'
p3521
aa(lp3522
I6412
aS'3'
aS'81'
p3523
aa(lp3524
I7148
aS'11'
p3525
aS'88'
p3526
aasS'3NXY'
p3527
(lp3528
(lp3529
I5470
aS'4'
aS'184'
p3530
aasS'3NXX'
p3531
(lp3532
(lp3533
I5470
aS'4'
aS'184'
p3534
aasS'4P3Q'
p3535
(lp3536
(lp3537
I5470
aS'1'
aS'158'
p3538
aasS'3NZA'
p3539
(lp3540
(lp3541
I5470
aS'7'
aS'177'
p3542
aasS'4P3R'
p3543
(lp3544
(lp3545
I5470
aS'1'
aS'158'
p3546
aasS'3TD8'
p3547
(lp3548
(lp3549
I5470
aS'7'
aS'177'
p3550
aasS'3NXO'
p3551
(lp3552
(lp3553
I5470
aS'4'
aS'184'
p3554
aasS'1U71'
p3555
(lp3556
(lp3557
I5470
aS'4'
aS'184'
p3558
aasS'4M2X'
p3559
(lp3560
(lp3561
I5470
aS'1'
aS'156'
p3562
aasS'4KJK'
p3563
(lp3564
(lp3565
I5470
aS'1'
aS'158'
p3566
aasS'4HOF'
p3567
(lp3568
(lp3569
I5470
aS'9'
aS'164'
p3570
aasS'4KJL'
p3571
(lp3572
(lp3573
I5470
aS'1'
aS'159'
p3574
aasS'3CD2'
p3575
(lp3576
(lp3577
I5470
aS'7'
aS'177'
p3578
aasS'3JSU'
p3579
(lp3580
(lp3581
I5470
aS'99'
p3582
aS'228'
p3583
aa(lp3584
I6270
aS'327'
p3585
aS'606'
p3586
aasS'1DIS'
p3587
(lp3588
(lp3589
I5470
aS'3'
aS'160'
p3590
aasS'3SH2'
p3591
(lp3592
(lp3593
I5470
aS'2'
aS'156'
p3594
aasS'3K47'
p3595
(lp3596
(lp3597
I5470
aS'4'
aS'184'
p3598
aasS'3K45'
p3599
(lp3600
(lp3601
I5470
aS'4'
aS'184'
p3602
aasS'3UM8'
p3603
(lp3604
(lp3605
I5470
aS'99'
p3606
aS'228'
p3607
aa(lp3608
I6270
aS'327'
p3609
aS'607'
p3610
aasS'3UM6'
p3611
(lp3612
(lp3613
I5470
aS'99'
p3614
aS'228'
p3615
aa(lp3616
I6270
aS'327'
p3617
aS'607'
p3618
aasS'3UM5'
p3619
(lp3620
(lp3621
I5470
aS'99'
p3622
aS'228'
p3623
aa(lp3624
I6270
aS'327'
p3625
aS'607'
p3626
aasS'3GI2'
p3627
(lp3628
(lp3629
I5470
aS'4'
aS'184'
p3630
aasS'4PTH'
p3631
(lp3632
(lp3633
I5470
aS'1'
aS'158'
p3634
aasS'3I8A'
p3635
(lp3636
(lp3637
I5470
aS'2'
aS'156'
p3638
aasS'4PTJ'
p3639
(lp3640
(lp3641
I5470
aS'1'
aS'158'
p3642
aasS'3SQY'
p3643
(lp3644
(lp3645
I5470
aS'3'
aS'157'
p3646
aasS'3JAP'
p3647
(lp3648
(lp3649
I82
aS'32'
p3650
aS'94'
p3651
aa(lp3652
I125
aS'24'
p3653
aS'102'
p3654
aa(lp3655
I143
aS'17'
p3656
aS'112'
p3657
aa(lp3658
I143
aS'116'
p3659
aS'181'
p3660
aa(lp3661
I145
aS'8'
aS'61'
p3662
aa(lp3663
I147
aS'81'
p3664
aS'145'
p3665
aa(lp3666
I423
aS'45'
p3667
aS'91'
p3668
aa(lp3669
I512
aS'2'
aS'60'
p3670
aa(lp3671
I625
aS'6'
aS'66'
p3672
aa(lp3673
I672
aS'2'
aS'185'
p3674
aa(lp3675
I842
aS'218'
p3676
aS'639'
p3677
aa(lp3678
I1127
aS'212'
p3679
aS'258'
p3680
aa(lp3681
I2355
aS'393'
p3682
aS'492'
p3683
aa(lp3684
I2355
aS'651'
p3685
aS'780'
p3686
aa(lp3687
I2417
aS'178'
p3688
aS'211'
p3689
aa(lp3690
I2446
aS'107'
p3691
aS'188'
p3692
aa(lp3693
I2502
aS'3'
aS'39'
p3694
aa(lp3695
I2828
aS'429'
p3696
aS'517'
p3697
aa(lp3698
I2833
aS'14'
p3699
aS'88'
p3700
aa(lp3701
I2835
aS'107'
p3702
aS'151'
p3703
aa(lp3704
I2835
aS'43'
p3705
aS'90'
p3706
aa(lp3707
I3282
aS'10'
p3708
aS'186'
p3709
aa(lp3710
I3544
aS'16'
p3711
aS'144'
p3712
aa(lp3713
I3545
aS'23'
p3714
aS'116'
p3715
aa(lp3716
I3548
aS'73'
p3717
aS'141'
p3718
aa(lp3719
I3549
aS'7'
aS'56'
p3720
aa(lp3721
I3550
aS'74'
p3722
aS'147'
p3723
aa(lp3724
I3767
aS'19'
p3725
aS'221'
p3726
aa(lp3727
I3809
aS'165'
p3728
aS'235'
p3729
aa(lp3730
I3813
aS'8'
aS'60'
p3731
aa(lp3732
I4254
aS'157'
p3733
aS'264'
p3734
aa(lp3735
I4304
aS'8'
aS'71'
p3736
aa(lp3737
I4654
aS'335'
p3738
aS'417'
p3739
aa(lp3740
I4667
aS'5'
aS'140'
p3741
aa(lp3742
I4935
aS'2'
aS'116'
p3743
aa(lp3744
I5041
aS'6'
aS'130'
p3745
aa(lp3746
I5042
aS'11'
p3747
aS'143'
p3748
aa(lp3749
I5050
aS'85'
p3750
aS'227'
p3751
aa(lp3752
I5532
aS'11'
p3753
aS'144'
p3754
aa(lp3755
I5807
aS'1'
aS'80'
p3756
aa(lp3757
I6226
aS'100'
p3758
aS'303'
p3759
aa(lp3760
I6235
aS'1'
aS'25'
p3761
aa(lp3762
I6345
aS'20'
p3763
aS'92'
p3764
aa(lp3765
I6388
aS'3'
aS'92'
p3766
aa(lp3767
I6403
aS'15'
p3768
aS'133'
p3769
aa(lp3770
I6412
aS'47'
p3771
aS'128'
p3772
aa(lp3773
I6625
aS'20'
p3774
aS'113'
p3775
aa(lp3776
I6680
aS'95'
p3777
aS'169'
p3778
aa(lp3779
I6742
aS'23'
p3780
aS'98'
p3781
aa(lp3782
I6925
aS'1'
aS'126'
p3783
aa(lp3784
I7161
aS'36'
p3785
aS'104'
p3786
aa(lp3787
I7213
aS'12'
p3788
aS'46'
p3789
aa(lp3790
I7213
aS'57'
p3791
aS'94'
p3792
aa(lp3793
I7213
aS'104'
p3794
aS'136'
p3795
aa(lp3796
I7213
aS'139'
p3797
aS'187'
p3798
aa(lp3799
I7213
aS'198'
p3800
aS'231'
p3801
aa(lp3802
I7213
aS'5'
aS'37'
p3803
aa(lp3804
I7213
aS'43'
p3805
aS'80'
p3806
aa(lp3807
I7397
aS'28'
p3808
aS'82'
p3809
aa(lp3810
I7432
aS'2'
aS'99'
p3811
aa(lp3812
I7504
aS'102'
p3813
aS'145'
p3814
aa(lp3815
I7551
aS'126'
p3816
aS'237'
p3817
aasS'3JAQ'
p3818
(lp3819
(lp3820
I82
aS'32'
p3821
aS'94'
p3822
aa(lp3823
I125
aS'24'
p3824
aS'102'
p3825
aa(lp3826
I145
aS'8'
aS'61'
p3827
aa(lp3828
I147
aS'81'
p3829
aS'145'
p3830
aa(lp3831
I423
aS'45'
p3832
aS'91'
p3833
aa(lp3834
I512
aS'2'
aS'60'
p3835
aa(lp3836
I625
aS'6'
aS'66'
p3837
aa(lp3838
I672
aS'2'
aS'185'
p3839
aa(lp3840
I1127
aS'212'
p3841
aS'258'
p3842
aa(lp3843
I2417
aS'178'
p3844
aS'211'
p3845
aa(lp3846
I2446
aS'107'
p3847
aS'188'
p3848
aa(lp3849
I2502
aS'3'
aS'39'
p3850
aa(lp3851
I2828
aS'429'
p3852
aS'517'
p3853
aa(lp3854
I2833
aS'14'
p3855
aS'88'
p3856
aa(lp3857
I2835
aS'107'
p3858
aS'151'
p3859
aa(lp3860
I2835
aS'43'
p3861
aS'90'
p3862
aa(lp3863
I3282
aS'10'
p3864
aS'186'
p3865
aa(lp3866
I3544
aS'16'
p3867
aS'144'
p3868
aa(lp3869
I3545
aS'23'
p3870
aS'116'
p3871
aa(lp3872
I3548
aS'73'
p3873
aS'141'
p3874
aa(lp3875
I3549
aS'7'
aS'56'
p3876
aa(lp3877
I3550
aS'74'
p3878
aS'147'
p3879
aa(lp3880
I3767
aS'19'
p3881
aS'221'
p3882
aa(lp3883
I3809
aS'165'
p3884
aS'235'
p3885
aa(lp3886
I3813
aS'8'
aS'60'
p3887
aa(lp3888
I4254
aS'157'
p3889
aS'264'
p3890
aa(lp3891
I4304
aS'8'
aS'71'
p3892
aa(lp3893
I4654
aS'335'
p3894
aS'417'
p3895
aa(lp3896
I4667
aS'5'
aS'140'
p3897
aa(lp3898
I4935
aS'2'
aS'116'
p3899
aa(lp3900
I5041
aS'6'
aS'130'
p3901
aa(lp3902
I5042
aS'11'
p3903
aS'143'
p3904
aa(lp3905
I5050
aS'85'
p3906
aS'227'
p3907
aa(lp3908
I5532
aS'11'
p3909
aS'144'
p3910
aa(lp3911
I5807
aS'1'
aS'80'
p3912
aa(lp3913
I6226
aS'100'
p3914
aS'303'
p3915
aa(lp3916
I6235
aS'1'
aS'25'
p3917
aa(lp3918
I6345
aS'20'
p3919
aS'92'
p3920
aa(lp3921
I6388
aS'3'
aS'92'
p3922
aa(lp3923
I6403
aS'15'
p3924
aS'133'
p3925
aa(lp3926
I6412
aS'47'
p3927
aS'128'
p3928
aa(lp3929
I6625
aS'20'
p3930
aS'113'
p3931
aa(lp3932
I6680
aS'95'
p3933
aS'169'
p3934
aa(lp3935
I6742
aS'23'
p3936
aS'98'
p3937
aa(lp3938
I6925
aS'1'
aS'126'
p3939
aa(lp3940
I7161
aS'36'
p3941
aS'104'
p3942
aa(lp3943
I7213
aS'12'
p3944
aS'46'
p3945
aa(lp3946
I7213
aS'57'
p3947
aS'94'
p3948
aa(lp3949
I7213
aS'104'
p3950
aS'136'
p3951
aa(lp3952
I7213
aS'139'
p3953
aS'187'
p3954
aa(lp3955
I7213
aS'198'
p3956
aS'231'
p3957
aa(lp3958
I7432
aS'2'
aS'99'
p3959
aa(lp3960
I7504
aS'102'
p3961
aS'145'
p3962
aa(lp3963
I7551
aS'126'
p3964
aS'237'
p3965
aasS'3KFY'
p3966
(lp3967
(lp3968
I5470
aS'1'
aS'158'
p3969
aasS'3OCH'
p3970
(lp3971
(lp3972
I5470
aS'1'
aS'158'
p3973
aasS'4LF6'
p3974
(lp3975
(lp3976
I143
aS'10'
p3977
aS'223'
p3978
aa(lp3979
I145
aS'3'
aS'98'
p3980
aa(lp3981
I147
aS'6'
aS'70'
p3982
aa(lp3983
I148
aS'3'
aS'92'
p3984
aa(lp3985
I2446
aS'120'
p3986
aS'202'
p3987
aa(lp3988
I2835
aS'100'
p3989
aS'146'
p3990
aa(lp3991
I2994
aS'2'
aS'26'
p3992
aa(lp3993
I3544
aS'3'
aS'109'
p3994
aa(lp3995
I3545
aS'5'
aS'99'
p3996
aa(lp3997
I3547
aS'8'
aS'67'
p3998
aa(lp3999
I3548
aS'8'
aS'74'
p4000
aa(lp4001
I3549
aS'9'
aS'60'
p4002
aa(lp4003
I3550
aS'8'
aS'88'
p4004
aa(lp4005
I3553
aS'33'
p4006
aS'79'
p4007
aa(lp4008
I3809
aS'82'
p4009
aS'152'
p4010
aa(lp4011
I5041
aS'4'
aS'138'
p4012
aa(lp4013
I5042
aS'8'
aS'128'
p4014
aa(lp4015
I5050
aS'2'
aS'149'
p4016
aa(lp4017
I5532
aS'6'
aS'126'
p4018
aa(lp4019
I6345
aS'39'
p4020
aS'110'
p4021
aa(lp4022
I6403
aS'17'
p4023
aS'126'
p4024
aa(lp4025
I6412
aS'3'
aS'82'
p4026
aa(lp4027
I7148
aS'11'
p4028
aS'88'
p4029
aasS'4LF7'
p4030
(lp4031
(lp4032
I143
aS'10'
p4033
aS'223'
p4034
aa(lp4035
I145
aS'3'
aS'98'
p4036
aa(lp4037
I147
aS'6'
aS'70'
p4038
aa(lp4039
I148
aS'3'
aS'92'
p4040
aa(lp4041
I2446
aS'120'
p4042
aS'202'
p4043
aa(lp4044
I2835
aS'100'
p4045
aS'146'
p4046
aa(lp4047
I2994
aS'2'
aS'26'
p4048
aa(lp4049
I3544
aS'3'
aS'109'
p4050
aa(lp4051
I3545
aS'5'
aS'99'
p4052
aa(lp4053
I3547
aS'8'
aS'67'
p4054
aa(lp4055
I3548
aS'8'
aS'74'
p4056
aa(lp4057
I3549
aS'9'
aS'60'
p4058
aa(lp4059
I3550
aS'8'
aS'88'
p4060
aa(lp4061
I3553
aS'33'
p4062
aS'79'
p4063
aa(lp4064
I3809
aS'82'
p4065
aS'152'
p4066
aa(lp4067
I5041
aS'4'
aS'138'
p4068
aa(lp4069
I5042
aS'8'
aS'128'
p4070
aa(lp4071
I5050
aS'2'
aS'149'
p4072
aa(lp4073
I5532
aS'6'
aS'126'
p4074
aa(lp4075
I6345
aS'39'
p4076
aS'110'
p4077
aa(lp4078
I6403
aS'17'
p4079
aS'126'
p4080
aa(lp4081
I6412
aS'3'
aS'82'
p4082
aa(lp4083
I7148
aS'11'
p4084
aS'88'
p4085
aasS'4LF4'
p4086
(lp4087
(lp4088
I143
aS'10'
p4089
aS'223'
p4090
aa(lp4091
I145
aS'3'
aS'98'
p4092
aa(lp4093
I147
aS'6'
aS'70'
p4094
aa(lp4095
I148
aS'3'
aS'92'
p4096
aa(lp4097
I2446
aS'120'
p4098
aS'202'
p4099
aa(lp4100
I2835
aS'100'
p4101
aS'146'
p4102
aa(lp4103
I2994
aS'2'
aS'26'
p4104
aa(lp4105
I3544
aS'3'
aS'109'
p4106
aa(lp4107
I3545
aS'5'
aS'99'
p4108
aa(lp4109
I3547
aS'8'
aS'67'
p4110
aa(lp4111
I3548
aS'8'
aS'74'
p4112
aa(lp4113
I3549
aS'9'
aS'60'
p4114
aa(lp4115
I3550
aS'8'
aS'88'
p4116
aa(lp4117
I3553
aS'33'
p4118
aS'79'
p4119
aa(lp4120
I3809
aS'82'
p4121
aS'152'
p4122
aa(lp4123
I5041
aS'4'
aS'138'
p4124
aa(lp4125
I5042
aS'8'
aS'128'
p4126
aa(lp4127
I5050
aS'2'
aS'149'
p4128
aa(lp4129
I5532
aS'6'
aS'126'
p4130
aa(lp4131
I6345
aS'39'
p4132
aS'110'
p4133
aa(lp4134
I6403
aS'17'
p4135
aS'126'
p4136
aa(lp4137
I6412
aS'3'
aS'82'
p4138
aa(lp4139
I7148
aS'11'
p4140
aS'88'
p4141
aasS'4LF5'
p4142
(lp4143
(lp4144
I143
aS'10'
p4145
aS'223'
p4146
aa(lp4147
I145
aS'3'
aS'98'
p4148
aa(lp4149
I147
aS'6'
aS'70'
p4150
aa(lp4151
I148
aS'3'
aS'92'
p4152
aa(lp4153
I2446
aS'120'
p4154
aS'202'
p4155
aa(lp4156
I2835
aS'100'
p4157
aS'146'
p4158
aa(lp4159
I2994
aS'2'
aS'26'
p4160
aa(lp4161
I3544
aS'3'
aS'109'
p4162
aa(lp4163
I3545
aS'5'
aS'99'
p4164
aa(lp4165
I3547
aS'8'
aS'67'
p4166
aa(lp4167
I3548
aS'8'
aS'74'
p4168
aa(lp4169
I3549
aS'9'
aS'60'
p4170
aa(lp4171
I3550
aS'8'
aS'88'
p4172
aa(lp4173
I3553
aS'33'
p4174
aS'79'
p4175
aa(lp4176
I3809
aS'82'
p4177
aS'152'
p4178
aa(lp4179
I5041
aS'4'
aS'138'
p4180
aa(lp4181
I5042
aS'8'
aS'128'
p4182
aa(lp4183
I5050
aS'2'
aS'149'
p4184
aa(lp4185
I5532
aS'6'
aS'126'
p4186
aa(lp4187
I6345
aS'39'
p4188
aS'110'
p4189
aa(lp4190
I6403
aS'17'
p4191
aS'126'
p4192
aa(lp4193
I6412
aS'3'
aS'82'
p4194
aa(lp4195
I7148
aS'11'
p4196
aS'88'
p4197
aasS'2D0K'
p4198
(lp4199
(lp4200
I5470
aS'2'
aS'158'
p4201
aasS'4LF8'
p4202
(lp4203
(lp4204
I143
aS'10'
p4205
aS'223'
p4206
aa(lp4207
I145
aS'3'
aS'98'
p4208
aa(lp4209
I147
aS'6'
aS'70'
p4210
aa(lp4211
I148
aS'3'
aS'92'
p4212
aa(lp4213
I2446
aS'120'
p4214
aS'202'
p4215
aa(lp4216
I2835
aS'100'
p4217
aS'146'
p4218
aa(lp4219
I2994
aS'2'
aS'26'
p4220
aa(lp4221
I3544
aS'3'
aS'109'
p4222
aa(lp4223
I3545
aS'5'
aS'99'
p4224
aa(lp4225
I3547
aS'8'
aS'67'
p4226
aa(lp4227
I3548
aS'8'
aS'74'
p4228
aa(lp4229
I3549
aS'9'
aS'60'
p4230
aa(lp4231
I3550
aS'8'
aS'88'
p4232
aa(lp4233
I3553
aS'33'
p4234
aS'79'
p4235
aa(lp4236
I3809
aS'82'
p4237
aS'152'
p4238
aa(lp4239
I5041
aS'4'
aS'138'
p4240
aa(lp4241
I5042
aS'8'
aS'128'
p4242
aa(lp4243
I5050
aS'2'
aS'149'
p4244
aa(lp4245
I5532
aS'6'
aS'126'
p4246
aa(lp4247
I6345
aS'39'
p4248
aS'110'
p4249
aa(lp4250
I6403
aS'17'
p4251
aS'126'
p4252
aa(lp4253
I6412
aS'3'
aS'82'
p4254
aa(lp4255
I7148
aS'11'
p4256
aS'88'
p4257
aasS'4LF9'
p4258
(lp4259
(lp4260
I143
aS'10'
p4261
aS'223'
p4262
aa(lp4263
I145
aS'3'
aS'98'
p4264
aa(lp4265
I147
aS'6'
aS'70'
p4266
aa(lp4267
I148
aS'3'
aS'92'
p4268
aa(lp4269
I2446
aS'120'
p4270
aS'202'
p4271
aa(lp4272
I2835
aS'100'
p4273
aS'146'
p4274
aa(lp4275
I2994
aS'2'
aS'26'
p4276
aa(lp4277
I3544
aS'3'
aS'109'
p4278
aa(lp4279
I3545
aS'5'
aS'99'
p4280
aa(lp4281
I3547
aS'8'
aS'67'
p4282
aa(lp4283
I3548
aS'8'
aS'74'
p4284
aa(lp4285
I3549
aS'9'
aS'60'
p4286
aa(lp4287
I3550
aS'8'
aS'88'
p4288
aa(lp4289
I3553
aS'33'
p4290
aS'79'
p4291
aa(lp4292
I3809
aS'82'
p4293
aS'152'
p4294
aa(lp4295
I5041
aS'4'
aS'138'
p4296
aa(lp4297
I5042
aS'8'
aS'128'
p4298
aa(lp4299
I5050
aS'2'
aS'149'
p4300
aa(lp4301
I5532
aS'6'
aS'126'
p4302
aa(lp4303
I6345
aS'39'
p4304
aS'110'
p4305
aa(lp4306
I6403
aS'17'
p4307
aS'126'
p4308
aa(lp4309
I6412
aS'3'
aS'82'
p4310
aa(lp4311
I7148
aS'11'
p4312
aS'88'
p4313
aasS'1U70'
p4314
(lp4315
(lp4316
I5470
aS'4'
aS'184'
p4317
aasS'4KM0'
p4318
(lp4319
(lp4320
I5470
aS'1'
aS'156'
p4321
aa(lp4322
I5470
aS'1'
aS'156'
p4323
aasS'4KM2'
p4324
(lp4325
(lp4326
I5470
aS'1'
aS'156'
p4327
aasS'7DFR'
p4328
(lp4329
(lp4330
I5470
aS'1'
aS'158'
p4331
aasS'4EIG'
p4332
(lp4333
(lp4334
I2388
aS'11'
p4335
aS'115'
p4336
aa(lp4337
I5470
aS'1'
aS'158'
p4338
aasS'4EIL'
p4339
(lp4340
(lp4341
I5470
aS'5'
aS'231'
p4342
aa(lp4343
I6270
aS'326'
p4344
aS'610'
p4345
aasS'3EIG'
p4346
(lp4347
(lp4348
I5470
aS'4'
aS'184'
p4349
aasS'4FGH'
p4350
(lp4351
(lp4352
I5470
aS'2'
aS'156'
p4353
aasS'4FGG'
p4354
(lp4355
(lp4356
I5470
aS'2'
aS'156'
p4357
aasS'4I1N'
p4358
(lp4359
(lp4360
I2388
aS'11'
p4361
aS'125'
p4362
aa(lp4363
I5470
aS'1'
aS'158'
p4364
aasS'4LFB'
p4365
(lp4366
(lp4367
I143
aS'10'
p4368
aS'223'
p4369
aa(lp4370
I145
aS'3'
aS'98'
p4371
aa(lp4372
I147
aS'6'
aS'70'
p4373
aa(lp4374
I148
aS'3'
aS'92'
p4375
aa(lp4376
I2446
aS'120'
p4377
aS'202'
p4378
aa(lp4379
I2835
aS'100'
p4380
aS'146'
p4381
aa(lp4382
I2994
aS'2'
aS'26'
p4383
aa(lp4384
I3544
aS'3'
aS'109'
p4385
aa(lp4386
I3545
aS'5'
aS'99'
p4387
aa(lp4388
I3547
aS'8'
aS'67'
p4389
aa(lp4390
I3548
aS'8'
aS'74'
p4391
aa(lp4392
I3549
aS'9'
aS'60'
p4393
aa(lp4394
I3550
aS'8'
aS'88'
p4395
aa(lp4396
I3553
aS'33'
p4397
aS'79'
p4398
aa(lp4399
I3809
aS'82'
p4400
aS'152'
p4401
aa(lp4402
I5041
aS'4'
aS'138'
p4403
aa(lp4404
I5042
aS'8'
aS'128'
p4405
aa(lp4406
I5050
aS'2'
aS'149'
p4407
aa(lp4408
I5532
aS'6'
aS'126'
p4409
aa(lp4410
I6345
aS'39'
p4411
aS'110'
p4412
aa(lp4413
I6403
aS'17'
p4414
aS'126'
p4415
aa(lp4416
I6412
aS'3'
aS'82'
p4417
aa(lp4418
I7148
aS'11'
p4419
aS'88'
p4420
aasS'1J3I'
p4421
(lp4422
(lp4423
I5470
aS'98'
p4424
aS'228'
p4425
aa(lp4426
I6270
aS'327'
p4427
aS'607'
p4428
aasS'1J3J'
p4429
(lp4430
(lp4431
I5470
aS'98'
p4432
aS'228'
p4433
aa(lp4434
I6270
aS'327'
p4435
aS'607'
p4436
aasS'1J3K'
p4437
(lp4438
(lp4439
I5470
aS'98'
p4440
aS'228'
p4441
aa(lp4442
I6270
aS'327'
p4443
aS'607'
p4444
aasS'4KD7'
p4445
(lp4446
(lp4447
I5470
aS'4'
aS'184'
p4448
aasS'1RB3'
p4449
(lp4450
(lp4451
I5470
aS'1'
aS'158'
p4452
aasS'1RB2'
p4453
(lp4454
(lp4455
I5470
aS'1'
aS'158'
p4456
aasS'3D80'
p4457
(lp4458
(lp4459
I5470
aS'4'
aS'184'
p4460
aasS'3D84'
p4461
(lp4462
(lp4463
I5470
aS'4'
aS'184'
p4464
aasS'1DRA'
p4465
(lp4466
(lp4467
I5470
aS'1'
aS'158'
p4468
aasS'4M6J'
p4469
(lp4470
(lp4471
I5470
aS'4'
aS'184'
p4472
aasS'1DRB'
p4473
(lp4474
(lp4475
I5470
aS'1'
aS'158'
p4476
aasS'1DRE'
p4477
(lp4478
(lp4479
I5470
aS'1'
aS'158'
p4480
aasS'4V69'
p4481
(lp4482
(lp4483
I143
aS'8'
aS'223'
p4484
aa(lp4485
I145
aS'2'
aS'94'
p4486
aa(lp4487
I147
aS'10'
p4488
aS'73'
p4489
aa(lp4490
I148
aS'3'
aS'91'
p4491
aa(lp4492
I1731
aS'20'
p4493
aS'116'
p4494
aa(lp4495
I1732
aS'4'
aS'131'
p4496
aa(lp4497
I1733
aS'71'
p4498
aS'139'
p4499
aa(lp4500
I1735
aS'15'
p4501
aS'138'
p4502
aa(lp4503
I1739
aS'2'
aS'112'
p4504
aa(lp4505
I1787
aS'83'
p4506
aS'176'
p4507
aa(lp4508
I2019
aS'6'
aS'52'
p4509
aa(lp4510
I2021
aS'4'
aS'53'
p4511
aa(lp4512
I2023
aS'1'
aS'38'
p4513
aa(lp4514
I2024
aS'1'
aS'44'
p4515
aa(lp4516
I2417
aS'7'
aS'36'
p4517
aa(lp4518
I2446
aS'119'
p4519
aS'201'
p4520
aa(lp4521
I2577
aS'64'
p4522
aS'148'
p4523
aa(lp4524
I2585
aS'1'
aS'45'
p4525
aa(lp4526
I2767
aS'4'
aS'91'
p4527
aa(lp4528
I2772
aS'10'
p4529
aS'81'
p4530
aa(lp4531
I2772
aS'89'
p4532
aS'163'
p4533
aa(lp4534
I2835
aS'96'
p4535
aS'142'
p4536
aa(lp4537
I3071
aS'1'
aS'121'
p4538
aa(lp4539
I3544
aS'2'
aS'107'
p4540
aa(lp4541
I3545
aS'7'
aS'100'
p4542
aa(lp4543
I3547
aS'8'
aS'68'
p4544
aa(lp4545
I3548
aS'9'
aS'75'
p4546
aa(lp4547
I3549
aS'46'
p4548
aS'99'
p4549
aa(lp4550
I3550
aS'8'
aS'87'
p4551
aa(lp4552
I3553
aS'19'
p4553
aS'67'
p4554
aa(lp4555
I3809
aS'86'
p4556
aS'156'
p4557
aa(lp4558
I4161
aS'3'
aS'117'
p4559
aa(lp4560
I4162
aS'28'
p4561
aS'143'
p4562
aa(lp4563
I4492
aS'1'
aS'59'
p4564
aa(lp4565
I4654
aS'224'
p4566
aS'292'
p4567
aa(lp4568
I4655
aS'297'
p4569
aS'391'
p4570
aa(lp4571
I5041
aS'4'
aS'128'
p4572
aa(lp4573
I5042
aS'9'
aS'129'
p4574
aa(lp4575
I5050
aS'2'
aS'148'
p4576
aa(lp4577
I5273
aS'124'
p4578
aS'248'
p4579
aa(lp4580
I5434
aS'1'
aS'56'
p4581
aa(lp4582
I5516
aS'23'
p4583
aS'79'
p4584
aa(lp4585
I5517
aS'13'
p4586
aS'198'
p4587
aa(lp4588
I5519
aS'28'
p4589
aS'220'
p4590
aa(lp4591
I5520
aS'27'
p4592
aS'182'
p4593
aa(lp4594
I5521
aS'41'
p4595
aS'116'
p4596
aa(lp4597
I5532
aS'5'
aS'122'
p4598
aa(lp4599
I5533
aS'6'
aS'81'
p4600
aa(lp4601
I5683
aS'8'
aS'66'
p4602
aa(lp4603
I5991
aS'2'
aS'61'
p4604
aa(lp4605
I5992
aS'4'
aS'60'
p4606
aa(lp4607
I5995
aS'2'
aS'108'
p4608
aa(lp4609
I5996
aS'5'
aS'108'
p4610
aa(lp4611
I5997
aS'9'
aS'92'
p4612
aa(lp4613
I6226
aS'9'
aS'200'
p4614
aa(lp4615
I6228
aS'1'
aS'96'
p4616
aa(lp4617
I6345
aS'37'
p4618
aS'110'
p4619
aa(lp4620
I6403
aS'18'
p4621
aS'127'
p4622
aa(lp4623
I6412
aS'2'
aS'79'
p4624
aa(lp4625
I7148
aS'2'
aS'83'
p4626
aa(lp4627
I7507
aS'3'
aS'52'
p4628
aasS'4M6L'
p4629
(lp4630
(lp4631
I5470
aS'4'
aS'184'
p4632
aasS'1DRH'
p4633
(lp4634
(lp4635
I5470
aS'1'
aS'158'
p4636
aasS'1DYR'
p4637
(lp4638
(lp4639
I5470
aS'7'
aS'177'
p4640
aasS'4B3R'
p4641
(lp4642
(lp4643
I143
aS'4'
aS'217'
p4644
aa(lp4645
I145
aS'2'
aS'97'
p4646
aa(lp4647
I147
aS'2'
aS'66'
p4648
aa(lp4649
I148
aS'3'
aS'92'
p4650
aa(lp4651
I2446
aS'119'
p4652
aS'201'
p4653
aa(lp4654
I2835
aS'99'
p4655
aS'145'
p4656
aa(lp4657
I2994
aS'2'
aS'26'
p4658
aa(lp4659
I3544
aS'2'
aS'108'
p4660
aa(lp4661
I3545
aS'3'
aS'97'
p4662
aa(lp4663
I3547
aS'8'
aS'67'
p4664
aa(lp4665
I3548
aS'7'
aS'73'
p4666
aa(lp4667
I3549
aS'8'
aS'59'
p4668
aa(lp4669
I3550
aS'7'
aS'87'
p4670
aa(lp4671
I3553
aS'18'
p4672
aS'64'
p4673
aa(lp4674
I3809
aS'78'
p4675
aS'148'
p4676
aa(lp4677
I5041
aS'4'
aS'138'
p4678
aa(lp4679
I5042
aS'7'
aS'127'
p4680
aa(lp4681
I5050
aS'2'
aS'148'
p4682
aa(lp4683
I5532
aS'2'
aS'122'
p4684
aa(lp4685
I6345
aS'38'
p4686
aS'109'
p4687
aa(lp4688
I6403
aS'7'
aS'116'
p4689
aa(lp4690
I6412
aS'3'
aS'82'
p4691
aa(lp4692
I7148
aS'4'
aS'81'
p4693
aasS'1PDB'
p4694
(lp4695
(lp4696
I5470
aS'4'
aS'184'
p4697
aasS'4JI8'
p4698
(lp4699
(lp4700
I143
aS'10'
p4701
aS'223'
p4702
aa(lp4703
I145
aS'3'
aS'98'
p4704
aa(lp4705
I147
aS'6'
aS'70'
p4706
aa(lp4707
I148
aS'3'
aS'92'
p4708
aa(lp4709
I2446
aS'120'
p4710
aS'202'
p4711
aa(lp4712
I2835
aS'100'
p4713
aS'146'
p4714
aa(lp4715
I2994
aS'2'
aS'25'
p4716
aa(lp4717
I3544
aS'3'
aS'109'
p4718
aa(lp4719
I3545
aS'5'
aS'99'
p4720
aa(lp4721
I3547
aS'8'
aS'67'
p4722
aa(lp4723
I3548
aS'8'
aS'74'
p4724
aa(lp4725
I3549
aS'9'
aS'60'
p4726
aa(lp4727
I3550
aS'8'
aS'88'
p4728
aa(lp4729
I3553
aS'33'
p4730
aS'79'
p4731
aa(lp4732
I3809
aS'82'
p4733
aS'152'
p4734
aa(lp4735
I5041
aS'4'
aS'138'
p4736
aa(lp4737
I5042
aS'8'
aS'128'
p4738
aa(lp4739
I5050
aS'2'
aS'149'
p4740
aa(lp4741
I5532
aS'6'
aS'126'
p4742
aa(lp4743
I6345
aS'39'
p4744
aS'110'
p4745
aa(lp4746
I6403
aS'17'
p4747
aS'126'
p4748
aa(lp4749
I6412
aS'3'
aS'81'
p4750
aa(lp4751
I7148
aS'11'
p4752
aS'88'
p4753
aasS'3SRQ'
p4754
(lp4755
(lp4756
I5470
aS'3'
aS'157'
p4757
aasS'3SRR'
p4758
(lp4759
(lp4760
I5470
aS'3'
aS'157'
p4761
aasS'3SRS'
p4762
(lp4763
(lp4764
I5470
aS'3'
aS'157'
p4765
aasS'3SRU'
p4766
(lp4767
(lp4768
I5470
aS'3'
aS'157'
p4769
aasS'4Q6A'
p4770
(lp4771
(lp4772
I5470
aS'2'
aS'156'
p4773
aasS'3SRW'
p4774
(lp4775
(lp4776
I5470
aS'3'
aS'157'
p4777
aasS'4KVB'
p4778
(lp4779
(lp4780
I143
aS'10'
p4781
aS'223'
p4782
aa(lp4783
I145
aS'3'
aS'98'
p4784
aa(lp4785
I147
aS'6'
aS'70'
p4786
aa(lp4787
I148
aS'3'
aS'92'
p4788
aa(lp4789
I2446
aS'120'
p4790
aS'202'
p4791
aa(lp4792
I2835
aS'100'
p4793
aS'146'
p4794
aa(lp4795
I2994
aS'2'
aS'25'
p4796
aa(lp4797
I3544
aS'3'
aS'109'
p4798
aa(lp4799
I3545
aS'5'
aS'99'
p4800
aa(lp4801
I3547
aS'8'
aS'67'
p4802
aa(lp4803
I3549
aS'9'
aS'60'
p4804
aa(lp4805
I3550
aS'8'
aS'88'
p4806
aa(lp4807
I3553
aS'33'
p4808
aS'79'
p4809
aa(lp4810
I3809
aS'82'
p4811
aS'152'
p4812
aa(lp4813
I5041
aS'4'
aS'138'
p4814
aa(lp4815
I5042
aS'8'
aS'128'
p4816
aa(lp4817
I5050
aS'2'
aS'149'
p4818
aa(lp4819
I5532
aS'6'
aS'126'
p4820
aa(lp4821
I6345
aS'39'
p4822
aS'110'
p4823
aa(lp4824
I6403
aS'17'
p4825
aS'126'
p4826
aa(lp4827
I6412
aS'3'
aS'81'
p4828
aa(lp4829
I7148
aS'11'
p4830
aS'88'
p4831
aasS'4Q67'
p4832
(lp4833
(lp4834
I5470
aS'2'
aS'156'
p4835
aasS'3RG9'
p4836
(lp4837
(lp4838
I5470
aS'29'
p4839
aS'172'
p4840
aasS'3DAT'
p4841
(lp4842
(lp4843
I5470
aS'3'
aS'160'
p4844
aasS'3DAU'
p4845
(lp4846
(lp4847
I5470
aS'1'
aS'158'
p4848
aasS'3SR5'
p4849
(lp4850
(lp4851
I5470
aS'3'
aS'157'
p4852
aasS'1PD9'
p4853
(lp4854
(lp4855
I5470
aS'4'
aS'184'
p4856
aasS'1PD8'
p4857
(lp4858
(lp4859
I5470
aS'4'
aS'184'
p4860
aasS'4CD2'
p4861
(lp4862
(lp4863
I5470
aS'7'
aS'177'
p4864
aasS'3E0B'
p4865
(lp4866
(lp4867
I5470
aS'3'
aS'160'
p4868
aasS'4V6L'
p4869
(lp4870
(lp4871
I143
aS'8'
aS'223'
p4872
aa(lp4873
I145
aS'2'
aS'94'
p4874
aa(lp4875
I147
aS'10'
p4876
aS'73'
p4877
aa(lp4878
I148
aS'3'
aS'91'
p4879
aa(lp4880
I1731
aS'20'
p4881
aS'116'
p4882
aa(lp4883
I1732
aS'4'
aS'131'
p4884
aa(lp4885
I1733
aS'71'
p4886
aS'139'
p4887
aa(lp4888
I1735
aS'15'
p4889
aS'138'
p4890
aa(lp4891
I1739
aS'2'
aS'112'
p4892
aa(lp4893
I1787
aS'83'
p4894
aS'176'
p4895
aa(lp4896
I2019
aS'6'
aS'52'
p4897
aa(lp4898
I2020
aS'1'
aS'65'
p4899
aa(lp4900
I2021
aS'4'
aS'53'
p4901
aa(lp4902
I2023
aS'1'
aS'38'
p4903
aa(lp4904
I2024
aS'1'
aS'44'
p4905
aa(lp4906
I2417
aS'7'
aS'36'
p4907
aa(lp4908
I2446
aS'119'
p4909
aS'201'
p4910
aa(lp4911
I2577
aS'64'
p4912
aS'148'
p4913
aa(lp4914
I2585
aS'1'
aS'45'
p4915
aa(lp4916
I2767
aS'4'
aS'91'
p4917
aa(lp4918
I2772
aS'10'
p4919
aS'81'
p4920
aa(lp4921
I2772
aS'89'
p4922
aS'163'
p4923
aa(lp4924
I2835
aS'96'
p4925
aS'142'
p4926
aa(lp4927
I3071
aS'1'
aS'123'
p4928
aa(lp4929
I3544
aS'2'
aS'107'
p4930
aa(lp4931
I3545
aS'7'
aS'100'
p4932
aa(lp4933
I3547
aS'8'
aS'68'
p4934
aa(lp4935
I3548
aS'9'
aS'75'
p4936
aa(lp4937
I3549
aS'46'
p4938
aS'99'
p4939
aa(lp4940
I3550
aS'8'
aS'87'
p4941
aa(lp4942
I3553
aS'18'
p4943
aS'67'
p4944
aa(lp4945
I3809
aS'86'
p4946
aS'156'
p4947
aa(lp4948
I4161
aS'2'
aS'117'
p4949
aa(lp4950
I4162
aS'28'
p4951
aS'143'
p4952
aa(lp4953
I4492
aS'1'
aS'59'
p4954
aa(lp4955
I4654
aS'224'
p4956
aS'292'
p4957
aa(lp4958
I4655
aS'297'
p4959
aS'391'
p4960
aa(lp4961
I5041
aS'4'
aS'128'
p4962
aa(lp4963
I5042
aS'9'
aS'129'
p4964
aa(lp4965
I5050
aS'1'
aS'148'
p4966
aa(lp4967
I5273
aS'124'
p4968
aS'248'
p4969
aa(lp4970
I5434
aS'1'
aS'56'
p4971
aa(lp4972
I5516
aS'23'
p4973
aS'79'
p4974
aa(lp4975
I5517
aS'13'
p4976
aS'198'
p4977
aa(lp4978
I5519
aS'28'
p4979
aS'220'
p4980
aa(lp4981
I5520
aS'27'
p4982
aS'182'
p4983
aa(lp4984
I5521
aS'41'
p4985
aS'116'
p4986
aa(lp4987
I5532
aS'5'
aS'122'
p4988
aa(lp4989
I5533
aS'1'
aS'81'
p4990
aa(lp4991
I5683
aS'8'
aS'66'
p4992
aa(lp4993
I5991
aS'2'
aS'61'
p4994
aa(lp4995
I5992
aS'4'
aS'60'
p4996
aa(lp4997
I5995
aS'2'
aS'108'
p4998
aa(lp4999
I5996
aS'5'
aS'108'
p5000
aa(lp5001
I5997
aS'9'
aS'95'
p5002
aa(lp5003
I6226
aS'9'
aS'200'
p5004
aa(lp5005
I6228
aS'1'
aS'96'
p5006
aa(lp5007
I6345
aS'37'
p5008
aS'110'
p5009
aa(lp5010
I6403
aS'18'
p5011
aS'127'
p5012
aa(lp5013
I6412
aS'2'
aS'82'
p5014
aa(lp5015
I7148
aS'1'
aS'83'
p5016
aa(lp5017
I7507
aS'3'
aS'55'
p5018
aasS'1DR3'
p5019
(lp5020
(lp5021
I5470
aS'4'
aS'184'
p5022
aasS'1DR2'
p5023
(lp5024
(lp5025
I5470
aS'4'
aS'184'
p5026
aasS'1DR5'
p5027
(lp5028
(lp5029
I5470
aS'4'
aS'184'
p5030
aasS'1DR4'
p5031
(lp5032
(lp5033
I5470
aS'4'
aS'184'
p5034
aasS'1DR7'
p5035
(lp5036
(lp5037
I5470
aS'4'
aS'184'
p5038
aasS'1DR6'
p5039
(lp5040
(lp5041
I5470
aS'4'
aS'184'
p5042
aasS'3F0B'
p5043
(lp5044
(lp5045
I5470
aS'2'
aS'156'
p5046
aasS'2L28'
p5047
(lp5048
(lp5049
I5470
aS'3'
aS'160'
p5050
aasS'1OHJ'
p5051
(lp5052
(lp5053
I5470
aS'4'
aS'184'
p5054
aasS'3F0S'
p5055
(lp5056
(lp5057
I5470
aS'2'
aS'156'
p5058
aasS'4EIZ'
p5059
(lp5060
(lp5061
I2388
aS'11'
p5062
aS'126'
p5063
aa(lp5064
I5470
aS'1'
aS'158'
p5065
aasS'3F0Q'
p5066
(lp5067
(lp5068
I5470
aS'2'
aS'156'
p5069
aasS'4FHB'
p5070
(lp5071
(lp5072
I2388
aS'11'
p5073
aS'127'
p5074
aa(lp5075
I5470
aS'1'
aS'158'
p5076
aasS'3F0V'
p5077
(lp5078
(lp5079
I5470
aS'2'
aS'156'
p5080
aasS'3F0U'
p5081
(lp5082
(lp5083
I5470
aS'2'
aS'156'
p5084
aasS'1JOL'
p5085
(lp5086
(lp5087
I5470
aS'1'
aS'158'
p5088
aasS'3F0X'
p5089
(lp5090
(lp5091
I5470
aS'2'
aS'156'
p5092
aasS'4XEC'
p5093
(lp5094
(lp5095
I5470
aS'2'
aS'156'
p5096
aasS'3OTO'
p5097
(lp5098
(lp5099
I143
aS'10'
p5100
aS'223'
p5101
aa(lp5102
I145
aS'3'
aS'98'
p5103
aa(lp5104
I147
aS'6'
aS'70'
p5105
aa(lp5106
I148
aS'3'
aS'92'
p5107
aa(lp5108
I2446
aS'120'
p5109
aS'202'
p5110
aa(lp5111
I2835
aS'100'
p5112
aS'146'
p5113
aa(lp5114
I2994
aS'2'
aS'25'
p5115
aa(lp5116
I3544
aS'3'
aS'109'
p5117
aa(lp5118
I3545
aS'5'
aS'99'
p5119
aa(lp5120
I3547
aS'8'
aS'67'
p5121
aa(lp5122
I3548
aS'8'
aS'74'
p5123
aa(lp5124
I3549
aS'9'
aS'60'
p5125
aa(lp5126
I3550
aS'8'
aS'88'
p5127
aa(lp5128
I3553
aS'33'
p5129
aS'79'
p5130
aa(lp5131
I3809
aS'82'
p5132
aS'152'
p5133
aa(lp5134
I5041
aS'4'
aS'138'
p5135
aa(lp5136
I5042
aS'8'
aS'128'
p5137
aa(lp5138
I5050
aS'2'
aS'149'
p5139
aa(lp5140
I5532
aS'6'
aS'126'
p5141
aa(lp5142
I6345
aS'39'
p5143
aS'110'
p5144
aa(lp5145
I6403
aS'17'
p5146
aS'126'
p5147
aa(lp5148
I6412
aS'3'
aS'81'
p5149
aa(lp5150
I7148
aS'11'
p5151
aS'88'
p5152
aasS'4ADV'
p5153
(lp5154
(lp5155
I143
aS'8'
aS'223'
p5156
aa(lp5157
I145
aS'2'
aS'94'
p5158
aa(lp5159
I147
aS'10'
p5160
aS'73'
p5161
aa(lp5162
I148
aS'3'
aS'91'
p5163
aa(lp5164
I310
aS'17'
p5165
aS'265'
p5166
aa(lp5167
I2446
aS'119'
p5168
aS'201'
p5169
aa(lp5170
I2835
aS'96'
p5171
aS'142'
p5172
aa(lp5173
I3544
aS'2'
aS'107'
p5174
aa(lp5175
I3545
aS'7'
aS'100'
p5176
aa(lp5177
I3547
aS'8'
aS'68'
p5178
aa(lp5179
I3548
aS'9'
aS'75'
p5180
aa(lp5181
I3549
aS'46'
p5182
aS'99'
p5183
aa(lp5184
I3550
aS'8'
aS'87'
p5185
aa(lp5186
I3553
aS'19'
p5187
aS'67'
p5188
aa(lp5189
I3809
aS'86'
p5190
aS'156'
p5191
aa(lp5192
I5041
aS'4'
aS'128'
p5193
aa(lp5194
I5042
aS'9'
aS'129'
p5195
aa(lp5196
I5050
aS'2'
aS'148'
p5197
aa(lp5198
I5532
aS'5'
aS'122'
p5199
aa(lp5200
I6345
aS'37'
p5201
aS'110'
p5202
aa(lp5203
I6403
aS'18'
p5204
aS'127'
p5205
aa(lp5206
I6412
aS'2'
aS'80'
p5207
aa(lp5208
I7148
aS'2'
aS'83'
p5209
aa(lp5210
I7507
aS'3'
aS'53'
p5211
aasS'4DDR'
p5212
(lp5213
(lp5214
I5470
aS'4'
aS'184'
p5215
aasS'4IXE'
p5216
(lp5217
(lp5218
I5470
aS'7'
aS'177'
p5219
aasS'4IXG'
p5220
(lp5221
(lp5222
I5470
aS'7'
aS'177'
p5223
aasS'4IXF'
p5224
(lp5225
(lp5226
I5470
aS'7'
aS'177'
p5227
aasS'4DR2'
p5228
(lp5229
(lp5230
I143
aS'10'
p5231
aS'223'
p5232
aa(lp5233
I145
aS'3'
aS'98'
p5234
aa(lp5235
I147
aS'6'
aS'70'
p5236
aa(lp5237
I148
aS'3'
aS'92'
p5238
aa(lp5239
I2446
aS'120'
p5240
aS'202'
p5241
aa(lp5242
I2835
aS'100'
p5243
aS'146'
p5244
aa(lp5245
I2994
aS'2'
aS'26'
p5246
aa(lp5247
I3544
aS'3'
aS'109'
p5248
aa(lp5249
I3545
aS'5'
aS'99'
p5250
aa(lp5251
I3547
aS'8'
aS'67'
p5252
aa(lp5253
I3548
aS'8'
aS'74'
p5254
aa(lp5255
I3549
aS'9'
aS'60'
p5256
aa(lp5257
I3550
aS'8'
aS'88'
p5258
aa(lp5259
I3553
aS'33'
p5260
aS'79'
p5261
aa(lp5262
I3809
aS'82'
p5263
aS'152'
p5264
aa(lp5265
I5041
aS'4'
aS'138'
p5266
aa(lp5267
I5042
aS'8'
aS'128'
p5268
aa(lp5269
I5050
aS'2'
aS'149'
p5270
aa(lp5271
I5532
aS'6'
aS'126'
p5272
aa(lp5273
I6345
aS'39'
p5274
aS'110'
p5275
aa(lp5276
I6403
aS'17'
p5277
aS'126'
p5278
aa(lp5279
I6412
aS'3'
aS'82'
p5280
aa(lp5281
I7148
aS'11'
p5282
aS'88'
p5283
aasS'4DR3'
p5284
(lp5285
(lp5286
I143
aS'10'
p5287
aS'223'
p5288
aa(lp5289
I145
aS'3'
aS'98'
p5290
aa(lp5291
I147
aS'6'
aS'70'
p5292
aa(lp5293
I148
aS'3'
aS'92'
p5294
aa(lp5295
I2446
aS'120'
p5296
aS'202'
p5297
aa(lp5298
I2835
aS'100'
p5299
aS'146'
p5300
aa(lp5301
I2994
aS'2'
aS'25'
p5302
aa(lp5303
I3544
aS'3'
aS'109'
p5304
aa(lp5305
I3545
aS'5'
aS'99'
p5306
aa(lp5307
I3547
aS'8'
aS'67'
p5308
aa(lp5309
I3548
aS'8'
aS'74'
p5310
aa(lp5311
I3549
aS'9'
aS'60'
p5312
aa(lp5313
I3550
aS'8'
aS'88'
p5314
aa(lp5315
I3553
aS'33'
p5316
aS'79'
p5317
aa(lp5318
I3809
aS'82'
p5319
aS'152'
p5320
aa(lp5321
I5041
aS'4'
aS'138'
p5322
aa(lp5323
I5042
aS'8'
aS'128'
p5324
aa(lp5325
I5050
aS'2'
aS'149'
p5326
aa(lp5327
I5532
aS'6'
aS'126'
p5328
aa(lp5329
I6345
aS'39'
p5330
aS'110'
p5331
aa(lp5332
I6403
aS'17'
p5333
aS'126'
p5334
aa(lp5335
I6412
aS'3'
aS'81'
p5336
aa(lp5337
I7148
aS'11'
p5338
aS'88'
p5339
aasS'1M79'
p5340
(lp5341
(lp5342
I5470
aS'9'
aS'164'
p5343
aasS'3JW5'
p5344
(lp5345
(lp5346
I5470
aS'3'
aS'160'
p5347
aasS'4DR6'
p5348
(lp5349
(lp5350
I143
aS'10'
p5351
aS'223'
p5352
aa(lp5353
I145
aS'3'
aS'98'
p5354
aa(lp5355
I147
aS'6'
aS'70'
p5356
aa(lp5357
I148
aS'3'
aS'92'
p5358
aa(lp5359
I2446
aS'120'
p5360
aS'202'
p5361
aa(lp5362
I2835
aS'100'
p5363
aS'146'
p5364
aa(lp5365
I2994
aS'2'
aS'26'
p5366
aa(lp5367
I3544
aS'3'
aS'109'
p5368
aa(lp5369
I3545
aS'5'
aS'99'
p5370
aa(lp5371
I3547
aS'8'
aS'67'
p5372
aa(lp5373
I3548
aS'8'
aS'74'
p5374
aa(lp5375
I3549
aS'9'
aS'60'
p5376
aa(lp5377
I3550
aS'8'
aS'88'
p5378
aa(lp5379
I3553
aS'33'
p5380
aS'79'
p5381
aa(lp5382
I3809
aS'82'
p5383
aS'152'
p5384
aa(lp5385
I5041
aS'4'
aS'138'
p5386
aa(lp5387
I5042
aS'8'
aS'128'
p5388
aa(lp5389
I5050
aS'2'
aS'149'
p5390
aa(lp5391
I5532
aS'6'
aS'126'
p5392
aa(lp5393
I6345
aS'39'
p5394
aS'110'
p5395
aa(lp5396
I6403
aS'17'
p5397
aS'126'
p5398
aa(lp5399
I6412
aS'3'
aS'82'
p5400
aa(lp5401
I7148
aS'11'
p5402
aS'88'
p5403
aasS'3JW3'
p5404
(lp5405
(lp5406
I5470
aS'3'
aS'160'
p5407
aasS'4DR4'
p5408
(lp5409
(lp5410
I143
aS'10'
p5411
aS'223'
p5412
aa(lp5413
I145
aS'3'
aS'98'
p5414
aa(lp5415
I147
aS'6'
aS'70'
p5416
aa(lp5417
I148
aS'3'
aS'92'
p5418
aa(lp5419
I2446
aS'120'
p5420
aS'202'
p5421
aa(lp5422
I2835
aS'100'
p5423
aS'146'
p5424
aa(lp5425
I2994
aS'2'
aS'26'
p5426
aa(lp5427
I3544
aS'3'
aS'109'
p5428
aa(lp5429
I3545
aS'5'
aS'99'
p5430
aa(lp5431
I3547
aS'8'
aS'67'
p5432
aa(lp5433
I3548
aS'8'
aS'74'
p5434
aa(lp5435
I3549
aS'9'
aS'60'
p5436
aa(lp5437
I3550
aS'8'
aS'88'
p5438
aa(lp5439
I3553
aS'33'
p5440
aS'79'
p5441
aa(lp5442
I3809
aS'82'
p5443
aS'152'
p5444
aa(lp5445
I5041
aS'4'
aS'138'
p5446
aa(lp5447
I5042
aS'8'
aS'128'
p5448
aa(lp5449
I5050
aS'2'
aS'149'
p5450
aa(lp5451
I5532
aS'6'
aS'126'
p5452
aa(lp5453
I6345
aS'39'
p5454
aS'110'
p5455
aa(lp5456
I6403
aS'17'
p5457
aS'126'
p5458
aa(lp5459
I6412
aS'3'
aS'82'
p5460
aa(lp5461
I7148
aS'11'
p5462
aS'88'
p5463
aasS'4DR5'
p5464
(lp5465
(lp5466
I143
aS'10'
p5467
aS'223'
p5468
aa(lp5469
I145
aS'3'
aS'98'
p5470
aa(lp5471
I147
aS'6'
aS'70'
p5472
aa(lp5473
I148
aS'3'
aS'92'
p5474
aa(lp5475
I2446
aS'120'
p5476
aS'202'
p5477
aa(lp5478
I2835
aS'100'
p5479
aS'146'
p5480
aa(lp5481
I2994
aS'2'
aS'26'
p5482
aa(lp5483
I3544
aS'3'
aS'109'
p5484
aa(lp5485
I3545
aS'5'
aS'99'
p5486
aa(lp5487
I3547
aS'8'
aS'67'
p5488
aa(lp5489
I3548
aS'8'
aS'74'
p5490
aa(lp5491
I3549
aS'9'
aS'60'
p5492
aa(lp5493
I3550
aS'8'
aS'88'
p5494
aa(lp5495
I3553
aS'33'
p5496
aS'79'
p5497
aa(lp5498
I3809
aS'82'
p5499
aS'152'
p5500
aa(lp5501
I5041
aS'4'
aS'138'
p5502
aa(lp5503
I5042
aS'8'
aS'128'
p5504
aa(lp5505
I5050
aS'2'
aS'149'
p5506
aa(lp5507
I5532
aS'6'
aS'126'
p5508
aa(lp5509
I6345
aS'39'
p5510
aS'110'
p5511
aa(lp5512
I6403
aS'17'
p5513
aS'126'
p5514
aa(lp5515
I6412
aS'3'
aS'82'
p5516
aa(lp5517
I7148
aS'11'
p5518
aS'88'
p5519
aasS'1M7A'
p5520
(lp5521
(lp5522
I5470
aS'9'
aS'164'
p5523
aasS'3JWM'
p5524
(lp5525
(lp5526
I5470
aS'3'
aS'160'
p5527
aa(lp5528
I5470
aS'3'
aS'160'
p5529
aasS'3JWK'
p5530
(lp5531
(lp5532
I5470
aS'3'
aS'160'
p5533
aasS'3JWF'
p5534
(lp5535
(lp5536
I5470
aS'3'
aS'160'
p5537
aasS'1VDR'
p5538
(lp5539
(lp5540
I5470
aS'3'
aS'148'
p5541
aasS'1DLS'
p5542
(lp5543
(lp5544
I5470
aS'4'
aS'184'
p5545
aasS'3JWC'
p5546
(lp5547
(lp5548
I5470
aS'3'
aS'160'
p5549
aa(lp5550
I5470
aS'3'
aS'160'
p5551
aasS'1IA1'
p5552
(lp5553
(lp5554
I5470
aS'9'
aS'164'
p5555
aasS'1IA3'
p5556
(lp5557
(lp5558
I5470
aS'9'
aS'164'
p5559
aasS'1IA2'
p5560
(lp5561
(lp5562
I5470
aS'9'
aS'164'
p5563
aasS'1IA4'
p5564
(lp5565
(lp5566
I5470
aS'9'
aS'164'
p5567
aasS'4LFC'
p5568
(lp5569
(lp5570
I143
aS'10'
p5571
aS'223'
p5572
aa(lp5573
I145
aS'3'
aS'98'
p5574
aa(lp5575
I147
aS'6'
aS'70'
p5576
aa(lp5577
I148
aS'3'
aS'92'
p5578
aa(lp5579
I2446
aS'120'
p5580
aS'202'
p5581
aa(lp5582
I2835
aS'100'
p5583
aS'146'
p5584
aa(lp5585
I2994
aS'2'
aS'26'
p5586
aa(lp5587
I3544
aS'3'
aS'109'
p5588
aa(lp5589
I3545
aS'5'
aS'99'
p5590
aa(lp5591
I3547
aS'8'
aS'67'
p5592
aa(lp5593
I3548
aS'8'
aS'74'
p5594
aa(lp5595
I3549
aS'9'
aS'60'
p5596
aa(lp5597
I3550
aS'8'
aS'88'
p5598
aa(lp5599
I3553
aS'33'
p5600
aS'79'
p5601
aa(lp5602
I3809
aS'82'
p5603
aS'152'
p5604
aa(lp5605
I5041
aS'4'
aS'138'
p5606
aa(lp5607
I5042
aS'8'
aS'128'
p5608
aa(lp5609
I5050
aS'2'
aS'149'
p5610
aa(lp5611
I5532
aS'6'
aS'126'
p5612
aa(lp5613
I6345
aS'39'
p5614
aS'110'
p5615
aa(lp5616
I6412
aS'3'
aS'82'
p5617
aa(lp5618
I7148
aS'11'
p5619
aS'88'
p5620
aasS'4LFA'
p5621
(lp5622
(lp5623
I143
aS'10'
p5624
aS'223'
p5625
aa(lp5626
I145
aS'3'
aS'98'
p5627
aa(lp5628
I147
aS'6'
aS'70'
p5629
aa(lp5630
I148
aS'3'
aS'92'
p5631
aa(lp5632
I2446
aS'120'
p5633
aS'202'
p5634
aa(lp5635
I2835
aS'100'
p5636
aS'146'
p5637
aa(lp5638
I2994
aS'2'
aS'26'
p5639
aa(lp5640
I3544
aS'3'
aS'109'
p5641
aa(lp5642
I3545
aS'5'
aS'99'
p5643
aa(lp5644
I3547
aS'8'
aS'67'
p5645
aa(lp5646
I3548
aS'8'
aS'74'
p5647
aa(lp5648
I3549
aS'9'
aS'60'
p5649
aa(lp5650
I3550
aS'8'
aS'88'
p5651
aa(lp5652
I3553
aS'33'
p5653
aS'79'
p5654
aa(lp5655
I3809
aS'82'
p5656
aS'152'
p5657
aa(lp5658
I5041
aS'4'
aS'138'
p5659
aa(lp5660
I5042
aS'8'
aS'128'
p5661
aa(lp5662
I5050
aS'2'
aS'149'
p5663
aa(lp5664
I5532
aS'6'
aS'126'
p5665
aa(lp5666
I6345
aS'39'
p5667
aS'110'
p5668
aa(lp5669
I6403
aS'17'
p5670
aS'126'
p5671
aa(lp5672
I6412
aS'3'
aS'82'
p5673
aa(lp5674
I7148
aS'11'
p5675
aS'88'
p5676
aasS'1DG7'
p5677
(lp5678
(lp5679
I5470
aS'1'
aS'156'
p5680
aasS'1DG5'
p5681
(lp5682
(lp5683
I5470
aS'1'
aS'156'
p5684
aasS'2HM9'
p5685
(lp5686
(lp5687
I5470
aS'3'
aS'160'
p5688
aasS'1DG8'
p5689
(lp5690
(lp5691
I5470
aS'1'
aS'156'
p5692
aasS'1RF7'
p5693
(lp5694
(lp5695
I5470
aS'1'
aS'158'
p5696
aasS'2KGK'
p5697
(lp5698
(lp5699
I5470
aS'3'
aS'160'
p5700
aa(lp5701
I5470
aS'3'
aS'160'
p5702
aasS'4ELF'
p5703
(lp5704
(lp5705
I5470
aS'3'
aS'160'
p5706
aasS'4JI5'
p5707
(lp5708
(lp5709
I143
aS'10'
p5710
aS'223'
p5711
aa(lp5712
I145
aS'3'
aS'98'
p5713
aa(lp5714
I147
aS'6'
aS'70'
p5715
aa(lp5716
I148
aS'3'
aS'92'
p5717
aa(lp5718
I2446
aS'120'
p5719
aS'202'
p5720
aa(lp5721
I2835
aS'100'
p5722
aS'146'
p5723
aa(lp5724
I2994
aS'2'
aS'25'
p5725
aa(lp5726
I3544
aS'3'
aS'109'
p5727
aa(lp5728
I3545
aS'5'
aS'99'
p5729
aa(lp5730
I3547
aS'8'
aS'67'
p5731
aa(lp5732
I3548
aS'8'
aS'74'
p5733
aa(lp5734
I3549
aS'9'
aS'60'
p5735
aa(lp5736
I3550
aS'8'
aS'88'
p5737
aa(lp5738
I3553
aS'33'
p5739
aS'79'
p5740
aa(lp5741
I3809
aS'82'
p5742
aS'152'
p5743
aa(lp5744
I5041
aS'4'
aS'138'
p5745
aa(lp5746
I5042
aS'8'
aS'128'
p5747
aa(lp5748
I5050
aS'2'
aS'149'
p5749
aa(lp5750
I5532
aS'6'
aS'126'
p5751
aa(lp5752
I6345
aS'39'
p5753
aS'110'
p5754
aa(lp5755
I6403
aS'17'
p5756
aS'126'
p5757
aa(lp5758
I6412
aS'3'
aS'81'
p5759
aa(lp5760
I7148
aS'11'
p5761
aS'88'
p5762
aasS'4JI4'
p5763
(lp5764
(lp5765
I143
aS'10'
p5766
aS'223'
p5767
aa(lp5768
I145
aS'3'
aS'98'
p5769
aa(lp5770
I147
aS'6'
aS'70'
p5771
aa(lp5772
I148
aS'3'
aS'92'
p5773
aa(lp5774
I2446
aS'120'
p5775
aS'202'
p5776
aa(lp5777
I2835
aS'100'
p5778
aS'146'
p5779
aa(lp5780
I2994
aS'2'
aS'25'
p5781
aa(lp5782
I3544
aS'3'
aS'109'
p5783
aa(lp5784
I3545
aS'5'
aS'99'
p5785
aa(lp5786
I3547
aS'8'
aS'67'
p5787
aa(lp5788
I3548
aS'8'
aS'74'
p5789
aa(lp5790
I3549
aS'9'
aS'60'
p5791
aa(lp5792
I3550
aS'8'
aS'88'
p5793
aa(lp5794
I3553
aS'33'
p5795
aS'79'
p5796
aa(lp5797
I3809
aS'82'
p5798
aS'152'
p5799
aa(lp5800
I5041
aS'4'
aS'138'
p5801
aa(lp5802
I5042
aS'8'
aS'128'
p5803
aa(lp5804
I5050
aS'2'
aS'149'
p5805
aa(lp5806
I5532
aS'6'
aS'126'
p5807
aa(lp5808
I6345
aS'39'
p5809
aS'110'
p5810
aa(lp5811
I6403
aS'17'
p5812
aS'126'
p5813
aa(lp5814
I6412
aS'3'
aS'81'
p5815
aa(lp5816
I7148
aS'11'
p5817
aS'88'
p5818
aasS'4JI7'
p5819
(lp5820
(lp5821
I143
aS'10'
p5822
aS'223'
p5823
aa(lp5824
I145
aS'3'
aS'98'
p5825
aa(lp5826
I147
aS'6'
aS'70'
p5827
aa(lp5828
I148
aS'3'
aS'92'
p5829
aa(lp5830
I2446
aS'120'
p5831
aS'202'
p5832
aa(lp5833
I2835
aS'100'
p5834
aS'146'
p5835
aa(lp5836
I2994
aS'2'
aS'25'
p5837
aa(lp5838
I3544
aS'3'
aS'109'
p5839
aa(lp5840
I3545
aS'5'
aS'99'
p5841
aa(lp5842
I3547
aS'8'
aS'67'
p5843
aa(lp5844
I3548
aS'8'
aS'74'
p5845
aa(lp5846
I3549
aS'9'
aS'60'
p5847
aa(lp5848
I3550
aS'8'
aS'88'
p5849
aa(lp5850
I3553
aS'33'
p5851
aS'79'
p5852
aa(lp5853
I3809
aS'82'
p5854
aS'152'
p5855
aa(lp5856
I5041
aS'4'
aS'138'
p5857
aa(lp5858
I5042
aS'8'
aS'128'
p5859
aa(lp5860
I5050
aS'2'
aS'149'
p5861
aa(lp5862
I5532
aS'6'
aS'126'
p5863
aa(lp5864
I6345
aS'39'
p5865
aS'110'
p5866
aa(lp5867
I6403
aS'17'
p5868
aS'126'
p5869
aa(lp5870
I6412
aS'3'
aS'81'
p5871
aa(lp5872
I7148
aS'11'
p5873
aS'88'
p5874
aasS'4JI6'
p5875
(lp5876
(lp5877
I143
aS'10'
p5878
aS'223'
p5879
aa(lp5880
I145
aS'3'
aS'98'
p5881
aa(lp5882
I147
aS'6'
aS'70'
p5883
aa(lp5884
I148
aS'3'
aS'92'
p5885
aa(lp5886
I2446
aS'120'
p5887
aS'202'
p5888
aa(lp5889
I2835
aS'100'
p5890
aS'146'
p5891
aa(lp5892
I2994
aS'2'
aS'25'
p5893
aa(lp5894
I3544
aS'3'
aS'109'
p5895
aa(lp5896
I3545
aS'5'
aS'99'
p5897
aa(lp5898
I3547
aS'8'
aS'67'
p5899
aa(lp5900
I3548
aS'8'
aS'74'
p5901
aa(lp5902
I3549
aS'9'
aS'60'
p5903
aa(lp5904
I3550
aS'8'
aS'88'
p5905
aa(lp5906
I3553
aS'33'
p5907
aS'79'
p5908
aa(lp5909
I3809
aS'82'
p5910
aS'152'
p5911
aa(lp5912
I5041
aS'4'
aS'138'
p5913
aa(lp5914
I5042
aS'8'
aS'128'
p5915
aa(lp5916
I5050
aS'2'
aS'149'
p5917
aa(lp5918
I5532
aS'6'
aS'126'
p5919
aa(lp5920
I6345
aS'39'
p5921
aS'110'
p5922
aa(lp5923
I6403
aS'17'
p5924
aS'126'
p5925
aa(lp5926
I6412
aS'3'
aS'81'
p5927
aa(lp5928
I7148
aS'11'
p5929
aS'88'
p5930
aasS'4JI1'
p5931
(lp5932
(lp5933
I143
aS'10'
p5934
aS'223'
p5935
aa(lp5936
I145
aS'3'
aS'98'
p5937
aa(lp5938
I147
aS'6'
aS'70'
p5939
aa(lp5940
I148
aS'3'
aS'92'
p5941
aa(lp5942
I2446
aS'120'
p5943
aS'202'
p5944
aa(lp5945
I2835
aS'100'
p5946
aS'146'
p5947
aa(lp5948
I2994
aS'2'
aS'25'
p5949
aa(lp5950
I3544
aS'3'
aS'109'
p5951
aa(lp5952
I3545
aS'5'
aS'99'
p5953
aa(lp5954
I3547
aS'8'
aS'67'
p5955
aa(lp5956
I3548
aS'8'
aS'74'
p5957
aa(lp5958
I3549
aS'9'
aS'60'
p5959
aa(lp5960
I3550
aS'8'
aS'88'
p5961
aa(lp5962
I3553
aS'33'
p5963
aS'79'
p5964
aa(lp5965
I3809
aS'82'
p5966
aS'152'
p5967
aa(lp5968
I5041
aS'4'
aS'138'
p5969
aa(lp5970
I5042
aS'8'
aS'128'
p5971
aa(lp5972
I5050
aS'2'
aS'149'
p5973
aa(lp5974
I5532
aS'6'
aS'126'
p5975
aa(lp5976
I6345
aS'39'
p5977
aS'110'
p5978
aa(lp5979
I6403
aS'17'
p5980
aS'126'
p5981
aa(lp5982
I6412
aS'3'
aS'81'
p5983
aa(lp5984
I7148
aS'11'
p5985
aS'88'
p5986
aasS'4JI0'
p5987
(lp5988
(lp5989
I143
aS'10'
p5990
aS'223'
p5991
aa(lp5992
I145
aS'3'
aS'98'
p5993
aa(lp5994
I147
aS'6'
aS'70'
p5995
aa(lp5996
I148
aS'3'
aS'92'
p5997
aa(lp5998
I2446
aS'120'
p5999
aS'202'
p6000
aa(lp6001
I2835
aS'100'
p6002
aS'146'
p6003
aa(lp6004
I2994
aS'2'
aS'25'
p6005
aa(lp6006
I3544
aS'3'
aS'109'
p6007
aa(lp6008
I3545
aS'5'
aS'99'
p6009
aa(lp6010
I3547
aS'8'
aS'67'
p6011
aa(lp6012
I3548
aS'8'
aS'74'
p6013
aa(lp6014
I3549
aS'9'
aS'60'
p6015
aa(lp6016
I3550
aS'8'
aS'88'
p6017
aa(lp6018
I3553
aS'33'
p6019
aS'79'
p6020
aa(lp6021
I3809
aS'82'
p6022
aS'152'
p6023
aa(lp6024
I5041
aS'4'
aS'138'
p6025
aa(lp6026
I5042
aS'8'
aS'128'
p6027
aa(lp6028
I5050
aS'2'
aS'149'
p6029
aa(lp6030
I5532
aS'6'
aS'126'
p6031
aa(lp6032
I6345
aS'39'
p6033
aS'110'
p6034
aa(lp6035
I6403
aS'17'
p6036
aS'126'
p6037
aa(lp6038
I6412
aS'3'
aS'81'
p6039
aa(lp6040
I7148
aS'11'
p6041
aS'88'
p6042
aasS'4JI3'
p6043
(lp6044
(lp6045
I143
aS'10'
p6046
aS'223'
p6047
aa(lp6048
I145
aS'3'
aS'98'
p6049
aa(lp6050
I147
aS'6'
aS'70'
p6051
aa(lp6052
I148
aS'3'
aS'92'
p6053
aa(lp6054
I2446
aS'120'
p6055
aS'202'
p6056
aa(lp6057
I2835
aS'100'
p6058
aS'146'
p6059
aa(lp6060
I2994
aS'2'
aS'25'
p6061
aa(lp6062
I3544
aS'3'
aS'109'
p6063
aa(lp6064
I3545
aS'5'
aS'99'
p6065
aa(lp6066
I3547
aS'8'
aS'67'
p6067
aa(lp6068
I3548
aS'8'
aS'74'
p6069
aa(lp6070
I3549
aS'9'
aS'60'
p6071
aa(lp6072
I3550
aS'8'
aS'88'
p6073
aa(lp6074
I3553
aS'33'
p6075
aS'79'
p6076
aa(lp6077
I3809
aS'82'
p6078
aS'152'
p6079
aa(lp6080
I5041
aS'4'
aS'138'
p6081
aa(lp6082
I5042
aS'8'
aS'128'
p6083
aa(lp6084
I5050
aS'2'
aS'149'
p6085
aa(lp6086
I5532
aS'6'
aS'126'
p6087
aa(lp6088
I6345
aS'39'
p6089
aS'110'
p6090
aa(lp6091
I6403
aS'17'
p6092
aS'126'
p6093
aa(lp6094
I6412
aS'3'
aS'81'
p6095
aa(lp6096
I7148
aS'11'
p6097
aS'88'
p6098
aasS'4JI2'
p6099
(lp6100
(lp6101
I143
aS'10'
p6102
aS'223'
p6103
aa(lp6104
I145
aS'3'
aS'98'
p6105
aa(lp6106
I147
aS'6'
aS'70'
p6107
aa(lp6108
I148
aS'3'
aS'92'
p6109
aa(lp6110
I2446
aS'120'
p6111
aS'202'
p6112
aa(lp6113
I2835
aS'100'
p6114
aS'146'
p6115
aa(lp6116
I2994
aS'2'
aS'25'
p6117
aa(lp6118
I3544
aS'3'
aS'109'
p6119
aa(lp6120
I3545
aS'5'
aS'99'
p6121
aa(lp6122
I3547
aS'8'
aS'67'
p6123
aa(lp6124
I3548
aS'8'
aS'74'
p6125
aa(lp6126
I3549
aS'9'
aS'60'
p6127
aa(lp6128
I3550
aS'8'
aS'88'
p6129
aa(lp6130
I3553
aS'33'
p6131
aS'79'
p6132
aa(lp6133
I3809
aS'82'
p6134
aS'152'
p6135
aa(lp6136
I5041
aS'4'
aS'138'
p6137
aa(lp6138
I5042
aS'8'
aS'128'
p6139
aa(lp6140
I5050
aS'2'
aS'149'
p6141
aa(lp6142
I5532
aS'6'
aS'126'
p6143
aa(lp6144
I6345
aS'39'
p6145
aS'110'
p6146
aa(lp6147
I6403
aS'17'
p6148
aS'126'
p6149
aa(lp6150
I6412
aS'3'
aS'81'
p6151
aa(lp6152
I7148
aS'11'
p6153
aS'88'
p6154
aasS'3J9Y'
p6155
(lp6156
(lp6157
I143
aS'8'
aS'223'
p6158
aa(lp6159
I143
aS'8'
aS'223'
p6160
aa(lp6161
I145
aS'2'
aS'94'
p6162
aa(lp6163
I145
aS'2'
aS'94'
p6164
aa(lp6165
I147
aS'10'
p6166
aS'73'
p6167
aa(lp6168
I147
aS'10'
p6169
aS'73'
p6170
aa(lp6171
I148
aS'3'
aS'91'
p6172
aa(lp6173
I148
aS'3'
aS'91'
p6174
aa(lp6175
I1731
aS'20'
p6176
aS'116'
p6177
aa(lp6178
I1731
aS'20'
p6179
aS'116'
p6180
aa(lp6181
I1732
aS'4'
aS'131'
p6182
aa(lp6183
I1732
aS'4'
aS'131'
p6184
aa(lp6185
I1733
aS'71'
p6186
aS'139'
p6187
aa(lp6188
I1733
aS'71'
p6189
aS'139'
p6190
aa(lp6191
I1734
aS'5'
aS'101'
p6192
aa(lp6193
I1734
aS'5'
aS'101'
p6194
aa(lp6195
I1735
aS'15'
p6196
aS'138'
p6197
aa(lp6198
I1735
aS'15'
p6199
aS'138'
p6200
aa(lp6201
I1736
aS'54'
p6202
aS'120'
p6203
aa(lp6204
I1736
aS'54'
p6205
aS'120'
p6206
aa(lp6207
I1739
aS'2'
aS'112'
p6208
aa(lp6209
I1739
aS'2'
aS'112'
p6210
aa(lp6211
I1787
aS'83'
p6212
aS'176'
p6213
aa(lp6214
I1787
aS'83'
p6215
aS'176'
p6216
aa(lp6217
I2019
aS'6'
aS'52'
p6218
aa(lp6219
I2019
aS'6'
aS'52'
p6220
aa(lp6221
I2020
aS'1'
aS'65'
p6222
aa(lp6223
I2020
aS'1'
aS'65'
p6224
aa(lp6225
I2021
aS'4'
aS'53'
p6226
aa(lp6227
I2021
aS'4'
aS'53'
p6228
aa(lp6229
I2023
aS'1'
aS'38'
p6230
aa(lp6231
I2023
aS'1'
aS'38'
p6232
aa(lp6233
I2024
aS'1'
aS'44'
p6234
aa(lp6235
I2024
aS'1'
aS'44'
p6236
aa(lp6237
I2417
aS'7'
aS'36'
p6238
aa(lp6239
I2417
aS'7'
aS'36'
p6240
aa(lp6241
I2446
aS'119'
p6242
aS'201'
p6243
aa(lp6244
I2446
aS'119'
p6245
aS'201'
p6246
aa(lp6247
I2577
aS'64'
p6248
aS'148'
p6249
aa(lp6250
I2577
aS'64'
p6251
aS'148'
p6252
aa(lp6253
I2585
aS'1'
aS'45'
p6254
aa(lp6255
I2585
aS'1'
aS'45'
p6256
aa(lp6257
I2767
aS'4'
aS'91'
p6258
aa(lp6259
I2767
aS'4'
aS'91'
p6260
aa(lp6261
I2772
aS'10'
p6262
aS'81'
p6263
aa(lp6264
I2772
aS'89'
p6265
aS'163'
p6266
aa(lp6267
I2772
aS'10'
p6268
aS'81'
p6269
aa(lp6270
I2772
aS'89'
p6271
aS'163'
p6272
aa(lp6273
I2835
aS'96'
p6274
aS'142'
p6275
aa(lp6276
I2835
aS'96'
p6277
aS'142'
p6278
aa(lp6279
I3071
aS'1'
aS'122'
p6280
aa(lp6281
I3071
aS'1'
aS'122'
p6282
aa(lp6283
I3544
aS'2'
aS'107'
p6284
aa(lp6285
I3544
aS'2'
aS'107'
p6286
aa(lp6287
I3545
aS'7'
aS'100'
p6288
aa(lp6289
I3545
aS'7'
aS'100'
p6290
aa(lp6291
I3547
aS'8'
aS'68'
p6292
aa(lp6293
I3547
aS'8'
aS'68'
p6294
aa(lp6295
I3548
aS'9'
aS'75'
p6296
aa(lp6297
I3548
aS'9'
aS'75'
p6298
aa(lp6299
I3549
aS'47'
p6300
aS'100'
p6301
aa(lp6302
I3549
aS'47'
p6303
aS'100'
p6304
aa(lp6305
I3550
aS'8'
aS'87'
p6306
aa(lp6307
I3550
aS'8'
aS'87'
p6308
aa(lp6309
I3553
aS'18'
p6310
aS'67'
p6311
aa(lp6312
I3553
aS'18'
p6313
aS'67'
p6314
aa(lp6315
I3809
aS'86'
p6316
aS'156'
p6317
aa(lp6318
I3809
aS'86'
p6319
aS'156'
p6320
aa(lp6321
I4161
aS'2'
aS'117'
p6322
aa(lp6323
I4161
aS'2'
aS'117'
p6324
aa(lp6325
I4162
aS'28'
p6326
aS'143'
p6327
aa(lp6328
I4162
aS'28'
p6329
aS'143'
p6330
aa(lp6331
I4492
aS'1'
aS'59'
p6332
aa(lp6333
I4492
aS'1'
aS'59'
p6334
aa(lp6335
I5041
aS'4'
aS'128'
p6336
aa(lp6337
I5041
aS'4'
aS'128'
p6338
aa(lp6339
I5042
aS'9'
aS'129'
p6340
aa(lp6341
I5042
aS'9'
aS'129'
p6342
aa(lp6343
I5050
aS'1'
aS'148'
p6344
aa(lp6345
I5050
aS'1'
aS'148'
p6346
aa(lp6347
I5265
aS'416'
p6348
aS'531'
p6349
aa(lp6350
I5265
aS'416'
p6351
aS'531'
p6352
aa(lp6353
I5271
aS'342'
p6354
aS'414'
p6355
aa(lp6356
I5271
aS'342'
p6357
aS'414'
p6358
aa(lp6359
I5273
aS'124'
p6360
aS'248'
p6361
aa(lp6362
I5273
aS'124'
p6363
aS'248'
p6364
aa(lp6365
I5434
aS'1'
aS'56'
p6366
aa(lp6367
I5434
aS'1'
aS'56'
p6368
aa(lp6369
I5516
aS'23'
p6370
aS'79'
p6371
aa(lp6372
I5516
aS'23'
p6373
aS'79'
p6374
aa(lp6375
I5517
aS'13'
p6376
aS'198'
p6377
aa(lp6378
I5517
aS'13'
p6379
aS'198'
p6380
aa(lp6381
I5520
aS'27'
p6382
aS'182'
p6383
aa(lp6384
I5520
aS'27'
p6385
aS'182'
p6386
aa(lp6387
I5521
aS'41'
p6388
aS'116'
p6389
aa(lp6390
I5521
aS'41'
p6391
aS'116'
p6392
aa(lp6393
I5532
aS'5'
aS'122'
p6394
aa(lp6395
I5532
aS'5'
aS'122'
p6396
aa(lp6397
I5533
aS'7'
aS'78'
p6398
aa(lp6399
I5533
aS'7'
aS'78'
p6400
aa(lp6401
I5589
aS'534'
p6402
aS'617'
p6403
aa(lp6404
I5589
aS'534'
p6405
aS'617'
p6406
aa(lp6407
I5683
aS'8'
aS'66'
p6408
aa(lp6409
I5683
aS'8'
aS'66'
p6410
aa(lp6411
I5991
aS'2'
aS'61'
p6412
aa(lp6413
I5991
aS'2'
aS'61'
p6414
aa(lp6415
I5992
aS'4'
aS'60'
p6416
aa(lp6417
I5992
aS'4'
aS'60'
p6418
aa(lp6419
I5995
aS'2'
aS'108'
p6420
aa(lp6421
I5995
aS'2'
aS'108'
p6422
aa(lp6423
I5996
aS'5'
aS'108'
p6424
aa(lp6425
I5996
aS'5'
aS'108'
p6426
aa(lp6427
I5997
aS'9'
aS'93'
p6428
aa(lp6429
I5997
aS'9'
aS'93'
p6430
aa(lp6431
I6226
aS'2'
aS'237'
p6432
aa(lp6433
I6226
aS'2'
aS'237'
p6434
aa(lp6435
I6228
aS'1'
aS'96'
p6436
aa(lp6437
I6228
aS'1'
aS'96'
p6438
aa(lp6439
I6345
aS'37'
p6440
aS'110'
p6441
aa(lp6442
I6345
aS'37'
p6443
aS'110'
p6444
aa(lp6445
I6403
aS'18'
p6446
aS'127'
p6447
aa(lp6448
I6403
aS'18'
p6449
aS'127'
p6450
aa(lp6451
I6412
aS'2'
aS'80'
p6452
aa(lp6453
I6412
aS'2'
aS'80'
p6454
aa(lp6455
I7148
aS'2'
aS'83'
p6456
aa(lp6457
I7148
aS'2'
aS'83'
p6458
aa(lp6459
I7507
aS'3'
aS'55'
p6460
aa(lp6461
I7507
aS'3'
aS'55'
p6462
aasS'2CIG'
p6463
(lp6464
(lp6465
I5470
aS'1'
aS'156'
p6466
aasS'4GH8'
p6467
(lp6468
(lp6469
I5470
aS'1'
aS'162'
p6470
aasS'4QLF'
p6471
(lp6472
(lp6473
I5470
aS'1'
aS'158'
p6474
aasS'3KJR'
p6475
(lp6476
(lp6477
I5470
aS'11'
p6478
aS'186'
p6479
aa(lp6480
I6270
aS'230'
p6481
aS'510'
p6482
aasS'3KJS'
p6483
(lp6484
(lp6485
I5470
aS'23'
p6486
aS'191'
p6487
aa(lp6488
I6270
aS'238'
p6489
aS'515'
p6490
aasS'1D1G'
p6491
(lp6492
(lp6493
I5470
aS'4'
aS'122'
p6494
aasS'1E26'
p6495
(lp6496
(lp6497
I5470
aS'7'
aS'177'
p6498
aasS'1BOZ'
p6499
(lp6500
(lp6501
I5470
aS'4'
aS'184'
p6502
aa(lp6503
I5470
aS'4'
aS'184'
p6504
aasS'3S7A'
p6505
(lp6506
(lp6507
I5470
aS'4'
aS'184'
p6508
aasS'4M6K'
p6509
(lp6510
(lp6511
I5470
aS'4'
aS'184'
p6512
aasS'4KLX'
p6513
(lp6514
(lp6515
I5470
aS'1'
aS'156'
p6516
aasS'3NRR'
p6517
(lp6518
(lp6519
I5470
aS'11'
p6520
aS'186'
p6521
aa(lp6522
I6270
aS'230'
p6523
aS'510'
p6524
aasS'3HBB'
p6525
(lp6526
(lp6527
I5470
aS'23'
p6528
aS'191'
p6529
aa(lp6530
I6270
aS'238'
p6531
aS'516'
p6532
aasS'3IX9'
p6533
(lp6534
(lp6535
I5470
aS'4'
aS'163'
p6536
aasS'4DV6'
p6537
(lp6538
(lp6539
I143
aS'10'
p6540
aS'223'
p6541
aa(lp6542
I145
aS'3'
aS'98'
p6543
aa(lp6544
I147
aS'6'
aS'70'
p6545
aa(lp6546
I148
aS'3'
aS'92'
p6547
aa(lp6548
I2446
aS'120'
p6549
aS'202'
p6550
aa(lp6551
I2835
aS'100'
p6552
aS'146'
p6553
aa(lp6554
I2994
aS'2'
aS'25'
p6555
aa(lp6556
I3544
aS'3'
aS'109'
p6557
aa(lp6558
I3545
aS'5'
aS'99'
p6559
aa(lp6560
I3547
aS'8'
aS'67'
p6561
aa(lp6562
I3548
aS'8'
aS'74'
p6563
aa(lp6564
I3549
aS'9'
aS'60'
p6565
aa(lp6566
I3550
aS'8'
aS'88'
p6567
aa(lp6568
I3553
aS'33'
p6569
aS'79'
p6570
aa(lp6571
I3809
aS'82'
p6572
aS'152'
p6573
aa(lp6574
I5041
aS'4'
aS'138'
p6575
aa(lp6576
I5042
aS'8'
aS'128'
p6577
aa(lp6578
I5050
aS'2'
aS'149'
p6579
aa(lp6580
I5532
aS'6'
aS'126'
p6581
aa(lp6582
I6345
aS'39'
p6583
aS'110'
p6584
aa(lp6585
I6403
aS'17'
p6586
aS'126'
p6587
aa(lp6588
I6412
aS'3'
aS'81'
p6589
aa(lp6590
I7148
aS'11'
p6591
aS'88'
p6592
aasS'4DV7'
p6593
(lp6594
(lp6595
I143
aS'10'
p6596
aS'223'
p6597
aa(lp6598
I145
aS'3'
aS'98'
p6599
aa(lp6600
I147
aS'6'
aS'70'
p6601
aa(lp6602
I148
aS'3'
aS'92'
p6603
aa(lp6604
I2446
aS'120'
p6605
aS'202'
p6606
aa(lp6607
I2835
aS'100'
p6608
aS'146'
p6609
aa(lp6610
I2994
aS'2'
aS'25'
p6611
aa(lp6612
I3544
aS'3'
aS'109'
p6613
aa(lp6614
I3545
aS'5'
aS'99'
p6615
aa(lp6616
I3547
aS'8'
aS'67'
p6617
aa(lp6618
I3548
aS'8'
aS'74'
p6619
aa(lp6620
I3549
aS'9'
aS'60'
p6621
aa(lp6622
I3550
aS'8'
aS'88'
p6623
aa(lp6624
I3553
aS'33'
p6625
aS'79'
p6626
aa(lp6627
I3809
aS'82'
p6628
aS'152'
p6629
aa(lp6630
I5041
aS'4'
aS'138'
p6631
aa(lp6632
I5042
aS'8'
aS'128'
p6633
aa(lp6634
I5050
aS'2'
aS'149'
p6635
aa(lp6636
I5532
aS'6'
aS'126'
p6637
aa(lp6638
I6345
aS'39'
p6639
aS'110'
p6640
aa(lp6641
I6403
aS'17'
p6642
aS'126'
p6643
aa(lp6644
I6412
aS'3'
aS'81'
p6645
aa(lp6646
I7148
aS'11'
p6647
aS'88'
p6648
aasS'4DV4'
p6649
(lp6650
(lp6651
I143
aS'10'
p6652
aS'223'
p6653
aa(lp6654
I145
aS'3'
aS'98'
p6655
aa(lp6656
I147
aS'6'
aS'70'
p6657
aa(lp6658
I148
aS'3'
aS'92'
p6659
aa(lp6660
I2446
aS'120'
p6661
aS'202'
p6662
aa(lp6663
I2835
aS'100'
p6664
aS'146'
p6665
aa(lp6666
I2994
aS'2'
aS'25'
p6667
aa(lp6668
I3544
aS'3'
aS'109'
p6669
aa(lp6670
I3545
aS'5'
aS'99'
p6671
aa(lp6672
I3547
aS'8'
aS'67'
p6673
aa(lp6674
I3548
aS'8'
aS'74'
p6675
aa(lp6676
I3549
aS'9'
aS'60'
p6677
aa(lp6678
I3550
aS'8'
aS'88'
p6679
aa(lp6680
I3553
aS'33'
p6681
aS'79'
p6682
aa(lp6683
I3809
aS'82'
p6684
aS'152'
p6685
aa(lp6686
I5041
aS'4'
aS'138'
p6687
aa(lp6688
I5042
aS'8'
aS'128'
p6689
aa(lp6690
I5050
aS'2'
aS'149'
p6691
aa(lp6692
I5532
aS'6'
aS'126'
p6693
aa(lp6694
I6345
aS'39'
p6695
aS'110'
p6696
aa(lp6697
I6403
aS'17'
p6698
aS'126'
p6699
aa(lp6700
I6412
aS'3'
aS'81'
p6701
aa(lp6702
I7148
aS'11'
p6703
aS'88'
p6704
aasS'4DV5'
p6705
(lp6706
(lp6707
I143
aS'10'
p6708
aS'223'
p6709
aa(lp6710
I145
aS'3'
aS'98'
p6711
aa(lp6712
I147
aS'6'
aS'70'
p6713
aa(lp6714
I148
aS'3'
aS'92'
p6715
aa(lp6716
I2446
aS'120'
p6717
aS'202'
p6718
aa(lp6719
I2835
aS'100'
p6720
aS'146'
p6721
aa(lp6722
I2994
aS'2'
aS'25'
p6723
aa(lp6724
I3544
aS'3'
aS'109'
p6725
aa(lp6726
I3545
aS'5'
aS'99'
p6727
aa(lp6728
I3547
aS'8'
aS'67'
p6729
aa(lp6730
I3548
aS'8'
aS'74'
p6731
aa(lp6732
I3549
aS'9'
aS'60'
p6733
aa(lp6734
I3550
aS'8'
aS'88'
p6735
aa(lp6736
I3553
aS'33'
p6737
aS'79'
p6738
aa(lp6739
I3809
aS'82'
p6740
aS'152'
p6741
aa(lp6742
I5041
aS'4'
aS'138'
p6743
aa(lp6744
I5042
aS'8'
aS'128'
p6745
aa(lp6746
I5050
aS'2'
aS'149'
p6747
aa(lp6748
I5532
aS'6'
aS'126'
p6749
aa(lp6750
I6345
aS'39'
p6751
aS'110'
p6752
aa(lp6753
I6403
aS'17'
p6754
aS'126'
p6755
aa(lp6756
I6412
aS'3'
aS'81'
p6757
aa(lp6758
I7148
aS'11'
p6759
aS'88'
p6760
aasS'4DV2'
p6761
(lp6762
(lp6763
I143
aS'10'
p6764
aS'223'
p6765
aa(lp6766
I145
aS'3'
aS'98'
p6767
aa(lp6768
I147
aS'6'
aS'70'
p6769
aa(lp6770
I148
aS'3'
aS'92'
p6771
aa(lp6772
I2446
aS'120'
p6773
aS'202'
p6774
aa(lp6775
I2835
aS'100'
p6776
aS'146'
p6777
aa(lp6778
I2994
aS'2'
aS'25'
p6779
aa(lp6780
I3544
aS'3'
aS'109'
p6781
aa(lp6782
I3545
aS'5'
aS'99'
p6783
aa(lp6784
I3547
aS'8'
aS'67'
p6785
aa(lp6786
I3548
aS'8'
aS'74'
p6787
aa(lp6788
I3549
aS'9'
aS'60'
p6789
aa(lp6790
I3550
aS'8'
aS'88'
p6791
aa(lp6792
I3553
aS'33'
p6793
aS'79'
p6794
aa(lp6795
I3809
aS'82'
p6796
aS'152'
p6797
aa(lp6798
I5041
aS'4'
aS'138'
p6799
aa(lp6800
I5042
aS'8'
aS'128'
p6801
aa(lp6802
I5050
aS'2'
aS'149'
p6803
aa(lp6804
I5532
aS'6'
aS'126'
p6805
aa(lp6806
I6345
aS'39'
p6807
aS'110'
p6808
aa(lp6809
I6403
aS'17'
p6810
aS'126'
p6811
aa(lp6812
I6412
aS'3'
aS'81'
p6813
aa(lp6814
I7148
aS'11'
p6815
aS'88'
p6816
aasS'4DV3'
p6817
(lp6818
(lp6819
I143
aS'10'
p6820
aS'223'
p6821
aa(lp6822
I145
aS'3'
aS'98'
p6823
aa(lp6824
I147
aS'6'
aS'70'
p6825
aa(lp6826
I148
aS'3'
aS'92'
p6827
aa(lp6828
I2446
aS'120'
p6829
aS'202'
p6830
aa(lp6831
I2835
aS'100'
p6832
aS'146'
p6833
aa(lp6834
I2994
aS'2'
aS'25'
p6835
aa(lp6836
I3544
aS'3'
aS'109'
p6837
aa(lp6838
I3545
aS'5'
aS'99'
p6839
aa(lp6840
I3547
aS'8'
aS'67'
p6841
aa(lp6842
I3548
aS'8'
aS'74'
p6843
aa(lp6844
I3549
aS'9'
aS'60'
p6845
aa(lp6846
I3550
aS'8'
aS'88'
p6847
aa(lp6848
I3553
aS'33'
p6849
aS'79'
p6850
aa(lp6851
I3809
aS'82'
p6852
aS'152'
p6853
aa(lp6854
I5041
aS'4'
aS'138'
p6855
aa(lp6856
I5042
aS'8'
aS'128'
p6857
aa(lp6858
I5050
aS'2'
aS'149'
p6859
aa(lp6860
I5532
aS'6'
aS'126'
p6861
aa(lp6862
I6345
aS'39'
p6863
aS'110'
p6864
aa(lp6865
I6403
aS'17'
p6866
aS'126'
p6867
aa(lp6868
I6412
aS'3'
aS'81'
p6869
aa(lp6870
I7148
aS'11'
p6871
aS'88'
p6872
aasS'4DV0'
p6873
(lp6874
(lp6875
I143
aS'10'
p6876
aS'223'
p6877
aa(lp6878
I145
aS'3'
aS'98'
p6879
aa(lp6880
I147
aS'6'
aS'70'
p6881
aa(lp6882
I148
aS'3'
aS'92'
p6883
aa(lp6884
I2446
aS'120'
p6885
aS'202'
p6886
aa(lp6887
I2835
aS'100'
p6888
aS'146'
p6889
aa(lp6890
I2994
aS'2'
aS'25'
p6891
aa(lp6892
I3544
aS'3'
aS'109'
p6893
aa(lp6894
I3545
aS'5'
aS'99'
p6895
aa(lp6896
I3547
aS'8'
aS'67'
p6897
aa(lp6898
I3548
aS'8'
aS'74'
p6899
aa(lp6900
I3549
aS'9'
aS'60'
p6901
aa(lp6902
I3550
aS'8'
aS'88'
p6903
aa(lp6904
I3553
aS'33'
p6905
aS'79'
p6906
aa(lp6907
I3809
aS'82'
p6908
aS'152'
p6909
aa(lp6910
I5041
aS'4'
aS'138'
p6911
aa(lp6912
I5042
aS'8'
aS'128'
p6913
aa(lp6914
I5050
aS'2'
aS'149'
p6915
aa(lp6916
I5532
aS'6'
aS'126'
p6917
aa(lp6918
I6345
aS'39'
p6919
aS'110'
p6920
aa(lp6921
I6403
aS'17'
p6922
aS'126'
p6923
aa(lp6924
I6412
aS'3'
aS'81'
p6925
aa(lp6926
I7148
aS'11'
p6927
aS'88'
p6928
aasS'4DV1'
p6929
(lp6930
(lp6931
I143
aS'10'
p6932
aS'223'
p6933
aa(lp6934
I143
aS'10'
p6935
aS'223'
p6936
aa(lp6937
I145
aS'3'
aS'98'
p6938
aa(lp6939
I145
aS'3'
aS'98'
p6940
aa(lp6941
I147
aS'6'
aS'70'
p6942
aa(lp6943
I147
aS'6'
aS'70'
p6944
aa(lp6945
I148
aS'3'
aS'92'
p6946
aa(lp6947
I148
aS'3'
aS'92'
p6948
aa(lp6949
I2446
aS'120'
p6950
aS'202'
p6951
aa(lp6952
I2446
aS'120'
p6953
aS'202'
p6954
aa(lp6955
I2835
aS'100'
p6956
aS'146'
p6957
aa(lp6958
I2835
aS'100'
p6959
aS'146'
p6960
aa(lp6961
I2994
aS'2'
aS'25'
p6962
aa(lp6963
I2994
aS'2'
aS'25'
p6964
aa(lp6965
I3544
aS'3'
aS'109'
p6966
aa(lp6967
I3544
aS'3'
aS'109'
p6968
aa(lp6969
I3545
aS'5'
aS'99'
p6970
aa(lp6971
I3545
aS'5'
aS'99'
p6972
aa(lp6973
I3547
aS'8'
aS'67'
p6974
aa(lp6975
I3547
aS'8'
aS'67'
p6976
aa(lp6977
I3548
aS'8'
aS'74'
p6978
aa(lp6979
I3548
aS'8'
aS'74'
p6980
aa(lp6981
I3549
aS'9'
aS'60'
p6982
aa(lp6983
I3549
aS'9'
aS'60'
p6984
aa(lp6985
I3550
aS'8'
aS'88'
p6986
aa(lp6987
I3550
aS'8'
aS'88'
p6988
aa(lp6989
I3553
aS'33'
p6990
aS'79'
p6991
aa(lp6992
I3553
aS'33'
p6993
aS'79'
p6994
aa(lp6995
I3809
aS'82'
p6996
aS'152'
p6997
aa(lp6998
I3809
aS'82'
p6999
aS'152'
p7000
aa(lp7001
I5041
aS'4'
aS'138'
p7002
aa(lp7003
I5041
aS'4'
aS'138'
p7004
aa(lp7005
I5042
aS'8'
aS'128'
p7006
aa(lp7007
I5042
aS'8'
aS'128'
p7008
aa(lp7009
I5050
aS'2'
aS'149'
p7010
aa(lp7011
I5050
aS'2'
aS'149'
p7012
aa(lp7013
I5532
aS'6'
aS'126'
p7014
aa(lp7015
I5532
aS'6'
aS'126'
p7016
aa(lp7017
I6345
aS'39'
p7018
aS'110'
p7019
aa(lp7020
I6345
aS'39'
p7021
aS'110'
p7022
aa(lp7023
I6403
aS'17'
p7024
aS'126'
p7025
aa(lp7026
I6403
aS'17'
p7027
aS'126'
p7028
aa(lp7029
I6412
aS'3'
aS'81'
p7030
aa(lp7031
I6412
aS'3'
aS'81'
p7032
aa(lp7033
I7148
aS'11'
p7034
aS'88'
p7035
aa(lp7036
I7148
aS'11'
p7037
aS'88'
p7038
aasS'3L3R'
p7039
(lp7040
(lp7041
I5470
aS'4'
aS'184'
p7042
aasS'4KHP'
p7043
(lp7044
(lp7045
I143
aS'10'
p7046
aS'223'
p7047
aa(lp7048
I145
aS'3'
aS'98'
p7049
aa(lp7050
I147
aS'6'
aS'70'
p7051
aa(lp7052
I148
aS'3'
aS'92'
p7053
aa(lp7054
I2446
aS'120'
p7055
aS'202'
p7056
aa(lp7057
I2835
aS'100'
p7058
aS'146'
p7059
aa(lp7060
I2994
aS'2'
aS'25'
p7061
aa(lp7062
I3544
aS'3'
aS'109'
p7063
aa(lp7064
I3545
aS'5'
aS'99'
p7065
aa(lp7066
I3547
aS'8'
aS'67'
p7067
aa(lp7068
I3548
aS'8'
aS'74'
p7069
aa(lp7070
I3549
aS'9'
aS'60'
p7071
aa(lp7072
I3550
aS'8'
aS'88'
p7073
aa(lp7074
I3553
aS'33'
p7075
aS'79'
p7076
aa(lp7077
I3809
aS'82'
p7078
aS'152'
p7079
aa(lp7080
I5041
aS'4'
aS'138'
p7081
aa(lp7082
I5042
aS'8'
aS'128'
p7083
aa(lp7084
I5050
aS'3'
aS'149'
p7085
aa(lp7086
I5532
aS'6'
aS'126'
p7087
aa(lp7088
I6345
aS'39'
p7089
aS'110'
p7090
aa(lp7091
I6403
aS'17'
p7092
aS'126'
p7093
aa(lp7094
I6412
aS'4'
aS'80'
p7095
aa(lp7096
I7148
aS'11'
p7097
aS'88'
p7098
aasS'3NU0'
p7099
(lp7100
(lp7101
I5470
aS'4'
aS'184'
p7102
aasS'3DRC'
p7103
(lp7104
(lp7105
I5470
aS'1'
aS'158'
p7106
aasS'1ZDR'
p7107
(lp7108
(lp7109
I5470
aS'1'
aS'160'
p7110
aasS'1DHF'
p7111
(lp7112
(lp7113
I5470
aS'4'
aS'184'
p7114
aasS'4KL9'
p7115
(lp7116
(lp7117
I5470
aS'1'
aS'156'
p7118
aasS'1DHJ'
p7119
(lp7120
(lp7121
I5470
aS'1'
aS'158'
p7122
aasS'1CD2'
p7123
(lp7124
(lp7125
I5470
aS'7'
aS'177'
p7126
aasS'1RG7'
p7127
(lp7128
(lp7129
I5470
aS'1'
aS'158'
p7130
aasS'3GYF'
p7131
(lp7132
(lp7133
I5470
aS'4'
aS'184'
p7134
aasS'3FL9'
p7135
(lp7136
(lp7137
I5470
aS'3'
aS'160'
p7138
aasS'3FL8'
p7139
(lp7140
(lp7141
I5470
aS'3'
aS'160'
p7142
aasS'3S3V'
p7143
(lp7144
(lp7145
I5470
aS'4'
aS'184'
p7146
aasS'3TQ8'
p7147
(lp7148
(lp7149
I5470
aS'3'
aS'160'
p7150
aasS'3TQ9'
p7151
(lp7152
(lp7153
I5470
aS'3'
aS'160'
p7154
aasS'4A2I'
p7155
(lp7156
(lp7157
I143
aS'8'
aS'223'
p7158
aa(lp7159
I145
aS'2'
aS'94'
p7160
aa(lp7161
I147
aS'10'
p7162
aS'73'
p7163
aa(lp7164
I148
aS'3'
aS'91'
p7165
aa(lp7166
I632
aS'110'
p7167
aS'284'
p7168
aa(lp7169
I2446
aS'119'
p7170
aS'201'
p7171
aa(lp7172
I2835
aS'96'
p7173
aS'142'
p7174
aa(lp7175
I3544
aS'2'
aS'107'
p7176
aa(lp7177
I3545
aS'7'
aS'100'
p7178
aa(lp7179
I3547
aS'8'
aS'68'
p7180
aa(lp7181
I3548
aS'9'
aS'75'
p7182
aa(lp7183
I3549
aS'46'
p7184
aS'99'
p7185
aa(lp7186
I3550
aS'8'
aS'87'
p7187
aa(lp7188
I3553
aS'19'
p7189
aS'67'
p7190
aa(lp7191
I3809
aS'86'
p7192
aS'156'
p7193
aa(lp7194
I5041
aS'4'
aS'128'
p7195
aa(lp7196
I5042
aS'9'
aS'129'
p7197
aa(lp7198
I5050
aS'2'
aS'148'
p7199
aa(lp7200
I5532
aS'5'
aS'122'
p7201
aa(lp7202
I6345
aS'37'
p7203
aS'110'
p7204
aa(lp7205
I6403
aS'18'
p7206
aS'127'
p7207
aa(lp7208
I6412
aS'2'
aS'79'
p7209
aa(lp7210
I7148
aS'2'
aS'83'
p7211
aa(lp7212
I7507
aS'3'
aS'52'
p7213
aasS'1RA2'
p7214
(lp7215
(lp7216
I5470
aS'1'
aS'158'
p7217
aasS'1RA3'
p7218
(lp7219
(lp7220
I5470
aS'1'
aS'158'
p7221
aasS'1RA1'
p7222
(lp7223
(lp7224
I5470
aS'1'
aS'158'
p7225
aasS'3DGA'
p7226
(lp7227
(lp7228
I5470
aS'98'
p7229
aS'228'
p7230
aa(lp7231
I6270
aS'327'
p7232
aS'607'
p7233
aasS'1RA8'
p7234
(lp7235
(lp7236
I5470
aS'1'
aS'158'
p7237
aasS'1RA9'
p7238
(lp7239
(lp7240
I5470
aS'1'
aS'158'
p7241
aasS'2YKR'
p7242
(lp7243
(lp7244
I143
aS'8'
aS'223'
p7245
aa(lp7246
I145
aS'2'
aS'94'
p7247
aa(lp7248
I147
aS'10'
p7249
aS'73'
p7250
aa(lp7251
I148
aS'3'
aS'91'
p7252
aa(lp7253
I632
aS'100'
p7254
aS'276'
p7255
aa(lp7256
I2446
aS'119'
p7257
aS'201'
p7258
aa(lp7259
I2835
aS'96'
p7260
aS'142'
p7261
aa(lp7262
I3544
aS'2'
aS'107'
p7263
aa(lp7264
I3545
aS'7'
aS'100'
p7265
aa(lp7266
I3547
aS'8'
aS'68'
p7267
aa(lp7268
I3548
aS'9'
aS'75'
p7269
aa(lp7270
I3549
aS'46'
p7271
aS'99'
p7272
aa(lp7273
I3550
aS'8'
aS'87'
p7274
aa(lp7275
I3553
aS'19'
p7276
aS'67'
p7277
aa(lp7278
I3809
aS'86'
p7279
aS'156'
p7280
aa(lp7281
I5041
aS'4'
aS'128'
p7282
aa(lp7283
I5042
aS'9'
aS'129'
p7284
aa(lp7285
I5050
aS'1'
aS'148'
p7286
aa(lp7287
I5532
aS'5'
aS'122'
p7288
aa(lp7289
I6345
aS'37'
p7290
aS'110'
p7291
aa(lp7292
I6403
aS'18'
p7293
aS'127'
p7294
aa(lp7295
I6412
aS'2'
aS'79'
p7296
aa(lp7297
I7148
aS'2'
aS'83'
p7298
aa(lp7299
I7507
aS'3'
aS'52'
p7300
aasS'3IY8'
p7301
(lp7302
(lp7303
I147
aS'2'
aS'65'
p7304
aa(lp7305
I148
aS'3'
aS'91'
p7306
aa(lp7307
I3547
aS'8'
aS'68'
p7308
aa(lp7309
I3548
aS'7'
aS'73'
p7310
aa(lp7311
I3550
aS'8'
aS'87'
p7312
aa(lp7313
I3553
aS'1'
aS'49'
p7314
aa(lp7315
I3809
aS'78'
p7316
aS'148'
p7317
aa(lp7318
I5041
aS'4'
aS'128'
p7319
aa(lp7320
I5042
aS'7'
aS'127'
p7321
aa(lp7322
I5532
aS'5'
aS'122'
p7323
aa(lp7324
I6403
aS'7'
aS'116'
p7325
aasS'3QYO'
p7326
(lp7327
(lp7328
I5470
aS'1'
aS'158'
p7329
aasS'3QYL'
p7330
(lp7331
(lp7332
I5470
aS'1'
aS'158'
p7333
aasS'3DG8'
p7334
(lp7335
(lp7336
I5470
aS'98'
p7337
aS'228'
p7338
aa(lp7339
I6270
aS'327'
p7340
aS'607'
p7341
aasS'3CSE'
p7342
(lp7343
(lp7344
I5470
aS'8'
aS'155'
p7345
aasS'3TQB'
p7346
(lp7347
(lp7348
I5470
aS'3'
aS'160'
p7349
aasS'3TQA'
p7350
(lp7351
(lp7352
I5470
aS'3'
aS'160'
p7353
aasS'4B3T'
p7354
(lp7355
(lp7356
I143
aS'4'
aS'217'
p7357
aa(lp7358
I145
aS'2'
aS'97'
p7359
aa(lp7360
I147
aS'2'
aS'66'
p7361
aa(lp7362
I148
aS'3'
aS'92'
p7363
aa(lp7364
I2446
aS'119'
p7365
aS'201'
p7366
aa(lp7367
I2835
aS'99'
p7368
aS'145'
p7369
aa(lp7370
I2994
aS'2'
aS'26'
p7371
aa(lp7372
I3544
aS'2'
aS'108'
p7373
aa(lp7374
I3545
aS'3'
aS'97'
p7375
aa(lp7376
I3547
aS'8'
aS'67'
p7377
aa(lp7378
I3548
aS'7'
aS'73'
p7379
aa(lp7380
I3549
aS'8'
aS'59'
p7381
aa(lp7382
I3550
aS'7'
aS'87'
p7383
aa(lp7384
I3553
aS'18'
p7385
aS'64'
p7386
aa(lp7387
I3809
aS'78'
p7388
aS'148'
p7389
aa(lp7390
I5041
aS'4'
aS'138'
p7391
aa(lp7392
I5042
aS'7'
aS'127'
p7393
aa(lp7394
I5050
aS'2'
aS'148'
p7395
aa(lp7396
I5532
aS'2'
aS'122'
p7397
aa(lp7398
I6345
aS'38'
p7399
aS'109'
p7400
aa(lp7401
I6403
aS'7'
aS'116'
p7402
aa(lp7403
I6412
aS'2'
aS'81'
p7404
aa(lp7405
I7148
aS'4'
aS'81'
p7406
aasS'4B3S'
p7407
(lp7408
(lp7409
I143
aS'4'
aS'217'
p7410
aa(lp7411
I145
aS'2'
aS'97'
p7412
aa(lp7413
I147
aS'2'
aS'66'
p7414
aa(lp7415
I148
aS'3'
aS'92'
p7416
aa(lp7417
I2446
aS'119'
p7418
aS'201'
p7419
aa(lp7420
I2835
aS'99'
p7421
aS'145'
p7422
aa(lp7423
I2994
aS'1'
aS'25'
p7424
aa(lp7425
I3544
aS'2'
aS'108'
p7426
aa(lp7427
I3545
aS'3'
aS'97'
p7428
aa(lp7429
I3547
aS'8'
aS'67'
p7430
aa(lp7431
I3548
aS'7'
aS'73'
p7432
aa(lp7433
I3549
aS'8'
aS'59'
p7434
aa(lp7435
I3550
aS'7'
aS'87'
p7436
aa(lp7437
I3553
aS'18'
p7438
aS'64'
p7439
aa(lp7440
I3809
aS'78'
p7441
aS'148'
p7442
aa(lp7443
I5041
aS'4'
aS'138'
p7444
aa(lp7445
I5042
aS'7'
aS'127'
p7446
aa(lp7447
I5050
aS'2'
aS'148'
p7448
aa(lp7449
I5532
aS'2'
aS'122'
p7450
aa(lp7451
I6345
aS'38'
p7452
aS'109'
p7453
aa(lp7454
I6403
aS'7'
aS'116'
p7455
aa(lp7456
I6412
aS'2'
aS'81'
p7457
aa(lp7458
I7148
aS'4'
aS'81'
p7459
aasS'1IBM'
p7460
(lp7461
(lp7462
I143
aS'10'
p7463
aS'223'
p7464
aa(lp7465
I145
aS'3'
aS'98'
p7466
aa(lp7467
I147
aS'6'
aS'70'
p7468
aa(lp7469
I148
aS'3'
aS'92'
p7470
aa(lp7471
I2446
aS'120'
p7472
aS'202'
p7473
aa(lp7474
I2835
aS'100'
p7475
aS'146'
p7476
aa(lp7477
I2994
aS'2'
aS'25'
p7478
aa(lp7479
I3544
aS'3'
aS'109'
p7480
aa(lp7481
I3545
aS'5'
aS'99'
p7482
aa(lp7483
I3547
aS'8'
aS'67'
p7484
aa(lp7485
I3548
aS'8'
aS'74'
p7486
aa(lp7487
I3549
aS'9'
aS'60'
p7488
aa(lp7489
I3550
aS'8'
aS'88'
p7490
aa(lp7491
I3553
aS'33'
p7492
aS'79'
p7493
aa(lp7494
I3809
aS'82'
p7495
aS'152'
p7496
aa(lp7497
I5041
aS'4'
aS'138'
p7498
aa(lp7499
I5042
aS'8'
aS'128'
p7500
aa(lp7501
I5050
aS'2'
aS'149'
p7502
aa(lp7503
I5532
aS'6'
aS'126'
p7504
aa(lp7505
I6345
aS'39'
p7506
aS'110'
p7507
aa(lp7508
I6403
aS'17'
p7509
aS'126'
p7510
aa(lp7511
I6412
aS'3'
aS'83'
p7512
aa(lp7513
I7148
aS'11'
p7514
aS'88'
p7515
aasS'4B3M'
p7516
(lp7517
(lp7518
I143
aS'4'
aS'217'
p7519
aa(lp7520
I145
aS'2'
aS'97'
p7521
aa(lp7522
I147
aS'2'
aS'66'
p7523
aa(lp7524
I148
aS'3'
aS'92'
p7525
aa(lp7526
I2446
aS'119'
p7527
aS'201'
p7528
aa(lp7529
I2835
aS'99'
p7530
aS'145'
p7531
aa(lp7532
I2994
aS'2'
aS'26'
p7533
aa(lp7534
I3544
aS'2'
aS'108'
p7535
aa(lp7536
I3545
aS'3'
aS'97'
p7537
aa(lp7538
I3547
aS'8'
aS'67'
p7539
aa(lp7540
I3548
aS'7'
aS'73'
p7541
aa(lp7542
I3549
aS'8'
aS'59'
p7543
aa(lp7544
I3550
aS'7'
aS'87'
p7545
aa(lp7546
I3553
aS'18'
p7547
aS'64'
p7548
aa(lp7549
I3809
aS'78'
p7550
aS'148'
p7551
aa(lp7552
I5041
aS'4'
aS'138'
p7553
aa(lp7554
I5042
aS'7'
aS'127'
p7555
aa(lp7556
I5050
aS'2'
aS'148'
p7557
aa(lp7558
I5532
aS'2'
aS'122'
p7559
aa(lp7560
I6345
aS'38'
p7561
aS'109'
p7562
aa(lp7563
I6403
aS'7'
aS'116'
p7564
aa(lp7565
I6412
aS'2'
aS'81'
p7566
aa(lp7567
I7148
aS'4'
aS'81'
p7568
aasS'1DRF'
p7569
(lp7570
(lp7571
I5470
aS'4'
aS'184'
p7572
aasS'4OSG'
p7573
(lp7574
(lp7575
I5470
aS'1'
aS'158'
p7576
aasS'1S3Y'
p7577
(lp7578
(lp7579
I5470
aS'7'
aS'177'
p7580
aasS'1JOM'
p7581
(lp7582
(lp7583
I5470
aS'1'
aS'158'
p7584
aasS'1S3U'
p7585
(lp7586
(lp7587
I5470
aS'4'
aS'184'
p7588
aasS'1S3W'
p7589
(lp7590
(lp7591
I5470
aS'4'
aS'184'
p7592
aasS'3JVX'
p7593
(lp7594
(lp7595
I5470
aS'3'
aS'160'
p7596
aasS'4ELB'
p7597
(lp7598
(lp7599
I5470
aS'3'
aS'160'
p7600
aasS'4ELE'
p7601
(lp7602
(lp7603
I5470
aS'3'
aS'160'
p7604
aasS'4ELG'
p7605
(lp7606
(lp7607
I5470
aS'3'
aS'160'
p7608
aasS'1AO8'
p7609
(lp7610
(lp7611
I5470
aS'3'
aS'160'
p7612
aasS'4ELH'
p7613
(lp7614
(lp7615
I5470
aS'3'
aS'160'
p7616
aasS'1RX5'
p7617
(lp7618
(lp7619
I5470
aS'1'
aS'158'
p7620
aasS'1RX4'
p7621
(lp7622
(lp7623
I5470
aS'1'
aS'158'
p7624
aasS'1RX7'
p7625
(lp7626
(lp7627
I5470
aS'1'
aS'158'
p7628
aasS'1RX6'
p7629
(lp7630
(lp7631
I5470
aS'1'
aS'158'
p7632
aasS'1RX1'
p7633
(lp7634
(lp7635
I5470
aS'1'
aS'158'
p7636
aasS'1RX3'
p7637
(lp7638
(lp7639
I5470
aS'1'
aS'158'
p7640
aasS'1RX2'
p7641
(lp7642
(lp7643
I5470
aS'1'
aS'158'
p7644
aasS'2DRC'
p7645
(lp7646
(lp7647
I5470
aS'1'
aS'158'
p7648
aasS'1RX9'
p7649
(lp7650
(lp7651
I5470
aS'1'
aS'158'
p7652
aasS'1RX8'
p7653
(lp7654
(lp7655
I5470
aS'1'
aS'158'
p7656
aasS'4PDJ'
p7657
(lp7658
(lp7659
I5470
aS'1'
aS'158'
p7660
aasS'2FZJ'
p7661
(lp7662
(lp7663
I5470
aS'4'
aS'184'
p7664
aasS'2FZH'
p7665
(lp7666
(lp7667
I5470
aS'7'
aS'177'
p7668
aa(lp7669
I5470
aS'7'
aS'177'
p7670
aasS'2FZI'
p7671
(lp7672
(lp7673
I5470
aS'7'
aS'177'
p7674
aasS'3RO9'
p7675
(lp7676
(lp7677
I5470
aS'8'
aS'155'
p7678
aasS'1KLK'
p7679
(lp7680
(lp7681
I5470
aS'7'
aS'177'
p7682
aasS'3T1H'
p7683
(lp7684
(lp7685
I143
aS'10'
p7686
aS'223'
p7687
aa(lp7688
I145
aS'3'
aS'98'
p7689
aa(lp7690
I147
aS'6'
aS'70'
p7691
aa(lp7692
I148
aS'3'
aS'92'
p7693
aa(lp7694
I2446
aS'120'
p7695
aS'202'
p7696
aa(lp7697
I2835
aS'100'
p7698
aS'146'
p7699
aa(lp7700
I2994
aS'2'
aS'25'
p7701
aa(lp7702
I3544
aS'3'
aS'109'
p7703
aa(lp7704
I3545
aS'5'
aS'99'
p7705
aa(lp7706
I3547
aS'8'
aS'67'
p7707
aa(lp7708
I3548
aS'8'
aS'74'
p7709
aa(lp7710
I3549
aS'9'
aS'60'
p7711
aa(lp7712
I3550
aS'8'
aS'88'
p7713
aa(lp7714
I3553
aS'33'
p7715
aS'79'
p7716
aa(lp7717
I3809
aS'82'
p7718
aS'152'
p7719
aa(lp7720
I5041
aS'4'
aS'138'
p7721
aa(lp7722
I5042
aS'8'
aS'128'
p7723
aa(lp7724
I5050
aS'2'
aS'149'
p7725
aa(lp7726
I5532
aS'6'
aS'126'
p7727
aa(lp7728
I6345
aS'39'
p7729
aS'110'
p7730
aa(lp7731
I6403
aS'17'
p7732
aS'126'
p7733
aa(lp7734
I6412
aS'3'
aS'81'
p7735
aa(lp7736
I7148
aS'11'
p7737
aS'88'
p7738
aasS'3ROA'
p7739
(lp7740
(lp7741
I5470
aS'8'
aS'155'
p7742
aasS'3T1Y'
p7743
(lp7744
(lp7745
I143
aS'10'
p7746
aS'223'
p7747
aa(lp7748
I145
aS'3'
aS'98'
p7749
aa(lp7750
I147
aS'6'
aS'70'
p7751
aa(lp7752
I148
aS'3'
aS'92'
p7753
aa(lp7754
I2446
aS'120'
p7755
aS'202'
p7756
aa(lp7757
I2835
aS'100'
p7758
aS'146'
p7759
aa(lp7760
I2994
aS'2'
aS'25'
p7761
aa(lp7762
I3544
aS'3'
aS'109'
p7763
aa(lp7764
I3545
aS'5'
aS'99'
p7765
aa(lp7766
I3547
aS'8'
aS'67'
p7767
aa(lp7768
I3548
aS'8'
aS'74'
p7769
aa(lp7770
I3549
aS'9'
aS'60'
p7771
aa(lp7772
I3550
aS'8'
aS'88'
p7773
aa(lp7774
I3553
aS'33'
p7775
aS'79'
p7776
aa(lp7777
I3809
aS'82'
p7778
aS'152'
p7779
aa(lp7780
I5041
aS'4'
aS'138'
p7781
aa(lp7782
I5042
aS'8'
aS'128'
p7783
aa(lp7784
I5050
aS'2'
aS'149'
p7785
aa(lp7786
I5532
aS'6'
aS'126'
p7787
aa(lp7788
I6345
aS'39'
p7789
aS'110'
p7790
aa(lp7791
I6403
aS'17'
p7792
aS'126'
p7793
aa(lp7794
I6412
aS'3'
aS'81'
p7795
aa(lp7796
I7148
aS'11'
p7797
aS'88'
p7798
aasS'2W9H'
p7799
(lp7800
(lp7801
I5470
aS'2'
aS'156'
p7802
aasS'1AOE'
p7803
(lp7804
(lp7805
I5470
aS'9'
aS'164'
p7806
aasS'3IRN'
p7807
(lp7808
(lp7809
I5470
aS'23'
p7810
aS'191'
p7811
aa(lp7812
I6270
aS'238'
p7813
aS'516'
p7814
aasS'3IRO'
p7815
(lp7816
(lp7817
I5470
aS'23'
p7818
aS'191'
p7819
aa(lp7820
I6270
aS'238'
p7821
aS'518'
p7822
aasS'3IRM'
p7823
(lp7824
(lp7825
I5470
aS'23'
p7826
aS'191'
p7827
aa(lp7828
I6270
aS'238'
p7829
aS'520'
p7830
aasS'4QI9'
p7831
(lp7832
(lp7833
I5470
aS'3'
aS'159'
p7834
aasS'2W9S'
p7835
(lp7836
(lp7837
I5470
aS'2'
aS'156'
p7838
aasS'2W9T'
p7839
(lp7840
(lp7841
I5470
aS'2'
aS'156'
p7842
aasS'4GKJ'
p7843
(lp7844
(lp7845
I143
aS'10'
p7846
aS'223'
p7847
aa(lp7848
I145
aS'3'
aS'98'
p7849
aa(lp7850
I147
aS'6'
aS'70'
p7851
aa(lp7852
I148
aS'3'
aS'92'
p7853
aa(lp7854
I2446
aS'120'
p7855
aS'202'
p7856
aa(lp7857
I2835
aS'100'
p7858
aS'146'
p7859
aa(lp7860
I2994
aS'2'
aS'25'
p7861
aa(lp7862
I3544
aS'3'
aS'109'
p7863
aa(lp7864
I3545
aS'5'
aS'99'
p7865
aa(lp7866
I3547
aS'8'
aS'67'
p7867
aa(lp7868
I3548
aS'8'
aS'74'
p7869
aa(lp7870
I3549
aS'9'
aS'60'
p7871
aa(lp7872
I3550
aS'8'
aS'88'
p7873
aa(lp7874
I3553
aS'33'
p7875
aS'79'
p7876
aa(lp7877
I3809
aS'82'
p7878
aS'152'
p7879
aa(lp7880
I5041
aS'4'
aS'138'
p7881
aa(lp7882
I5042
aS'8'
aS'128'
p7883
aa(lp7884
I5050
aS'3'
aS'149'
p7885
aa(lp7886
I5532
aS'6'
aS'126'
p7887
aa(lp7888
I6345
aS'39'
p7889
aS'110'
p7890
aa(lp7891
I6403
aS'17'
p7892
aS'126'
p7893
aa(lp7894
I6412
aS'3'
aS'80'
p7895
aa(lp7896
I7148
aS'11'
p7897
aS'88'
p7898
aasS'4GKK'
p7899
(lp7900
(lp7901
I143
aS'10'
p7902
aS'223'
p7903
aa(lp7904
I145
aS'3'
aS'98'
p7905
aa(lp7906
I147
aS'6'
aS'70'
p7907
aa(lp7908
I148
aS'3'
aS'92'
p7909
aa(lp7910
I2446
aS'120'
p7911
aS'202'
p7912
aa(lp7913
I2835
aS'100'
p7914
aS'146'
p7915
aa(lp7916
I2994
aS'2'
aS'25'
p7917
aa(lp7918
I3544
aS'3'
aS'109'
p7919
aa(lp7920
I3545
aS'5'
aS'99'
p7921
aa(lp7922
I3547
aS'8'
aS'67'
p7923
aa(lp7924
I3548
aS'8'
aS'74'
p7925
aa(lp7926
I3549
aS'9'
aS'60'
p7927
aa(lp7928
I3550
aS'8'
aS'88'
p7929
aa(lp7930
I3553
aS'33'
p7931
aS'79'
p7932
aa(lp7933
I3809
aS'82'
p7934
aS'152'
p7935
aa(lp7936
I5041
aS'4'
aS'138'
p7937
aa(lp7938
I5042
aS'8'
aS'128'
p7939
aa(lp7940
I5050
aS'3'
aS'149'
p7941
aa(lp7942
I5532
aS'6'
aS'126'
p7943
aa(lp7944
I6345
aS'39'
p7945
aS'110'
p7946
aa(lp7947
I6403
aS'17'
p7948
aS'126'
p7949
aa(lp7950
I6412
aS'3'
aS'80'
p7951
aa(lp7952
I7148
aS'11'
p7953
aS'88'
p7954
aasS'3QLZ'
p7955
(lp7956
(lp7957
I5470
aS'8'
aS'155'
p7958
aasS'1CZ3'
p7959
(lp7960
(lp7961
I5470
aS'4'
aS'122'
p7962
aasS'6DFR'
p7963
(lp7964
(lp7965
I5470
aS'1'
aS'158'
p7966
aasS'4QLG'
p7967
(lp7968
(lp7969
I5470
aS'1'
aS'158'
p7970
aasS'2W9G'
p7971
(lp7972
(lp7973
I5470
aS'2'
aS'156'
p7974
aasS'1HFQ'
p7975
(lp7976
(lp7977
I5470
aS'4'
aS'184'
p7978
aasS'1HFP'
p7979
(lp7980
(lp7981
I5470
aS'4'
aS'184'
p7982
aasS'1HFR'
p7983
(lp7984
(lp7985
I5470
aS'4'
aS'184'
p7986
aasS'1XNQ'
p7987
(lp7988
(lp7989
I143
aS'10'
p7990
aS'223'
p7991
aa(lp7992
I145
aS'3'
aS'98'
p7993
aa(lp7994
I147
aS'6'
aS'70'
p7995
aa(lp7996
I148
aS'3'
aS'92'
p7997
aa(lp7998
I2446
aS'120'
p7999
aS'202'
p8000
aa(lp8001
I2835
aS'100'
p8002
aS'146'
p8003
aa(lp8004
I2994
aS'2'
aS'25'
p8005
aa(lp8006
I3544
aS'3'
aS'109'
p8007
aa(lp8008
I3545
aS'5'
aS'99'
p8009
aa(lp8010
I3547
aS'8'
aS'67'
p8011
aa(lp8012
I3548
aS'8'
aS'74'
p8013
aa(lp8014
I3549
aS'9'
aS'60'
p8015
aa(lp8016
I3550
aS'8'
aS'88'
p8017
aa(lp8018
I3553
aS'33'
p8019
aS'79'
p8020
aa(lp8021
I3809
aS'82'
p8022
aS'152'
p8023
aa(lp8024
I5041
aS'4'
aS'138'
p8025
aa(lp8026
I5042
aS'8'
aS'128'
p8027
aa(lp8028
I5050
aS'2'
aS'149'
p8029
aa(lp8030
I5532
aS'6'
aS'126'
p8031
aa(lp8032
I6345
aS'39'
p8033
aS'110'
p8034
aa(lp8035
I6403
aS'17'
p8036
aS'126'
p8037
aa(lp8038
I6412
aS'3'
aS'81'
p8039
aa(lp8040
I7148
aS'11'
p8041
aS'88'
p8042
aasS'3M09'
p8043
(lp8044
(lp8045
I5470
aS'2'
aS'156'
p8046
aasS'1XNR'
p8047
(lp8048
(lp8049
I143
aS'10'
p8050
aS'223'
p8051
aa(lp8052
I145
aS'3'
aS'98'
p8053
aa(lp8054
I147
aS'6'
aS'70'
p8055
aa(lp8056
I148
aS'3'
aS'92'
p8057
aa(lp8058
I2446
aS'120'
p8059
aS'202'
p8060
aa(lp8061
I2835
aS'100'
p8062
aS'146'
p8063
aa(lp8064
I2994
aS'2'
aS'25'
p8065
aa(lp8066
I3544
aS'3'
aS'109'
p8067
aa(lp8068
I3547
aS'8'
aS'67'
p8069
aa(lp8070
I3548
aS'8'
aS'74'
p8071
aa(lp8072
I3549
aS'9'
aS'60'
p8073
aa(lp8074
I3550
aS'8'
aS'88'
p8075
aa(lp8076
I3553
aS'33'
p8077
aS'79'
p8078
aa(lp8079
I3809
aS'82'
p8080
aS'152'
p8081
aa(lp8082
I5041
aS'4'
aS'138'
p8083
aa(lp8084
I5042
aS'8'
aS'128'
p8085
aa(lp8086
I5050
aS'2'
aS'149'
p8087
aa(lp8088
I5532
aS'6'
aS'126'
p8089
aa(lp8090
I6345
aS'39'
p8091
aS'110'
p8092
aa(lp8093
I6403
aS'17'
p8094
aS'126'
p8095
aa(lp8096
I6412
aS'3'
aS'81'
p8097
aa(lp8098
I7148
aS'11'
p8099
aS'88'
p8100
aasS'1RE7'
p8101
(lp8102
(lp8103
I5470
aS'1'
aS'158'
p8104
aasS'3F8Z'
p8105
(lp8106
(lp8107
I5470
aS'4'
aS'184'
p8108
aasS'4NX6'
p8109
(lp8110
(lp8111
I5470
aS'1'
aS'158'
p8112
aasS'4NX7'
p8113
(lp8114
(lp8115
I5470
aS'1'
aS'158'
p8116
aasS'1DF7'
p8117
(lp8118
(lp8119
I5470
aS'1'
aS'156'
p8120
aasS'4NXN'
p8121
(lp8122
(lp8123
I143
aS'10'
p8124
aS'223'
p8125
aa(lp8126
I145
aS'3'
aS'98'
p8127
aa(lp8128
I147
aS'6'
aS'70'
p8129
aa(lp8130
I148
aS'3'
aS'92'
p8131
aa(lp8132
I2446
aS'120'
p8133
aS'202'
p8134
aa(lp8135
I2835
aS'100'
p8136
aS'146'
p8137
aa(lp8138
I2994
aS'2'
aS'25'
p8139
aa(lp8140
I3544
aS'3'
aS'109'
p8141
aa(lp8142
I3545
aS'5'
aS'99'
p8143
aa(lp8144
I3547
aS'8'
aS'67'
p8145
aa(lp8146
I3548
aS'8'
aS'74'
p8147
aa(lp8148
I3549
aS'9'
aS'60'
p8149
aa(lp8150
I3550
aS'8'
aS'88'
p8151
aa(lp8152
I3553
aS'33'
p8153
aS'79'
p8154
aa(lp8155
I3809
aS'82'
p8156
aS'152'
p8157
aa(lp8158
I5041
aS'4'
aS'138'
p8159
aa(lp8160
I5042
aS'8'
aS'128'
p8161
aa(lp8162
I5050
aS'2'
aS'149'
p8163
aa(lp8164
I5532
aS'6'
aS'126'
p8165
aa(lp8166
I6345
aS'39'
p8167
aS'110'
p8168
aa(lp8169
I6403
aS'17'
p8170
aS'126'
p8171
aa(lp8172
I6412
aS'3'
aS'81'
p8173
aa(lp8174
I7148
aS'11'
p8175
aS'88'
p8176
aasS'4NXM'
p8177
(lp8178
(lp8179
I143
aS'10'
p8180
aS'223'
p8181
aa(lp8182
I145
aS'3'
aS'98'
p8183
aa(lp8184
I147
aS'6'
aS'70'
p8185
aa(lp8186
I148
aS'3'
aS'92'
p8187
aa(lp8188
I2446
aS'120'
p8189
aS'202'
p8190
aa(lp8191
I2835
aS'100'
p8192
aS'146'
p8193
aa(lp8194
I2994
aS'2'
aS'25'
p8195
aa(lp8196
I3544
aS'3'
aS'109'
p8197
aa(lp8198
I3545
aS'5'
aS'99'
p8199
aa(lp8200
I3547
aS'8'
aS'67'
p8201
aa(lp8202
I3548
aS'8'
aS'74'
p8203
aa(lp8204
I3550
aS'8'
aS'88'
p8205
aa(lp8206
I3553
aS'33'
p8207
aS'79'
p8208
aa(lp8209
I3809
aS'82'
p8210
aS'152'
p8211
aa(lp8212
I5041
aS'4'
aS'138'
p8213
aa(lp8214
I5042
aS'8'
aS'128'
p8215
aa(lp8216
I5050
aS'2'
aS'149'
p8217
aa(lp8218
I5532
aS'6'
aS'126'
p8219
aa(lp8220
I6345
aS'39'
p8221
aS'110'
p8222
aa(lp8223
I6403
aS'17'
p8224
aS'126'
p8225
aa(lp8226
I6412
aS'3'
aS'81'
p8227
aa(lp8228
I7148
aS'11'
p8229
aS'88'
p8230
aasS'3FS6'
p8231
(lp8232
(lp8233
I5470
aS'4'
aS'184'
p8234
aasS'3DL6'
p8235
(lp8236
(lp8237
I5470
aS'9'
aS'176'
p8238
aa(lp8239
I6270
aS'239'
p8240
aS'521'
p8241
aasS'3SA1'
p8242
(lp8243
(lp8244
I5470
aS'3'
aS'160'
p8245
aasS'3SA2'
p8246
(lp8247
(lp8248
I5470
aS'3'
aS'160'
p8249
aasS'3INV'
p8250
(lp8251
(lp8252
I5470
aS'23'
p8253
aS'191'
p8254
aa(lp8255
I6270
aS'238'
p8256
aS'515'
p8257
aasS'1LY3'
p8258
(lp8259
(lp8260
I5470
aS'7'
aS'177'
p8261
aasS'1LY4'
p8262
(lp8263
(lp8264
I5470
aS'7'
aS'177'
p8265
aasS'4V85'
p8266
(lp8267
(lp8268
I143
aS'8'
aS'223'
p8269
aa(lp8270
I145
aS'2'
aS'94'
p8271
aa(lp8272
I147
aS'10'
p8273
aS'73'
p8274
aa(lp8275
I148
aS'3'
aS'91'
p8276
aa(lp8277
I1339
aS'3'
aS'30'
p8278
aa(lp8279
I1731
aS'20'
p8280
aS'116'
p8281
aa(lp8282
I1732
aS'4'
aS'131'
p8283
aa(lp8284
I1733
aS'71'
p8285
aS'139'
p8286
aa(lp8287
I1734
aS'5'
aS'101'
p8288
aa(lp8289
I1735
aS'15'
p8290
aS'138'
p8291
aa(lp8292
I1739
aS'2'
aS'112'
p8293
aa(lp8294
I1787
aS'83'
p8295
aS'176'
p8296
aa(lp8297
I2019
aS'6'
aS'52'
p8298
aa(lp8299
I2021
aS'4'
aS'53'
p8300
aa(lp8301
I2023
aS'1'
aS'38'
p8302
aa(lp8303
I2024
aS'1'
aS'44'
p8304
aa(lp8305
I2417
aS'7'
aS'36'
p8306
aa(lp8307
I2446
aS'119'
p8308
aS'201'
p8309
aa(lp8310
I2767
aS'4'
aS'91'
p8311
aa(lp8312
I2772
aS'10'
p8313
aS'81'
p8314
aa(lp8315
I2772
aS'89'
p8316
aS'163'
p8317
aa(lp8318
I2835
aS'96'
p8319
aS'142'
p8320
aa(lp8321
I3071
aS'1'
aS'122'
p8322
aa(lp8323
I3544
aS'2'
aS'107'
p8324
aa(lp8325
I3545
aS'7'
aS'100'
p8326
aa(lp8327
I3547
aS'8'
aS'68'
p8328
aa(lp8329
I3548
aS'9'
aS'75'
p8330
aa(lp8331
I3549
aS'46'
p8332
aS'99'
p8333
aa(lp8334
I3550
aS'8'
aS'87'
p8335
aa(lp8336
I3553
aS'19'
p8337
aS'67'
p8338
aa(lp8339
I3809
aS'86'
p8340
aS'156'
p8341
aa(lp8342
I4161
aS'2'
aS'117'
p8343
aa(lp8344
I4162
aS'28'
p8345
aS'143'
p8346
aa(lp8347
I4492
aS'1'
aS'59'
p8348
aa(lp8349
I4654
aS'314'
p8350
aS'380'
p8351
aa(lp8352
I5041
aS'4'
aS'128'
p8353
aa(lp8354
I5042
aS'9'
aS'129'
p8355
aa(lp8356
I5050
aS'1'
aS'148'
p8357
aa(lp8358
I5273
aS'124'
p8359
aS'248'
p8360
aa(lp8361
I5434
aS'1'
aS'56'
p8362
aa(lp8363
I5516
aS'23'
p8364
aS'79'
p8365
aa(lp8366
I5517
aS'13'
p8367
aS'198'
p8368
aa(lp8369
I5520
aS'27'
p8370
aS'182'
p8371
aa(lp8372
I5521
aS'41'
p8373
aS'116'
p8374
aa(lp8375
I5532
aS'5'
aS'122'
p8376
aa(lp8377
I5533
aS'6'
aS'81'
p8378
aa(lp8379
I5683
aS'8'
aS'66'
p8380
aa(lp8381
I5991
aS'2'
aS'61'
p8382
aa(lp8383
I5992
aS'4'
aS'60'
p8384
aa(lp8385
I5995
aS'2'
aS'108'
p8386
aa(lp8387
I5996
aS'5'
aS'108'
p8388
aa(lp8389
I5997
aS'9'
aS'93'
p8390
aa(lp8391
I6226
aS'13'
p8392
aS'277'
p8393
aa(lp8394
I6228
aS'1'
aS'96'
p8395
aa(lp8396
I6345
aS'37'
p8397
aS'110'
p8398
aa(lp8399
I6403
aS'18'
p8400
aS'127'
p8401
aa(lp8402
I6412
aS'2'
aS'80'
p8403
aa(lp8404
I6965
aS'387'
p8405
aS'514'
p8406
aa(lp8407
I7148
aS'2'
aS'83'
p8408
aa(lp8409
I7507
aS'3'
aS'53'
p8410
aasS'4G95'
p8411
(lp8412
(lp8413
I5470
aS'4'
aS'184'
p8414
aasS'4V89'
p8415
(lp8416
(lp8417
I143
aS'8'
aS'223'
p8418
aa(lp8419
I145
aS'2'
aS'94'
p8420
aa(lp8421
I147
aS'10'
p8422
aS'73'
p8423
aa(lp8424
I148
aS'3'
aS'91'
p8425
aa(lp8426
I1339
aS'3'
aS'30'
p8427
aa(lp8428
I1731
aS'20'
p8429
aS'116'
p8430
aa(lp8431
I1732
aS'4'
aS'131'
p8432
aa(lp8433
I1733
aS'71'
p8434
aS'139'
p8435
aa(lp8436
I1734
aS'5'
aS'101'
p8437
aa(lp8438
I1735
aS'15'
p8439
aS'138'
p8440
aa(lp8441
I1739
aS'2'
aS'112'
p8442
aa(lp8443
I1787
aS'83'
p8444
aS'176'
p8445
aa(lp8446
I2019
aS'6'
aS'52'
p8447
aa(lp8448
I2021
aS'4'
aS'53'
p8449
aa(lp8450
I2023
aS'1'
aS'38'
p8451
aa(lp8452
I2024
aS'1'
aS'44'
p8453
aa(lp8454
I2417
aS'7'
aS'36'
p8455
aa(lp8456
I2446
aS'119'
p8457
aS'201'
p8458
aa(lp8459
I2767
aS'4'
aS'91'
p8460
aa(lp8461
I2772
aS'10'
p8462
aS'81'
p8463
aa(lp8464
I2772
aS'89'
p8465
aS'163'
p8466
aa(lp8467
I2835
aS'96'
p8468
aS'142'
p8469
aa(lp8470
I3071
aS'1'
aS'122'
p8471
aa(lp8472
I3544
aS'2'
aS'107'
p8473
aa(lp8474
I3545
aS'7'
aS'100'
p8475
aa(lp8476
I3547
aS'8'
aS'68'
p8477
aa(lp8478
I3548
aS'9'
aS'75'
p8479
aa(lp8480
I3549
aS'46'
p8481
aS'99'
p8482
aa(lp8483
I3550
aS'8'
aS'87'
p8484
aa(lp8485
I3553
aS'19'
p8486
aS'67'
p8487
aa(lp8488
I3809
aS'86'
p8489
aS'156'
p8490
aa(lp8491
I4161
aS'2'
aS'117'
p8492
aa(lp8493
I4162
aS'28'
p8494
aS'143'
p8495
aa(lp8496
I4492
aS'1'
aS'59'
p8497
aa(lp8498
I4654
aS'314'
p8499
aS'380'
p8500
aa(lp8501
I5041
aS'4'
aS'128'
p8502
aa(lp8503
I5042
aS'9'
aS'129'
p8504
aa(lp8505
I5050
aS'1'
aS'148'
p8506
aa(lp8507
I5273
aS'124'
p8508
aS'248'
p8509
aa(lp8510
I5434
aS'1'
aS'56'
p8511
aa(lp8512
I5516
aS'23'
p8513
aS'79'
p8514
aa(lp8515
I5517
aS'13'
p8516
aS'198'
p8517
aa(lp8518
I5520
aS'27'
p8519
aS'182'
p8520
aa(lp8521
I5521
aS'41'
p8522
aS'116'
p8523
aa(lp8524
I5532
aS'5'
aS'122'
p8525
aa(lp8526
I5533
aS'6'
aS'81'
p8527
aa(lp8528
I5683
aS'8'
aS'66'
p8529
aa(lp8530
I5991
aS'2'
aS'61'
p8531
aa(lp8532
I5992
aS'4'
aS'60'
p8533
aa(lp8534
I5995
aS'2'
aS'108'
p8535
aa(lp8536
I5996
aS'5'
aS'108'
p8537
aa(lp8538
I5997
aS'9'
aS'93'
p8539
aa(lp8540
I6226
aS'13'
p8541
aS'277'
p8542
aa(lp8543
I6228
aS'1'
aS'96'
p8544
aa(lp8545
I6345
aS'37'
p8546
aS'110'
p8547
aa(lp8548
I6403
aS'18'
p8549
aS'127'
p8550
aa(lp8551
I6412
aS'2'
aS'80'
p8552
aa(lp8553
I6965
aS'387'
p8554
aS'514'
p8555
aa(lp8556
I7148
aS'2'
aS'83'
p8557
aa(lp8558
I7507
aS'3'
aS'53'
p8559
aasS'3F91'
p8560
(lp8561
(lp8562
I5470
aS'4'
aS'184'
p8563
aasS'4HOE'
p8564
(lp8565
(lp8566
I5470
aS'9'
aS'164'
p8567
aasS'1U72'
p8568
(lp8569
(lp8570
I5470
aS'4'
aS'184'
p8571
aasS'3NZC'
p8572
(lp8573
(lp8574
I5470
aS'7'
aS'177'
p8575
aasS'1OHK'
p8576
(lp8577
(lp8578
I5470
aS'4'
aS'184'
p8579
aasS'3NZD'
p8580
(lp8581
(lp8582
I5470
aS'4'
aS'184'
p8583
aasS'3I3R'
p8584
(lp8585
(lp8586
I5470
aS'11'
p8587
aS'186'
p8588
aa(lp8589
I6270
aS'230'
p8590
aS'510'
p8591
aasS'2BL9'
p8592
(lp8593
(lp8594
I5470
aS'108'
p8595
aS'236'
p8596
aasS'2C2S'
p8597
(lp8598
(lp8599
I5470
aS'4'
aS'184'
p8600
aasS'3J81'
p8601
(lp8602
(lp8603
I82
aS'32'
p8604
aS'94'
p8605
aa(lp8606
I125
aS'24'
p8607
aS'102'
p8608
aa(lp8609
I143
aS'17'
p8610
aS'112'
p8611
aa(lp8612
I143
aS'116'
p8613
aS'181'
p8614
aa(lp8615
I145
aS'8'
aS'61'
p8616
aa(lp8617
I147
aS'81'
p8618
aS'145'
p8619
aa(lp8620
I512
aS'2'
aS'60'
p8621
aa(lp8622
I625
aS'6'
aS'66'
p8623
aa(lp8624
I672
aS'2'
aS'185'
p8625
aa(lp8626
I1127
aS'212'
p8627
aS'258'
p8628
aa(lp8629
I2417
aS'178'
p8630
aS'211'
p8631
aa(lp8632
I2446
aS'107'
p8633
aS'188'
p8634
aa(lp8635
I2502
aS'3'
aS'39'
p8636
aa(lp8637
I2828
aS'429'
p8638
aS'517'
p8639
aa(lp8640
I2833
aS'14'
p8641
aS'88'
p8642
aa(lp8643
I2835
aS'107'
p8644
aS'151'
p8645
aa(lp8646
I2835
aS'43'
p8647
aS'90'
p8648
aa(lp8649
I3282
aS'10'
p8650
aS'186'
p8651
aa(lp8652
I3544
aS'16'
p8653
aS'144'
p8654
aa(lp8655
I3545
aS'23'
p8656
aS'116'
p8657
aa(lp8658
I3548
aS'73'
p8659
aS'141'
p8660
aa(lp8661
I3549
aS'7'
aS'56'
p8662
aa(lp8663
I3550
aS'74'
p8664
aS'147'
p8665
aa(lp8666
I3767
aS'19'
p8667
aS'221'
p8668
aa(lp8669
I3809
aS'165'
p8670
aS'235'
p8671
aa(lp8672
I3813
aS'8'
aS'60'
p8673
aa(lp8674
I4304
aS'8'
aS'71'
p8675
aa(lp8676
I4654
aS'339'
p8677
aS'417'
p8678
aa(lp8679
I4667
aS'5'
aS'140'
p8680
aa(lp8681
I4935
aS'2'
aS'116'
p8682
aa(lp8683
I5041
aS'6'
aS'130'
p8684
aa(lp8685
I5042
aS'11'
p8686
aS'143'
p8687
aa(lp8688
I5050
aS'85'
p8689
aS'227'
p8690
aa(lp8691
I5532
aS'11'
p8692
aS'144'
p8693
aa(lp8694
I5807
aS'1'
aS'80'
p8695
aa(lp8696
I6226
aS'100'
p8697
aS'303'
p8698
aa(lp8699
I6235
aS'1'
aS'25'
p8700
aa(lp8701
I6345
aS'20'
p8702
aS'92'
p8703
aa(lp8704
I6388
aS'3'
aS'92'
p8705
aa(lp8706
I6403
aS'15'
p8707
aS'133'
p8708
aa(lp8709
I6412
aS'47'
p8710
aS'128'
p8711
aa(lp8712
I6625
aS'20'
p8713
aS'113'
p8714
aa(lp8715
I6680
aS'95'
p8716
aS'169'
p8717
aa(lp8718
I6742
aS'23'
p8719
aS'98'
p8720
aa(lp8721
I6925
aS'1'
aS'126'
p8722
aa(lp8723
I7161
aS'36'
p8724
aS'104'
p8725
aa(lp8726
I7213
aS'12'
p8727
aS'46'
p8728
aa(lp8729
I7213
aS'57'
p8730
aS'94'
p8731
aa(lp8732
I7213
aS'104'
p8733
aS'136'
p8734
aa(lp8735
I7213
aS'139'
p8736
aS'187'
p8737
aa(lp8738
I7213
aS'198'
p8739
aS'231'
p8740
aa(lp8741
I7397
aS'28'
p8742
aS'82'
p8743
aa(lp8744
I7432
aS'2'
aS'98'
p8745
aa(lp8746
I7504
aS'102'
p8747
aS'145'
p8748
aa(lp8749
I7551
aS'126'
p8750
aS'237'
p8751
aasS'2C2T'
p8752
(lp8753
(lp8754
I5470
aS'4'
aS'184'
p8755
aasS'5CC9'
p8756
(lp8757
(lp8758
I5470
aS'1'
aS'158'
p8759
aasS'4DUY'
p8760
(lp8761
(lp8762
I143
aS'10'
p8763
aS'223'
p8764
aa(lp8765
I145
aS'3'
aS'98'
p8766
aa(lp8767
I147
aS'6'
aS'70'
p8768
aa(lp8769
I148
aS'3'
aS'92'
p8770
aa(lp8771
I2446
aS'120'
p8772
aS'202'
p8773
aa(lp8774
I2835
aS'100'
p8775
aS'146'
p8776
aa(lp8777
I2994
aS'2'
aS'25'
p8778
aa(lp8779
I3544
aS'3'
aS'109'
p8780
aa(lp8781
I3545
aS'5'
aS'99'
p8782
aa(lp8783
I3547
aS'8'
aS'67'
p8784
aa(lp8785
I3548
aS'8'
aS'74'
p8786
aa(lp8787
I3549
aS'9'
aS'60'
p8788
aa(lp8789
I3550
aS'8'
aS'88'
p8790
aa(lp8791
I3553
aS'33'
p8792
aS'79'
p8793
aa(lp8794
I3809
aS'82'
p8795
aS'152'
p8796
aa(lp8797
I5041
aS'4'
aS'138'
p8798
aa(lp8799
I5042
aS'8'
aS'128'
p8800
aa(lp8801
I5050
aS'2'
aS'149'
p8802
aa(lp8803
I5532
aS'6'
aS'126'
p8804
aa(lp8805
I6345
aS'39'
p8806
aS'110'
p8807
aa(lp8808
I6403
aS'17'
p8809
aS'126'
p8810
aa(lp8811
I6412
aS'3'
aS'81'
p8812
aa(lp8813
I7148
aS'11'
p8814
aS'88'
p8815
aasS'3K2H'
p8816
(lp8817
(lp8818
I5470
aS'11'
p8819
aS'186'
p8820
aa(lp8821
I6270
aS'230'
p8822
aS'510'
p8823
aasS'1SEJ'
p8824
(lp8825
(lp8826
I5470
aS'9'
aS'176'
p8827
aa(lp8828
I6270
aS'239'
p8829
aS'521'
p8830
aasS'5CCC'
p8831
(lp8832
(lp8833
I5470
aS'1'
aS'158'
p8834
aasS'4P66'
p8835
(lp8836
(lp8837
I5470
aS'1'
aS'158'
p8838
aasS'3QFX'
p8839
(lp8840
(lp8841
I5470
aS'29'
p8842
aS'172'
p8843
aasS'4P68'
p8844
(lp8845
(lp8846
I5470
aS'1'
aS'158'
p8847
aasS'4AQY'
p8848
(lp8849
(lp8850
I143
aS'10'
p8851
aS'223'
p8852
aa(lp8853
I145
aS'3'
aS'98'
p8854
aa(lp8855
I147
aS'6'
aS'70'
p8856
aa(lp8857
I148
aS'3'
aS'92'
p8858
aa(lp8859
I2446
aS'120'
p8860
aS'202'
p8861
aa(lp8862
I2835
aS'100'
p8863
aS'146'
p8864
aa(lp8865
I2994
aS'2'
aS'25'
p8866
aa(lp8867
I3544
aS'3'
aS'109'
p8868
aa(lp8869
I3545
aS'5'
aS'99'
p8870
aa(lp8871
I3547
aS'8'
aS'67'
p8872
aa(lp8873
I3548
aS'8'
aS'74'
p8874
aa(lp8875
I3549
aS'9'
aS'60'
p8876
aa(lp8877
I3550
aS'8'
aS'88'
p8878
aa(lp8879
I3553
aS'33'
p8880
aS'79'
p8881
aa(lp8882
I3809
aS'82'
p8883
aS'152'
p8884
aa(lp8885
I5041
aS'4'
aS'138'
p8886
aa(lp8887
I5042
aS'8'
aS'128'
p8888
aa(lp8889
I5050
aS'3'
aS'149'
p8890
aa(lp8891
I5532
aS'6'
aS'126'
p8892
aa(lp8893
I6345
aS'39'
p8894
aS'110'
p8895
aa(lp8896
I6403
aS'17'
p8897
aS'126'
p8898
aa(lp8899
I6412
aS'3'
aS'81'
p8900
aa(lp8901
I7148
aS'11'
p8902
aS'88'
p8903
aasS'8DFR'
p8904
(lp8905
(lp8906
I5470
aS'4'
aS'184'
p8907
aasS'2BLA'
p8908
(lp8909
(lp8910
I5470
aS'108'
p8911
aS'236'
p8912
aasS'2BLB'
p8913
(lp8914
(lp8915
I5470
aS'108'
p8916
aS'236'
p8917
aasS'2BLC'
p8918
(lp8919
(lp8920
I5470
aS'108'
p8921
aS'236'
p8922
aasS'1DYH'
p8923
(lp8924
(lp8925
I5470
aS'1'
aS'158'
p8926
aasS'1DYI'
p8927
(lp8928
(lp8929
I5470
aS'1'
aS'158'
p8930
aasS'1DYJ'
p8931
(lp8932
(lp8933
I5470
aS'1'
aS'158'
p8934
aasS'3HJ3'
p8935
(lp8936
(lp8937
I5470
aS'9'
aS'176'
p8938
aa(lp8939
I6270
aS'239'
p8940
aS'521'
p8941
aasS'3NZ9'
p8942
(lp8943
(lp8944
I5470
aS'7'
aS'177'
p8945
aasS'3SAI'
p8946
(lp8947
(lp8948
I5470
aS'3'
aS'160'
p8949
aa(lp8950
I5470
aS'3'
aS'160'
p8951
aasS'2LF1'
p8952
(lp8953
(lp8954
I5470
aS'3'
aS'160'
p8955
aasS'3NZ6'
p8956
(lp8957
(lp8958
I5470
aS'7'
aS'177'
p8959
aasS'3Q1H'
p8960
(lp8961
(lp8962
I5470
aS'3'
aS'159'
p8963
aasS'1VJ3'
p8964
(lp8965
(lp8966
I5470
aS'7'
aS'177'
p8967
aasS'4V8O'
p8968
(lp8969
(lp8970
I143
aS'10'
p8971
aS'223'
p8972
aa(lp8973
I145
aS'3'
aS'98'
p8974
aa(lp8975
I147
aS'6'
aS'70'
p8976
aa(lp8977
I148
aS'3'
aS'92'
p8978
aa(lp8979
I1731
aS'20'
p8980
aS'117'
p8981
aa(lp8982
I1732
aS'4'
aS'132'
p8983
aa(lp8984
I1735
aS'12'
p8985
aS'136'
p8986
aa(lp8987
I1739
aS'6'
aS'113'
p8988
aa(lp8989
I1787
aS'87'
p8990
aS'180'
p8991
aa(lp8992
I2019
aS'8'
aS'53'
p8993
aa(lp8994
I2020
aS'4'
aS'48'
p8995
aa(lp8996
I2021
aS'4'
aS'54'
p8997
aa(lp8998
I2023
aS'1'
aS'37'
p8999
aa(lp9000
I2024
aS'1'
aS'43'
p9001
aa(lp9002
I2417
aS'9'
aS'40'
p9003
aa(lp9004
I2446
aS'120'
p9005
aS'202'
p9006
aa(lp9007
I2767
aS'5'
aS'88'
p9008
aa(lp9009
I2772
aS'12'
p9010
aS'82'
p9011
aa(lp9012
I2772
aS'91'
p9013
aS'164'
p9014
aa(lp9015
I2835
aS'100'
p9016
aS'146'
p9017
aa(lp9018
I2994
aS'2'
aS'26'
p9019
aa(lp9020
I3071
aS'1'
aS'122'
p9021
aa(lp9022
I3544
aS'3'
aS'109'
p9023
aa(lp9024
I3545
aS'5'
aS'99'
p9025
aa(lp9026
I3547
aS'8'
aS'67'
p9027
aa(lp9028
I3548
aS'8'
aS'74'
p9029
aa(lp9030
I3549
aS'9'
aS'60'
p9031
aa(lp9032
I3550
aS'8'
aS'88'
p9033
aa(lp9034
I3553
aS'33'
p9035
aS'79'
p9036
aa(lp9037
I3809
aS'82'
p9038
aS'152'
p9039
aa(lp9040
I4161
aS'11'
p9041
aS'109'
p9042
aa(lp9043
I4162
aS'27'
p9044
aS'145'
p9045
aa(lp9046
I4492
aS'2'
aS'62'
p9047
aa(lp9048
I4654
aS'314'
p9049
aS'380'
p9050
aa(lp9051
I4903
aS'95'
p9052
aS'177'
p9053
aa(lp9054
I5041
aS'4'
aS'138'
p9055
aa(lp9056
I5042
aS'8'
aS'128'
p9057
aa(lp9058
I5050
aS'2'
aS'149'
p9059
aa(lp9060
I5273
aS'126'
p9061
aS'251'
p9062
aa(lp9063
I5434
aS'5'
aS'59'
p9064
aa(lp9065
I5516
aS'27'
p9066
aS'83'
p9067
aa(lp9068
I5517
aS'26'
p9069
aS'204'
p9070
aa(lp9071
I5519
aS'29'
p9072
aS'221'
p9073
aa(lp9074
I5520
aS'93'
p9075
aS'175'
p9076
aa(lp9077
I5521
aS'42'
p9078
aS'118'
p9079
aa(lp9080
I5532
aS'6'
aS'126'
p9081
aa(lp9082
I5533
aS'2'
aS'81'
p9083
aa(lp9084
I5991
aS'3'
aS'65'
p9085
aa(lp9086
I5992
aS'12'
p9087
aS'67'
p9088
aa(lp9089
I5995
aS'3'
aS'109'
p9090
aa(lp9091
I5996
aS'5'
aS'107'
p9092
aa(lp9093
I5997
aS'6'
aS'90'
p9094
aa(lp9095
I6226
aS'13'
p9096
aS'277'
p9097
aa(lp9098
I6228
aS'1'
aS'94'
p9099
aa(lp9100
I6345
aS'39'
p9101
aS'110'
p9102
aa(lp9103
I6403
aS'17'
p9104
aS'126'
p9105
aa(lp9106
I6412
aS'4'
aS'82'
p9107
aa(lp9108
I6965
aS'387'
p9109
aS'514'
p9110
aa(lp9111
I7148
aS'11'
p9112
aS'88'
p9113
aasS'4V8M'
p9114
(lp9115
(lp9116
I62
aS'85'
p9117
aS'162'
p9118
aa(lp9119
I86
aS'2'
aS'68'
p9120
aa(lp9121
I125
aS'29'
p9122
aS'107'
p9123
aa(lp9124
I143
aS'54'
p9125
aS'150'
p9126
aa(lp9127
I143
aS'148'
p9128
aS'218'
p9129
aa(lp9130
I145
aS'10'
p9131
aS'61'
p9132
aa(lp9133
I147
aS'86'
p9134
aS'150'
p9135
aa(lp9136
I341
aS'12'
p9137
aS'107'
p9138
aa(lp9139
I472
aS'273'
p9140
aS'349'
p9141
aa(lp9142
I481
aS'4'
aS'145'
p9143
aa(lp9144
I512
aS'2'
aS'60'
p9145
aa(lp9146
I587
aS'4'
aS'97'
p9147
aa(lp9148
I625
aS'37'
p9149
aS'102'
p9150
aa(lp9151
I672
aS'2'
aS'203'
p9152
aa(lp9153
I905
aS'15'
p9154
aS'122'
p9155
aa(lp9156
I1127
aS'209'
p9157
aS'256'
p9158
aa(lp9159
I1484
aS'3'
aS'88'
p9160
aa(lp9161
I1732
aS'12'
p9162
aS'166'
p9163
aa(lp9164
I1733
aS'74'
p9165
aS'143'
p9166
aa(lp9167
I1735
aS'42'
p9168
aS'125'
p9169
aa(lp9170
I1787
aS'71'
p9171
aS'169'
p9172
aa(lp9173
I1801
aS'8'
aS'191'
p9174
aa(lp9175
I2021
aS'100'
p9176
aS'149'
p9177
aa(lp9178
I2074
aS'20'
p9179
aS'207'
p9180
aa(lp9181
I2075
aS'2'
aS'51'
p9182
aa(lp9183
I2266
aS'3'
aS'99'
p9184
aa(lp9185
I2417
aS'175'
p9186
aS'199'
p9187
aa(lp9188
I2417
aS'49'
p9189
aS'80'
p9190
aa(lp9191
I2417
aS'6'
aS'31'
p9192
aa(lp9193
I2446
aS'106'
p9194
aS'187'
p9195
aa(lp9196
I2502
aS'9'
aS'36'
p9197
aa(lp9198
I2772
aS'11'
p9199
aS'85'
p9200
aa(lp9201
I2772
aS'97'
p9202
aS'176'
p9203
aa(lp9204
I2835
aS'44'
p9205
aS'87'
p9206
aa(lp9207
I2835
aS'106'
p9208
aS'150'
p9209
aa(lp9210
I3026
aS'51'
p9211
aS'133'
p9212
aa(lp9213
I3055
aS'6'
aS'128'
p9214
aa(lp9215
I3071
aS'21'
p9216
aS'139'
p9217
aa(lp9218
I3282
aS'9'
aS'191'
p9219
aa(lp9220
I3544
aS'15'
p9221
aS'143'
p9222
aa(lp9223
I3545
aS'19'
p9224
aS'111'
p9225
aa(lp9226
I3548
aS'89'
p9227
aS'156'
p9228
aa(lp9229
I3549
aS'16'
p9230
aS'55'
p9231
aa(lp9232
I3550
aS'74'
p9233
aS'142'
p9234
aa(lp9235
I3651
aS'27'
p9236
aS'96'
p9237
aa(lp9238
I3767
aS'20'
p9239
aS'223'
p9240
aa(lp9241
I3809
aS'169'
p9242
aS'240'
p9243
aa(lp9244
I3813
aS'3'
aS'60'
p9245
aa(lp9246
I4161
aS'27'
p9247
aS'179'
p9248
aa(lp9249
I4162
aS'48'
p9250
aS'128'
p9251
aa(lp9252
I4162
aS'28'
p9253
aS'143'
p9254
aa(lp9255
I4222
aS'2'
aS'53'
p9256
aa(lp9257
I4304
aS'19'
p9258
aS'87'
p9259
aa(lp9260
I4410
aS'48'
p9261
aS'120'
p9262
aa(lp9263
I4667
aS'22'
p9264
aS'156'
p9265
aa(lp9266
I4691
aS'9'
aS'49'
p9267
aa(lp9268
I4935
aS'2'
aS'118'
p9269
aa(lp9270
I4980
aS'3'
aS'39'
p9271
aa(lp9272
I5041
aS'6'
aS'130'
p9273
aa(lp9274
I5042
aS'16'
p9275
aS'149'
p9276
aa(lp9277
I5050
aS'48'
p9278
aS'190'
p9279
aa(lp9280
I5273
aS'98'
p9281
aS'229'
p9282
aa(lp9283
I5516
aS'14'
p9284
aS'67'
p9285
aa(lp9286
I5517
aS'22'
p9287
aS'260'
p9288
aa(lp9289
I5519
aS'17'
p9290
aS'210'
p9291
aa(lp9292
I5520
aS'53'
p9293
aS'424'
p9294
aa(lp9295
I5521
aS'69'
p9296
aS'88'
p9297
aa(lp9298
I5532
aS'9'
aS'142'
p9299
aa(lp9300
I5683
aS'15'
p9301
aS'67'
p9302
aa(lp9303
I5807
aS'8'
aS'83'
p9304
aa(lp9305
I5992
aS'44'
p9306
aS'64'
p9307
aa(lp9308
I5993
aS'8'
aS'119'
p9309
aa(lp9310
I5996
aS'17'
p9311
aS'149'
p9312
aa(lp9313
I5997
aS'84'
p9314
aS'143'
p9315
aa(lp9316
I6062
aS'198'
p9317
aS'295'
p9318
aa(lp9319
I6236
aS'20'
p9320
aS'93'
p9321
aa(lp9322
I6345
aS'21'
p9323
aS'90'
p9324
aa(lp9325
I6388
aS'5'
aS'100'
p9326
aa(lp9327
I6403
aS'22'
p9328
aS'132'
p9329
aa(lp9330
I6412
aS'62'
p9331
aS'135'
p9332
aa(lp9333
I6453
aS'22'
p9334
aS'124'
p9335
aa(lp9336
I6484
aS'69'
p9337
aS'192'
p9338
aa(lp9339
I6625
aS'32'
p9340
aS'125'
p9341
aa(lp9342
I6625
aS'20'
p9343
aS'111'
p9344
aa(lp9345
I6625
aS'145'
p9346
aS'218'
p9347
aa(lp9348
I6680
aS'92'
p9349
aS'166'
p9350
aa(lp9351
I6703
aS'1'
aS'69'
p9352
aa(lp9353
I6753
aS'38'
p9354
aS'142'
p9355
aa(lp9356
I6925
aS'1'
aS'129'
p9357
aa(lp9358
I7161
aS'27'
p9359
aS'110'
p9360
aa(lp9361
I7213
aS'9'
aS'43'
p9362
aa(lp9363
I7213
aS'62'
p9364
aS'95'
p9365
aa(lp9366
I7213
aS'99'
p9367
aS'137'
p9368
aa(lp9369
I7213
aS'140'
p9370
aS'182'
p9371
aa(lp9372
I7213
aS'187'
p9373
aS'224'
p9374
aa(lp9375
I7223
aS'7'
aS'113'
p9376
aa(lp9377
I7397
aS'29'
p9378
aS'82'
p9379
aa(lp9380
I7432
aS'2'
aS'102'
p9381
aa(lp9382
I7504
aS'101'
p9383
aS'149'
p9384
aasS'4V6V'
p9385
(lp9386
(lp9387
I143
aS'8'
aS'223'
p9388
aa(lp9389
I145
aS'2'
aS'94'
p9390
aa(lp9391
I147
aS'10'
p9392
aS'73'
p9393
aa(lp9394
I148
aS'3'
aS'91'
p9395
aa(lp9396
I1731
aS'20'
p9397
aS'116'
p9398
aa(lp9399
I1732
aS'4'
aS'131'
p9400
aa(lp9401
I1733
aS'71'
p9402
aS'139'
p9403
aa(lp9404
I1734
aS'4'
aS'100'
p9405
aa(lp9406
I1735
aS'15'
p9407
aS'138'
p9408
aa(lp9409
I1739
aS'2'
aS'112'
p9410
aa(lp9411
I1787
aS'83'
p9412
aS'176'
p9413
aa(lp9414
I2019
aS'6'
aS'52'
p9415
aa(lp9416
I2020
aS'1'
aS'65'
p9417
aa(lp9418
I2021
aS'4'
aS'53'
p9419
aa(lp9420
I2023
aS'1'
aS'38'
p9421
aa(lp9422
I2024
aS'1'
aS'44'
p9423
aa(lp9424
I2417
aS'7'
aS'36'
p9425
aa(lp9426
I2446
aS'119'
p9427
aS'201'
p9428
aa(lp9429
I2577
aS'64'
p9430
aS'148'
p9431
aa(lp9432
I2585
aS'1'
aS'45'
p9433
aa(lp9434
I2767
aS'4'
aS'91'
p9435
aa(lp9436
I2772
aS'10'
p9437
aS'81'
p9438
aa(lp9439
I2772
aS'89'
p9440
aS'163'
p9441
aa(lp9442
I2835
aS'96'
p9443
aS'142'
p9444
aa(lp9445
I3071
aS'1'
aS'123'
p9446
aa(lp9447
I3544
aS'2'
aS'107'
p9448
aa(lp9449
I3545
aS'7'
aS'100'
p9450
aa(lp9451
I3547
aS'8'
aS'68'
p9452
aa(lp9453
I3548
aS'9'
aS'75'
p9454
aa(lp9455
I3549
aS'46'
p9456
aS'99'
p9457
aa(lp9458
I3550
aS'8'
aS'87'
p9459
aa(lp9460
I3553
aS'18'
p9461
aS'67'
p9462
aa(lp9463
I3809
aS'86'
p9464
aS'156'
p9465
aa(lp9466
I4161
aS'2'
aS'117'
p9467
aa(lp9468
I4162
aS'28'
p9469
aS'143'
p9470
aa(lp9471
I4492
aS'1'
aS'59'
p9472
aa(lp9473
I5041
aS'4'
aS'128'
p9474
aa(lp9475
I5042
aS'9'
aS'129'
p9476
aa(lp9477
I5050
aS'1'
aS'148'
p9478
aa(lp9479
I5265
aS'416'
p9480
aS'531'
p9481
aa(lp9482
I5271
aS'342'
p9483
aS'414'
p9484
aa(lp9485
I5273
aS'124'
p9486
aS'248'
p9487
aa(lp9488
I5434
aS'1'
aS'56'
p9489
aa(lp9490
I5516
aS'23'
p9491
aS'79'
p9492
aa(lp9493
I5517
aS'13'
p9494
aS'198'
p9495
aa(lp9496
I5519
aS'28'
p9497
aS'220'
p9498
aa(lp9499
I5520
aS'27'
p9500
aS'182'
p9501
aa(lp9502
I5521
aS'41'
p9503
aS'116'
p9504
aa(lp9505
I5532
aS'5'
aS'122'
p9506
aa(lp9507
I5533
aS'1'
aS'81'
p9508
aa(lp9509
I5589
aS'534'
p9510
aS'615'
p9511
aa(lp9512
I5683
aS'8'
aS'66'
p9513
aa(lp9514
I5991
aS'2'
aS'61'
p9515
aa(lp9516
I5992
aS'4'
aS'60'
p9517
aa(lp9518
I5995
aS'2'
aS'108'
p9519
aa(lp9520
I5996
aS'5'
aS'108'
p9521
aa(lp9522
I5997
aS'9'
aS'95'
p9523
aa(lp9524
I6226
aS'2'
aS'237'
p9525
aa(lp9526
I6228
aS'1'
aS'96'
p9527
aa(lp9528
I6345
aS'37'
p9529
aS'110'
p9530
aa(lp9531
I6403
aS'18'
p9532
aS'127'
p9533
aa(lp9534
I6412
aS'2'
aS'82'
p9535
aa(lp9536
I7148
aS'1'
aS'83'
p9537
aa(lp9538
I7507
aS'3'
aS'55'
p9539
aasS'4KFJ'
p9540
(lp9541
(lp9542
I5470
aS'4'
aS'184'
p9543
aasS'3OAF'
p9544
(lp9545
(lp9546
I5470
aS'4'
aS'184'
p9547
aasS'4LAG'
p9548
(lp9549
(lp9550
I5470
aS'3'
aS'157'
p9551
aasS'3M08'
p9552
(lp9553
(lp9554
I5470
aS'2'
aS'156'
p9555
aasS'4LAE'
p9556
(lp9557
(lp9558
I5470
aS'3'
aS'157'
p9559
aasS'1I95'
p9560
(lp9561
(lp9562
I143
aS'10'
p9563
aS'223'
p9564
aa(lp9565
I145
aS'3'
aS'98'
p9566
aa(lp9567
I147
aS'6'
aS'70'
p9568
aa(lp9569
I148
aS'3'
aS'92'
p9570
aa(lp9571
I2446
aS'120'
p9572
aS'202'
p9573
aa(lp9574
I2835
aS'100'
p9575
aS'146'
p9576
aa(lp9577
I2994
aS'2'
aS'25'
p9578
aa(lp9579
I3544
aS'3'
aS'94'
p9580
aa(lp9581
I3545
aS'5'
aS'99'
p9582
aa(lp9583
I3547
aS'8'
aS'67'
p9584
aa(lp9585
I3548
aS'8'
aS'74'
p9586
aa(lp9587
I3549
aS'9'
aS'60'
p9588
aa(lp9589
I3550
aS'8'
aS'88'
p9590
aa(lp9591
I3553
aS'33'
p9592
aS'79'
p9593
aa(lp9594
I3809
aS'82'
p9595
aS'152'
p9596
aa(lp9597
I5041
aS'4'
aS'138'
p9598
aa(lp9599
I5042
aS'8'
aS'128'
p9600
aa(lp9601
I5050
aS'3'
aS'149'
p9602
aa(lp9603
I5532
aS'6'
aS'126'
p9604
aa(lp9605
I6345
aS'39'
p9606
aS'110'
p9607
aa(lp9608
I6403
aS'17'
p9609
aS'126'
p9610
aa(lp9611
I6412
aS'3'
aS'81'
p9612
aa(lp9613
I7148
aS'11'
p9614
aS'88'
p9615
aasS'1I94'
p9616
(lp9617
(lp9618
I143
aS'10'
p9619
aS'223'
p9620
aa(lp9621
I145
aS'3'
aS'98'
p9622
aa(lp9623
I147
aS'6'
aS'70'
p9624
aa(lp9625
I148
aS'3'
aS'92'
p9626
aa(lp9627
I2446
aS'120'
p9628
aS'202'
p9629
aa(lp9630
I2835
aS'100'
p9631
aS'146'
p9632
aa(lp9633
I2994
aS'2'
aS'25'
p9634
aa(lp9635
I3544
aS'3'
aS'94'
p9636
aa(lp9637
I3545
aS'5'
aS'99'
p9638
aa(lp9639
I3547
aS'8'
aS'67'
p9640
aa(lp9641
I3548
aS'8'
aS'74'
p9642
aa(lp9643
I3549
aS'9'
aS'60'
p9644
aa(lp9645
I3550
aS'8'
aS'88'
p9646
aa(lp9647
I3553
aS'33'
p9648
aS'79'
p9649
aa(lp9650
I3809
aS'82'
p9651
aS'152'
p9652
aa(lp9653
I5041
aS'4'
aS'138'
p9654
aa(lp9655
I5042
aS'8'
aS'128'
p9656
aa(lp9657
I5050
aS'3'
aS'149'
p9658
aa(lp9659
I5532
aS'6'
aS'126'
p9660
aa(lp9661
I6345
aS'39'
p9662
aS'110'
p9663
aa(lp9664
I6403
aS'17'
p9665
aS'126'
p9666
aa(lp9667
I6412
aS'3'
aS'81'
p9668
aa(lp9669
I7148
aS'11'
p9670
aS'88'
p9671
aasS'1I97'
p9672
(lp9673
(lp9674
I143
aS'10'
p9675
aS'223'
p9676
aa(lp9677
I145
aS'3'
aS'98'
p9678
aa(lp9679
I147
aS'6'
aS'70'
p9680
aa(lp9681
I148
aS'3'
aS'92'
p9682
aa(lp9683
I2446
aS'120'
p9684
aS'202'
p9685
aa(lp9686
I2835
aS'100'
p9687
aS'146'
p9688
aa(lp9689
I2994
aS'2'
aS'25'
p9690
aa(lp9691
I3544
aS'3'
aS'94'
p9692
aa(lp9693
I3545
aS'5'
aS'99'
p9694
aa(lp9695
I3547
aS'8'
aS'67'
p9696
aa(lp9697
I3548
aS'8'
aS'74'
p9698
aa(lp9699
I3549
aS'9'
aS'60'
p9700
aa(lp9701
I3550
aS'8'
aS'88'
p9702
aa(lp9703
I3553
aS'33'
p9704
aS'79'
p9705
aa(lp9706
I3809
aS'82'
p9707
aS'152'
p9708
aa(lp9709
I5041
aS'4'
aS'138'
p9710
aa(lp9711
I5042
aS'8'
aS'128'
p9712
aa(lp9713
I5050
aS'3'
aS'149'
p9714
aa(lp9715
I5532
aS'6'
aS'126'
p9716
aa(lp9717
I6345
aS'39'
p9718
aS'110'
p9719
aa(lp9720
I6403
aS'17'
p9721
aS'126'
p9722
aa(lp9723
I6412
aS'3'
aS'81'
p9724
aa(lp9725
I7148
aS'11'
p9726
aS'88'
p9727
aasS'1LUD'
p9728
(lp9729
(lp9730
I5470
aS'3'
aS'160'
p9731
aasS'5AFI'
p9732
(lp9733
(lp9734
I143
aS'8'
aS'223'
p9735
aa(lp9736
I145
aS'2'
aS'94'
p9737
aa(lp9738
I147
aS'10'
p9739
aS'73'
p9740
aa(lp9741
I148
aS'3'
aS'91'
p9742
aa(lp9743
I1731
aS'20'
p9744
aS'116'
p9745
aa(lp9746
I1732
aS'4'
aS'131'
p9747
aa(lp9748
I1733
aS'71'
p9749
aS'139'
p9750
aa(lp9751
I1734
aS'5'
aS'101'
p9752
aa(lp9753
I1735
aS'15'
p9754
aS'138'
p9755
aa(lp9756
I1739
aS'2'
aS'112'
p9757
aa(lp9758
I1787
aS'83'
p9759
aS'176'
p9760
aa(lp9761
I2019
aS'6'
aS'52'
p9762
aa(lp9763
I2020
aS'1'
aS'65'
p9764
aa(lp9765
I2021
aS'4'
aS'53'
p9766
aa(lp9767
I2023
aS'1'
aS'38'
p9768
aa(lp9769
I2024
aS'1'
aS'44'
p9770
aa(lp9771
I2417
aS'7'
aS'36'
p9772
aa(lp9773
I2446
aS'119'
p9774
aS'201'
p9775
aa(lp9776
I2577
aS'64'
p9777
aS'148'
p9778
aa(lp9779
I2585
aS'1'
aS'45'
p9780
aa(lp9781
I2767
aS'4'
aS'91'
p9782
aa(lp9783
I2772
aS'10'
p9784
aS'81'
p9785
aa(lp9786
I2772
aS'89'
p9787
aS'163'
p9788
aa(lp9789
I2835
aS'96'
p9790
aS'142'
p9791
aa(lp9792
I3071
aS'1'
aS'122'
p9793
aa(lp9794
I3544
aS'2'
aS'107'
p9795
aa(lp9796
I3545
aS'7'
aS'100'
p9797
aa(lp9798
I3547
aS'8'
aS'68'
p9799
aa(lp9800
I3548
aS'9'
aS'75'
p9801
aa(lp9802
I3549
aS'47'
p9803
aS'100'
p9804
aa(lp9805
I3550
aS'8'
aS'87'
p9806
aa(lp9807
I3553
aS'18'
p9808
aS'67'
p9809
aa(lp9810
I3809
aS'86'
p9811
aS'156'
p9812
aa(lp9813
I4161
aS'2'
aS'117'
p9814
aa(lp9815
I4162
aS'28'
p9816
aS'143'
p9817
aa(lp9818
I4492
aS'1'
aS'59'
p9819
aa(lp9820
I4654
aS'224'
p9821
aS'292'
p9822
aa(lp9823
I4655
aS'297'
p9824
aS'391'
p9825
aa(lp9826
I5041
aS'4'
aS'128'
p9827
aa(lp9828
I5042
aS'9'
aS'129'
p9829
aa(lp9830
I5050
aS'1'
aS'148'
p9831
aa(lp9832
I5273
aS'124'
p9833
aS'248'
p9834
aa(lp9835
I5434
aS'1'
aS'56'
p9836
aa(lp9837
I5516
aS'23'
p9838
aS'79'
p9839
aa(lp9840
I5517
aS'13'
p9841
aS'198'
p9842
aa(lp9843
I5520
aS'27'
p9844
aS'182'
p9845
aa(lp9846
I5521
aS'41'
p9847
aS'116'
p9848
aa(lp9849
I5532
aS'5'
aS'122'
p9850
aa(lp9851
I5533
aS'7'
aS'78'
p9852
aa(lp9853
I5683
aS'8'
aS'66'
p9854
aa(lp9855
I5991
aS'2'
aS'61'
p9856
aa(lp9857
I5992
aS'4'
aS'60'
p9858
aa(lp9859
I5995
aS'2'
aS'108'
p9860
aa(lp9861
I5996
aS'5'
aS'108'
p9862
aa(lp9863
I5997
aS'9'
aS'93'
p9864
aa(lp9865
I6226
aS'9'
aS'200'
p9866
aa(lp9867
I6228
aS'1'
aS'96'
p9868
aa(lp9869
I6345
aS'37'
p9870
aS'110'
p9871
aa(lp9872
I6403
aS'18'
p9873
aS'127'
p9874
aa(lp9875
I6412
aS'2'
aS'80'
p9876
aa(lp9877
I7148
aS'2'
aS'83'
p9878
aa(lp9879
I7507
aS'3'
aS'55'
p9880
aasS'1FJG'
p9881
(lp9882
(lp9883
I143
aS'10'
p9884
aS'223'
p9885
aa(lp9886
I145
aS'3'
aS'98'
p9887
aa(lp9888
I147
aS'6'
aS'70'
p9889
aa(lp9890
I148
aS'3'
aS'92'
p9891
aa(lp9892
I2446
aS'120'
p9893
aS'202'
p9894
aa(lp9895
I2835
aS'100'
p9896
aS'146'
p9897
aa(lp9898
I2994
aS'2'
aS'25'
p9899
aa(lp9900
I3544
aS'3'
aS'109'
p9901
aa(lp9902
I3545
aS'5'
aS'99'
p9903
aa(lp9904
I3547
aS'8'
aS'67'
p9905
aa(lp9906
I3548
aS'8'
aS'74'
p9907
aa(lp9908
I3549
aS'9'
aS'60'
p9909
aa(lp9910
I3550
aS'8'
aS'88'
p9911
aa(lp9912
I3553
aS'33'
p9913
aS'79'
p9914
aa(lp9915
I3809
aS'82'
p9916
aS'152'
p9917
aa(lp9918
I5041
aS'4'
aS'138'
p9919
aa(lp9920
I5042
aS'8'
aS'128'
p9921
aa(lp9922
I5050
aS'2'
aS'149'
p9923
aa(lp9924
I5532
aS'6'
aS'126'
p9925
aa(lp9926
I6345
aS'39'
p9927
aS'110'
p9928
aa(lp9929
I6403
aS'17'
p9930
aS'126'
p9931
aa(lp9932
I6412
aS'3'
aS'83'
p9933
aa(lp9934
I7148
aS'11'
p9935
aS'88'
p9936
aasS'3R33'
p9937
(lp9938
(lp9939
I5470
aS'1'
aS'158'
p9940
aasS'4LAH'
p9941
(lp9942
(lp9943
I5470
aS'3'
aS'157'
p9944
aasS'1DR1'
p9945
(lp9946
(lp9947
I5470
aS'4'
aS'184'
p9948
aasS'1TDR'
p9949
(lp9950
(lp9951
I5470
aS'1'
aS'158'
p9952
aasS'3NZB'
p9953
(lp9954
(lp9955
I5470
aS'7'
aS'177'
p9956
aasS'3EEM'
p9957
(lp9958
(lp9959
I5470
aS'8'
aS'155'
p9960
aasS'3EEL'
p9961
(lp9962
(lp9963
I5470
aS'8'
aS'155'
p9964
aasS'3EEK'
p9965
(lp9966
(lp9967
I5470
aS'8'
aS'155'
p9968
aasS'3EEJ'
p9969
(lp9970
(lp9971
I5470
aS'8'
aS'155'
p9972
aasS'4DP3'
p9973
(lp9974
(lp9975
I5470
aS'99'
p9976
aS'228'
p9977
aa(lp9978
I6270
aS'327'
p9979
aS'606'
p9980
aasS'4QLE'
p9981
(lp9982
(lp9983
I5470
aS'1'
aS'158'
p9984
aasS'2W3V'
p9985
(lp9986
(lp9987
I5470
aS'6'
aS'166'
p9988
aasS'2W3W'
p9989
(lp9990
(lp9991
I5470
aS'6'
aS'166'
p9992
aasS'4DPH'
p9993
(lp9994
(lp9995
I5470
aS'99'
p9996
aS'228'
p9997
aa(lp9998
I6270
aS'327'
p9999
aS'607'
p10000
aasS'4DPD'
p10001
(lp10002
(lp10003
I5470
aS'99'
p10004
aS'228'
p10005
aa(lp10006
I6270
aS'327'
p10007
aS'605'
p10008
aasS'4V6K'
p10009
(lp10010
(lp10011
I143
aS'8'
aS'223'
p10012
aa(lp10013
I145
aS'2'
aS'94'
p10014
aa(lp10015
I147
aS'10'
p10016
aS'73'
p10017
aa(lp10018
I148
aS'3'
aS'91'
p10019
aa(lp10020
I1731
aS'20'
p10021
aS'116'
p10022
aa(lp10023
I1732
aS'4'
aS'131'
p10024
aa(lp10025
I1733
aS'71'
p10026
aS'139'
p10027
aa(lp10028
I1735
aS'15'
p10029
aS'138'
p10030
aa(lp10031
I1739
aS'2'
aS'112'
p10032
aa(lp10033
I1787
aS'83'
p10034
aS'176'
p10035
aa(lp10036
I2019
aS'6'
aS'52'
p10037
aa(lp10038
I2020
aS'1'
aS'65'
p10039
aa(lp10040
I2021
aS'4'
aS'53'
p10041
aa(lp10042
I2023
aS'1'
aS'38'
p10043
aa(lp10044
I2024
aS'1'
aS'44'
p10045
aa(lp10046
I2417
aS'7'
aS'36'
p10047
aa(lp10048
I2446
aS'119'
p10049
aS'201'
p10050
aa(lp10051
I2577
aS'64'
p10052
aS'148'
p10053
aa(lp10054
I2585
aS'1'
aS'45'
p10055
aa(lp10056
I2767
aS'4'
aS'91'
p10057
aa(lp10058
I2772
aS'10'
p10059
aS'81'
p10060
aa(lp10061
I2772
aS'89'
p10062
aS'163'
p10063
aa(lp10064
I2835
aS'96'
p10065
aS'142'
p10066
aa(lp10067
I3071
aS'1'
aS'123'
p10068
aa(lp10069
I3544
aS'2'
aS'107'
p10070
aa(lp10071
I3545
aS'7'
aS'100'
p10072
aa(lp10073
I3547
aS'8'
aS'68'
p10074
aa(lp10075
I3548
aS'9'
aS'75'
p10076
aa(lp10077
I3549
aS'46'
p10078
aS'99'
p10079
aa(lp10080
I3550
aS'8'
aS'87'
p10081
aa(lp10082
I3553
aS'18'
p10083
aS'67'
p10084
aa(lp10085
I3809
aS'86'
p10086
aS'156'
p10087
aa(lp10088
I4161
aS'2'
aS'117'
p10089
aa(lp10090
I4162
aS'28'
p10091
aS'143'
p10092
aa(lp10093
I4492
aS'1'
aS'59'
p10094
aa(lp10095
I4654
aS'224'
p10096
aS'292'
p10097
aa(lp10098
I4655
aS'297'
p10099
aS'391'
p10100
aa(lp10101
I5041
aS'4'
aS'128'
p10102
aa(lp10103
I5042
aS'9'
aS'129'
p10104
aa(lp10105
I5050
aS'1'
aS'148'
p10106
aa(lp10107
I5273
aS'124'
p10108
aS'248'
p10109
aa(lp10110
I5434
aS'1'
aS'56'
p10111
aa(lp10112
I5516
aS'23'
p10113
aS'79'
p10114
aa(lp10115
I5517
aS'13'
p10116
aS'198'
p10117
aa(lp10118
I5519
aS'28'
p10119
aS'220'
p10120
aa(lp10121
I5520
aS'27'
p10122
aS'182'
p10123
aa(lp10124
I5521
aS'41'
p10125
aS'116'
p10126
aa(lp10127
I5532
aS'5'
aS'122'
p10128
aa(lp10129
I5533
aS'1'
aS'81'
p10130
aa(lp10131
I5683
aS'8'
aS'66'
p10132
aa(lp10133
I5991
aS'2'
aS'61'
p10134
aa(lp10135
I5992
aS'4'
aS'60'
p10136
aa(lp10137
I5995
aS'2'
aS'108'
p10138
aa(lp10139
I5996
aS'5'
aS'108'
p10140
aa(lp10141
I5997
aS'9'
aS'95'
p10142
aa(lp10143
I6226
aS'9'
aS'200'
p10144
aa(lp10145
I6228
aS'1'
aS'96'
p10146
aa(lp10147
I6345
aS'37'
p10148
aS'110'
p10149
aa(lp10150
I6403
aS'18'
p10151
aS'127'
p10152
aa(lp10153
I6412
aS'2'
aS'82'
p10154
aa(lp10155
I7148
aS'1'
aS'83'
p10156
aa(lp10157
I7507
aS'3'
aS'55'
p10158
aasS'4KJJ'
p10159
(lp10160
(lp10161
I5470
aS'1'
aS'158'
p10162
aasS'2W3A'
p10163
(lp10164
(lp10165
I5470
aS'4'
aS'184'
p10166
aasS'2W3B'
p10167
(lp10168
(lp10169
I5470
aS'4'
aS'184'
p10170
aasS'2W3M'
p10171
(lp10172
(lp10173
I5470
aS'4'
aS'184'
p10174
aasS'4I13'
p10175
(lp10176
(lp10177
I2388
aS'11'
p10178
aS'125'
p10179
aa(lp10180
I5470
aS'1'
aS'158'
p10181
aasS'3GHV'
p10182
(lp10183
(lp10184
I5470
aS'4'
aS'184'
p10185
aasS'3GHW'
p10186
(lp10187
(lp10188
I5470
aS'4'
aS'184'
p10189
aasS'2E5L'
p10190
(lp10191
(lp10192
I143
aS'10'
p10193
aS'223'
p10194
aa(lp10195
I145
aS'3'
aS'98'
p10196
aa(lp10197
I147
aS'6'
aS'70'
p10198
aa(lp10199
I148
aS'3'
aS'92'
p10200
aa(lp10201
I2446
aS'120'
p10202
aS'202'
p10203
aa(lp10204
I2835
aS'100'
p10205
aS'146'
p10206
aa(lp10207
I2994
aS'2'
aS'25'
p10208
aa(lp10209
I3544
aS'3'
aS'109'
p10210
aa(lp10211
I3545
aS'5'
aS'99'
p10212
aa(lp10213
I3547
aS'8'
aS'67'
p10214
aa(lp10215
I3548
aS'8'
aS'74'
p10216
aa(lp10217
I3549
aS'9'
aS'60'
p10218
aa(lp10219
I3550
aS'8'
aS'88'
p10220
aa(lp10221
I3553
aS'33'
p10222
aS'79'
p10223
aa(lp10224
I3809
aS'82'
p10225
aS'152'
p10226
aa(lp10227
I5041
aS'4'
aS'138'
p10228
aa(lp10229
I5042
aS'8'
aS'128'
p10230
aa(lp10231
I5050
aS'3'
aS'149'
p10232
aa(lp10233
I5532
aS'6'
aS'126'
p10234
aa(lp10235
I6345
aS'39'
p10236
aS'110'
p10237
aa(lp10238
I6403
aS'17'
p10239
aS'125'
p10240
aa(lp10241
I6412
aS'3'
aS'81'
p10242
aa(lp10243
I7148
aS'11'
p10244
aS'88'
p10245
aasS'3NTZ'
p10246
(lp10247
(lp10248
I5470
aS'4'
aS'184'
p10249
aasS'3GHC'
p10250
(lp10251
(lp10252
I5470
aS'4'
aS'184'
p10253
aasS'2UXD'
p10254
(lp10255
(lp10256
I143
aS'10'
p10257
aS'223'
p10258
aa(lp10259
I145
aS'3'
aS'98'
p10260
aa(lp10261
I147
aS'6'
aS'70'
p10262
aa(lp10263
I148
aS'3'
aS'92'
p10264
aa(lp10265
I2446
aS'120'
p10266
aS'202'
p10267
aa(lp10268
I2835
aS'100'
p10269
aS'146'
p10270
aa(lp10271
I2994
aS'2'
aS'26'
p10272
aa(lp10273
I3544
aS'3'
aS'109'
p10274
aa(lp10275
I3545
aS'5'
aS'99'
p10276
aa(lp10277
I3547
aS'8'
aS'67'
p10278
aa(lp10279
I3548
aS'8'
aS'74'
p10280
aa(lp10281
I3549
aS'9'
aS'60'
p10282
aa(lp10283
I3550
aS'8'
aS'88'
p10284
aa(lp10285
I3553
aS'33'
p10286
aS'79'
p10287
aa(lp10288
I3809
aS'82'
p10289
aS'152'
p10290
aa(lp10291
I5041
aS'4'
aS'138'
p10292
aa(lp10293
I5042
aS'8'
aS'128'
p10294
aa(lp10295
I5050
aS'2'
aS'149'
p10296
aa(lp10297
I5532
aS'6'
aS'126'
p10298
aa(lp10299
I6345
aS'39'
p10300
aS'110'
p10301
aa(lp10302
I6403
aS'17'
p10303
aS'126'
p10304
aa(lp10305
I6412
aS'3'
aS'82'
p10306
aa(lp10307
I7148
aS'11'
p10308
aS'88'
p10309
aasS'2UXC'
p10310
(lp10311
(lp10312
I143
aS'10'
p10313
aS'223'
p10314
aa(lp10315
I145
aS'3'
aS'98'
p10316
aa(lp10317
I147
aS'6'
aS'70'
p10318
aa(lp10319
I148
aS'3'
aS'92'
p10320
aa(lp10321
I2446
aS'120'
p10322
aS'202'
p10323
aa(lp10324
I2835
aS'100'
p10325
aS'146'
p10326
aa(lp10327
I2994
aS'2'
aS'26'
p10328
aa(lp10329
I3544
aS'3'
aS'109'
p10330
aa(lp10331
I3545
aS'5'
aS'99'
p10332
aa(lp10333
I3547
aS'8'
aS'67'
p10334
aa(lp10335
I3548
aS'8'
aS'74'
p10336
aa(lp10337
I3549
aS'9'
aS'60'
p10338
aa(lp10339
I3550
aS'8'
aS'88'
p10340
aa(lp10341
I3553
aS'33'
p10342
aS'79'
p10343
aa(lp10344
I3809
aS'82'
p10345
aS'152'
p10346
aa(lp10347
I5041
aS'4'
aS'138'
p10348
aa(lp10349
I5042
aS'8'
aS'128'
p10350
aa(lp10351
I5050
aS'2'
aS'149'
p10352
aa(lp10353
I5532
aS'6'
aS'126'
p10354
aa(lp10355
I6345
aS'39'
p10356
aS'110'
p10357
aa(lp10358
I6403
aS'17'
p10359
aS'126'
p10360
aa(lp10361
I6412
aS'3'
aS'82'
p10362
aa(lp10363
I7148
aS'11'
p10364
aS'88'
p10365
aasS'2UXB'
p10366
(lp10367
(lp10368
I143
aS'10'
p10369
aS'223'
p10370
aa(lp10371
I145
aS'3'
aS'98'
p10372
aa(lp10373
I147
aS'6'
aS'70'
p10374
aa(lp10375
I148
aS'3'
aS'92'
p10376
aa(lp10377
I2446
aS'120'
p10378
aS'202'
p10379
aa(lp10380
I2835
aS'100'
p10381
aS'146'
p10382
aa(lp10383
I2994
aS'2'
aS'26'
p10384
aa(lp10385
I3544
aS'3'
aS'109'
p10386
aa(lp10387
I3545
aS'5'
aS'99'
p10388
aa(lp10389
I3547
aS'8'
aS'67'
p10390
aa(lp10391
I3548
aS'8'
aS'74'
p10392
aa(lp10393
I3549
aS'9'
aS'60'
p10394
aa(lp10395
I3550
aS'8'
aS'88'
p10396
aa(lp10397
I3553
aS'33'
p10398
aS'79'
p10399
aa(lp10400
I3809
aS'82'
p10401
aS'152'
p10402
aa(lp10403
I5041
aS'4'
aS'138'
p10404
aa(lp10405
I5042
aS'8'
aS'128'
p10406
aa(lp10407
I5050
aS'2'
aS'149'
p10408
aa(lp10409
I5532
aS'6'
aS'126'
p10410
aa(lp10411
I6345
aS'39'
p10412
aS'110'
p10413
aa(lp10414
I6403
aS'17'
p10415
aS'126'
p10416
aa(lp10417
I6412
aS'3'
aS'82'
p10418
aa(lp10419
I7148
aS'11'
p10420
aS'88'
p10421
aasS'1M78'
p10422
(lp10423
(lp10424
I5470
aS'9'
aS'164'
p10425
aas.