(dp1
S'3LNT'
p2
(lp3
(lp4
I3342
aS'4'
aS'127'
p5
aa(lp6
I3342
aS'142'
p7
aS'217'
p8
aasS'3LG2'
p9
(lp10
(lp11
I3342
aS'9'
aS'193'
p12
aasS'4J9Q'
p13
(lp14
(lp15
I5444
aS'309'
p16
aS'429'
p17
aa(lp18
I6340
aS'12'
p19
aS'227'
p20
aasS'4J9P'
p21
(lp22
(lp23
I5444
aS'309'
p24
aS'429'
p25
aa(lp26
I6340
aS'12'
p27
aS'227'
p28
aasS'4J9S'
p29
(lp30
(lp31
I5444
aS'309'
p32
aS'429'
p33
aa(lp34
I6340
aS'12'
p35
aS'227'
p36
aasS'3WCX'
p37
(lp38
(lp39
I4242
aS'54'
p40
aS'300'
p41
aasS'1SI6'
p42
(lp43
(lp44
I4242
aS'12'
p45
aS'255'
p46
aasS'4Q4W'
p47
(lp48
(lp49
I3432
aS'2'
aS'69'
p50
aa(lp51
I3842
aS'58'
p52
aS'222'
p53
aa(lp54
I3842
aS'24'
p55
aS'238'
p56
aa(lp57
I3842
aS'30'
p58
aS'192'
p59
aasS'4Q4V'
p60
(lp61
(lp62
I3432
aS'2'
aS'69'
p63
aa(lp64
I3842
aS'58'
p65
aS'222'
p66
aa(lp67
I3842
aS'24'
p68
aS'238'
p69
aa(lp70
I3842
aS'30'
p71
aS'192'
p72
aasS'2YN0'
p73
(lp74
(lp75
I3342
aS'6'
aS'188'
p76
aasS'4RHV'
p77
(lp78
(lp79
I3432
aS'29'
p80
aS'68'
p81
aa(lp82
I3842
aS'48'
p83
aS'218'
p84
aa(lp85
I3842
aS'24'
p86
aS'229'
p87
aa(lp88
I3842
aS'30'
p89
aS'191'
p90
aasS'3MBK'
p91
(lp92
(lp93
I3342
aS'425'
p94
aS'587'
p95
aasS'4J9M'
p96
(lp97
(lp98
I5444
aS'309'
p99
aS'429'
p100
aa(lp101
I6340
aS'12'
p102
aS'227'
p103
aasS'4J9L'
p104
(lp105
(lp106
I5444
aS'309'
p107
aS'429'
p108
aa(lp109
I6340
aS'12'
p110
aS'227'
p111
aasS'4J9O'
p112
(lp113
(lp114
I5444
aS'309'
p115
aS'429'
p116
aa(lp117
I6340
aS'12'
p118
aS'227'
p119
aasS'4J9N'
p120
(lp121
(lp122
I5444
aS'309'
p123
aS'429'
p124
aa(lp125
I6340
aS'12'
p126
aS'227'
p127
aasS'1RVF'
p128
(lp129
(lp130
I2388
aS'7'
aS'106'
p131
aa(lp132
I2388
aS'5'
aS'111'
p133
aa(lp134
I3432
aS'29'
p135
aS'68'
p136
aa(lp137
I3842
aS'48'
p138
aS'218'
p139
aa(lp140
I3842
aS'24'
p141
aS'229'
p142
aa(lp143
I3842
aS'30'
p144
aS'191'
p145
aasS'4J9K'
p146
(lp147
(lp148
I5444
aS'309'
p149
aS'429'
p150
aa(lp151
I6340
aS'12'
p152
aS'227'
p153
aasS'3E9C'
p154
(lp155
(lp156
I3342
aS'6'
aS'142'
p157
aasS'1DC6'
p158
(lp159
(lp160
I2081
aS'1'
aS'149'
p161
aa(lp162
I2082
aS'154'
p163
aS'311'
p164
aasS'1NPT'
p165
(lp166
(lp167
I2081
aS'1'
aS'148'
p168
aa(lp169
I2082
aS'154'
p170
aS'311'
p171
aasS'3E9E'
p172
(lp173
(lp174
I3342
aS'6'
aS'142'
p175
aasS'3E9D'
p176
(lp177
(lp178
I3342
aS'6'
aS'142'
p179
aasS'4Q45'
p180
(lp181
(lp182
I2188
aS'166'
p183
aS'197'
p184
aa(lp185
I5444
aS'235'
p186
aS'340'
p187
aa(lp188
I6340
aS'7'
aS'154'
p189
aasS'1IHX'
p190
(lp191
(lp192
I2081
aS'2'
aS'149'
p193
aa(lp194
I2082
aS'154'
p195
aS'311'
p196
aasS'1IHY'
p197
(lp198
(lp199
I2081
aS'2'
aS'149'
p200
aa(lp201
I2082
aS'154'
p202
aS'311'
p203
aasS'4ED8'
p204
(lp205
(lp206
I5444
aS'309'
p207
aS'429'
p208
aa(lp209
I6340
aS'12'
p210
aS'227'
p211
aasS'2P79'
p212
(lp213
(lp214
I3342
aS'3'
aS'144'
p215
aasS'2P78'
p216
(lp217
(lp218
I3342
aS'3'
aS'144'
p219
aasS'3NFY'
p220
(lp221
(lp222
I3342
aS'6'
aS'129'
p223
aa(lp224
I3342
aS'150'
p225
aS'222'
p226
aasS'4ED1'
p227
(lp228
(lp229
I5444
aS'309'
p230
aS'429'
p231
aa(lp232
I6340
aS'12'
p233
aS'227'
p234
aasS'4ED0'
p235
(lp236
(lp237
I5444
aS'309'
p238
aS'429'
p239
aa(lp240
I6340
aS'12'
p241
aS'227'
p242
aasS'4ED3'
p243
(lp244
(lp245
I5444
aS'309'
p246
aS'429'
p247
aa(lp248
I6340
aS'12'
p249
aS'227'
p250
aasS'4ED2'
p251
(lp252
(lp253
I5444
aS'309'
p254
aS'429'
p255
aa(lp256
I6340
aS'12'
p257
aS'227'
p258
aasS'2P77'
p259
(lp260
(lp261
I3342
aS'3'
aS'144'
p262
aasS'2P75'
p263
(lp264
(lp265
I3342
aS'3'
aS'144'
p266
aasS'4ED6'
p267
(lp268
(lp269
I5444
aS'309'
p270
aS'429'
p271
aa(lp272
I6340
aS'12'
p273
aS'227'
p274
aasS'4LSM'
p275
(lp276
(lp277
I2081
aS'9'
aS'156'
p278
aa(lp279
I2082
aS'161'
p280
aS'318'
p281
aasS'4FS2'
p282
(lp283
(lp284
I5444
aS'298'
p285
aS'414'
p286
aa(lp287
I6340
aS'33'
p288
aS'210'
p289
aasS'4FS1'
p290
(lp291
(lp292
I5444
aS'298'
p293
aS'414'
p294
aa(lp295
I6340
aS'33'
p296
aS'210'
p297
aasS'3D4I'
p298
(lp299
(lp300
I3342
aS'411'
p301
aS'575'
p302
aasS'3N9V'
p303
(lp304
(lp305
I4242
aS'270'
p306
aS'549'
p307
aasS'1BIF'
p308
(lp309
(lp310
I3342
aS'251'
p311
aS'433'
p312
aa(lp313
I7408
aS'37'
p314
aS'248'
p315
aasS'1BIX'
p316
(lp317
(lp318
I4242
aS'66'
p319
aS'309'
p320
aasS'3K73'
p321
(lp322
(lp323
I2081
aS'3'
aS'151'
p324
aa(lp325
I2082
aS'156'
p326
aS'314'
p327
aasS'1T3N'
p328
(lp329
(lp330
I5444
aS'298'
p331
aS'414'
p332
aa(lp333
I6340
aS'33'
p334
aS'210'
p335
aasS'1TIP'
p336
(lp337
(lp338
I3342
aS'4'
aS'187'
p339
aasS'2V0R'
p340
(lp341
(lp342
I4242
aS'11'
p343
aS'232'
p344
aasS'2V0S'
p345
(lp346
(lp347
I4242
aS'11'
p348
aS'228'
p349
aasS'2X5I'
p350
(lp351
(lp352
I3432
aS'2'
aS'69'
p353
aa(lp354
I3842
aS'45'
p355
aS'214'
p356
aa(lp357
I3842
aS'23'
p358
aS'230'
p359
aa(lp360
I3842
aS'29'
p361
aS'194'
p362
aasS'2RMU'
p363
(lp364
(lp365
I3432
aS'29'
p366
aS'68'
p367
aa(lp368
I3842
aS'48'
p369
aS'218'
p370
aa(lp371
I3842
aS'24'
p372
aS'229'
p373
aa(lp374
I3842
aS'30'
p375
aS'191'
p376
aasS'2X5J'
p377
(lp378
(lp379
I2081
aS'1'
aS'149'
p380
aa(lp381
I2082
aS'154'
p382
aS'311'
p383
aasS'1RM4'
p384
(lp385
(lp386
I2081
aS'2'
aS'149'
p387
aa(lp388
I2082
aS'154'
p389
aS'311'
p390
aasS'4GEW'
p391
(lp392
(lp393
I1589
aS'46'
p394
aS'85'
p395
aa(lp396
I4242
aS'123'
p397
aS'353'
p398
aasS'1RM3'
p399
(lp400
(lp401
I2081
aS'2'
aS'149'
p402
aa(lp403
I2082
aS'154'
p404
aS'311'
p405
aasS'1ASJ'
p406
(lp407
(lp408
I3432
aS'2'
aS'69'
p409
aa(lp410
I3842
aS'58'
p411
aS'220'
p412
aa(lp413
I3842
aS'24'
p414
aS'239'
p415
aa(lp416
I3842
aS'30'
p417
aS'183'
p418
aasS'3G2C'
p419
(lp420
(lp421
I4242
aS'8'
aS'248'
p422
aasS'1QHF'
p423
(lp424
(lp425
I3342
aS'3'
aS'122'
p426
aa(lp427
I3342
aS'143'
p428
aS'209'
p429
aasS'2R07'
p430
(lp431
(lp432
I3432
aS'29'
p433
aS'68'
p434
aa(lp435
I3842
aS'48'
p436
aS'218'
p437
aa(lp438
I3842
aS'24'
p439
aS'229'
p440
aa(lp441
I3842
aS'30'
p442
aS'191'
p443
aasS'4QH9'
p444
(lp445
(lp446
I4242
aS'66'
p447
aS'309'
p448
aasS'1GD1'
p449
(lp450
(lp451
I2081
aS'1'
aS'149'
p452
aa(lp453
I2082
aS'154'
p454
aS'311'
p455
aasS'2HHJ'
p456
(lp457
(lp458
I3342
aS'6'
aS'129'
p459
aa(lp460
I3342
aS'150'
p461
aS'222'
p462
aasS'1JN0'
p463
(lp464
(lp465
I2081
aS'2'
aS'149'
p466
aa(lp467
I2082
aS'154'
p468
aS'311'
p469
aasS'4ECX'
p470
(lp471
(lp472
I5444
aS'309'
p473
aS'429'
p474
aa(lp475
I6340
aS'12'
p476
aS'227'
p477
aasS'4ECY'
p478
(lp479
(lp480
I5444
aS'309'
p481
aS'429'
p482
aa(lp483
I6340
aS'12'
p484
aS'227'
p485
aasS'4ECZ'
p486
(lp487
(lp488
I5444
aS'309'
p489
aS'429'
p490
aa(lp491
I6340
aS'12'
p492
aS'227'
p493
aasS'3R7A'
p494
(lp495
(lp496
I3342
aS'13'
p497
aS'221'
p498
aasS'4ECT'
p499
(lp500
(lp501
I5444
aS'309'
p502
aS'429'
p503
aa(lp504
I6340
aS'12'
p505
aS'227'
p506
aasS'4ECU'
p507
(lp508
(lp509
I5444
aS'309'
p510
aS'429'
p511
aa(lp512
I6340
aS'12'
p513
aS'227'
p514
aasS'4ECV'
p515
(lp516
(lp517
I5444
aS'309'
p518
aS'429'
p519
aa(lp520
I6340
aS'12'
p521
aS'227'
p522
aasS'4ECW'
p523
(lp524
(lp525
I5444
aS'309'
p526
aS'429'
p527
aa(lp528
I6340
aS'12'
p529
aS'227'
p530
aasS'4QHE'
p531
(lp532
(lp533
I4242
aS'66'
p534
aS'309'
p535
aasS'4ECQ'
p536
(lp537
(lp538
I5444
aS'309'
p539
aS'429'
p540
aa(lp541
I6340
aS'12'
p542
aS'227'
p543
aasS'4ECR'
p544
(lp545
(lp546
I5444
aS'309'
p547
aS'429'
p548
aa(lp549
I6340
aS'12'
p550
aS'227'
p551
aasS'4ECS'
p552
(lp553
(lp554
I5444
aS'309'
p555
aS'429'
p556
aa(lp557
I6340
aS'12'
p558
aS'227'
p559
aasS'2W7O'
p560
(lp561
(lp562
I2188
aS'340'
p563
aS'370'
p564
aa(lp565
I5444
aS'410'
p566
aS'520'
p567
aa(lp568
I6340
aS'106'
p569
aS'325'
p570
aasS'4Q4Y'
p571
(lp572
(lp573
I3432
aS'2'
aS'69'
p574
aa(lp575
I3842
aS'58'
p576
aS'222'
p577
aa(lp578
I3842
aS'24'
p579
aS'238'
p580
aa(lp581
I3842
aS'30'
p582
aS'192'
p583
aasS'3EPG'
p584
(lp585
(lp586
I5444
aS'298'
p587
aS'414'
p588
aa(lp589
I6340
aS'33'
p590
aS'210'
p591
aasS'4Q4X'
p592
(lp593
(lp594
I3432
aS'2'
aS'69'
p595
aa(lp596
I3842
aS'58'
p597
aS'222'
p598
aa(lp599
I3842
aS'24'
p600
aS'238'
p601
aa(lp602
I3842
aS'30'
p603
aS'192'
p604
aasS'2J63'
p605
(lp606
(lp607
I4242
aS'133'
p608
aS'437'
p609
aasS'4J9R'
p610
(lp611
(lp612
I5444
aS'309'
p613
aS'429'
p614
aa(lp615
I6340
aS'12'
p616
aS'227'
p617
aasS'2I5P'
p618
(lp619
(lp620
I2081
aS'1'
aS'149'
p621
aa(lp622
I2082
aS'154'
p623
aS'311'
p624
aasS'2RM2'
p625
(lp626
(lp627
I3432
aS'29'
p628
aS'68'
p629
aa(lp630
I3842
aS'48'
p631
aS'218'
p632
aa(lp633
I3842
aS'24'
p634
aS'229'
p635
aa(lp636
I3842
aS'30'
p637
aS'191'
p638
aasS'3KKK'
p639
(lp640
(lp641
I3342
aS'6'
aS'125'
p642
aasS'4ODI'
p643
(lp644
(lp645
I3342
aS'21'
p646
aS'143'
p647
aasS'1RMU'
p648
(lp649
(lp650
I3432
aS'29'
p651
aS'68'
p652
aa(lp653
I3842
aS'48'
p654
aS'218'
p655
aa(lp656
I3842
aS'24'
p657
aS'229'
p658
aa(lp659
I3842
aS'30'
p660
aS'191'
p661
aasS'3LC1'
p662
(lp663
(lp664
I2081
aS'3'
aS'151'
p665
aa(lp666
I2082
aS'156'
p667
aS'314'
p668
aasS'3LC2'
p669
(lp670
(lp671
I2081
aS'3'
aS'151'
p672
aa(lp673
I2082
aS'156'
p674
aS'314'
p675
aasS'3LC7'
p676
(lp677
(lp678
I2081
aS'3'
aS'151'
p679
aa(lp680
I2082
aS'156'
p681
aS'314'
p682
aasS'3DB1'
p683
(lp684
(lp685
I3342
aS'411'
p686
aS'575'
p687
aasS'3BJY'
p688
(lp689
(lp690
I5444
aS'619'
p691
aS'736'
p692
aa(lp693
I6340
aS'361'
p694
aS'521'
p695
aasS'3W2X'
p696
(lp697
(lp698
I4242
aS'8'
aS'248'
p699
aasS'3W2Y'
p700
(lp701
(lp702
I4242
aS'8'
aS'248'
p703
aasS'1AYN'
p704
(lp705
(lp706
I3432
aS'1'
aS'44'
p707
aa(lp708
I3842
aS'48'
p709
aS'204'
p710
aa(lp711
I3842
aS'24'
p712
aS'230'
p713
aa(lp714
I3842
aS'30'
p715
aS'193'
p716
aasS'4O59'
p717
(lp718
(lp719
I2081
aS'1'
aS'149'
p720
aa(lp721
I2082
aS'154'
p722
aS'311'
p723
aasS'1VBC'
p724
(lp725
(lp726
I3432
aS'2'
aS'69'
p727
aa(lp728
I3842
aS'58'
p729
aS'217'
p730
aa(lp731
I3842
aS'24'
p732
aS'238'
p733
aa(lp734
I3842
aS'30'
p735
aS'183'
p736
aasS'1VBB'
p737
(lp738
(lp739
I3432
aS'2'
aS'69'
p740
aa(lp741
I3842
aS'58'
p742
aS'217'
p743
aa(lp744
I3842
aS'24'
p745
aS'238'
p746
aa(lp747
I3842
aS'30'
p748
aS'183'
p749
aasS'1VBA'
p750
(lp751
(lp752
I3432
aS'2'
aS'69'
p753
aa(lp754
I3842
aS'58'
p755
aS'217'
p756
aa(lp757
I3842
aS'24'
p758
aS'238'
p759
aa(lp760
I3842
aS'30'
p761
aS'183'
p762
aasS'3TQ1'
p763
(lp764
(lp765
I5444
aS'309'
p766
aS'429'
p767
aa(lp768
I6340
aS'12'
p769
aS'227'
p770
aasS'1VBE'
p771
(lp772
(lp773
I3432
aS'2'
aS'69'
p774
aa(lp775
I3842
aS'58'
p776
aS'217'
p777
aa(lp778
I3842
aS'24'
p779
aS'238'
p780
aa(lp781
I3842
aS'30'
p782
aS'183'
p783
aasS'1VBD'
p784
(lp785
(lp786
I3432
aS'2'
aS'69'
p787
aa(lp788
I3842
aS'58'
p789
aS'220'
p790
aa(lp791
I3842
aS'24'
p792
aS'239'
p793
aa(lp794
I3842
aS'30'
p795
aS'183'
p796
aasS'1C80'
p797
(lp798
(lp799
I3342
aS'4'
aS'187'
p800
aasS'1C81'
p801
(lp802
(lp803
I3342
aS'253'
p804
aS'436'
p805
aasS'4K9D'
p806
(lp807
(lp808
I2081
aS'5'
aS'157'
p809
aa(lp810
I2082
aS'162'
p811
aS'319'
p812
aasS'5PGM'
p813
(lp814
(lp815
I3342
aS'3'
aS'122'
p816
aa(lp817
I3342
aS'143'
p818
aS'209'
p819
aasS'4B5H'
p820
(lp821
(lp822
I4242
aS'6'
aS'247'
p823
aasS'3V1Y'
p824
(lp825
(lp826
I2081
aS'4'
aS'154'
p827
aa(lp828
I2082
aS'159'
p829
aS'316'
p830
aasS'3G1K'
p831
(lp832
(lp833
I4242
aS'8'
aS'248'
p834
aasS'1C8M'
p835
(lp836
(lp837
I3432
aS'1'
aS'44'
p838
aa(lp839
I3842
aS'48'
p840
aS'204'
p841
aa(lp842
I3842
aS'24'
p843
aS'230'
p844
aa(lp845
I3842
aS'30'
p846
aS'193'
p847
aasS'2AXN'
p848
(lp849
(lp850
I3342
aS'248'
p851
aS'431'
p852
aa(lp853
I7408
aS'25'
p854
aS'245'
p855
aasS'2YN2'
p856
(lp857
(lp858
I3342
aS'6'
aS'183'
p859
aasS'3EZN'
p860
(lp861
(lp862
I3342
aS'4'
aS'127'
p863
aa(lp864
I3342
aS'142'
p865
aS'217'
p866
aasS'4BOY'
p867
(lp868
(lp869
I2081
aS'2'
aS'154'
p870
aa(lp871
I2082
aS'159'
p872
aS'315'
p873
aasS'1H2E'
p874
(lp875
(lp876
I3342
aS'5'
aS'196'
p877
aasS'1H2F'
p878
(lp879
(lp880
I3342
aS'5'
aS'196'
p881
aasS'3DBV'
p882
(lp883
(lp884
I2081
aS'1'
aS'149'
p885
aa(lp886
I2082
aS'154'
p887
aS'311'
p888
aasS'1D3I'
p889
(lp890
(lp891
I3432
aS'29'
p892
aS'68'
p893
aa(lp894
I3842
aS'48'
p895
aS'218'
p896
aa(lp897
I3842
aS'24'
p898
aS'229'
p899
aa(lp900
I3842
aS'30'
p901
aS'191'
p902
aa(lp903
I6224
aS'1'
aS'88'
p904
aasS'1OBF'
p905
(lp906
(lp907
I2081
aS'2'
aS'154'
p908
aa(lp909
I2082
aS'159'
p910
aS'314'
p911
aasS'5DFF'
p912
(lp913
(lp914
I4242
aS'66'
p915
aS'309'
p916
aasS'5DFI'
p917
(lp918
(lp919
I4242
aS'66'
p920
aS'309'
p921
aasS'5DFH'
p922
(lp923
(lp924
I4242
aS'66'
p925
aS'309'
p926
aasS'1JIH'
p927
(lp928
(lp929
I5444
aS'386'
p930
aS'505'
p931
aa(lp932
I6340
aS'29'
p933
aS'276'
p934
aasS'5DFJ'
p935
(lp936
(lp937
I4242
aS'66'
p938
aS'309'
p939
aasS'2I1V'
p940
(lp941
(lp942
I3342
aS'248'
p943
aS'431'
p944
aa(lp945
I7408
aS'25'
p946
aS'245'
p947
aasS'1FBT'
p948
(lp949
(lp950
I3342
aS'3'
aS'186'
p951
aasS'3G38'
p952
(lp953
(lp954
I4242
aS'8'
aS'248'
p955
aasS'1RHI'
p956
(lp957
(lp958
I3432
aS'26'
p959
aS'68'
p960
aa(lp961
I3842
aS'48'
p962
aS'205'
p963
aa(lp964
I3842
aS'24'
p965
aS'229'
p966
aa(lp967
I3842
aS'30'
p968
aS'191'
p969
aasS'1J0X'
p970
(lp971
(lp972
I2081
aS'1'
aS'149'
p973
aa(lp974
I2082
aS'154'
p975
aS'311'
p976
aasS'3ZFG'
p977
(lp978
(lp979
I3432
aS'13'
p980
aS'65'
p981
aa(lp982
I3842
aS'61'
p983
aS'207'
p984
aa(lp985
I3842
aS'24'
p986
aS'224'
p987
aa(lp988
I3842
aS'30'
p989
aS'198'
p990
aasS'3ZFF'
p991
(lp992
(lp993
I3432
aS'13'
p994
aS'65'
p995
aa(lp996
I3842
aS'61'
p997
aS'207'
p998
aa(lp999
I3842
aS'24'
p1000
aS'224'
p1001
aa(lp1002
I3842
aS'30'
p1003
aS'198'
p1004
aasS'3I48'
p1005
(lp1006
(lp1007
I4242
aS'14'
p1008
aS'289'
p1009
aasS'1K6M'
p1010
(lp1011
(lp1012
I3342
aS'253'
p1013
aS'436'
p1014
aa(lp1015
I7408
aS'39'
p1016
aS'250'
p1017
aasS'3I41'
p1018
(lp1019
(lp1020
I4242
aS'14'
p1021
aS'289'
p1022
aasS'3I46'
p1023
(lp1024
(lp1025
I4242
aS'14'
p1026
aS'289'
p1027
aasS'4RU9'
p1028
(lp1029
(lp1030
I5444
aS'309'
p1031
aS'429'
p1032
aa(lp1033
I6340
aS'12'
p1034
aS'227'
p1035
aasS'5C9A'
p1036
(lp1037
(lp1038
I3432
aS'12'
p1039
aS'78'
p1040
aa(lp1041
I3842
aS'65'
p1042
aS'208'
p1043
aa(lp1044
I3842
aS'103'
p1045
aS'303'
p1046
aa(lp1047
I3842
aS'29'
p1048
aS'198'
p1049
aasS'1HRI'
p1050
(lp1051
(lp1052
I3432
aS'29'
p1053
aS'68'
p1054
aa(lp1055
I3842
aS'48'
p1056
aS'218'
p1057
aa(lp1058
I3842
aS'24'
p1059
aS'229'
p1060
aa(lp1061
I3842
aS'30'
p1062
aS'191'
p1063
aasS'2EP7'
p1064
(lp1065
(lp1066
I2081
aS'3'
aS'152'
p1067
aa(lp1068
I2082
aS'157'
p1069
aS'320'
p1070
aasS'1BQ3'
p1071
(lp1072
(lp1073
I3342
aS'3'
aS'122'
p1074
aa(lp1075
I3342
aS'143'
p1076
aS'209'
p1077
aasS'3OI7'
p1078
(lp1079
(lp1080
I3342
aS'9'
aS'193'
p1081
aasS'1DSS'
p1082
(lp1083
(lp1084
I2081
aS'2'
aS'149'
p1085
aa(lp1086
I2082
aS'154'
p1087
aS'311'
p1088
aasS'1BQ4'
p1089
(lp1090
(lp1091
I3342
aS'3'
aS'122'
p1092
aa(lp1093
I3342
aS'143'
p1094
aS'209'
p1095
aasS'1HRV'
p1096
(lp1097
(lp1098
I3432
aS'29'
p1099
aS'68'
p1100
aa(lp1101
I3842
aS'48'
p1102
aS'218'
p1103
aa(lp1104
I3842
aS'24'
p1105
aS'229'
p1106
aa(lp1107
I3842
aS'30'
p1108
aS'191'
p1109
aasS'4YR3'
p1110
(lp1111
(lp1112
I5444
aS'309'
p1113
aS'429'
p1114
aa(lp1115
I6340
aS'12'
p1116
aS'227'
p1117
aasS'4YR2'
p1118
(lp1119
(lp1120
I5444
aS'309'
p1121
aS'429'
p1122
aa(lp1123
I6340
aS'12'
p1124
aS'227'
p1125
aasS'4YR0'
p1126
(lp1127
(lp1128
I5444
aS'309'
p1129
aS'429'
p1130
aa(lp1131
I6340
aS'12'
p1132
aS'227'
p1133
aasS'2IMQ'
p1134
(lp1135
(lp1136
I4242
aS'12'
p1137
aS'255'
p1138
aasS'1T8P'
p1139
(lp1140
(lp1141
I3342
aS'6'
aS'129'
p1142
aa(lp1143
I3342
aS'150'
p1144
aS'222'
p1145
aasS'2ENU'
p1146
(lp1147
(lp1148
I3342
aS'3'
aS'144'
p1149
aasS'2ENW'
p1150
(lp1151
(lp1152
I3342
aS'3'
aS'144'
p1153
aasS'2H52'
p1154
(lp1155
(lp1156
I3342
aS'6'
aS'129'
p1157
aa(lp1158
I3342
aS'150'
p1159
aS'222'
p1160
aasS'4PZ9'
p1161
(lp1162
(lp1163
I3342
aS'6'
aS'213'
p1164
aasS'3ZFE'
p1165
(lp1166
(lp1167
I3432
aS'13'
p1168
aS'65'
p1169
aa(lp1170
I3842
aS'61'
p1171
aS'207'
p1172
aa(lp1173
I3842
aS'24'
p1174
aS'224'
p1175
aa(lp1176
I3842
aS'30'
p1177
aS'198'
p1178
aasS'1HD7'
p1179
(lp1180
(lp1181
I4242
aS'66'
p1182
aS'309'
p1183
aasS'4A9C'
p1184
(lp1185
(lp1186
I4242
aS'429'
p1187
aS'718'
p1188
aasS'1AL2'
p1189
(lp1190
(lp1191
I3432
aS'2'
aS'69'
p1192
aa(lp1193
I3842
aS'58'
p1194
aS'220'
p1195
aa(lp1196
I3842
aS'24'
p1197
aS'239'
p1198
aa(lp1199
I3842
aS'30'
p1200
aS'183'
p1201
aasS'3GV5'
p1202
(lp1203
(lp1204
I5444
aS'298'
p1205
aS'414'
p1206
aa(lp1207
I6340
aS'33'
p1208
aS'210'
p1209
aasS'3GV7'
p1210
(lp1211
(lp1212
I5444
aS'298'
p1213
aS'414'
p1214
aa(lp1215
I6340
aS'33'
p1216
aS'210'
p1217
aasS'3GV8'
p1218
(lp1219
(lp1220
I5444
aS'298'
p1221
aS'414'
p1222
aa(lp1223
I6340
aS'33'
p1224
aS'210'
p1225
aasS'2BIF'
p1226
(lp1227
(lp1228
I3342
aS'251'
p1229
aS'433'
p1230
aa(lp1231
I7408
aS'37'
p1232
aS'248'
p1233
aasS'3KSD'
p1234
(lp1235
(lp1236
I2081
aS'3'
aS'150'
p1237
aa(lp1238
I2082
aS'156'
p1239
aS'314'
p1240
aasS'1Y21'
p1241
(lp1242
(lp1243
I4242
aS'12'
p1244
aS'255'
p1245
aasS'4IR1'
p1246
(lp1247
(lp1248
I2188
aS'166'
p1249
aS'197'
p1250
aa(lp1251
I5444
aS'235'
p1252
aS'341'
p1253
aa(lp1254
I6340
aS'7'
aS'154'
p1255
aasS'4ED7'
p1256
(lp1257
(lp1258
I5444
aS'309'
p1259
aS'429'
p1260
aa(lp1261
I6340
aS'12'
p1262
aS'227'
p1263
aasS'1NA1'
p1264
(lp1265
(lp1266
I3432
aS'29'
p1267
aS'68'
p1268
aa(lp1269
I3842
aS'48'
p1270
aS'218'
p1271
aa(lp1272
I3842
aS'24'
p1273
aS'229'
p1274
aa(lp1275
I3842
aS'30'
p1276
aS'191'
p1277
aasS'4IR9'
p1278
(lp1279
(lp1280
I2188
aS'166'
p1281
aS'197'
p1282
aa(lp1283
I5444
aS'235'
p1284
aS'341'
p1285
aa(lp1286
I6340
aS'7'
aS'154'
p1287
aasS'1U8F'
p1288
(lp1289
(lp1290
I2081
aS'4'
aS'152'
p1291
aa(lp1292
I2082
aS'157'
p1293
aS'314'
p1294
aasS'4IRC'
p1295
(lp1296
(lp1297
I2188
aS'166'
p1298
aS'197'
p1299
aa(lp1300
I5444
aS'235'
p1301
aS'340'
p1302
aa(lp1303
I6340
aS'7'
aS'154'
p1304
aasS'3PFW'
p1305
(lp1306
(lp1307
I2081
aS'77'
p1308
aS'224'
p1309
aa(lp1310
I2082
aS'229'
p1311
aS'386'
p1312
aasS'4IRD'
p1313
(lp1314
(lp1315
I2188
aS'166'
p1316
aS'197'
p1317
aa(lp1318
I5444
aS'235'
p1319
aS'340'
p1320
aa(lp1321
I6340
aS'7'
aS'154'
p1322
aasS'4IRK'
p1323
(lp1324
(lp1325
I2188
aS'166'
p1326
aS'197'
p1327
aa(lp1328
I5444
aS'235'
p1329
aS'340'
p1330
aa(lp1331
I6340
aS'7'
aS'154'
p1332
aasS'1ND3'
p1333
(lp1334
(lp1335
I3432
aS'1'
aS'44'
p1336
aa(lp1337
I3842
aS'48'
p1338
aS'204'
p1339
aa(lp1340
I3842
aS'24'
p1341
aS'230'
p1342
aa(lp1343
I3842
aS'30'
p1344
aS'193'
p1345
aasS'4HBZ'
p1346
(lp1347
(lp1348
I3342
aS'19'
p1349
aS'85'
p1350
aasS'4B5F'
p1351
(lp1352
(lp1353
I4242
aS'6'
aS'247'
p1354
aasS'4MA4'
p1355
(lp1356
(lp1357
I3342
aS'248'
p1358
aS'431'
p1359
aa(lp1360
I7408
aS'32'
p1361
aS'245'
p1362
aasS'3STH'
p1363
(lp1364
(lp1365
I2081
aS'4'
aS'152'
p1366
aa(lp1367
I2082
aS'157'
p1368
aS'317'
p1369
aasS'2RR1'
p1370
(lp1371
(lp1372
I3432
aS'29'
p1373
aS'68'
p1374
aa(lp1375
I3842
aS'48'
p1376
aS'218'
p1377
aa(lp1378
I3842
aS'24'
p1379
aS'229'
p1380
aa(lp1381
I3842
aS'30'
p1382
aS'191'
p1383
aasS'3G6S'
p1384
(lp1385
(lp1386
I4242
aS'7'
aS'251'
p1387
aasS'4AED'
p1388
(lp1389
(lp1390
I3432
aS'13'
p1391
aS'65'
p1392
aa(lp1393
I3842
aS'61'
p1394
aS'207'
p1395
aa(lp1396
I3842
aS'24'
p1397
aS'224'
p1398
aa(lp1399
I3842
aS'30'
p1400
aS'198'
p1401
aasS'3G2D'
p1402
(lp1403
(lp1404
I4242
aS'8'
aS'248'
p1405
aasS'4DL2'
p1406
(lp1407
(lp1408
I5444
aS'309'
p1409
aS'429'
p1410
aa(lp1411
I6340
aS'12'
p1412
aS'227'
p1413
aasS'4DL3'
p1414
(lp1415
(lp1416
I5444
aS'309'
p1417
aS'429'
p1418
aa(lp1419
I6340
aS'12'
p1420
aS'227'
p1421
aasS'4DL4'
p1422
(lp1423
(lp1424
I5444
aS'309'
p1425
aS'429'
p1426
aa(lp1427
I6340
aS'12'
p1428
aS'227'
p1429
aasS'4DL5'
p1430
(lp1431
(lp1432
I5444
aS'309'
p1433
aS'429'
p1434
aa(lp1435
I6340
aS'12'
p1436
aS'227'
p1437
aasS'4DL6'
p1438
(lp1439
(lp1440
I5444
aS'309'
p1441
aS'429'
p1442
aa(lp1443
I6340
aS'12'
p1444
aS'227'
p1445
aasS'4DL7'
p1446
(lp1447
(lp1448
I5444
aS'309'
p1449
aS'429'
p1450
aa(lp1451
I6340
aS'12'
p1452
aS'227'
p1453
aasS'1RUF'
p1454
(lp1455
(lp1456
I3432
aS'29'
p1457
aS'68'
p1458
aa(lp1459
I3842
aS'48'
p1460
aS'208'
p1461
aa(lp1462
I3842
aS'24'
p1463
aS'229'
p1464
aa(lp1465
I3842
aS'30'
p1466
aS'191'
p1467
aasS'1RUG'
p1468
(lp1469
(lp1470
I3432
aS'29'
p1471
aS'68'
p1472
aa(lp1473
I3842
aS'48'
p1474
aS'207'
p1475
aa(lp1476
I3842
aS'24'
p1477
aS'229'
p1478
aa(lp1479
I3842
aS'30'
p1480
aS'191'
p1481
aasS'1RUD'
p1482
(lp1483
(lp1484
I3432
aS'29'
p1485
aS'68'
p1486
aa(lp1487
I3842
aS'48'
p1488
aS'218'
p1489
aa(lp1490
I3842
aS'24'
p1491
aS'229'
p1492
aa(lp1493
I3842
aS'30'
p1494
aS'191'
p1495
aasS'1RUE'
p1496
(lp1497
(lp1498
I3432
aS'29'
p1499
aS'68'
p1500
aa(lp1501
I3842
aS'48'
p1502
aS'208'
p1503
aa(lp1504
I3842
aS'24'
p1505
aS'229'
p1506
aa(lp1507
I3842
aS'30'
p1508
aS'191'
p1509
aasS'1RUC'
p1510
(lp1511
(lp1512
I3432
aS'29'
p1513
aS'68'
p1514
aa(lp1515
I3842
aS'48'
p1516
aS'218'
p1517
aa(lp1518
I3842
aS'24'
p1519
aS'229'
p1520
aa(lp1521
I3842
aS'30'
p1522
aS'191'
p1523
aasS'3O0T'
p1524
(lp1525
(lp1526
I3342
aS'100'
p1527
aS'272'
p1528
aasS'1ZET'
p1529
(lp1530
(lp1531
I5444
aS'298'
p1532
aS'414'
p1533
aa(lp1534
I6340
aS'33'
p1535
aS'210'
p1536
aasS'2IKQ'
p1537
(lp1538
(lp1539
I3342
aS'425'
p1540
aS'587'
p1541
aasS'1RUJ'
p1542
(lp1543
(lp1544
I3432
aS'29'
p1545
aS'68'
p1546
aa(lp1547
I3842
aS'48'
p1548
aS'218'
p1549
aa(lp1550
I3842
aS'24'
p1551
aS'229'
p1552
aa(lp1553
I3842
aS'30'
p1554
aS'191'
p1555
aasS'3CMC'
p1556
(lp1557
(lp1558
I2081
aS'1'
aS'149'
p1559
aa(lp1560
I2082
aS'154'
p1561
aS'311'
p1562
aasS'1RUI'
p1563
(lp1564
(lp1565
I3432
aS'29'
p1566
aS'68'
p1567
aa(lp1568
I3842
aS'48'
p1569
aS'218'
p1570
aa(lp1571
I3842
aS'24'
p1572
aS'229'
p1573
aa(lp1574
I3842
aS'30'
p1575
aS'191'
p1576
aasS'1R1A'
p1577
(lp1578
(lp1579
I3432
aS'26'
p1580
aS'44'
p1581
aa(lp1582
I3842
aS'48'
p1583
aS'203'
p1584
aa(lp1585
I3842
aS'25'
p1586
aS'231'
p1587
aa(lp1588
I3842
aS'30'
p1589
aS'193'
p1590
aasS'3PZP'
p1591
(lp1592
(lp1593
I2188
aS'340'
p1594
aS'370'
p1595
aa(lp1596
I5444
aS'410'
p1597
aS'520'
p1598
aa(lp1599
I6340
aS'106'
p1600
aS'325'
p1601
aasS'4EBE'
p1602
(lp1603
(lp1604
I5444
aS'298'
p1605
aS'414'
p1606
aa(lp1607
I6340
aS'33'
p1608
aS'210'
p1609
aasS'4EBD'
p1610
(lp1611
(lp1612
I5444
aS'298'
p1613
aS'414'
p1614
aa(lp1615
I6340
aS'33'
p1616
aS'210'
p1617
aasS'4EBC'
p1618
(lp1619
(lp1620
I5444
aS'298'
p1621
aS'414'
p1622
aa(lp1623
I6340
aS'33'
p1624
aS'210'
p1625
aasS'3Q8P'
p1626
(lp1627
(lp1628
I5444
aS'298'
p1629
aS'414'
p1630
aa(lp1631
I6340
aS'33'
p1632
aS'210'
p1633
aasS'3Q8Q'
p1634
(lp1635
(lp1636
I5444
aS'298'
p1637
aS'414'
p1638
aa(lp1639
I6340
aS'33'
p1640
aS'210'
p1641
aasS'3Q8R'
p1642
(lp1643
(lp1644
I5444
aS'298'
p1645
aS'414'
p1646
aa(lp1647
I6340
aS'33'
p1648
aS'210'
p1649
aasS'3Q8S'
p1650
(lp1651
(lp1652
I5444
aS'298'
p1653
aS'414'
p1654
aa(lp1655
I6340
aS'33'
p1656
aS'210'
p1657
aasS'2XSW'
p1658
(lp1659
(lp1660
I4242
aS'304'
p1661
aS'584'
p1662
aasS'2DPJ'
p1663
(lp1664
(lp1665
I5444
aS'298'
p1666
aS'414'
p1667
aa(lp1668
I6340
aS'33'
p1669
aS'210'
p1670
aasS'2DPI'
p1671
(lp1672
(lp1673
I5444
aS'298'
p1674
aS'414'
p1675
aa(lp1676
I6340
aS'33'
p1677
aS'210'
p1678
aasS'3EPI'
p1679
(lp1680
(lp1681
I5444
aS'298'
p1682
aS'414'
p1683
aa(lp1684
I6340
aS'33'
p1685
aS'210'
p1686
aasS'4FPV'
p1687
(lp1688
(lp1689
I4242
aS'127'
p1690
aS'360'
p1691
aasS'3BIF'
p1692
(lp1693
(lp1694
I3342
aS'251'
p1695
aS'433'
p1696
aa(lp1697
I7408
aS'37'
p1698
aS'248'
p1699
aasS'3MFH'
p1700
(lp1701
(lp1702
I5444
aS'386'
p1703
aS'505'
p1704
aa(lp1705
I6340
aS'29'
p1706
aS'276'
p1707
aasS'2DBV'
p1708
(lp1709
(lp1710
I2081
aS'1'
aS'149'
p1711
aa(lp1712
I2082
aS'154'
p1713
aS'311'
p1714
aasS'1UJC'
p1715
(lp1716
(lp1717
I3342
aS'3'
aS'71'
p1718
aasS'4WM8'
p1719
(lp1720
(lp1721
I3432
aS'29'
p1722
aS'67'
p1723
aa(lp1724
I3842
aS'41'
p1725
aS'212'
p1726
aa(lp1727
I3842
aS'25'
p1728
aS'217'
p1729
aa(lp1730
I3842
aS'30'
p1731
aS'194'
p1732
aasS'4IEM'
p1733
(lp1734
(lp1735
I4242
aS'66'
p1736
aS'309'
p1737
aasS'4B5I'
p1738
(lp1739
(lp1740
I4242
aS'6'
aS'247'
p1741
aasS'3D8H'
p1742
(lp1743
(lp1744
I3342
aS'23'
p1745
aS'144'
p1746
aa(lp1747
I3342
aS'166'
p1748
aS'238'
p1749
aasS'4B5J'
p1750
(lp1751
(lp1752
I4242
aS'6'
aS'247'
p1753
aasS'4B5M'
p1754
(lp1755
(lp1756
I4242
aS'6'
aS'247'
p1757
aasS'1VSU'
p1758
(lp1759
(lp1760
I2081
aS'5'
aS'153'
p1761
aa(lp1762
I2082
aS'158'
p1763
aS'317'
p1764
aasS'1VSV'
p1765
(lp1766
(lp1767
I2081
aS'5'
aS'153'
p1768
aa(lp1769
I2082
aS'158'
p1770
aS'317'
p1771
aasS'4B5G'
p1772
(lp1773
(lp1774
I4242
aS'6'
aS'247'
p1775
aasS'3VBF'
p1776
(lp1777
(lp1778
I3432
aS'12'
p1779
aS'65'
p1780
aa(lp1781
I3842
aS'61'
p1782
aS'207'
p1783
aa(lp1784
I3842
aS'24'
p1785
aS'224'
p1786
aa(lp1787
I3842
aS'30'
p1788
aS'198'
p1789
aasS'4C1R'
p1790
(lp1791
(lp1792
I4242
aS'30'
p1793
aS'300'
p1794
aasS'1Z7S'
p1795
(lp1796
(lp1797
I3432
aS'2'
aS'69'
p1798
aa(lp1799
I3842
aS'53'
p1800
aS'213'
p1801
aa(lp1802
I3842
aS'24'
p1803
aS'238'
p1804
aa(lp1805
I3842
aS'30'
p1806
aS'191'
p1807
aasS'3J3O'
p1808
(lp1809
(lp1810
I1690
aS'120'
p1811
aS'205'
p1812
aa(lp1813
I1690
aS'130'
p1814
aS'218'
p1815
aa(lp1816
I2388
aS'6'
aS'106'
p1817
aa(lp1818
I2388
aS'5'
aS'111'
p1819
aa(lp1820
I3432
aS'2'
aS'69'
p1821
aa(lp1822
I3842
aS'58'
p1823
aS'220'
p1824
aa(lp1825
I3842
aS'24'
p1826
aS'239'
p1827
aa(lp1828
I3842
aS'30'
p1829
aS'183'
p1830
aasS'3G6V'
p1831
(lp1832
(lp1833
I5444
aS'298'
p1834
aS'414'
p1835
aa(lp1836
I6340
aS'33'
p1837
aS'210'
p1838
aasS'3G6X'
p1839
(lp1840
(lp1841
I5444
aS'298'
p1842
aS'414'
p1843
aa(lp1844
I6340
aS'33'
p1845
aS'210'
p1846
aasS'3G6Y'
p1847
(lp1848
(lp1849
I5444
aS'298'
p1850
aS'414'
p1851
aa(lp1852
I6340
aS'33'
p1853
aS'210'
p1854
aasS'3VBS'
p1855
(lp1856
(lp1857
I3432
aS'12'
p1858
aS'65'
p1859
aa(lp1860
I3842
aS'61'
p1861
aS'207'
p1862
aa(lp1863
I3842
aS'24'
p1864
aS'224'
p1865
aa(lp1866
I3842
aS'30'
p1867
aS'198'
p1868
aasS'1V7Q'
p1869
(lp1870
(lp1871
I3342
aS'3'
aS'144'
p1872
aasS'2Y0S'
p1873
(lp1874
(lp1875
I410
aS'10'
p1876
aS'77'
p1877
aa(lp1878
I1770
aS'10'
p1879
aS'116'
p1880
aa(lp1881
I1874
aS'44'
p1882
aS'156'
p1883
aa(lp1884
I2150
aS'4'
aS'313'
p1885
aa(lp1886
I2154
aS'677'
p1887
aS'782'
p1888
aa(lp1889
I2534
aS'14'
p1890
aS'81'
p1891
aa(lp1892
I2559
aS'13'
p1893
aS'82'
p1894
aa(lp1895
I2833
aS'82'
p1896
aS'151'
p1897
aa(lp1898
I3290
aS'22'
p1899
aS'76'
p1900
aa(lp1901
I3356
aS'17'
p1902
aS'252'
p1903
aa(lp1904
I3357
aS'1'
aS'58'
p1905
aa(lp1906
I3506
aS'415'
p1907
aS'479'
p1908
aa(lp1909
I4336
aS'607'
p1910
aS'645'
p1911
aa(lp1912
I4337
aS'523'
p1913
aS'585'
p1914
aa(lp1915
I4338
aS'1027'
p1916
aS'1118'
p1917
aa(lp1918
I4339
aS'655'
p1919
aS'1025'
p1920
aa(lp1921
I4340
aS'25'
p1922
aS'394'
p1923
aa(lp1924
I4342
aS'172'
p1925
aS'347'
p1926
aa(lp1927
I4457
aS'39'
p1928
aS'59'
p1929
aa(lp1930
I5408
aS'315'
p1931
aS'482'
p1932
aa(lp1933
I5409
aS'485'
p1934
aS'651'
p1935
aa(lp1936
I5415
aS'789'
p1937
aS'855'
p1938
aa(lp1939
I5415
aS'27'
p1940
aS'340'
p1941
aa(lp1942
I5642
aS'28'
p1943
aS'92'
p1944
aasS'4WNC'
p1945
(lp1946
(lp1947
I2081
aS'4'
aS'152'
p1948
aa(lp1949
I2082
aS'157'
p1950
aS'314'
p1951
aasS'3HQ4'
p1952
(lp1953
(lp1954
I2081
aS'3'
aS'150'
p1955
aa(lp1956
I2082
aS'156'
p1957
aS'314'
p1958
aasS'1K3T'
p1959
(lp1960
(lp1961
I2081
aS'3'
aS'166'
p1962
aa(lp1963
I2082
aS'171'
p1964
aS'333'
p1965
aasS'2HWD'
p1966
(lp1967
(lp1968
I3432
aS'26'
p1969
aS'44'
p1970
aa(lp1971
I3842
aS'48'
p1972
aS'203'
p1973
aa(lp1974
I3842
aS'25'
p1975
aS'231'
p1976
aa(lp1977
I3842
aS'30'
p1978
aS'193'
p1979
aasS'2X5K'
p1980
(lp1981
(lp1982
I2081
aS'1'
aS'148'
p1983
aa(lp1984
I2082
aS'154'
p1985
aS'311'
p1986
aasS'4Z0V'
p1987
(lp1988
(lp1989
I4242
aS'299'
p1990
aS'599'
p1991
aasS'3L4S'
p1992
(lp1993
(lp1994
I2081
aS'3'
aS'150'
p1995
aa(lp1996
I2082
aS'156'
p1997
aS'314'
p1998
aasS'4CML'
p1999
(lp2000
(lp2001
I4242
aS'270'
p2002
aS'549'
p2003
aasS'4CMN'
p2004
(lp2005
(lp2006
I4242
aS'245'
p2007
aS'524'
p2008
aasS'2HIA'
p2009
(lp2010
(lp2011
I3342
aS'3'
aS'144'
p2012
aasS'4WNI'
p2013
(lp2014
(lp2015
I2081
aS'4'
aS'152'
p2016
aa(lp2017
I2082
aS'157'
p2018
aS'314'
p2019
aasS'2ALZ'
p2020
(lp2021
(lp2022
I5444
aS'298'
p2023
aS'414'
p2024
aa(lp2025
I6340
aS'33'
p2026
aS'210'
p2027
aasS'3CIF'
p2028
(lp2029
(lp2030
I2081
aS'5'
aS'152'
p2031
aa(lp2032
I2082
aS'158'
p2033
aS'317'
p2034
aasS'3I5V'
p2035
(lp2036
(lp2037
I4242
aS'14'
p2038
aS'285'
p2039
aasS'1RM5'
p2040
(lp2041
(lp2042
I2081
aS'2'
aS'149'
p2043
aa(lp2044
I2082
aS'154'
p2045
aS'311'
p2046
aasS'3B1J'
p2047
(lp2048
(lp2049
I2081
aS'3'
aS'155'
p2050
aa(lp2051
I2082
aS'160'
p2052
aS'316'
p2053
aa(lp2054
I5436
aS'55'
p2055
aS'74'
p2056
aasS'3B1K'
p2057
(lp2058
(lp2059
I2081
aS'3'
aS'155'
p2060
aa(lp2061
I2082
aS'160'
p2062
aS'316'
p2063
aa(lp2064
I5436
aS'55'
p2065
aS'74'
p2066
aasS'4DIB'
p2067
(lp2068
(lp2069
I2081
aS'3'
aS'151'
p2070
aa(lp2071
I2082
aS'156'
p2072
aS'312'
p2073
aasS'2A6P'
p2074
(lp2075
(lp2076
I3342
aS'8'
aS'191'
p2077
aasS'1YWG'
p2078
(lp2079
(lp2080
I2081
aS'5'
aS'153'
p2081
aa(lp2082
I2082
aS'158'
p2083
aS'317'
p2084
aasS'4Q8E'
p2085
(lp2086
(lp2087
I5444
aS'309'
p2088
aS'429'
p2089
aa(lp2090
I6340
aS'12'
p2091
aS'227'
p2092
aasS'4Q8F'
p2093
(lp2094
(lp2095
I5444
aS'309'
p2096
aS'429'
p2097
aa(lp2098
I6340
aS'12'
p2099
aS'227'
p2100
aasS'3C7T'
p2101
(lp2102
(lp2103
I3342
aS'121'
p2104
aS'274'
p2105
aasS'3D6A'
p2106
(lp2107
(lp2108
I3342
aS'411'
p2109
aS'575'
p2110
aasS'4RNO'
p2111
(lp2112
(lp2113
I5444
aS'309'
p2114
aS'429'
p2115
aa(lp2116
I6340
aS'12'
p2117
aS'227'
p2118
aasS'2OH2'
p2119
(lp2120
(lp2121
I2188
aS'340'
p2122
aS'370'
p2123
aa(lp2124
I5444
aS'410'
p2125
aS'517'
p2126
aa(lp2127
I6340
aS'106'
p2128
aS'325'
p2129
aasS'2GD1'
p2130
(lp2131
(lp2132
I2081
aS'1'
aS'149'
p2133
aa(lp2134
I2082
aS'154'
p2135
aS'311'
p2136
aasS'2OWD'
p2137
(lp2138
(lp2139
I3342
aS'3'
aS'144'
p2140
aasS'2OWE'
p2141
(lp2142
(lp2143
I3342
aS'3'
aS'144'
p2144
aasS'1YJX'
p2145
(lp2146
(lp2147
I3342
aS'6'
aS'128'
p2148
aa(lp2149
I3342
aS'143'
p2150
aS'213'
p2151
aasS'3GA6'
p2152
(lp2153
(lp2154
I4242
aS'1008'
p2155
aS'1248'
p2156
aasS'1PO2'
p2157
(lp2158
(lp2159
I3432
aS'2'
aS'69'
p2160
aa(lp2161
I3842
aS'58'
p2162
aS'220'
p2163
aa(lp2164
I3842
aS'24'
p2165
aS'239'
p2166
aa(lp2167
I3842
aS'30'
p2168
aS'183'
p2169
aasS'3G3Y'
p2170
(lp2171
(lp2172
I4242
aS'8'
aS'248'
p2173
aasS'1PO1'
p2174
(lp2175
(lp2176
I3432
aS'2'
aS'69'
p2177
aa(lp2178
I3842
aS'58'
p2179
aS'220'
p2180
aa(lp2181
I3842
aS'24'
p2182
aS'239'
p2183
aa(lp2184
I3842
aS'30'
p2185
aS'183'
p2186
aasS'1FPN'
p2187
(lp2188
(lp2189
I3432
aS'2'
aS'43'
p2190
aa(lp2191
I3842
aS'49'
p2192
aS'202'
p2193
aa(lp2194
I3842
aS'24'
p2195
aS'232'
p2196
aa(lp2197
I3842
aS'30'
p2198
aS'192'
p2199
aasS'4IJ6'
p2200
(lp2201
(lp2202
I3342
aS'4'
aS'196'
p2203
aasS'4IJ5'
p2204
(lp2205
(lp2206
I3342
aS'4'
aS'196'
p2207
aasS'2O3C'
p2208
(lp2209
(lp2210
I4242
aS'59'
p2211
aS'301'
p2212
aasS'4F1I'
p2213
(lp2214
(lp2215
I1589
aS'46'
p2216
aS'85'
p2217
aa(lp2218
I4242
aS'123'
p2219
aS'353'
p2220
aasS'4F1H'
p2221
(lp2222
(lp2223
I4242
aS'127'
p2224
aS'360'
p2225
aa(lp2226
I4242
aS'127'
p2227
aS'360'
p2228
aasS'1QJU'
p2229
(lp2230
(lp2231
I3432
aS'1'
aS'44'
p2232
aa(lp2233
I3842
aS'48'
p2234
aS'204'
p2235
aa(lp2236
I3842
aS'24'
p2237
aS'230'
p2238
aa(lp2239
I3842
aS'30'
p2240
aS'193'
p2241
aasS'1QJX'
p2242
(lp2243
(lp2244
I3432
aS'1'
aS'44'
p2245
aa(lp2246
I3842
aS'48'
p2247
aS'204'
p2248
aa(lp2249
I3842
aS'24'
p2250
aS'230'
p2251
aa(lp2252
I3842
aS'30'
p2253
aS'193'
p2254
aasS'1QJY'
p2255
(lp2256
(lp2257
I3432
aS'1'
aS'44'
p2258
aa(lp2259
I3842
aS'48'
p2260
aS'204'
p2261
aa(lp2262
I3842
aS'24'
p2263
aS'230'
p2264
aa(lp2265
I3842
aS'30'
p2266
aS'193'
p2267
aasS'3G3C'
p2268
(lp2269
(lp2270
I4242
aS'8'
aS'248'
p2271
aasS'1POV'
p2272
(lp2273
(lp2274
I3432
aS'2'
aS'69'
p2275
aa(lp2276
I3842
aS'93'
p2277
aS'308'
p2278
aa(lp2279
I3842
aS'68'
p2280
aS'220'
p2281
aa(lp2282
I3842
aS'30'
p2283
aS'183'
p2284
aasS'2VYN'
p2285
(lp2286
(lp2287
I2081
aS'1'
aS'148'
p2288
aa(lp2289
I2081
aS'1'
aS'149'
p2290
aa(lp2291
I2082
aS'153'
p2292
aS'310'
p2293
aa(lp2294
I2082
aS'154'
p2295
aS'311'
p2296
aasS'1V37'
p2297
(lp2298
(lp2299
I3342
aS'3'
aS'144'
p2300
aasS'4YQW'
p2301
(lp2302
(lp2303
I5444
aS'309'
p2304
aS'429'
p2305
aa(lp2306
I6340
aS'12'
p2307
aS'227'
p2308
aasS'3OSP'
p2309
(lp2310
(lp2311
I5444
aS'619'
p2312
aS'736'
p2313
aa(lp2314
I6340
aS'361'
p2315
aS'521'
p2316
aasS'4EMB'
p2317
(lp2318
(lp2319
I3342
aS'9'
aS'128'
p2320
aa(lp2321
I3342
aS'130'
p2322
aS'215'
p2323
aasS'2VYV'
p2324
(lp2325
(lp2326
I2081
aS'1'
aS'148'
p2327
aa(lp2328
I2081
aS'1'
aS'149'
p2329
aa(lp2330
I2082
aS'153'
p2331
aS'310'
p2332
aa(lp2333
I2082
aS'154'
p2334
aS'311'
p2335
aasS'3GW8'
p2336
(lp2337
(lp2338
I3342
aS'4'
aS'127'
p2339
aa(lp2340
I3342
aS'142'
p2341
aS'217'
p2342
aasS'4L1Z'
p2343
(lp2344
(lp2345
I4242
aS'12'
p2346
aS'255'
p2347
aasS'4L1Y'
p2348
(lp2349
(lp2350
I4242
aS'12'
p2351
aS'255'
p2352
aasS'3GNQ'
p2353
(lp2354
(lp2355
I2081
aS'2'
aS'154'
p2356
aa(lp2357
I2082
aS'159'
p2358
aS'314'
p2359
aasS'3L0D'
p2360
(lp2361
(lp2362
I2081
aS'3'
aS'153'
p2363
aa(lp2364
I2082
aS'158'
p2365
aS'314'
p2366
aasS'3VBH'
p2367
(lp2368
(lp2369
I3432
aS'12'
p2370
aS'65'
p2371
aa(lp2372
I3842
aS'61'
p2373
aS'207'
p2374
aa(lp2375
I3842
aS'24'
p2376
aS'224'
p2377
aa(lp2378
I3842
aS'30'
p2379
aS'198'
p2380
aasS'5C4W'
p2381
(lp2382
(lp2383
I3432
aS'13'
p2384
aS'74'
p2385
aa(lp2386
I3842
aS'65'
p2387
aS'208'
p2388
aa(lp2389
I3842
aS'33'
p2390
aS'233'
p2391
aa(lp2392
I3842
aS'29'
p2393
aS'198'
p2394
aasS'4IQ8'
p2395
(lp2396
(lp2397
I2081
aS'2'
aS'150'
p2398
aa(lp2399
I2082
aS'155'
p2400
aS'312'
p2401
aasS'4WM7'
p2402
(lp2403
(lp2404
I3432
aS'29'
p2405
aS'67'
p2406
aa(lp2407
I3842
aS'41'
p2408
aS'211'
p2409
aa(lp2410
I3842
aS'25'
p2411
aS'217'
p2412
aa(lp2413
I3842
aS'30'
p2414
aS'194'
p2415
aasS'3MR6'
p2416
(lp2417
(lp2418
I5444
aS'309'
p2419
aS'429'
p2420
aa(lp2421
I6340
aS'12'
p2422
aS'227'
p2423
aasS'3MR5'
p2424
(lp2425
(lp2426
I5444
aS'309'
p2427
aS'429'
p2428
aa(lp2429
I6340
aS'12'
p2430
aS'227'
p2431
aasS'3MR2'
p2432
(lp2433
(lp2434
I5444
aS'309'
p2435
aS'429'
p2436
aa(lp2437
I6340
aS'12'
p2438
aS'227'
p2439
aasS'3MR3'
p2440
(lp2441
(lp2442
I5444
aS'309'
p2443
aS'429'
p2444
aa(lp2445
I6340
aS'12'
p2446
aS'227'
p2447
aasS'3U8U'
p2448
(lp2449
(lp2450
I4242
aS'66'
p2451
aS'309'
p2452
aasS'4PUQ'
p2453
(lp2454
(lp2455
I4242
aS'127'
p2456
aS'359'
p2457
aasS'1EV1'
p2458
(lp2459
(lp2460
I3432
aS'2'
aS'69'
p2461
aa(lp2462
I3842
aS'46'
p2463
aS'214'
p2464
aa(lp2465
I3842
aS'24'
p2466
aS'231'
p2467
aa(lp2468
I3842
aS'29'
p2469
aS'195'
p2470
aasS'2AQ4'
p2471
(lp2472
(lp2473
I5444
aS'619'
p2474
aS'736'
p2475
aa(lp2476
I6340
aS'361'
p2477
aS'521'
p2478
aasS'4QX6'
p2479
(lp2480
(lp2481
I2081
aS'3'
aS'152'
p2482
aa(lp2483
I2082
aS'157'
p2484
aS'314'
p2485
aasS'2R8J'
p2486
(lp2487
(lp2488
I5444
aS'386'
p2489
aS'506'
p2490
aa(lp2491
I6340
aS'29'
p2492
aS'276'
p2493
aasS'2R8K'
p2494
(lp2495
(lp2496
I5444
aS'386'
p2497
aS'506'
p2498
aa(lp2499
I6340
aS'29'
p2500
aS'276'
p2501
aasS'1E59'
p2502
(lp2503
(lp2504
I3342
aS'5'
aS'124'
p2505
aasS'1E58'
p2506
(lp2507
(lp2508
I3342
aS'5'
aS'124'
p2509
aasS'4MVJ'
p2510
(lp2511
(lp2512
I2081
aS'3'
aS'150'
p2513
aa(lp2514
I2081
aS'3'
aS'150'
p2515
aa(lp2516
I2081
aS'3'
aS'150'
p2517
aa(lp2518
I2081
aS'3'
aS'150'
p2519
aa(lp2520
I2081
aS'3'
aS'150'
p2521
aa(lp2522
I2081
aS'3'
aS'150'
p2523
aa(lp2524
I2081
aS'3'
aS'150'
p2525
aa(lp2526
I2081
aS'3'
aS'150'
p2527
aa(lp2528
I2081
aS'3'
aS'150'
p2529
aa(lp2530
I2081
aS'3'
aS'150'
p2531
aa(lp2532
I2081
aS'3'
aS'150'
p2533
aa(lp2534
I2081
aS'3'
aS'150'
p2535
aa(lp2536
I2081
aS'3'
aS'150'
p2537
aa(lp2538
I2081
aS'3'
aS'150'
p2539
aa(lp2540
I2081
aS'3'
aS'150'
p2541
aa(lp2542
I2081
aS'3'
aS'150'
p2543
aa(lp2544
I2081
aS'3'
aS'150'
p2545
aa(lp2546
I2081
aS'3'
aS'150'
p2547
aa(lp2548
I2082
aS'155'
p2549
aS'312'
p2550
aa(lp2551
I2082
aS'155'
p2552
aS'312'
p2553
aa(lp2554
I2082
aS'155'
p2555
aS'312'
p2556
aa(lp2557
I2082
aS'155'
p2558
aS'312'
p2559
aa(lp2560
I2082
aS'155'
p2561
aS'312'
p2562
aa(lp2563
I2082
aS'155'
p2564
aS'312'
p2565
aa(lp2566
I2082
aS'155'
p2567
aS'312'
p2568
aa(lp2569
I2082
aS'155'
p2570
aS'312'
p2571
aa(lp2572
I2082
aS'155'
p2573
aS'312'
p2574
aa(lp2575
I2082
aS'155'
p2576
aS'312'
p2577
aa(lp2578
I2082
aS'155'
p2579
aS'312'
p2580
aa(lp2581
I2082
aS'155'
p2582
aS'312'
p2583
aa(lp2584
I2082
aS'155'
p2585
aS'312'
p2586
aa(lp2587
I2082
aS'155'
p2588
aS'312'
p2589
aa(lp2590
I2082
aS'155'
p2591
aS'312'
p2592
aa(lp2593
I2082
aS'155'
p2594
aS'312'
p2595
aa(lp2596
I2082
aS'155'
p2597
aS'312'
p2598
aa(lp2599
I2082
aS'155'
p2600
aS'312'
p2601
aasS'4RNM'
p2602
(lp2603
(lp2604
I5444
aS'309'
p2605
aS'429'
p2606
aa(lp2607
I6340
aS'12'
p2608
aS'227'
p2609
aasS'4RNN'
p2610
(lp2611
(lp2612
I5444
aS'309'
p2613
aS'429'
p2614
aa(lp2615
I6340
aS'12'
p2616
aS'227'
p2617
aasS'4R8U'
p2618
(lp2619
(lp2620
I2188
aS'167'
p2621
aS'198'
p2622
aa(lp2623
I2188
aS'167'
p2624
aS'198'
p2625
aa(lp2626
I5444
aS'236'
p2627
aS'341'
p2628
aa(lp2629
I5444
aS'236'
p2630
aS'338'
p2631
aa(lp2632
I6340
aS'8'
aS'155'
p2633
aa(lp2634
I6340
aS'8'
aS'155'
p2635
aasS'2RS1'
p2636
(lp2637
(lp2638
I3432
aS'29'
p2639
aS'68'
p2640
aa(lp2641
I3842
aS'48'
p2642
aS'218'
p2643
aa(lp2644
I3842
aS'24'
p2645
aS'229'
p2646
aa(lp2647
I3842
aS'30'
p2648
aS'191'
p2649
aasS'2RS3'
p2650
(lp2651
(lp2652
I3432
aS'29'
p2653
aS'68'
p2654
aa(lp2655
I3842
aS'48'
p2656
aS'218'
p2657
aa(lp2658
I3842
aS'24'
p2659
aS'229'
p2660
aa(lp2661
I3842
aS'30'
p2662
aS'191'
p2663
aasS'2RS5'
p2664
(lp2665
(lp2666
I3432
aS'29'
p2667
aS'68'
p2668
aa(lp2669
I3842
aS'48'
p2670
aS'218'
p2671
aa(lp2672
I3842
aS'24'
p2673
aS'229'
p2674
aa(lp2675
I3842
aS'30'
p2676
aS'191'
p2677
aasS'2F90'
p2678
(lp2679
(lp2680
I3342
aS'6'
aS'129'
p2681
aa(lp2682
I3342
aS'150'
p2683
aS'222'
p2684
aasS'2W7P'
p2685
(lp2686
(lp2687
I2188
aS'340'
p2688
aS'370'
p2689
aa(lp2690
I5444
aS'410'
p2691
aS'521'
p2692
aa(lp2693
I6340
aS'106'
p2694
aS'325'
p2695
aasS'3E5R'
p2696
(lp2697
(lp2698
I2081
aS'4'
aS'154'
p2699
aa(lp2700
I2082
aS'159'
p2701
aS'316'
p2702
aasS'4O3R'
p2703
(lp2704
(lp2705
I5444
aS'309'
p2706
aS'429'
p2707
aa(lp2708
I6340
aS'12'
p2709
aS'227'
p2710
aasS'4O3S'
p2711
(lp2712
(lp2713
I5444
aS'309'
p2714
aS'429'
p2715
aa(lp2716
I6340
aS'12'
p2717
aS'227'
p2718
aasS'4O3P'
p2719
(lp2720
(lp2721
I5444
aS'309'
p2722
aS'429'
p2723
aa(lp2724
I6340
aS'12'
p2725
aS'227'
p2726
aasS'4O3Q'
p2727
(lp2728
(lp2729
I5444
aS'309'
p2730
aS'429'
p2731
aa(lp2732
I6340
aS'12'
p2733
aS'227'
p2734
aasS'4QHD'
p2735
(lp2736
(lp2737
I4242
aS'66'
p2738
aS'309'
p2739
aasS'4GZ1'
p2740
(lp2741
(lp2742
I4242
aS'127'
p2743
aS'359'
p2744
aasS'4GZ0'
p2745
(lp2746
(lp2747
I4242
aS'127'
p2748
aS'359'
p2749
aasS'4GZ2'
p2750
(lp2751
(lp2752
I4242
aS'127'
p2753
aS'359'
p2754
aasS'1PVC'
p2755
(lp2756
(lp2757
I3432
aS'2'
aS'69'
p2758
aa(lp2759
I3842
aS'58'
p2760
aS'217'
p2761
aa(lp2762
I3842
aS'24'
p2763
aS'238'
p2764
aa(lp2765
I3842
aS'30'
p2766
aS'183'
p2767
aasS'2PKR'
p2768
(lp2769
(lp2770
I2081
aS'2'
aS'149'
p2771
aa(lp2772
I2082
aS'154'
p2773
aS'311'
p2774
aasS'2PKQ'
p2775
(lp2776
(lp2777
I2081
aS'2'
aS'149'
p2778
aa(lp2779
I2081
aS'2'
aS'149'
p2780
aa(lp2781
I2082
aS'154'
p2782
aS'311'
p2783
aa(lp2784
I2082
aS'154'
p2785
aS'311'
p2786
aa(lp2787
I5436
aS'348'
p2788
aS'362'
p2789
aasS'5AJV'
p2790
(lp2791
(lp2792
I3342
aS'248'
p2793
aS'431'
p2794
aa(lp2795
I7408
aS'25'
p2796
aS'245'
p2797
aasS'5AJW'
p2798
(lp2799
(lp2800
I3342
aS'248'
p2801
aS'431'
p2802
aa(lp2803
I7408
aS'25'
p2804
aS'245'
p2805
aasS'3LL4'
p2806
(lp2807
(lp2808
I3342
aS'9'
aS'193'
p2809
aasS'5AJX'
p2810
(lp2811
(lp2812
I3342
aS'248'
p2813
aS'431'
p2814
aa(lp2815
I7408
aS'25'
p2816
aS'245'
p2817
aasS'5AJY'
p2818
(lp2819
(lp2820
I3342
aS'248'
p2821
aS'431'
p2822
aa(lp2823
I7408
aS'25'
p2824
aS'245'
p2825
aasS'5AJZ'
p2826
(lp2827
(lp2828
I3342
aS'248'
p2829
aS'431'
p2830
aa(lp2831
I7408
aS'25'
p2832
aS'245'
p2833
aasS'3G8V'
p2834
(lp2835
(lp2836
I4242
aS'8'
aS'248'
p2837
aasS'1CRW'
p2838
(lp2839
(lp2840
I2081
aS'2'
aS'149'
p2841
aa(lp2842
I2082
aS'154'
p2843
aS'311'
p2844
aasS'1GAE'
p2845
(lp2846
(lp2847
I2081
aS'1'
aS'149'
p2848
aa(lp2849
I2082
aS'154'
p2850
aS'311'
p2851
aasS'1GAD'
p2852
(lp2853
(lp2854
I2081
aS'1'
aS'149'
p2855
aa(lp2856
I2082
aS'154'
p2857
aS'311'
p2858
aasS'3K55'
p2859
(lp2860
(lp2861
I4242
aS'14'
p2862
aS'278'
p2863
aasS'4O3N'
p2864
(lp2865
(lp2866
I5444
aS'309'
p2867
aS'429'
p2868
aa(lp2869
I6340
aS'12'
p2870
aS'227'
p2871
aasS'4O3O'
p2872
(lp2873
(lp2874
I5444
aS'309'
p2875
aS'429'
p2876
aa(lp2877
I6340
aS'12'
p2878
aS'227'
p2879
aasS'1I33'
p2880
(lp2881
(lp2882
I2081
aS'3'
aS'166'
p2883
aa(lp2884
I2082
aS'171'
p2885
aS'333'
p2886
aasS'1I32'
p2887
(lp2888
(lp2889
I2081
aS'3'
aS'166'
p2890
aa(lp2891
I2082
aS'171'
p2892
aS'333'
p2893
aasS'2B4T'
p2894
(lp2895
(lp2896
I2081
aS'5'
aS'153'
p2897
aa(lp2898
I2082
aS'158'
p2899
aS'317'
p2900
aasS'3QPU'
p2901
(lp2902
(lp2903
I3342
aS'248'
p2904
aS'431'
p2905
aa(lp2906
I7408
aS'25'
p2907
aS'245'
p2908
aasS'3QPV'
p2909
(lp2910
(lp2911
I3342
aS'248'
p2912
aS'431'
p2913
aa(lp2914
I7408
aS'32'
p2915
aS'245'
p2916
aasS'3QPW'
p2917
(lp2918
(lp2919
I3342
aS'248'
p2920
aS'431'
p2921
aa(lp2922
I7408
aS'25'
p2923
aS'245'
p2924
aasS'4CEY'
p2925
(lp2926
(lp2927
I3432
aS'12'
p2928
aS'65'
p2929
aa(lp2930
I3842
aS'61'
p2931
aS'207'
p2932
aa(lp2933
I3842
aS'24'
p2934
aS'224'
p2935
aa(lp2936
I3842
aS'30'
p2937
aS'198'
p2938
aasS'4CEW'
p2939
(lp2940
(lp2941
I3432
aS'12'
p2942
aS'65'
p2943
aa(lp2944
I3842
aS'61'
p2945
aS'207'
p2946
aa(lp2947
I3842
aS'24'
p2948
aS'224'
p2949
aa(lp2950
I3842
aS'30'
p2951
aS'198'
p2952
aasS'3VAZ'
p2953
(lp2954
(lp2955
I2081
aS'3'
aS'151'
p2956
aa(lp2957
I2082
aS'156'
p2958
aS'314'
p2959
aasS'1R09'
p2960
(lp2961
(lp2962
I3432
aS'29'
p2963
aS'68'
p2964
aa(lp2965
I3842
aS'48'
p2966
aS'218'
p2967
aa(lp2968
I3842
aS'24'
p2969
aS'229'
p2970
aa(lp2971
I3842
aS'30'
p2972
aS'191'
p2973
aasS'3ZDF'
p2974
(lp2975
(lp2976
I2081
aS'2'
aS'154'
p2977
aa(lp2978
I2082
aS'159'
p2979
aS'315'
p2980
aa(lp2981
I5436
aS'55'
p2982
aS'74'
p2983
aasS'2UYR'
p2984
(lp2985
(lp2986
I4242
aS'13'
p2987
aS'296'
p2988
aa(lp2989
I4242
aS'13'
p2990
aS'296'
p2991
aasS'3KSZ'
p2992
(lp2993
(lp2994
I2081
aS'3'
aS'150'
p2995
aa(lp2996
I2082
aS'156'
p2997
aS'314'
p2998
aasS'2VOA'
p2999
(lp3000
(lp3001
I4242
aS'5'
aS'248'
p3002
aasS'1NCQ'
p3003
(lp3004
(lp3005
I3432
aS'29'
p3006
aS'68'
p3007
aa(lp3008
I3842
aS'48'
p3009
aS'218'
p3010
aa(lp3011
I3842
aS'24'
p3012
aS'229'
p3013
aa(lp3014
I3842
aS'30'
p3015
aS'191'
p3016
aasS'1NCR'
p3017
(lp3018
(lp3019
I3432
aS'1'
aS'44'
p3020
aa(lp3021
I3842
aS'48'
p3022
aS'204'
p3023
aa(lp3024
I3842
aS'24'
p3025
aS'230'
p3026
aa(lp3027
I3842
aS'30'
p3028
aS'193'
p3029
aasS'3DMT'
p3030
(lp3031
(lp3032
I2081
aS'3'
aS'166'
p3033
aa(lp3034
I2081
aS'3'
aS'166'
p3035
aa(lp3036
I2082
aS'171'
p3037
aS'333'
p3038
aa(lp3039
I2082
aS'171'
p3040
aS'333'
p3041
aasS'1OOP'
p3042
(lp3043
(lp3044
I3432
aS'2'
aS'69'
p3045
aa(lp3046
I3842
aS'45'
p3047
aS'213'
p3048
aa(lp3049
I3842
aS'24'
p3050
aS'231'
p3051
aa(lp3052
I3842
aS'29'
p3053
aS'194'
p3054
aasS'3IN5'
p3055
(lp3056
(lp3057
I2188
aS'340'
p3058
aS'370'
p3059
aa(lp3060
I5444
aS'410'
p3061
aS'518'
p3062
aa(lp3063
I6340
aS'106'
p3064
aS'325'
p3065
aasS'4FVA'
p3066
(lp3067
(lp3068
I4242
aS'123'
p3069
aS'353'
p3070
aasS'3PYM'
p3071
(lp3072
(lp3073
I2081
aS'2'
aS'150'
p3074
aa(lp3075
I2082
aS'155'
p3076
aS'312'
p3077
aasS'2RFL'
p3078
(lp3079
(lp3080
I3342
aS'9'
aS'76'
p3081
aasS'4PGM'
p3082
(lp3083
(lp3084
I3342
aS'3'
aS'122'
p3085
aa(lp3086
I3342
aS'143'
p3087
aS'209'
p3088
aasS'1DC4'
p3089
(lp3090
(lp3091
I2081
aS'1'
aS'149'
p3092
aa(lp3093
I2082
aS'154'
p3094
aS'311'
p3095
aasS'1DC5'
p3096
(lp3097
(lp3098
I2081
aS'1'
aS'149'
p3099
aa(lp3100
I2082
aS'154'
p3101
aS'311'
p3102
aasS'1DC3'
p3103
(lp3104
(lp3105
I2081
aS'1'
aS'149'
p3106
aa(lp3107
I2082
aS'154'
p3108
aS'311'
p3109
aasS'2ISI'
p3110
(lp3111
(lp3112
I4242
aS'66'
p3113
aS'309'
p3114
aasS'3MPR'
p3115
(lp3116
(lp3117
I4242
aS'10'
p3118
aS'280'
p3119
aasS'1DEW'
p3120
(lp3121
(lp3122
I4242
aS'66'
p3123
aS'309'
p3124
aasS'3NR8'
p3125
(lp3126
(lp3127
I4242
aS'429'
p3128
aS'718'
p3129
aasS'4LND'
p3130
(lp3131
(lp3132
I4242
aS'66'
p3133
aS'309'
p3134
aasS'2P2Y'
p3135
(lp3136
(lp3137
I3342
aS'3'
aS'144'
p3138
aasS'2P2Z'
p3139
(lp3140
(lp3141
I3342
aS'3'
aS'144'
p3142
aasS'1VYB'
p3143
(lp3144
(lp3145
I4242
aS'11'
p3146
aS'230'
p3147
aasS'3NGD'
p3148
(lp3149
(lp3150
I5444
aS'298'
p3151
aS'414'
p3152
aa(lp3153
I6340
aS'33'
p3154
aS'210'
p3155
aasS'3DOC'
p3156
(lp3157
(lp3158
I2081
aS'3'
aS'153'
p3159
aa(lp3160
I2082
aS'158'
p3161
aS'314'
p3162
aasS'3NGN'
p3163
(lp3164
(lp3165
I4242
aS'192'
p3166
aS'529'
p3167
aasS'3NGO'
p3168
(lp3169
(lp3170
I4242
aS'192'
p3171
aS'529'
p3172
aasS'3NGQ'
p3173
(lp3174
(lp3175
I4242
aS'192'
p3176
aS'529'
p3177
aasS'1NQA'
p3178
(lp3179
(lp3180
I2081
aS'1'
aS'148'
p3181
aa(lp3182
I2082
aS'154'
p3183
aS'311'
p3184
aasS'1NQO'
p3185
(lp3186
(lp3187
I2081
aS'1'
aS'148'
p3188
aa(lp3189
I2082
aS'154'
p3190
aS'311'
p3191
aasS'1D4M'
p3192
(lp3193
(lp3194
I3432
aS'2'
aS'69'
p3195
aa(lp3196
I3842
aS'45'
p3197
aS'214'
p3198
aa(lp3199
I3842
aS'24'
p3200
aS'231'
p3201
aa(lp3202
I3842
aS'29'
p3203
aS'194'
p3204
aasS'3H9E'
p3205
(lp3206
(lp3207
I2081
aS'77'
p3208
aS'224'
p3209
aa(lp3210
I2082
aS'229'
p3211
aS'386'
p3212
aasS'2DDT'
p3213
(lp3214
(lp3215
I4242
aS'13'
p3216
aS'296'
p3217
aasS'3GP3'
p3218
(lp3219
(lp3220
I3342
aS'4'
aS'127'
p3221
aa(lp3222
I3342
aS'142'
p3223
aS'217'
p3224
aasS'3GP5'
p3225
(lp3226
(lp3227
I3342
aS'4'
aS'127'
p3228
aa(lp3229
I3342
aS'142'
p3230
aS'217'
p3231
aasS'2XF8'
p3232
(lp3233
(lp3234
I2081
aS'1'
aS'149'
p3235
aa(lp3236
I2082
aS'154'
p3237
aS'311'
p3238
aasS'2X0N'
p3239
(lp3240
(lp3241
I2081
aS'2'
aS'165'
p3242
aa(lp3243
I2082
aS'170'
p3244
aS'332'
p3245
aasS'1YFK'
p3246
(lp3247
(lp3248
I3342
aS'6'
aS'128'
p3249
aa(lp3250
I3342
aS'143'
p3251
aS'213'
p3252
aasS'2FLL'
p3253
(lp3254
(lp3255
I5444
aS'298'
p3256
aS'414'
p3257
aa(lp3258
I6340
aS'33'
p3259
aS'210'
p3260
aasS'3SI8'
p3261
(lp3262
(lp3263
I5444
aS'309'
p3264
aS'429'
p3265
aa(lp3266
I6340
aS'12'
p3267
aS'227'
p3268
aasS'1VRH'
p3269
(lp3270
(lp3271
I3432
aS'29'
p3272
aS'68'
p3273
aa(lp3274
I3842
aS'48'
p3275
aS'218'
p3276
aa(lp3277
I3842
aS'24'
p3278
aS'229'
p3279
aa(lp3280
I3842
aS'30'
p3281
aS'191'
p3282
aasS'3GPD'
p3283
(lp3284
(lp3285
I2081
aS'3'
aS'151'
p3286
aa(lp3287
I2082
aS'156'
p3288
aS'313'
p3289
aasS'2HWC'
p3290
(lp3291
(lp3292
I3432
aS'29'
p3293
aS'68'
p3294
aa(lp3295
I3842
aS'48'
p3296
aS'218'
p3297
aa(lp3298
I3842
aS'24'
p3299
aS'229'
p3300
aa(lp3301
I3842
aS'30'
p3302
aS'191'
p3303
aasS'2HWB'
p3304
(lp3305
(lp3306
I3432
aS'29'
p3307
aS'68'
p3308
aa(lp3309
I3842
aS'48'
p3310
aS'218'
p3311
aa(lp3312
I3842
aS'24'
p3313
aS'229'
p3314
aa(lp3315
I3842
aS'30'
p3316
aS'191'
p3317
aasS'1NQ5'
p3318
(lp3319
(lp3320
I2081
aS'1'
aS'148'
p3321
aa(lp3322
I2082
aS'154'
p3323
aS'311'
p3324
aasS'2HWF'
p3325
(lp3326
(lp3327
I3432
aS'26'
p3328
aS'44'
p3329
aa(lp3330
I3842
aS'48'
p3331
aS'203'
p3332
aa(lp3333
I3842
aS'25'
p3334
aS'231'
p3335
aa(lp3336
I3842
aS'30'
p3337
aS'193'
p3338
aasS'2HWE'
p3339
(lp3340
(lp3341
I3432
aS'26'
p3342
aS'44'
p3343
aa(lp3344
I3842
aS'48'
p3345
aS'203'
p3346
aa(lp3347
I3842
aS'25'
p3348
aS'231'
p3349
aa(lp3350
I3842
aS'30'
p3351
aS'193'
p3352
aasS'3MXO'
p3353
(lp3354
(lp3355
I3342
aS'100'
p3356
aS'272'
p3357
aasS'1T94'
p3358
(lp3359
(lp3360
I2188
aS'340'
p3361
aS'370'
p3362
aa(lp3363
I5444
aS'411'
p3364
aS'515'
p3365
aa(lp3366
I6340
aS'106'
p3367
aS'325'
p3368
aasS'1E9N'
p3369
(lp3370
(lp3371
I4242
aS'66'
p3372
aS'309'
p3373
aasS'4GPD'
p3374
(lp3375
(lp3376
I2081
aS'2'
aS'148'
p3377
aa(lp3378
I2082
aS'153'
p3379
aS'310'
p3380
aasS'1GPD'
p3381
(lp3382
(lp3383
I2081
aS'2'
aS'149'
p3384
aa(lp3385
I2082
aS'154'
p3386
aS'311'
p3387
aasS'1EAH'
p3388
(lp3389
(lp3390
I3432
aS'2'
aS'69'
p3391
aa(lp3392
I3842
aS'58'
p3393
aS'220'
p3394
aa(lp3395
I3842
aS'24'
p3396
aS'238'
p3397
aa(lp3398
I3842
aS'30'
p3399
aS'183'
p3400
aasS'4QIH'
p3401
(lp3402
(lp3403
I3342
aS'6'
aS'213'
p3404
aasS'2EKZ'
p3405
(lp3406
(lp3407
I3342
aS'3'
aS'144'
p3408
aasS'4GPI'
p3409
(lp3410
(lp3411
I3342
aS'6'
aS'128'
p3412
aa(lp3413
I3342
aS'143'
p3414
aS'213'
p3415
aasS'2EKB'
p3416
(lp3417
(lp3418
I3342
aS'3'
aS'144'
p3419
aasS'4QIW'
p3420
(lp3421
(lp3422
I410
aS'8'
aS'77'
p3423
aa(lp3424
I1560
aS'8'
aS'39'
p3425
aa(lp3426
I1874
aS'45'
p3427
aS'147'
p3428
aa(lp3429
I2150
aS'6'
aS'310'
p3430
aa(lp3431
I2154
aS'698'
p3432
aS'804'
p3433
aa(lp3434
I2534
aS'7'
aS'79'
p3435
aa(lp3436
I2559
aS'13'
p3437
aS'86'
p3438
aa(lp3439
I2833
aS'79'
p3440
aS'154'
p3441
aa(lp3442
I3290
aS'5'
aS'51'
p3443
aa(lp3444
I3356
aS'15'
p3445
aS'246'
p3446
aa(lp3447
I3357
aS'1'
aS'58'
p3448
aa(lp3449
I3506
aS'425'
p3450
aS'489'
p3451
aa(lp3452
I4336
aS'606'
p3453
aS'646'
p3454
aa(lp3455
I4337
aS'522'
p3456
aS'585'
p3457
aa(lp3458
I4338
aS'1032'
p3459
aS'1118'
p3460
aa(lp3461
I4339
aS'654'
p3462
aS'1009'
p3463
aa(lp3464
I4340
aS'30'
p3465
aS'380'
p3466
aa(lp3467
I4342
aS'176'
p3468
aS'349'
p3469
aa(lp3470
I5408
aS'326'
p3471
aS'487'
p3472
aa(lp3473
I5409
aS'490'
p3474
aS'672'
p3475
aa(lp3476
I5415
aS'811'
p3477
aS'876'
p3478
aa(lp3479
I5415
aS'48'
p3480
aS'329'
p3481
aa(lp3482
I5642
aS'12'
p3483
aS'119'
p3484
aasS'4GPZ'
p3485
(lp3486
(lp3487
I3342
aS'6'
aS'128'
p3488
aa(lp3489
I3342
aS'143'
p3490
aS'213'
p3491
aasS'2CZC'
p3492
(lp3493
(lp3494
I2082
aS'146'
p3495
aS'296'
p3496
aa(lp3497
I4460
aS'3'
aS'119'
p3498
aasS'1ZNQ'
p3499
(lp3500
(lp3501
I2081
aS'4'
aS'152'
p3502
aa(lp3503
I2082
aS'157'
p3504
aS'314'
p3505
aasS'2H0Q'
p3506
(lp3507
(lp3508
I3342
aS'425'
p3509
aS'587'
p3510
aasS'1MQT'
p3511
(lp3512
(lp3513
I3432
aS'2'
aS'69'
p3514
aa(lp3515
I3842
aS'45'
p3516
aS'213'
p3517
aa(lp3518
I3842
aS'24'
p3519
aS'231'
p3520
aa(lp3521
I3842
aS'29'
p3522
aS'194'
p3523
aasS'4PDW'
p3524
(lp3525
(lp3526
I3432
aS'27'
p3527
aS'68'
p3528
aa(lp3529
I3842
aS'48'
p3530
aS'218'
p3531
aa(lp3532
I3842
aS'24'
p3533
aS'229'
p3534
aa(lp3535
I3842
aS'30'
p3536
aS'191'
p3537
aasS'2WB1'
p3538
(lp3539
(lp3540
I410
aS'10'
p3541
aS'77'
p3542
aa(lp3543
I1770
aS'10'
p3544
aS'117'
p3545
aa(lp3546
I1874
aS'44'
p3547
aS'156'
p3548
aa(lp3549
I2150
aS'4'
aS'313'
p3550
aa(lp3551
I2154
aS'677'
p3552
aS'782'
p3553
aa(lp3554
I2534
aS'14'
p3555
aS'81'
p3556
aa(lp3557
I2559
aS'13'
p3558
aS'82'
p3559
aa(lp3560
I2833
aS'82'
p3561
aS'151'
p3562
aa(lp3563
I3290
aS'22'
p3564
aS'76'
p3565
aa(lp3566
I3356
aS'17'
p3567
aS'252'
p3568
aa(lp3569
I3357
aS'1'
aS'58'
p3570
aa(lp3571
I3506
aS'415'
p3572
aS'479'
p3573
aa(lp3574
I4336
aS'607'
p3575
aS'645'
p3576
aa(lp3577
I4337
aS'523'
p3578
aS'585'
p3579
aa(lp3580
I4338
aS'1027'
p3581
aS'1118'
p3582
aa(lp3583
I4339
aS'655'
p3584
aS'1025'
p3585
aa(lp3586
I4340
aS'25'
p3587
aS'394'
p3588
aa(lp3589
I4342
aS'172'
p3590
aS'347'
p3591
aa(lp3592
I4457
aS'47'
p3593
aS'59'
p3594
aa(lp3595
I5408
aS'315'
p3596
aS'482'
p3597
aa(lp3598
I5409
aS'485'
p3599
aS'651'
p3600
aa(lp3601
I5415
aS'789'
p3602
aS'855'
p3603
aa(lp3604
I5415
aS'27'
p3605
aS'340'
p3606
aa(lp3607
I5642
aS'28'
p3608
aS'93'
p3609
aasS'1GYQ'
p3610
(lp3611
(lp3612
I2081
aS'3'
aS'166'
p3613
aa(lp3614
I2082
aS'171'
p3615
aS'333'
p3616
aasS'1GYP'
p3617
(lp3618
(lp3619
I2081
aS'3'
aS'166'
p3620
aa(lp3621
I2082
aS'171'
p3622
aS'333'
p3623
aasS'4N53'
p3624
(lp3625
(lp3626
I3432
aS'12'
p3627
aS'65'
p3628
aa(lp3629
I3842
aS'61'
p3630
aS'207'
p3631
aa(lp3632
I3842
aS'24'
p3633
aS'224'
p3634
aa(lp3635
I3842
aS'30'
p3636
aS'198'
p3637
aasS'2DDS'
p3638
(lp3639
(lp3640
I4242
aS'13'
p3641
aS'296'
p3642
aasS'4P8R'
p3643
(lp3644
(lp3645
I2081
aS'3'
aS'150'
p3646
aa(lp3647
I2082
aS'155'
p3648
aS'312'
p3649
aasS'2P9F'
p3650
(lp3651
(lp3652
I3342
aS'3'
aS'144'
p3653
aasS'4GYZ'
p3654
(lp3655
(lp3656
I4242
aS'127'
p3657
aS'359'
p3658
aasS'4ZKF'
p3659
(lp3660
(lp3661
I4242
aS'299'
p3662
aS'599'
p3663
aasS'3H4D'
p3664
(lp3665
(lp3666
I5444
aS'298'
p3667
aS'414'
p3668
aa(lp3669
I6340
aS'33'
p3670
aS'210'
p3671
aasS'2P9Y'
p3672
(lp3673
(lp3674
I3342
aS'3'
aS'144'
p3675
aasS'2P9Z'
p3676
(lp3677
(lp3678
I3342
aS'3'
aS'144'
p3679
aasS'2P6M'
p3680
(lp3681
(lp3682
I3342
aS'3'
aS'144'
p3683
aasS'2P6O'
p3684
(lp3685
(lp3686
I3342
aS'3'
aS'144'
p3687
aasS'4YP3'
p3688
(lp3689
(lp3690
I5444
aS'309'
p3691
aS'429'
p3692
aa(lp3693
I6340
aS'12'
p3694
aS'227'
p3695
aasS'1COV'
p3696
(lp3697
(lp3698
I3432
aS'2'
aS'69'
p3699
aa(lp3700
I3842
aS'45'
p3701
aS'211'
p3702
aa(lp3703
I3842
aS'24'
p3704
aS'233'
p3705
aa(lp3706
I3842
aS'30'
p3707
aS'194'
p3708
aasS'4L21'
p3709
(lp3710
(lp3711
I4242
aS'12'
p3712
aS'255'
p3713
aasS'4EEY'
p3714
(lp3715
(lp3716
I5444
aS'309'
p3717
aS'429'
p3718
aa(lp3719
I6340
aS'12'
p3720
aS'227'
p3721
aasS'3LVF'
p3722
(lp3723
(lp3724
I2081
aS'3'
aS'151'
p3725
aa(lp3726
I2082
aS'156'
p3727
aS'314'
p3728
aasS'2D2I'
p3729
(lp3730
(lp3731
I2081
aS'3'
aS'155'
p3732
aa(lp3733
I2082
aS'160'
p3734
aS'316'
p3735
aasS'5ABJ'
p3736
(lp3737
(lp3738
I3432
aS'13'
p3739
aS'68'
p3740
aa(lp3741
I3842
aS'64'
p3742
aS'207'
p3743
aa(lp3744
I3842
aS'24'
p3745
aS'224'
p3746
aa(lp3747
I3842
aS'29'
p3748
aS'198'
p3749
aasS'3G00'
p3750
(lp3751
(lp3752
I4242
aS'8'
aS'248'
p3753
aasS'1C7Z'
p3754
(lp3755
(lp3756
I3342
aS'4'
aS'187'
p3757
aasS'1A7K'
p3758
(lp3759
(lp3760
I2081
aS'3'
aS'166'
p3761
aa(lp3762
I2082
aS'171'
p3763
aS'333'
p3764
aasS'1AR8'
p3765
(lp3766
(lp3767
I3432
aS'2'
aS'69'
p3768
aa(lp3769
I3842
aS'58'
p3770
aS'220'
p3771
aa(lp3772
I3842
aS'24'
p3773
aS'239'
p3774
aa(lp3775
I3842
aS'30'
p3776
aS'183'
p3777
aasS'1AR9'
p3778
(lp3779
(lp3780
I3432
aS'2'
aS'69'
p3781
aa(lp3782
I3842
aS'58'
p3783
aS'220'
p3784
aa(lp3785
I3842
aS'24'
p3786
aS'239'
p3787
aa(lp3788
I3842
aS'30'
p3789
aS'183'
p3790
aasS'1AR6'
p3791
(lp3792
(lp3793
I3432
aS'2'
aS'69'
p3794
aa(lp3795
I3842
aS'58'
p3796
aS'220'
p3797
aa(lp3798
I3842
aS'24'
p3799
aS'239'
p3800
aa(lp3801
I3842
aS'30'
p3802
aS'183'
p3803
aasS'2O3H'
p3804
(lp3805
(lp3806
I4242
aS'65'
p3807
aS'309'
p3808
aasS'3DCY'
p3809
(lp3810
(lp3811
I3342
aS'7'
aS'140'
p3812
aa(lp3813
I3342
aS'7'
aS'140'
p3814
aasS'2DUU'
p3815
(lp3816
(lp3817
I2081
aS'3'
aS'155'
p3818
aa(lp3819
I2082
aS'160'
p3820
aS'316'
p3821
aasS'1DBV'
p3822
(lp3823
(lp3824
I2081
aS'1'
aS'149'
p3825
aa(lp3826
I2082
aS'154'
p3827
aS'311'
p3828
aasS'1SZJ'
p3829
(lp3830
(lp3831
I2081
aS'2'
aS'149'
p3832
aa(lp3833
I2082
aS'154'
p3834
aS'311'
p3835
aasS'3ZCX'
p3836
(lp3837
(lp3838
I2081
aS'2'
aS'154'
p3839
aa(lp3840
I2082
aS'159'
p3841
aS'315'
p3842
aasS'2R04'
p3843
(lp3844
(lp3845
I3432
aS'29'
p3846
aS'68'
p3847
aa(lp3848
I3842
aS'48'
p3849
aS'218'
p3850
aa(lp3851
I3842
aS'24'
p3852
aS'229'
p3853
aa(lp3854
I3842
aS'30'
p3855
aS'191'
p3856
aasS'3F3K'
p3857
(lp3858
(lp3859
I3342
aS'9'
aS'193'
p3860
aasS'2R06'
p3861
(lp3862
(lp3863
I3432
aS'29'
p3864
aS'68'
p3865
aa(lp3866
I3842
aS'48'
p3867
aS'218'
p3868
aa(lp3869
I3842
aS'24'
p3870
aS'229'
p3871
aa(lp3872
I3842
aS'30'
p3873
aS'191'
p3874
aasS'5AK0'
p3875
(lp3876
(lp3877
I3342
aS'248'
p3878
aS'431'
p3879
aa(lp3880
I7408
aS'25'
p3881
aS'245'
p3882
aasS'2PA0'
p3883
(lp3884
(lp3885
I3342
aS'3'
aS'144'
p3886
aasS'4GB3'
p3887
(lp3888
(lp3889
I3432
aS'2'
aS'69'
p3890
aa(lp3891
I3842
aS'46'
p3892
aS'211'
p3893
aa(lp3894
I3842
aS'24'
p3895
aS'233'
p3896
aa(lp3897
I3842
aS'30'
p3898
aS'194'
p3899
aasS'3EOZ'
p3900
(lp3901
(lp3902
I3342
aS'24'
p3903
aS'104'
p3904
aa(lp3905
I3342
aS'129'
p3906
aS'198'
p3907
aasS'3L6O'
p3908
(lp3909
(lp3910
I2081
aS'3'
aS'151'
p3911
aa(lp3912
I2082
aS'156'
p3913
aS'314'
p3914
aasS'1ZWX'
p3915
(lp3916
(lp3917
I4242
aS'51'
p3918
aS'325'
p3919
aasS'1PIV'
p3920
(lp3921
(lp3922
I3432
aS'2'
aS'69'
p3923
aa(lp3924
I3842
aS'58'
p3925
aS'217'
p3926
aa(lp3927
I3842
aS'24'
p3928
aS'238'
p3929
aa(lp3930
I3842
aS'30'
p3931
aS'183'
p3932
aasS'3G91'
p3933
(lp3934
(lp3935
I4242
aS'8'
aS'248'
p3936
aasS'1R08'
p3937
(lp3938
(lp3939
I3432
aS'29'
p3940
aS'68'
p3941
aa(lp3942
I3842
aS'48'
p3943
aS'218'
p3944
aa(lp3945
I3842
aS'24'
p3946
aS'229'
p3947
aa(lp3948
I3842
aS'30'
p3949
aS'191'
p3950
aasS'4Z2B'
p3951
(lp3952
(lp3953
I4242
aS'299'
p3954
aS'599'
p3955
aasS'3G0R'
p3956
(lp3957
(lp3958
I4242
aS'8'
aS'248'
p3959
aasS'1HDG'
p3960
(lp3961
(lp3962
I2081
aS'2'
aS'149'
p3963
aa(lp3964
I2082
aS'154'
p3965
aS'311'
p3966
aasS'1H8T'
p3967
(lp3968
(lp3969
I3432
aS'3002'
p3970
aS'3069'
p3971
aa(lp3972
I3842
aS'45'
p3973
aS'214'
p3974
aa(lp3975
I3842
aS'1024'
p3976
aS'1231'
p3977
aa(lp3978
I3842
aS'2030'
p3979
aS'2194'
p3980
aasS'2JC5'
p3981
(lp3982
(lp3983
I4242
aS'6'
aS'247'
p3984
aasS'2JC4'
p3985
(lp3986
(lp3987
I4242
aS'5'
aS'247'
p3988
aasS'3G0A'
p3989
(lp3990
(lp3991
I4242
aS'8'
aS'248'
p3992
aasS'2HKI'
p3993
(lp3994
(lp3995
I2081
aS'3'
aS'153'
p3996
aa(lp3997
I2082
aS'158'
p3998
aS'314'
p3999
aasS'3MTC'
p4000
(lp4001
(lp4002
I4242
aS'270'
p4003
aS'549'
p4004
aasS'5C8C'
p4005
(lp4006
(lp4007
I3432
aS'14'
p4008
aS'68'
p4009
aa(lp4010
I3842
aS'64'
p4011
aS'207'
p4012
aa(lp4013
I3842
aS'93'
p4014
aS'293'
p4015
aa(lp4016
I3842
aS'29'
p4017
aS'198'
p4018
aasS'4CDX'
p4019
(lp4020
(lp4021
I3432
aS'12'
p4022
aS'65'
p4023
aa(lp4024
I3842
aS'61'
p4025
aS'207'
p4026
aa(lp4027
I3842
aS'24'
p4028
aS'224'
p4029
aa(lp4030
I3842
aS'30'
p4031
aS'198'
p4032
aasS'1XQ9'
p4033
(lp4034
(lp4035
I3342
aS'14'
p4036
aS'133'
p4037
aasS'3OHB'
p4038
(lp4039
(lp4040
I5444
aS'386'
p4041
aS'505'
p4042
aa(lp4043
I6340
aS'29'
p4044
aS'276'
p4045
aasS'1VC2'
p4046
(lp4047
(lp4048
I2081
aS'1'
aS'149'
p4049
aa(lp4050
I2082
aS'154'
p4051
aS'309'
p4052
aasS'3KV3'
p4053
(lp4054
(lp4055
I2081
aS'3'
aS'150'
p4056
aa(lp4057
I2082
aS'156'
p4058
aS'314'
p4059
aasS'4CDU'
p4060
(lp4061
(lp4062
I3432
aS'12'
p4063
aS'65'
p4064
aa(lp4065
I3842
aS'61'
p4066
aS'207'
p4067
aa(lp4068
I3842
aS'24'
p4069
aS'224'
p4070
aa(lp4071
I3842
aS'30'
p4072
aS'198'
p4073
aasS'3H40'
p4074
(lp4075
(lp4076
I5444
aS'298'
p4077
aS'414'
p4078
aa(lp4079
I6340
aS'33'
p4080
aS'210'
p4081
aasS'1S7C'
p4082
(lp4083
(lp4084
I2081
aS'3'
aS'150'
p4085
aa(lp4086
I2082
aS'155'
p4087
aS'312'
p4088
aasS'3MFI'
p4089
(lp4090
(lp4091
I5444
aS'386'
p4092
aS'505'
p4093
aa(lp4094
I5444
aS'386'
p4095
aS'505'
p4096
aa(lp4097
I6340
aS'29'
p4098
aS'276'
p4099
aa(lp4100
I6340
aS'29'
p4101
aS'276'
p4102
aasS'2EOA'
p4103
(lp4104
(lp4105
I3342
aS'3'
aS'144'
p4106
aasS'3HJG'
p4107
(lp4108
(lp4109
I3342
aS'6'
aS'186'
p4110
aasS'3HJA'
p4111
(lp4112
(lp4113
I2081
aS'1'
aS'153'
p4114
aa(lp4115
I2082
aS'158'
p4116
aS'316'
p4117
aasS'4JG3'
p4118
(lp4119
(lp4120
I4242
aS'8'
aS'245'
p4121
aasS'3OSN'
p4122
(lp4123
(lp4124
I5444
aS'298'
p4125
aS'414'
p4126
aa(lp4127
I6340
aS'33'
p4128
aS'210'
p4129
aasS'4PZA'
p4130
(lp4131
(lp4132
I3342
aS'6'
aS'213'
p4133
aasS'3IDS'
p4134
(lp4135
(lp4136
I2081
aS'3'
aS'166'
p4137
aa(lp4138
I2082
aS'171'
p4139
aS'333'
p4140
aasS'3K2B'
p4141
(lp4142
(lp4143
I2081
aS'2'
aS'149'
p4144
aa(lp4145
I2082
aS'154'
p4146
aS'311'
p4147
aasS'1NTF'
p4148
(lp4149
(lp4150
I4242
aS'12'
p4151
aS'255'
p4152
aasS'1HXS'
p4153
(lp4154
(lp4155
I3432
aS'2'
aS'69'
p4156
aa(lp4157
I3842
aS'58'
p4158
aS'220'
p4159
aa(lp4160
I3842
aS'24'
p4161
aS'239'
p4162
aa(lp4163
I3842
aS'30'
p4164
aS'183'
p4165
aasS'3H4B'
p4166
(lp4167
(lp4168
I5444
aS'298'
p4169
aS'414'
p4170
aa(lp4171
I6340
aS'33'
p4172
aS'210'
p4173
aasS'1RUH'
p4174
(lp4175
(lp4176
I3432
aS'29'
p4177
aS'68'
p4178
aa(lp4179
I3842
aS'48'
p4180
aS'207'
p4181
aa(lp4182
I3842
aS'24'
p4183
aS'229'
p4184
aa(lp4185
I3842
aS'30'
p4186
aS'191'
p4187
aasS'3FZI'
p4188
(lp4189
(lp4190
I4242
aS'8'
aS'248'
p4191
aasS'3VDD'
p4192
(lp4193
(lp4194
I3432
aS'24'
p4195
aS'59'
p4196
aa(lp4197
I3842
aS'49'
p4198
aS'202'
p4199
aa(lp4200
I3842
aS'24'
p4201
aS'232'
p4202
aa(lp4203
I3842
aS'30'
p4204
aS'192'
p4205
aasS'2FLP'
p4206
(lp4207
(lp4208
I5444
aS'298'
p4209
aS'414'
p4210
aa(lp4211
I6340
aS'33'
p4212
aS'210'
p4213
aasS'3E6A'
p4214
(lp4215
(lp4216
I2081
aS'4'
aS'154'
p4217
aa(lp4218
I2082
aS'159'
p4219
aS'316'
p4220
aasS'1BEV'
p4221
(lp4222
(lp4223
I3432
aS'23'
p4224
aS'62'
p4225
aa(lp4226
I3842
aS'52'
p4227
aS'212'
p4228
aa(lp4229
I3842
aS'24'
p4230
aS'216'
p4231
aa(lp4232
I3842
aS'29'
p4233
aS'198'
p4234
aasS'1ML3'
p4235
(lp4236
(lp4237
I2081
aS'3'
aS'166'
p4238
aa(lp4239
I2082
aS'171'
p4240
aS'333'
p4241
aasS'4EYH'
p4242
(lp4243
(lp4244
I5444
aS'298'
p4245
aS'414'
p4246
aa(lp4247
I6340
aS'33'
p4248
aS'210'
p4249
aasS'4EYI'
p4250
(lp4251
(lp4252
I5444
aS'298'
p4253
aS'414'
p4254
aa(lp4255
I6340
aS'33'
p4256
aS'210'
p4257
aasS'1AKO'
p4258
(lp4259
(lp4260
I4242
aS'4'
aS'259'
p4261
aasS'2FLN'
p4262
(lp4263
(lp4264
I5444
aS'298'
p4265
aS'414'
p4266
aa(lp4267
I6340
aS'33'
p4268
aS'210'
p4269
aasS'2YYY'
p4270
(lp4271
(lp4272
I2082
aS'149'
p4273
aS'305'
p4274
aa(lp4275
I4460
aS'4'
aS'109'
p4276
aasS'2WTF'
p4277
(lp4278
(lp4279
I5444
aS'386'
p4280
aS'505'
p4281
aa(lp4282
I6340
aS'29'
p4283
aS'276'
p4284
aasS'2PLV'
p4285
(lp4286
(lp4287
I3432
aS'2'
aS'69'
p4288
aa(lp4289
I3842
aS'58'
p4290
aS'220'
p4291
aa(lp4292
I3842
aS'24'
p4293
aS'239'
p4294
aa(lp4295
I3842
aS'30'
p4296
aS'183'
p4297
aasS'4DBV'
p4298
(lp4299
(lp4300
I2081
aS'1'
aS'149'
p4301
aa(lp4302
I2082
aS'154'
p4303
aS'311'
p4304
aasS'3CPS'
p4305
(lp4306
(lp4307
I2081
aS'20'
p4308
aS'168'
p4309
aa(lp4310
I2082
aS'173'
p4311
aS'332'
p4312
aasS'2XGQ'
p4313
(lp4314
(lp4315
I5444
aS'386'
p4316
aS'505'
p4317
aa(lp4318
I6340
aS'29'
p4319
aS'276'
p4320
aasS'2XGP'
p4321
(lp4322
(lp4323
I5444
aS'386'
p4324
aS'505'
p4325
aa(lp4326
I6340
aS'29'
p4327
aS'276'
p4328
aasS'3FDZ'
p4329
(lp4330
(lp4331
I3342
aS'4'
aS'127'
p4332
aa(lp4333
I3342
aS'142'
p4334
aS'217'
p4335
aa(lp4336
I3342
aS'4'
aS'127'
p4337
aa(lp4338
I3342
aS'142'
p4339
aS'217'
p4340
aasS'3G4T'
p4341
(lp4342
(lp4343
I4242
aS'8'
aS'248'
p4344
aasS'3PGM'
p4345
(lp4346
(lp4347
I3342
aS'3'
aS'122'
p4348
aa(lp4349
I3342
aS'143'
p4350
aS'216'
p4351
aasS'3GQC'
p4352
(lp4353
(lp4354
I5444
aS'702'
p4355
aS'826'
p4356
aa(lp4357
I6340
aS'422'
p4358
aS'621'
p4359
aasS'4EO9'
p4360
(lp4361
(lp4362
I3342
aS'9'
aS'137'
p4363
aasS'5DG0'
p4364
(lp4365
(lp4366
I4242
aS'66'
p4367
aS'309'
p4368
aasS'3K9Q'
p4369
(lp4370
(lp4371
I2081
aS'3'
aS'150'
p4372
aa(lp4373
I2082
aS'156'
p4374
aS'314'
p4375
aasS'2A9J'
p4376
(lp4377
(lp4378
I3342
aS'6'
aS'129'
p4379
aa(lp4380
I3342
aS'150'
p4381
aS'222'
p4382
aasS'1AR7'
p4383
(lp4384
(lp4385
I3432
aS'2'
aS'69'
p4386
aa(lp4387
I3842
aS'58'
p4388
aS'220'
p4389
aa(lp4390
I3842
aS'24'
p4391
aS'239'
p4392
aa(lp4393
I3842
aS'30'
p4394
aS'183'
p4395
aasS'1AYM'
p4396
(lp4397
(lp4398
I3432
aS'1'
aS'44'
p4399
aa(lp4400
I3842
aS'48'
p4401
aS'204'
p4402
aa(lp4403
I3842
aS'24'
p4404
aS'230'
p4405
aa(lp4406
I3842
aS'30'
p4407
aS'193'
p4408
aasS'1EBB'
p4409
(lp4410
(lp4411
I3342
aS'5'
aS'196'
p4412
aasS'1YJH'
p4413
(lp4414
(lp4415
I4242
aS'12'
p4416
aS'255'
p4417
aasS'1CER'
p4418
(lp4419
(lp4420
I2081
aS'1'
aS'149'
p4421
aa(lp4422
I2082
aS'154'
p4423
aS'311'
p4424
aasS'1QXS'
p4425
(lp4426
(lp4427
I2081
aS'3'
aS'166'
p4428
aa(lp4429
I2082
aS'171'
p4430
aS'333'
p4431
aasS'2H4Z'
p4432
(lp4433
(lp4434
I3342
aS'6'
aS'129'
p4435
aa(lp4436
I3342
aS'150'
p4437
aS'222'
p4438
aasS'2H4X'
p4439
(lp4440
(lp4441
I3342
aS'6'
aS'129'
p4442
aa(lp4443
I3342
aS'150'
p4444
aS'222'
p4445
aasS'2G82'
p4446
(lp4447
(lp4448
I2081
aS'1'
aS'149'
p4449
aa(lp4450
I2082
aS'154'
p4451
aS'309'
p4452
aasS'4CDW'
p4453
(lp4454
(lp4455
I3432
aS'12'
p4456
aS'65'
p4457
aa(lp4458
I3842
aS'61'
p4459
aS'207'
p4460
aa(lp4461
I3842
aS'24'
p4462
aS'224'
p4463
aa(lp4464
I3842
aS'30'
p4465
aS'198'
p4466
aasS'4O63'
p4467
(lp4468
(lp4469
I2081
aS'1'
aS'149'
p4470
aa(lp4471
I2082
aS'154'
p4472
aS'311'
p4473
aasS'3OHA'
p4474
(lp4475
(lp4476
I5444
aS'386'
p4477
aS'505'
p4478
aa(lp4479
I6340
aS'29'
p4480
aS'276'
p4481
aasS'4CDQ'
p4482
(lp4483
(lp4484
I3432
aS'12'
p4485
aS'65'
p4486
aa(lp4487
I3842
aS'61'
p4488
aS'207'
p4489
aa(lp4490
I3842
aS'24'
p4491
aS'224'
p4492
aa(lp4493
I3842
aS'30'
p4494
aS'198'
p4495
aasS'1ND2'
p4496
(lp4497
(lp4498
I3432
aS'1'
aS'44'
p4499
aa(lp4500
I3842
aS'48'
p4501
aS'204'
p4502
aa(lp4503
I3842
aS'24'
p4504
aS'230'
p4505
aa(lp4506
I3842
aS'30'
p4507
aS'193'
p4508
aasS'1I9Z'
p4509
(lp4510
(lp4511
I4242
aS'563'
p4512
aS'839'
p4513
aasS'2DWO'
p4514
(lp4515
(lp4516
I3342
aS'248'
p4517
aS'431'
p4518
aa(lp4519
I7408
aS'25'
p4520
aS'245'
p4521
aasS'1NBO'
p4522
(lp4523
(lp4524
I2081
aS'2'
aS'149'
p4525
aa(lp4526
I2082
aS'154'
p4527
aS'311'
p4528
aasS'2DWP'
p4529
(lp4530
(lp4531
I3342
aS'248'
p4532
aS'431'
p4533
aa(lp4534
I7408
aS'32'
p4535
aS'245'
p4536
aasS'1I9Y'
p4537
(lp4538
(lp4539
I4242
aS'563'
p4540
aS'839'
p4541
aasS'1FZT'
p4542
(lp4543
(lp4544
I3342
aS'10'
p4545
aS'201'
p4546
aasS'1DE8'
p4547
(lp4548
(lp4549
I4242
aS'66'
p4550
aS'309'
p4551
aasS'1DE9'
p4552
(lp4553
(lp4554
I4242
aS'66'
p4555
aS'309'
p4556
aasS'1K5M'
p4557
(lp4558
(lp4559
I3432
aS'1929'
p4560
aS'1968'
p4561
aa(lp4562
I3842
aS'1048'
p4563
aS'1218'
p4564
aa(lp4565
I3842
aS'1324'
p4566
aS'1544'
p4567
aa(lp4568
I3842
aS'1630'
p4569
aS'1791'
p4570
aas.