(dp1
S'3DC5'
p2
(lp3
(lp4
I1
aI20
aI218
aasS'2DB3'
p5
(lp6
(lp7
I2
aI149
aI650
aasS'2AW9'
p8
(lp9
(lp10
I1
aI1
aI213
aasS'2L22'
p11
(lp12
(lp13
I3
aI120
aI202
aa(lp14
I3
aI12
aI105
aasS'1UES'
p15
(lp16
(lp17
I1
aI2
aI191
aasS'1UER'
p18
(lp19
(lp20
I1
aI2
aI191
aasS'2R59'
p21
(lp22
(lp23
I4
aI21
aI608
aasS'3EWS'
p24
(lp25
(lp26
I2
aI36
aI477
aasS'3B3B'
p27
(lp28
(lp29
I5
aI3
aI863
aasS'3U7Y'
p30
(lp31
(lp32
I6
aI1
aI321
aasS'4HKG'
p33
(lp34
(lp35
I3
aI2
aI83
aasS'3TEJ'
p36
(lp37
(lp38
I7
aI1
aI1202
aasS'4RHK'
p39
(lp40
(lp41
I8
aI54
aI336
aasS'5A9G'
p42
(lp43
(lp44
I1
aI24
aI236
aasS'4RHI'
p45
(lp46
(lp47
I8
aI57
aI327
aasS'4RZ8'
p48
(lp49
(lp50
I9
aI1
aI353
aasS'4RHL'
p51
(lp52
(lp53
I8
aI54
aI336
aasS'3MBQ'
p54
(lp55
(lp56
I10
aI5
aI157
aasS'4RHQ'
p57
(lp58
(lp59
I8
aI54
aI336
aasS'4Q4I'
p60
(lp61
(lp62
I5
aI3
aI863
aasS'2KW2'
p63
(lp64
(lp65
I3
aI1
aI62
aasS'4Q4E'
p66
(lp67
(lp68
I5
aI3
aI863
aasS'3MDX'
p69
(lp70
(lp71
I10
aI5
aI157
aasS'2RCV'
p72
(lp73
(lp74
I1
aI1
aI202
aasS'3E9B'
p75
(lp76
(lp77
I8
aI1
aI313
aasS'4DKO'
p78
(lp79
(lp80
I9
aI1
aI353
aasS'3T70'
p81
(lp82
(lp83
I10
aI3
aI172
aasS'4Q48'
p84
(lp85
(lp86
I2
aI8
aI509
aasS'1SIX'
p87
(lp88
(lp89
I10
aI1
aI154
aasS'2KWL'
p90
(lp91
(lp92
I3
aI1
aI80
aasS'1VEC'
p93
(lp94
(lp95
I2
aI44
aI476
aasS'3BOR'
p96
(lp97
(lp98
I2
aI17
aI237
aasS'4Q40'
p99
(lp100
(lp101
I8
aI37
aI368
aasS'4JKP'
p102
(lp103
(lp104
I6
aI13
aI210
aasS'4R4N'
p105
(lp106
(lp107
I6
aI1
aI220
aasS'3B37'
p108
(lp109
(lp110
I5
aI3
aI863
aasS'3B34'
p111
(lp112
(lp113
I5
aI3
aI863
aasS'4DKU'
p114
(lp115
(lp116
I9
aI1
aI353
aasS'4DKV'
p117
(lp118
(lp119
I9
aI1
aI353
aasS'4DKQ'
p120
(lp121
(lp122
I9
aI1
aI353
aasS'4DKP'
p123
(lp124
(lp125
I9
aI1
aI353
aasS'4MXR'
p126
(lp127
(lp128
I8
aI9
aI310
aasS'4DKR'
p129
(lp130
(lp131
I9
aI1
aI353
aasS'1XTK'
p132
(lp133
(lp134
I2
aI3
aI426
aasS'2AWP'
p135
(lp136
(lp137
I1
aI2
aI198
aasS'1XTJ'
p138
(lp139
(lp140
I2
aI3
aI426
aasS'1XDC'
p141
(lp142
(lp143
I1
aI18
aI222
aasS'2CDY'
p144
(lp145
(lp146
I1
aI1
aI211
aasS'4MYK'
p147
(lp148
(lp149
I8
aI9
aI310
aasS'3BFR'
p150
(lp151
(lp152
I1
aI11
aI233
aasS'4MYN'
p153
(lp154
(lp155
I8
aI9
aI310
aasS'4GAA'
p156
(lp157
(lp158
I4
aI6
aI470
aasS'4MYL'
p159
(lp160
(lp161
I8
aI9
aI310
aasS'3FU5'
p162
(lp163
(lp164
I4
aI21
aI608
aasS'4LSU'
p165
(lp166
(lp167
I6
aI66
aI204
aasS'4LST'
p168
(lp169
(lp170
I6
aI1
aI210
aasS'4LSV'
p171
(lp172
(lp173
I6
aI17
aI206
aasS'4LSQ'
p174
(lp175
(lp176
I6
aI2
aI210
aasS'4LSP'
p177
(lp178
(lp179
I6
aI2
aI210
aasS'4LSS'
p180
(lp181
(lp182
I6
aI1
aI210
aasS'4LSR'
p183
(lp184
(lp185
I6
aI2
aI210
aasS'4Q3V'
p186
(lp187
(lp188
I8
aI37
aI368
aasS'2Y1T'
p189
(lp190
(lp191
I10
aI1
aI142
aasS'3EHW'
p192
(lp193
(lp194
I10
aI89
aI252
aasS'4YDI'
p195
(lp196
(lp197
I6
aI19
aI210
aasS'4JYY'
p198
(lp199
(lp200
I1
aI20
aI233
aasS'4FFK'
p201
(lp202
(lp203
I1
aI11
aI218
aasS'4YDJ'
p204
(lp205
(lp206
I6
aI27
aI205
aasS'2WWY'
p207
(lp208
(lp209
I2
aI71
aI604
aasS'3NY7'
p210
(lp211
(lp212
I3
aI1
aI78
aasS'2K0Y'
p213
(lp214
(lp215
I3
aI3
aI86
aasS'2K0X'
p216
(lp217
(lp218
I3
aI3
aI86
aasS'1ZTE'
p219
(lp220
(lp221
I1
aI18
aI222
aasS'3M1R'
p222
(lp223
(lp224
I8
aI13
aI319
aasS'1GQ7'
p225
(lp226
(lp227
I8
aI16
aI313
aasS'1GQ6'
p228
(lp229
(lp230
I8
aI16
aI313
aasS'4OOP'
p231
(lp232
(lp233
I10
aI20
aI166
aasS'4OOQ'
p234
(lp235
(lp236
I10
aI20
aI166
aasS'2Y8C'
p237
(lp238
(lp239
I10
aI3
aI172
aasS'2N57'
p240
(lp241
(lp242
I3
aI1
aI78
aasS'1Y67'
p243
(lp244
(lp245
I1
aI1
aI213
aasS'4GSM'
p246
(lp247
(lp248
I8
aI7
aI321
aasS'4GSV'
p249
(lp250
(lp251
I8
aI7
aI321
aasS'3DC6'
p252
(lp253
(lp254
I1
aI7
aI221
aasS'4GSZ'
p255
(lp256
(lp257
I8
aI7
aI321
aasS'4QHP'
p258
(lp259
(lp260
I5
aI8
aI868
aasS'2A0M'
p261
(lp262
(lp263
I8
aI9
aI310
aasS'4BGD'
p264
(lp265
(lp266
I2
aI448
aI1059
aa(lp267
I2
aI1336
aI1722
aasS'2I5Y'
p268
(lp269
(lp270
I6
aI1
aI321
aasS'3KKY'
p271
(lp272
(lp273
I1
aI1
aI211
aasS'2L0Q'
p274
(lp275
(lp276
I3
aI3
aI80
aasS'4RHJ'
p277
(lp278
(lp279
I8
aI54
aI336
aasS'2K94'
p280
(lp281
(lp282
I3
aI1
aI78
aasS'3AK2'
p283
(lp284
(lp285
I1
aI1
aI203
aasS'1DNY'
p286
(lp287
(lp288
I7
aI2090
aI5191
aa(lp289
I7
aI4
aI1042
aa(lp290
I7
aI5209
aI6479
aa(lp291
I7
aI1053
aI2080
aa(lp292
I11
aI4616
aI5192
aa(lp293
I3
aI5119
aI5196
aa(lp294
I3
aI960
aI1044
aasS'2K93'
p295
(lp296
(lp297
I3
aI1
aI78
aasS'4JDT'
p298
(lp299
(lp300
I6
aI13
aI210
aasS'3ARN'
p301
(lp302
(lp303
I10
aI6
aI164
aasS'1GC1'
p304
(lp305
(lp306
I12
aI512
aI664
aa(lp307
I9
aI34
aI511
aasS'4PWV'
p308
(lp309
(lp310
I3
aI1
aI85
aasS'3NEJ'
p311
(lp312
(lp313
I2
aI1
aI207
aasS'3FUS'
p314
(lp315
(lp316
I9
aI1
aI316
aasS'3RRM'
p317
(lp318
(lp319
I13
aI229
aI536
aasS'3FUM'
p320
(lp321
(lp322
I4
aI21
aI608
aasS'3FUN'
p323
(lp324
(lp325
I4
aI21
aI608
aasS'3FUH'
p326
(lp327
(lp328
I4
aI21
aI608
aasS'3FUI'
p329
(lp330
(lp331
I4
aI21
aI608
aasS'3FUJ'
p332
(lp333
(lp334
I4
aI21
aI608
aasS'3FUK'
p335
(lp336
(lp337
I4
aI21
aI608
aasS'3FUD'
p338
(lp339
(lp340
I4
aI21
aI608
aasS'3FUE'
p341
(lp342
(lp343
I4
aI21
aI608
aasS'3FUF'
p344
(lp345
(lp346
I4
aI21
aI608
aasS'1SM8'
p347
(lp348
(lp349
I10
aI1
aI154
aasS'3LJF'
p350
(lp351
(lp352
I1
aI1
aI192
aasS'5CEV'
p353
(lp354
(lp355
I8
aI4
aI299
aasS'3B7T'
p356
(lp357
(lp358
I4
aI21
aI608
aasS'3B7U'
p359
(lp360
(lp361
I4
aI21
aI608
aasS'3B7R'
p362
(lp363
(lp364
I4
aI21
aI608
aasS'3B7S'
p365
(lp366
(lp367
I4
aI21
aI608
aasS'4A4D'
p368
(lp369
(lp370
I2
aI37
aI554
aasS'3BER'
p371
(lp372
(lp373
I2
aI1
aI422
aasS'3TS6'
p374
(lp375
(lp376
I10
aI1
aI152
aasS'3B7G'
p377
(lp378
(lp379
I2
aI29
aI477
aasS'4A4Z'
p380
(lp381
(lp382
I14
aI1070
aI1287
aa(lp383
I2
aI208
aI905
aasS'2QAD'
p384
(lp385
(lp386
I6
aI1
aI321
aasS'2CGQ'
p387
(lp388
(lp389
I3
aI19
aI96
aasS'3DKP'
p390
(lp391
(lp392
I2
aI68
aI565
aasS'3SL0'
p393
(lp394
(lp395
I8
aI20
aI407
aasS'3SL1'
p396
(lp397
(lp398
I8
aI20
aI407
aasS'1IDS'
p399
(lp400
(lp401
I1
aI1
aI204
aasS'1ZSP'
p402
(lp403
(lp404
I1
aI18
aI222
aasS'2X2B'
p405
(lp406
(lp407
I3
aI2
aI77
aasS'2GXU'
p408
(lp409
(lp410
I2
aI1
aI207
aasS'4JPJ'
p411
(lp412
(lp413
I12
aI512
aI664
aa(lp414
I9
aI34
aI511
aasS'1T5G'
p415
(lp416
(lp417
I8
aI1
aI313
aasS'3TSL'
p418
(lp419
(lp420
I10
aI1
aI152
aasS'2LPK'
p421
(lp422
(lp423
I3
aI1
aI62
aasS'2GXS'
p424
(lp425
(lp426
I2
aI1
aI207
aasS'3NBF'
p427
(lp428
(lp429
I2
aI1
aI207
aasS'1EM1'
p430
(lp431
(lp432
I1
aI18
aI222
aasS'2CG5'
p433
(lp434
(lp435
I15
aI2238
aI2324
aa(lp436
I16
aI1869
aI2174
aa(lp437
I17
aI2
aI816
aasS'1SMC'
p438
(lp439
(lp440
I10
aI1
aI154
aasS'3LJ9'
p441
(lp442
(lp443
I1
aI1
aI192
aasS'2WE2'
p444
(lp445
(lp446
I10
aI131
aI220
aasS'2WE3'
p447
(lp448
(lp449
I10
aI131
aI220
aasS'2WE0'
p450
(lp451
(lp452
I10
aI131
aI220
aasS'2WE1'
p453
(lp454
(lp455
I10
aI131
aI220
aasS'4YDL'
p456
(lp457
(lp458
I6
aI1
aI211
aasS'3FU6'
p459
(lp460
(lp461
I4
aI21
aI608
aasS'3FU0'
p462
(lp463
(lp464
I4
aI21
aI608
aasS'4MS6'
p465
(lp466
(lp467
I4
aI21
aI608
aasS'4YDK'
p468
(lp469
(lp470
I6
aI2
aI214
aasS'3FU3'
p471
(lp472
(lp473
I4
aI21
aI608
aasS'2HQU'
p474
(lp475
(lp476
I10
aI89
aI252
aasS'2MR8'
p477
(lp478
(lp479
I3
aI1
aI90
aasS'2MR7'
p480
(lp481
(lp482
I3
aI1
aI90
aasS'4C9B'
p483
(lp484
(lp485
I2
aI5
aI407
aasS'4W7S'
p486
(lp487
(lp488
I2
aI37
aI579
aasS'4DQO'
p489
(lp490
(lp491
I18
aI9
aI77
aasS'2EIV'
p492
(lp493
(lp494
I8
aI1
aI290
aasS'1GV3'
p495
(lp496
(lp497
I1
aI12
aI243
aasS'4CGZ'
p498
(lp499
(lp500
I2
aI633
aI1298
aasS'4NEO'
p501
(lp502
(lp503
I3
aI3
aI89
aasS'4J3B'
p504
(lp505
(lp506
I5
aI194
aI1084
aasS'2ADQ'
p507
(lp508
(lp509
I1
aI18
aI222
aasS'2ADP'
p510
(lp511
(lp512
I1
aI18
aI222
aasS'3HI1'
p513
(lp514
(lp515
I12
aI499
aI651
aa(lp516
I9
aI33
aI498
aasS'4NL4'
p517
(lp518
(lp519
I2
aI192
aI413
aa(lp520
I2
aI533
aI611
aasS'4Z7I'
p521
(lp522
(lp523
I4
aI131
aI1025
aasS'1MSD'
p524
(lp525
(lp526
I1
aI18
aI222
aasS'1HQ5'
p527
(lp528
(lp529
I8
aI1
aI313
aasS'2GXQ'
p530
(lp531
(lp532
I2
aI1
aI207
aasS'4L2A'
p533
(lp534
(lp535
I1
aI1
aI192
aasS'1T8K'
p536
(lp537
(lp538
I3
aI1
aI78
aasS'4HZE'
p539
(lp540
(lp541
I8
aI1
aI354
aasS'5C97'
p542
(lp543
(lp544
I4
aI131
aI1025
aasS'3OIY'
p545
(lp546
(lp547
I19
aI314
aI414
aa(lp548
I2
aI2
aI394
aasS'4Q47'
p549
(lp550
(lp551
I2
aI8
aI509
aasS'2MD9'
p552
(lp553
(lp554
I7
aI2090
aI5191
aa(lp555
I7
aI4
aI1042
aa(lp556
I7
aI5209
aI6479
aa(lp557
I7
aI1053
aI2080
aa(lp558
I11
aI4616
aI5192
aa(lp559
I3
aI960
aI1044
aa(lp560
I3
aI5119
aI5196
aasS'3CHR'
p561
(lp562
(lp563
I4
aI21
aI608
aasS'2CNR'
p564
(lp565
(lp566
I3
aI1
aI82
aasS'3CHP'
p567
(lp568
(lp569
I4
aI21
aI608
aasS'3CHQ'
p570
(lp571
(lp572
I4
aI21
aI608
aasS'1WVB'
p573
(lp574
(lp575
I8
aI7
aI321
aasS'2XCE'
p576
(lp577
(lp578
I10
aI1
aI144
aasS'1WVA'
p579
(lp580
(lp581
I8
aI7
aI321
aasS'1MMM'
p582
(lp583
(lp584
I1
aI2
aI206
aasS'1GM5'
p585
(lp586
(lp587
I2
aI265
aI703
aasS'4GWD'
p588
(lp589
(lp590
I8
aI7
aI321
aasS'1XS1'
p591
(lp592
(lp593
I10
aI34
aI186
aasS'4GWC'
p594
(lp595
(lp596
I8
aI7
aI321
aasS'3ZF1'
p597
(lp598
(lp599
I10
aI20
aI204
aasS'3CHO'
p600
(lp601
(lp602
I4
aI21
aI608
aasS'4K0A'
p603
(lp604
(lp605
I12
aI499
aI651
aa(lp606
I9
aI33
aI498
aasS'2LTE'
p607
(lp608
(lp609
I3
aI15
aI102
aasS'3ZF5'
p610
(lp611
(lp612
I10
aI20
aI204
aasS'3ZF4'
p613
(lp614
(lp615
I10
aI20
aI204
aasS'3ZF6'
p616
(lp617
(lp618
I10
aI1
aI204
aasS'1ISC'
p619
(lp620
(lp621
I1
aI1
aI193
aasS'3KX2'
p622
(lp623
(lp624
I20
aI86
aI722
aasS'4G3H'
p625
(lp626
(lp627
I8
aI3
aI310
aasS'1AF8'
p628
(lp629
(lp630
I3
aI3
aI86
aasS'2P4K'
p631
(lp632
(lp633
I1
aI18
aI222
aasS'3U4E'
p634
(lp635
(lp636
I6
aI111
aI215
aasS'4UJE'
p637
(lp638
(lp639
I21
aI1
aI76
aasS'4UJD'
p640
(lp641
(lp642
I21
aI1
aI76
aasS'4UJC'
p643
(lp644
(lp645
I21
aI1
aI76
aasS'5AB2'
p646
(lp647
(lp648
I4
aI54
aI956
aasS'2LL8'
p649
(lp650
(lp651
I3
aI1
aI62
aasS'2QXX'
p652
(lp653
(lp654
I10
aI33
aI178
aasS'1ZA5'
p655
(lp656
(lp657
I1
aI1
aI193
aasS'3DNO'
p658
(lp659
(lp660
I12
aI512
aI664
aa(lp661
I9
aI34
aI511
aasS'3DNN'
p662
(lp663
(lp664
I12
aI512
aI664
aa(lp665
I9
aI34
aI511
aasS'4S1R'
p666
(lp667
(lp668
I6
aI3
aI210
aasS'3DNL'
p669
(lp670
(lp671
I12
aI512
aI664
aa(lp672
I9
aI34
aI511
aasS'2MVU'
p673
(lp674
(lp675
I3
aI3
aI86
aasS'3TPN'
p676
(lp677
(lp678
I10
aI1
aI152
aasS'2MVV'
p679
(lp680
(lp681
I3
aI3
aI86
aasS'2D4N'
p682
(lp683
(lp684
I10
aI11
aI167
aasS'4R5T'
p685
(lp686
(lp687
I5
aI194
aI1084
aasS'2D4L'
p688
(lp689
(lp690
I10
aI11
aI167
aasS'4R5V'
p691
(lp692
(lp693
I5
aI194
aI1084
aasS'4R4F'
p694
(lp695
(lp696
I12
aI499
aI651
aa(lp697
I9
aI33
aI498
aasS'2FQ2'
p698
(lp699
(lp700
I3
aI1
aI77
aasS'2FQ0'
p701
(lp702
(lp703
I3
aI1
aI77
aasS'3RN4'
p704
(lp705
(lp706
I1
aI11
aI233
aasS'3F80'
p707
(lp708
(lp709
I8
aI7
aI321
aasS'2VJ8'
p710
(lp711
(lp712
I4
aI21
aI608
aasS'4I53'
p713
(lp714
(lp715
I22
aI1
aI95
aa(lp716
I9
aI41
aI358
aasS'2J4H'
p717
(lp718
(lp719
I10
aI34
aI186
aasS'4I54'
p720
(lp721
(lp722
I9
aI1
aI353
aasS'2QKC'
p723
(lp724
(lp725
I1
aI18
aI222
aasS'4R5X'
p726
(lp727
(lp728
I5
aI194
aI1084
aasS'2J4Q'
p729
(lp730
(lp731
I10
aI34
aI186
aasS'4NZ8'
p732
(lp733
(lp734
I4
aI66
aI959
aasS'4KA2'
p735
(lp736
(lp737
I12
aI499
aI651
aa(lp738
I9
aI33
aI498
aasS'2QKA'
p739
(lp740
(lp741
I1
aI18
aI222
aasS'2AVA'
p742
(lp743
(lp744
I3
aI55
aI138
aasS'4E4E'
p745
(lp746
(lp747
I1
aI11
aI233
aasS'4JZ2'
p748
(lp749
(lp750
I1
aI20
aI233
aasS'4FKK'
p751
(lp752
(lp753
I4
aI66
aI959
aasS'2PC5'
p754
(lp755
(lp756
I10
aI20
aI166
aasS'4FKH'
p757
(lp758
(lp759
I4
aI66
aI959
aasS'1XUQ'
p760
(lp761
(lp762
I1
aI1
aI203
aasS'4JZG'
p763
(lp764
(lp765
I1
aI20
aI233
aasS'4FKE'
p766
(lp767
(lp768
I4
aI66
aI959
aasS'4F91'
p769
(lp770
(lp771
I2
aI1302
aI1832
aa(lp772
I2
aI476
aI1067
aasS'5AGA'
p773
(lp774
(lp775
I2
aI41
aI829
aasS'4F92'
p776
(lp777
(lp778
I2
aI1302
aI1832
aa(lp779
I2
aI476
aI1067
aasS'4IU4'
p780
(lp781
(lp782
I8
aI10
aI322
aasS'4JZZ'
p783
(lp784
(lp785
I12
aI499
aI651
aa(lp786
I9
aI33
aI498
aasS'3KED'
p787
(lp788
(lp789
I5
aI3
aI863
aasS'4JZW'
p790
(lp791
(lp792
I12
aI499
aI651
aa(lp793
I9
aI33
aI498
aasS'1H19'
p794
(lp795
(lp796
I4
aI21
aI608
aasS'3C2T'
p797
(lp798
(lp799
I10
aI1
aI141
aasS'2XAU'
p800
(lp801
(lp802
I20
aI86
aI722
aasS'2HR6'
p803
(lp804
(lp805
I10
aI4
aI151
aasS'4FCK'
p806
(lp807
(lp808
I8
aI7
aI321
aasS'4OU3'
p809
(lp810
(lp811
I4
aI66
aI959
aasS'4F93'
p812
(lp813
(lp814
I2
aI476
aI1067
aa(lp815
I2
aI1302
aI1832
aasS'1SQM'
p816
(lp817
(lp818
I4
aI21
aI608
aasS'1HQF'
p819
(lp820
(lp821
I8
aI1
aI313
aasS'3T64'
p822
(lp823
(lp824
I10
aI3
aI172
aasS'3T60'
p825
(lp826
(lp827
I10
aI3
aI172
aasS'1L0I'
p828
(lp829
(lp830
I3
aI1
aI78
aasS'1L0H'
p831
(lp832
(lp833
I3
aI1
aI78
aasS'1F7P'
p834
(lp835
(lp836
I10
aI710
aI850
aasS'1F7Q'
p837
(lp838
(lp839
I10
aI710
aI850
aasS'1F7R'
p840
(lp841
(lp842
I10
aI710
aI850
aasS'4FYQ'
p843
(lp844
(lp845
I4
aI71
aI962
aasS'4FYS'
p846
(lp847
(lp848
I4
aI71
aI962
aasS'4FYR'
p849
(lp850
(lp851
I4
aI71
aI962
aasS'1EN4'
p852
(lp853
(lp854
I1
aI2
aI206
aasS'4FYT'
p855
(lp856
(lp857
I4
aI71
aI962
aasS'1EN6'
p858
(lp859
(lp860
I1
aI2
aI206
aasS'1F7K'
p861
(lp862
(lp863
I10
aI710
aI850
aasS'1F7D'
p864
(lp865
(lp866
I10
aI710
aI850
aasS'4XVS'
p867
(lp868
(lp869
I9
aI1
aI358
aasS'1HQX'
p870
(lp871
(lp872
I8
aI1
aI313
aasS'1R1O'
p873
(lp874
(lp875
I8
aI1
aI313
aasS'1RZJ'
p876
(lp877
(lp878
I12
aI512
aI664
aa(lp879
I9
aI34
aI511
aasS'3QVN'
p880
(lp881
(lp882
I1
aI2
aI206
aasS'4KX7'
p883
(lp884
(lp885
I4
aI60
aI950
aasS'4DZ4'
p886
(lp887
(lp888
I8
aI25
aI324
aasS'5C7K'
p889
(lp890
(lp891
I6
aI2
aI215
aasS'1RLA'
p892
(lp893
(lp894
I8
aI1
aI313
aasS'1HV8'
p895
(lp896
(lp897
I2
aI1
aI367
aasS'4KX9'
p898
(lp899
(lp900
I4
aI60
aI950
aasS'4KX8'
p901
(lp902
(lp903
I4
aI60
aI950
aasS'4NAQ'
p904
(lp905
(lp906
I4
aI66
aI959
aasS'4S1Q'
p907
(lp908
(lp909
I6
aI3
aI210
aasS'1OGH'
p910
(lp911
(lp912
I10
aI89
aI172
aasS'2I4I'
p913
(lp914
(lp915
I2
aI87
aI657
aasS'3MWL'
p916
(lp917
(lp918
I2
aI1
aI207
aasS'3MDS'
p919
(lp920
(lp921
I1
aI1
aI204
aasS'4JAN'
p922
(lp923
(lp924
I6
aI66
aI208
aasS'4R2G'
p925
(lp926
(lp927
I12
aI504
aI656
aa(lp928
I9
aI33
aI503
aasS'1VEW'
p929
(lp930
(lp931
I1
aI2
aI206
aasS'3JS4'
p932
(lp933
(lp934
I1
aI10
aI226
aasS'3H6D'
p935
(lp936
(lp937
I10
aI1
aI154
aasS'4KXC'
p938
(lp939
(lp940
I4
aI60
aI950
aasS'4KXB'
p941
(lp942
(lp943
I4
aI60
aI950
aasS'4KXA'
p944
(lp945
(lp946
I4
aI60
aI950
aasS'3H6X'
p947
(lp948
(lp949
I10
aI5
aI148
aasS'4KXD'
p950
(lp951
(lp952
I4
aI60
aI950
aasS'2XX6'
p953
(lp954
(lp955
I10
aI1
aI142
aasS'1WRB'
p956
(lp957
(lp958
I2
aI1
aI253
aasS'3LMO'
p959
(lp960
(lp961
I3
aI1
aI62
aasS'1T5F'
p962
(lp963
(lp964
I8
aI1
aI313
aasS'3PUU'
p965
(lp966
(lp967
I5
aI3
aI863
aasS'4QPE'
p968
(lp969
(lp970
I5
aI8
aI868
aasS'4Q3P'
p971
(lp972
(lp973
I8
aI37
aI368
aasS'4Q3Q'
p974
(lp975
(lp976
I8
aI37
aI368
aasS'4Q3R'
p977
(lp978
(lp979
I8
aI37
aI368
aasS'4Q3S'
p980
(lp981
(lp982
I8
aI37
aI368
aasS'4Q3T'
p983
(lp984
(lp985
I8
aI37
aI368
aasS'4Q3U'
p986
(lp987
(lp988
I8
aI37
aI368
aasS'3T6Y'
p989
(lp990
(lp991
I10
aI3
aI172
aasS'2ZAV'
p992
(lp993
(lp994
I8
aI7
aI321
aasS'4S1S'
p995
(lp996
(lp997
I6
aI3
aI210
aasS'1D3V'
p998
(lp999
(lp1000
I8
aI1
aI313
aasS'1Q0U'
p1001
(lp1002
(lp1003
I2
aI4
aI216
aasS'3B2X'
p1004
(lp1005
(lp1006
I5
aI3
aI863
aasS'1UNF'
p1007
(lp1008
(lp1009
I1
aI8
aI238
aasS'3B2P'
p1010
(lp1011
(lp1012
I5
aI3
aI863
aasS'4TVP'
p1013
(lp1014
(lp1015
I6
aI15
aI216
aasS'1MNG'
p1016
(lp1017
(lp1018
I1
aI1
aI204
aasS'1AP6'
p1019
(lp1020
(lp1021
I1
aI18
aI222
aasS'3EBG'
p1022
(lp1023
(lp1024
I5
aI194
aI1084
aasS'1AP5'
p1025
(lp1026
(lp1027
I1
aI18
aI222
aasS'4IU0'
p1028
(lp1029
(lp1030
I8
aI10
aI322
aasS'4IU1'
p1031
(lp1032
(lp1033
I8
aI10
aI322
aasS'3EBH'
p1034
(lp1035
(lp1036
I5
aI194
aI1084
aasS'3EBI'
p1037
(lp1038
(lp1039
I5
aI194
aI1084
aasS'4DG9'
p1040
(lp1041
(lp1042
I11
aI9
aI568
aasS'1QNM'
p1043
(lp1044
(lp1045
I1
aI18
aI222
aasS'1QNN'
p1046
(lp1047
(lp1048
I1
aI2
aI191
aasS'3TRN'
p1049
(lp1050
(lp1051
I10
aI1
aI152
aasS'2PNG'
p1052
(lp1053
(lp1054
I15
aI2232
aI2332
aa(lp1055
I23
aI478
aI819
aa(lp1056
I16
aI1864
aI2244
aa(lp1057
I17
aI2
aI816
aasS'3ZF3'
p1058
(lp1059
(lp1060
I10
aI20
aI204
aasS'3ZF2'
p1061
(lp1062
(lp1063
I10
aI20
aI204
aasS'3FMP'
p1064
(lp1065
(lp1066
I13
aI253
aI550
aasS'1SNF'
p1067
(lp1068
(lp1069
I10
aI1
aI154
aasS'4F5C'
p1070
(lp1071
(lp1072
I4
aI66
aI959
aasS'1P7G'
p1073
(lp1074
(lp1075
I1
aI1
aI210
aasS'3FMO'
p1076
(lp1077
(lp1078
I13
aI253
aI550
aasS'2J0U'
p1079
(lp1080
(lp1081
I2
aI5
aI407
aasS'3EIQ'
p1082
(lp1083
(lp1084
I2
aI1
aI406
aasS'3MMR'
p1085
(lp1086
(lp1087
I8
aI20
aI407
aasS'1PKJ'
p1088
(lp1089
(lp1090
I10
aI89
aI172
aasS'1PKK'
p1091
(lp1092
(lp1093
I10
aI89
aI172
aasS'1PKH'
p1094
(lp1095
(lp1096
I10
aI89
aI172
aasS'2V1X'
p1097
(lp1098
(lp1099
I2
aI71
aI604
aasS'3GMZ'
p1100
(lp1101
(lp1102
I8
aI7
aI321
aasS'2BSY'
p1103
(lp1104
(lp1105
I10
aI131
aI220
aasS'4CT5'
p1106
(lp1107
(lp1108
I2
aI44
aI476
aasS'3DJ8'
p1109
(lp1110
(lp1111
I8
aI7
aI321
aasS'4NL8'
p1112
(lp1113
(lp1114
I2
aI533
aI611
aa(lp1115
I2
aI192
aI413
aasS'2A03'
p1116
(lp1117
(lp1118
I1
aI7
aI206
aasS'3F4F'
p1119
(lp1120
(lp1121
I10
aI6
aI147
aasS'3ZEZ'
p1122
(lp1123
(lp1124
I10
aI20
aI204
aasS'2KR5'
p1125
(lp1126
(lp1127
I24
aI1867
aI1969
aa(lp1128
I17
aI352
aI1253
aasS'3FHT'
p1129
(lp1130
(lp1131
I2
aI36
aI477
aasS'3RLA'
p1132
(lp1133
(lp1134
I8
aI1
aI313
aasS'1F7N'
p1135
(lp1136
(lp1137
I10
aI710
aI850
aasS'1Q5U'
p1138
(lp1139
(lp1140
I10
aI89
aI252
aasS'3TQJ'
p1141
(lp1142
(lp1143
I1
aI3
aI193
aasS'4KBF'
p1144
(lp1145
(lp1146
I2
aI1
aI365
aasS'2EF5'
p1147
(lp1148
(lp1149
I8
aI2
aI289
aasS'2EF4'
p1150
(lp1151
(lp1152
I8
aI2
aI289
aasS'1KKC'
p1153
(lp1154
(lp1155
I1
aI1
aI203
aasS'2JGP'
p1156
(lp1157
(lp1158
I7
aI5209
aI6479
aa(lp1159
I7
aI2090
aI5191
aa(lp1160
I7
aI1053
aI2080
aa(lp1161
I7
aI4
aI1042
aa(lp1162
I11
aI4616
aI5192
aa(lp1163
I3
aI5119
aI5196
aa(lp1164
I3
aI960
aI1044
aasS'3CIA'
p1165
(lp1166
(lp1167
I4
aI34
aI509
aasS'3H1S'
p1168
(lp1169
(lp1170
I1
aI2
aI192
aasS'3I5Y'
p1171
(lp1172
(lp1173
I2
aI66
aI580
aasS'3LY5'
p1174
(lp1175
(lp1176
I2
aI101
aI621
aasS'1Q5H'
p1177
(lp1178
(lp1179
I10
aI89
aI252
aasS'4JBS'
p1180
(lp1181
(lp1182
I4
aI54
aI956
aasS'1DUT'
p1183
(lp1184
(lp1185
I10
aI710
aI850
aasS'1DUP'
p1186
(lp1187
(lp1188
I10
aI4
aI151
aasS'3QJX'
p1189
(lp1190
(lp1191
I5
aI3
aI863
aasS'2W7W'
p1192
(lp1193
(lp1194
I1
aI1
aI194
aasS'2NXZ'
p1195
(lp1196
(lp1197
I12
aI510
aI662
aa(lp1198
I9
aI33
aI509
aasS'3TGT'
p1199
(lp1200
(lp1201
I9
aI1
aI353
aasS'1EU5'
p1202
(lp1203
(lp1204
I10
aI4
aI151
aasS'3TGQ'
p1205
(lp1206
(lp1207
I12
aI499
aI651
aa(lp1208
I9
aI33
aI498
aasS'3TGR'
p1209
(lp1210
(lp1211
I22
aI1
aI95
aa(lp1212
I9
aI41
aI358
aasS'3TGS'
p1213
(lp1214
(lp1215
I22
aI1
aI95
aa(lp1216
I9
aI41
aI358
aasS'1DUN'
p1217
(lp1218
(lp1219
I10
aI1
aI134
aasS'1HQH'
p1220
(lp1221
(lp1222
I8
aI1
aI313
aasS'3FTZ'
p1223
(lp1224
(lp1225
I4
aI21
aI608
aasS'3TIH'
p1226
(lp1227
(lp1228
I9
aI1
aI345
aasS'1MEQ'
p1229
(lp1230
(lp1231
I12
aI507
aI660
aa(lp1232
I9
aI32
aI506
aasS'3FTV'
p1233
(lp1234
(lp1235
I4
aI21
aI608
aasS'3FTU'
p1236
(lp1237
(lp1238
I4
aI21
aI608
aasS'3FTS'
p1239
(lp1240
(lp1241
I4
aI21
aI608
aasS'3P4Y'
p1242
(lp1243
(lp1244
I19
aI460
aI541
aa(lp1245
I2
aI59
aI388
aasS'3P4X'
p1246
(lp1247
(lp1248
I19
aI460
aI541
aa(lp1249
I2
aI59
aI388
aasS'4ZMJ'
p1250
(lp1251
(lp1252
I12
aI1
aI153
aasS'1EUW'
p1253
(lp1254
(lp1255
I10
aI4
aI151
aasS'1D5N'
p1256
(lp1257
(lp1258
I1
aI2
aI206
aasS'2KGC'
p1259
(lp1260
(lp1261
I3
aI3
aI86
aasS'4GUN'
p1262
(lp1263
(lp1264
I1
aI2
aI206
aasS'1GN3'
p1265
(lp1266
(lp1267
I1
aI1
aI204
aasS'1JA8'
p1268
(lp1269
(lp1270
I1
aI18
aI222
aasS'1GN6'
p1271
(lp1272
(lp1273
I1
aI1
aI204
aasS'4A6A'
p1274
(lp1275
(lp1276
I10
aI33
aI178
aasS'1GN4'
p1277
(lp1278
(lp1279
I1
aI1
aI204
aasS'4GV8'
p1280
(lp1281
(lp1282
I10
aI1
aI169
aasS'4BR6'
p1283
(lp1284
(lp1285
I1
aI1
aI197
aasS'4F2N'
p1286
(lp1287
(lp1288
I1
aI5
aI230
aasS'2DNW'
p1289
(lp1290
(lp1291
I3
aI69
aI152
aasS'1VAR'
p1292
(lp1293
(lp1294
I1
aI18
aI222
aasS'4JB9'
p1295
(lp1296
(lp1297
I6
aI13
aI209
aasS'3LP7'
p1298
(lp1299
(lp1300
I8
aI7
aI321
aasS'4L2B'
p1301
(lp1302
(lp1303
I1
aI1
aI192
aasS'2KG6'
p1304
(lp1305
(lp1306
I3
aI3
aI86
aasS'1SYL'
p1307
(lp1308
(lp1309
I10
aI1
aI152
aasS'1IXB'
p1310
(lp1311
(lp1312
I1
aI2
aI206
aasS'3PEY'
p1313
(lp1314
(lp1315
I2
aI4
aI395
aasS'3GN0'
p1316
(lp1317
(lp1318
I8
aI7
aI321
aasS'3PEW'
p1319
(lp1320
(lp1321
I2
aI4
aI395
aasS'2KG8'
p1322
(lp1323
(lp1324
I3
aI3
aI86
aasS'2KG9'
p1325
(lp1326
(lp1327
I3
aI3
aI86
aasS'3TRL'
p1328
(lp1329
(lp1330
I10
aI1
aI152
aasS'4MYF'
p1331
(lp1332
(lp1333
I8
aI9
aI310
aasS'1XTI'
p1334
(lp1335
(lp1336
I2
aI3
aI426
aasS'2KOO'
p1337
(lp1338
(lp1339
I3
aI1
aI81
aasS'4ZQT'
p1340
(lp1341
(lp1342
I5
aI1
aI889
aasS'4TZ0'
p1343
(lp1344
(lp1345
I2
aI66
aI580
aasS'4IU5'
p1346
(lp1347
(lp1348
I8
aI10
aI322
aasS'1ZLZ'
p1349
(lp1350
(lp1351
I1
aI1
aI205
aasS'4JPV'
p1352
(lp1353
(lp1354
I6
aI17
aI206
aasS'4JPW'
p1355
(lp1356
(lp1357
I6
aI2
aI210
aasS'4IXV'
p1358
(lp1359
(lp1360
I8
aI1
aI354
aasS'2BAZ'
p1361
(lp1362
(lp1363
I10
aI1
aI142
aasS'1DT0'
p1364
(lp1365
(lp1366
I1
aI2
aI195
aasS'3NIO'
p1367
(lp1368
(lp1369
I8
aI17
aI318
aasS'3NIP'
p1370
(lp1371
(lp1372
I8
aI25
aI313
aasS'3NIQ'
p1373
(lp1374
(lp1375
I8
aI25
aI313
aasS'1GW6'
p1376
(lp1377
(lp1378
I4
aI21
aI608
aasS'4DDT'
p1379
(lp1380
(lp1381
I19
aI460
aI541
aa(lp1382
I2
aI59
aI388
aasS'4DDU'
p1383
(lp1384
(lp1385
I19
aI460
aI541
aa(lp1386
I2
aI59
aI388
aasS'4DDV'
p1387
(lp1388
(lp1389
I19
aI460
aI541
aa(lp1390
I2
aI59
aI388
aasS'4DDW'
p1391
(lp1392
(lp1393
I19
aI460
aI541
aa(lp1394
I2
aI59
aI388
aasS'4DDX'
p1395
(lp1396
(lp1397
I19
aI460
aI541
aa(lp1398
I2
aI59
aI388
aasS'4JPK'
p1399
(lp1400
(lp1401
I12
aI512
aI664
aa(lp1402
I9
aI34
aI511
aasS'2K2Q'
p1403
(lp1404
(lp1405
I7
aI2090
aI5191
aa(lp1406
I7
aI5209
aI6479
aa(lp1407
I7
aI4
aI1042
aa(lp1408
I7
aI1053
aI2080
aa(lp1409
I11
aI4616
aI5192
aa(lp1410
I3
aI960
aI1044
aa(lp1411
I3
aI5119
aI5196
aasS'2EHT'
p1412
(lp1413
(lp1414
I3
aI2
aI78
aasS'2EHS'
p1415
(lp1416
(lp1417
I3
aI2
aI78
aasS'3TF3'
p1418
(lp1419
(lp1420
I8
aI7
aI321
aasS'1FH1'
p1421
(lp1422
(lp1423
I3
aI8
aI85
aasS'1ISB'
p1424
(lp1425
(lp1426
I1
aI1
aI193
aasS'1ISA'
p1427
(lp1428
(lp1429
I1
aI1
aI193
aasS'3T8V'
p1430
(lp1431
(lp1432
I5
aI194
aI1084
aasS'3J70'
p1433
(lp1434
(lp1435
I12
aI512
aI664
aa(lp1436
I9
aI34
aI511
aasS'1S2M'
p1437
(lp1438
(lp1439
I2
aI19
aI452
aasS'2ZJ5'
p1440
(lp1441
(lp1442
I2
aI1
aI681
aasS'2HRM'
p1443
(lp1444
(lp1445
I10
aI4
aI151
aasS'4OM0'
p1446
(lp1447
(lp1448
I6
aI3
aI210
aasS'4OM1'
p1449
(lp1450
(lp1451
I6
aI3
aI210
aasS'4FCI'
p1452
(lp1453
(lp1454
I8
aI7
aI321
aasS'2KGD'
p1455
(lp1456
(lp1457
I3
aI3
aI86
aasS'2KGE'
p1458
(lp1459
(lp1460
I3
aI3
aI86
aasS'2GDS'
p1461
(lp1462
(lp1463
I1
aI18
aI222
aasS'4LJY'
p1464
(lp1465
(lp1466
I2
aI181
aI712
aasS'2KGA'
p1467
(lp1468
(lp1469
I3
aI3
aI86
aasS'2GDW'
p1470
(lp1471
(lp1472
I7
aI1053
aI2080
aa(lp1473
I7
aI4
aI1042
aa(lp1474
I7
aI2090
aI5191
aa(lp1475
I7
aI5209
aI6479
aa(lp1476
I11
aI4616
aI5192
aa(lp1477
I3
aI960
aI1044
aa(lp1478
I3
aI5119
aI5196
aasS'2ZXG'
p1479
(lp1480
(lp1481
I5
aI3
aI863
aasS'2GDY'
p1482
(lp1483
(lp1484
I7
aI2090
aI5191
aa(lp1485
I7
aI1053
aI2080
aa(lp1486
I7
aI4
aI1042
aa(lp1487
I7
aI5209
aI6479
aa(lp1488
I11
aI4616
aI5192
aa(lp1489
I3
aI960
aI1044
aa(lp1490
I3
aI5119
aI5196
aasS'2GDX'
p1491
(lp1492
(lp1493
I7
aI2090
aI5191
aa(lp1494
I7
aI5209
aI6479
aa(lp1495
I7
aI1053
aI2080
aa(lp1496
I7
aI4
aI1042
aa(lp1497
I11
aI4616
aI5192
aa(lp1498
I3
aI960
aI1044
aa(lp1499
I3
aI5119
aI5196
aasS'1MY6'
p1500
(lp1501
(lp1502
I1
aI2
aI199
aasS'1IX9'
p1503
(lp1504
(lp1505
I1
aI2
aI206
aasS'2HXB'
p1506
(lp1507
(lp1508
I10
aI89
aI172
aasS'3Q7J'
p1509
(lp1510
(lp1511
I4
aI2
aI723
aasS'4GK6'
p1512
(lp1513
(lp1514
I10
aI1
aI137
aasS'2HXD'
p1515
(lp1516
(lp1517
I10
aI89
aI172
aasS'4XMP'
p1518
(lp1519
(lp1520
I6
aI1
aI321
aasS'3LLM'
p1521
(lp1522
(lp1523
I20
aI381
aI1071
aasS'1AVM'
p1524
(lp1525
(lp1526
I1
aI2
aI201
aasS'2HXY'
p1527
(lp1528
(lp1529
I2
aI5
aI407
aasS'2QLP'
p1530
(lp1531
(lp1532
I10
aI33
aI178
aasS'4RX4'
p1533
(lp1534
(lp1535
I6
aI1
aI213
aasS'2ZDC'
p1536
(lp1537
(lp1538
I10
aI74
aI160
aasS'2KOP'
p1539
(lp1540
(lp1541
I3
aI1
aI81
aasS'4X2U'
p1542
(lp1543
(lp1544
I5
aI194
aI1084
aasS'3CEI'
p1545
(lp1546
(lp1547
I1
aI1
aI196
aasS'3IUY'
p1548
(lp1549
(lp1550
I2
aI160
aI625
aasS'3CEV'
p1551
(lp1552
(lp1553
I8
aI4
aI299
aasS'1T4S'
p1554
(lp1555
(lp1556
I8
aI1
aI313
aasS'1T4R'
p1557
(lp1558
(lp1559
I8
aI1
aI313
aasS'2ZJ8'
p1560
(lp1561
(lp1562
I2
aI1
aI681
aasS'1T4P'
p1563
(lp1564
(lp1565
I8
aI1
aI313
aasS'1GKU'
p1566
(lp1567
(lp1568
I19
aI405
aI497
aa(lp1569
I2
aI44
aI353
aasS'1B06'
p1570
(lp1571
(lp1572
I1
aI1
aI211
aasS'2ZJ2'
p1573
(lp1574
(lp1575
I2
aI1
aI681
aasS'2BT1'
p1576
(lp1577
(lp1578
I10
aI131
aI220
aasS'2FAC'
p1579
(lp1580
(lp1581
I3
aI1
aI78
aasS'2ZJA'
p1582
(lp1583
(lp1584
I2
aI1
aI681
aasS'2PY4'
p1585
(lp1586
(lp1587
I10
aI1
aI154
aasS'4YFL'
p1588
(lp1589
(lp1590
I6
aI112
aI215
aasS'4O3M'
p1591
(lp1592
(lp1593
I2
aI1
aI659
aasS'4XNZ'
p1594
(lp1595
(lp1596
I6
aI1
aI321
aasS'4XNY'
p1597
(lp1598
(lp1599
I6
aI1
aI321
aasS'2OL1'
p1600
(lp1601
(lp1602
I10
aI10
aI147
aasS'2OL0'
p1603
(lp1604
(lp1605
I10
aI10
aI147
aasS'1HY8'
p1606
(lp1607
(lp1608
I3
aI2
aI77
aasS'4PU2'
p1609
(lp1610
(lp1611
I5
aI5
aI865
aasS'4F6E'
p1612
(lp1613
(lp1614
I1
aI11
aI233
aasS'4GCY'
p1615
(lp1616
(lp1617
I10
aI1
aI154
aasS'3I93'
p1618
(lp1619
(lp1620
I10
aI17
aI158
aasS'5RLA'
p1621
(lp1622
(lp1623
I8
aI1
aI313
aasS'4BRU'
p1624
(lp1625
(lp1626
I2
aI19
aI452
aasS'3HZA'
p1627
(lp1628
(lp1629
I10
aI1
aI174
aasS'1WP9'
p1630
(lp1631
(lp1632
I2
aI8
aI494
aasS'2M5R'
p1633
(lp1634
(lp1635
I3
aI69
aI149
aasS'1PQ3'
p1636
(lp1637
(lp1638
I8
aI1
aI354
aasS'3ZF0'
p1639
(lp1640
(lp1641
I10
aI20
aI204
aasS'1G9M'
p1642
(lp1643
(lp1644
I12
aI512
aI664
aa(lp1645
I9
aI34
aI511
aasS'2DQ6'
p1646
(lp1647
(lp1648
I5
aI3
aI863
aasS'1BT8'
p1649
(lp1650
(lp1651
I1
aI2
aI201
aasS'2CW2'
p1652
(lp1653
(lp1654
I1
aI24
aI226
aasS'2CW3'
p1655
(lp1656
(lp1657
I1
aI63
aI280
aasS'4TYW'
p1658
(lp1659
(lp1660
I2
aI66
aI580
aasS'4HWW'
p1661
(lp1662
(lp1663
I8
aI7
aI321
aasS'4TMU'
p1664
(lp1665
(lp1666
I2
aI4
aI541
aasS'3ARA'
p1667
(lp1668
(lp1669
I10
aI6
aI164
aasS'3EJD'
p1670
(lp1671
(lp1672
I3
aI1
aI78
aasS'3EJE'
p1673
(lp1674
(lp1675
I3
aI1
aI78
aasS'3EJB'
p1676
(lp1677
(lp1678
I3
aI1
aI78
aasS'4TYY'
p1679
(lp1680
(lp1681
I2
aI66
aI580
aasS'3PZL'
p1682
(lp1683
(lp1684
I8
aI10
aI309
aasS'1BSM'
p1685
(lp1686
(lp1687
I1
aI2
aI201
aasS'4RWY'
p1688
(lp1689
(lp1690
I12
aI499
aI651
aa(lp1691
I9
aI33
aI498
aasS'4RHM'
p1692
(lp1693
(lp1694
I8
aI54
aI336
aasS'2FVF'
p1695
(lp1696
(lp1697
I3
aI55
aI138
aasS'2D4M'
p1698
(lp1699
(lp1700
I10
aI11
aI167
aasS'2FVE'
p1701
(lp1702
(lp1703
I3
aI55
aI138
aasS'1OYW'
p1704
(lp1705
(lp1706
I2
aI1
aI604
aasS'2JU2'
p1707
(lp1708
(lp1709
I23
aI8
aI382
aa(lp1710
I16
aI3042
aI3454
aa(lp1711
I16
aI1614
aI1974
aa(lp1712
I17
aI493
aI1373
aa(lp1713
I17
aI1980
aI2854
aa(lp1714
I3
aI433
aI484
aasS'2JU1'
p1715
(lp1716
(lp1717
I23
aI8
aI382
aa(lp1718
I16
aI1614
aI1974
aa(lp1719
I16
aI3042
aI3454
aa(lp1720
I17
aI1980
aI2854
aa(lp1721
I17
aI493
aI1373
aa(lp1722
I3
aI433
aI484
aasS'2FVA'
p1723
(lp1724
(lp1725
I3
aI55
aI138
aasS'4HXQ'
p1726
(lp1727
(lp1728
I8
aI7
aI321
aasS'1OYY'
p1729
(lp1730
(lp1731
I2
aI1
aI604
aasS'2Z0M'
p1732
(lp1733
(lp1734
I2
aI1
aI337
aasS'3QNF'
p1735
(lp1736
(lp1737
I4
aI39
aI933
aasS'2OKE'
p1738
(lp1739
(lp1740
I10
aI10
aI147
aasS'2LIU'
p1741
(lp1742
(lp1743
I3
aI1
aI99
aasS'4DVX'
p1744
(lp1745
(lp1746
I9
aI1
aI353
aasS'4DVV'
p1747
(lp1748
(lp1749
I9
aI1
aI353
aasS'4DVW'
p1750
(lp1751
(lp1752
I9
aI1
aI353
aasS'4DVT'
p1753
(lp1754
(lp1755
I9
aI1
aI353
aasS'1ACP'
p1756
(lp1757
(lp1758
I3
aI1
aI77
aasS'4DVR'
p1759
(lp1760
(lp1761
I12
aI499
aI651
aa(lp1762
I9
aI33
aI498
aasS'4DVS'
p1763
(lp1764
(lp1765
I9
aI1
aI353
aasS'3LSU'
p1766
(lp1767
(lp1768
I1
aI11
aI233
aasS'4DVH'
p1769
(lp1770
(lp1771
I1
aI4
aI208
aasS'1BS3'
p1772
(lp1773
(lp1774
I1
aI2
aI201
aasS'3E6V'
p1775
(lp1776
(lp1777
I8
aI7
aI321
aasS'1VKU'
p1778
(lp1779
(lp1780
I3
aI15
aI100
aasS'4I06'
p1781
(lp1782
(lp1783
I8
aI1
aI354
aasS'2XY3'
p1784
(lp1785
(lp1786
I10
aI1
aI142
aasS'2XPZ'
p1787
(lp1788
(lp1789
I4
aI67
aI669
aasS'5CU5'
p1790
(lp1791
(lp1792
I4
aI54
aI956
aasS'2XPY'
p1793
(lp1794
(lp1795
I4
aI67
aI669
aasS'2V9X'
p1796
(lp1797
(lp1798
I10
aI34
aI186
aasS'3AK1'
p1799
(lp1800
(lp1801
I1
aI1
aI203
aasS'3AK3'
p1802
(lp1803
(lp1804
I1
aI1
aI203
aasS'4QME'
p1805
(lp1806
(lp1807
I5
aI4
aI864
aasS'3NGB'
p1808
(lp1809
(lp1810
I6
aI1
aI210
aasS'3THH'
p1811
(lp1812
(lp1813
I8
aI7
aI321
aasS'3THJ'
p1814
(lp1815
(lp1816
I8
aI7
aI321
aasS'1QDE'
p1817
(lp1818
(lp1819
I2
aI2
aI394
aasS'4PX9'
p1820
(lp1821
(lp1822
I2
aI87
aI657
aasS'3THE'
p1823
(lp1824
(lp1825
I8
aI7
aI321
aasS'3E8Q'
p1826
(lp1827
(lp1828
I8
aI1
aI313
aasS'3TQ4'
p1829
(lp1830
(lp1831
I10
aI1
aI152
aasS'3TQ5'
p1832
(lp1833
(lp1834
I10
aI1
aI152
aasS'3TQ3'
p1835
(lp1836
(lp1837
I10
aI1
aI152
aasS'1VYQ'
p1838
(lp1839
(lp1840
I10
aI3
aI172
aasS'1P8S'
p1841
(lp1842
(lp1843
I8
aI1
aI313
aasS'3E8Z'
p1844
(lp1845
(lp1846
I8
aI1
aI313
aasS'2BF1'
p1847
(lp1848
(lp1849
I12
aI534
aI675
aa(lp1850
I9
aI25
aI526
aasS'1OR5'
p1851
(lp1852
(lp1853
I3
aI1
aI79
aasS'1XS6'
p1854
(lp1855
(lp1856
I10
aI34
aI186
aasS'1XS4'
p1857
(lp1858
(lp1859
I10
aI34
aI186
aasS'4LK2'
p1860
(lp1861
(lp1862
I2
aI181
aI712
aasS'3SJT'
p1863
(lp1864
(lp1865
I8
aI7
aI321
aasS'3LHL'
p1866
(lp1867
(lp1868
I8
aI1
aI292
aasS'2BPI'
p1869
(lp1870
(lp1871
I1
aI1
aI198
aasS'2CEV'
p1872
(lp1873
(lp1874
I8
aI4
aI299
aasS'1X3O'
p1875
(lp1876
(lp1877
I3
aI1
aI80
aasS'3FE2'
p1878
(lp1879
(lp1880
I2
aI37
aI554
aasS'1ZPE'
p1881
(lp1882
(lp1883
I8
aI1
aI313
aasS'1WOI'
p1884
(lp1885
(lp1886
I8
aI9
aI301
aasS'1WOH'
p1887
(lp1888
(lp1889
I8
aI9
aI301
aasS'1TBH'
p1890
(lp1891
(lp1892
I8
aI1
aI313
aasS'1WOG'
p1893
(lp1894
(lp1895
I8
aI9
aI301
aasS'1TBJ'
p1896
(lp1897
(lp1898
I8
aI1
aI313
aasS'1TBL'
p1899
(lp1900
(lp1901
I8
aI1
aI313
aasS'3MWK'
p1902
(lp1903
(lp1904
I2
aI1
aI207
aasS'3MWJ'
p1905
(lp1906
(lp1907
I2
aI1
aI207
aasS'3CA9'
p1908
(lp1909
(lp1910
I10
aI1
aI158
aasS'2G9N'
p1911
(lp1912
(lp1913
I2
aI1
aI406
aasS'4XJC'
p1914
(lp1915
(lp1916
I10
aI11
aI169
aasS'3ECY'
p1917
(lp1918
(lp1919
I10
aI9
aI160
aasS'3HHQ'
p1920
(lp1921
(lp1922
I10
aI6
aI147
aasS'4E36'
p1923
(lp1924
(lp1925
I4
aI54
aI956
aasS'3SQX'
p1926
(lp1927
(lp1928
I2
aI66
aI580
aasS'4ITY'
p1929
(lp1930
(lp1931
I8
aI10
aI322
aasS'1XFK'
p1932
(lp1933
(lp1934
I8
aI25
aI331
aasS'2CE4'
p1935
(lp1936
(lp1937
I1
aI1
aI211
aasS'1NQ4'
p1938
(lp1939
(lp1940
I3
aI1
aI85
aasS'3SE6'
p1941
(lp1942
(lp1943
I4
aI54
aI956
aasS'2K92'
p1944
(lp1945
(lp1946
I3
aI1
aI78
aasS'3SE9'
p1947
(lp1948
(lp1949
I6
aI1
aI208
aasS'3SE8'
p1950
(lp1951
(lp1952
I6
aI8
aI209
aasS'4PXA'
p1953
(lp1954
(lp1955
I2
aI87
aI657
aasS'2EYQ'
p1956
(lp1957
(lp1958
I2
aI577
aI994
aasS'1JR9'
p1959
(lp1960
(lp1961
I1
aI1
aI202
aasS'4PXH'
p1962
(lp1963
(lp1964
I3
aI1
aI85
aasS'3TQZ'
p1965
(lp1966
(lp1967
I10
aI3
aI155
aasS'3TH7'
p1968
(lp1969
(lp1970
I8
aI7
aI321
aasS'2VA8'
p1971
(lp1972
(lp1973
I2
aI3
aI685
aasS'2NY7'
p1974
(lp1975
(lp1976
I12
aI512
aI664
aa(lp1977
I9
aI34
aI511
aasS'4L2C'
p1978
(lp1979
(lp1980
I1
aI1
aI192
aasS'2NY5'
p1981
(lp1982
(lp1983
I12
aI510
aI662
aa(lp1984
I9
aI33
aI509
aasS'2NY4'
p1985
(lp1986
(lp1987
I12
aI510
aI662
aa(lp1988
I9
aI33
aI509
aasS'4K5P'
p1989
(lp1990
(lp1991
I5
aI194
aI1084
aasS'2NY2'
p1992
(lp1993
(lp1994
I12
aI510
aI662
aa(lp1995
I9
aI33
aI509
aasS'4L2D'
p1996
(lp1997
(lp1998
I1
aI1
aI192
aasS'2NY0'
p1999
(lp2000
(lp2001
I12
aI510
aI662
aa(lp2002
I9
aI33
aI509
aasS'2AFE'
p2003
(lp2004
(lp2005
I3
aI6
aI83
aasS'2AFD'
p2006
(lp2007
(lp2008
I3
aI6
aI83
aasS'2QNW'
p2009
(lp2010
(lp2011
I3
aI2
aI82
aasS'4L2L'
p2012
(lp2013
(lp2014
I4
aI21
aI608
aasS'1P8O'
p2015
(lp2016
(lp2017
I8
aI1
aI313
aasS'2FAE'
p2018
(lp2019
(lp2020
I3
aI1
aI78
aasS'2FAD'
p2021
(lp2022
(lp2023
I3
aI1
aI78
aasS'4NCO'
p2024
(lp2025
(lp2026
I6
aI2
aI235
aasS'1WB7'
p2027
(lp2028
(lp2029
I1
aI1
aI211
aasS'4K5L'
p2030
(lp2031
(lp2032
I5
aI194
aI1084
aasS'4K5M'
p2033
(lp2034
(lp2035
I5
aI194
aI1084
aasS'4K5N'
p2036
(lp2037
(lp2038
I5
aI194
aI1084
aasS'4K5O'
p2039
(lp2040
(lp2041
I5
aI194
aI1084
aasS'4QIR'
p2042
(lp2043
(lp2044
I5
aI8
aI868
aasS'2KOQ'
p2045
(lp2046
(lp2047
I3
aI1
aI81
aasS'2KOR'
p2048
(lp2049
(lp2050
I3
aI1
aI81
aasS'2KOS'
p2051
(lp2052
(lp2053
I3
aI1
aI81
aasS'1DUD'
p2054
(lp2055
(lp2056
I10
aI1
aI152
aasS'1RN8'
p2057
(lp2058
(lp2059
I10
aI4
aI151
aasS'3I62'
p2060
(lp2061
(lp2062
I2
aI66
aI580
aasS'3I61'
p2063
(lp2064
(lp2065
I2
aI66
aI580
aasS'1RNJ'
p2066
(lp2067
(lp2068
I10
aI4
aI151
aasS'3MJL'
p2069
(lp2070
(lp2071
I8
aI7
aI321
aasS'2VSQ'
p2072
(lp2073
(lp2074
I7
aI6
aI1267
aasS'4B0H'
p2075
(lp2076
(lp2077
I10
aI1
aI144
aasS'3Q44'
p2078
(lp2079
(lp2080
I5
aI194
aI1084
aasS'4TYN'
p2081
(lp2082
(lp2083
I2
aI66
aI580
aasS'4PJ6'
p2084
(lp2085
(lp2086
I4
aI131
aI1025
aasS'4P8Q'
p2087
(lp2088
(lp2089
I4
aI131
aI1025
aasS'4APZ'
p2090
(lp2091
(lp2092
I10
aI1
aI144
aasS'4U7D'
p2093
(lp2094
(lp2095
I2
aI71
aI604
aasS'1P8R'
p2096
(lp2097
(lp2098
I8
aI1
aI313
aasS'1P8Q'
p2099
(lp2100
(lp2101
I8
aI1
aI313
aasS'1P8P'
p2102
(lp2103
(lp2104
I8
aI1
aI313
aasS'3EVK'
p2105
(lp2106
(lp2107
I1
aI1
aI210
aasS'2P9O'
p2108
(lp2109
(lp2110
I10
aI1
aI140
aasS'1DUC'
p2111
(lp2112
(lp2113
I10
aI1
aI134
aasS'3TPY'
p2114
(lp2115
(lp2116
I10
aI1
aI152
aasS'1MQ7'
p2117
(lp2118
(lp2119
I10
aI1
aI154
aasS'1WB8'
p2120
(lp2121
(lp2122
I1
aI1
aI211
aasS'1KLP'
p2123
(lp2124
(lp2125
I3
aI1
aI90
aasS'1P8N'
p2126
(lp2127
(lp2128
I8
aI1
aI313
aasS'1P8M'
p2129
(lp2130
(lp2131
I8
aI1
aI313
aasS'4DHK'
p2132
(lp2133
(lp2134
I10
aI11
aI186
aasS'3LOJ'
p2135
(lp2136
(lp2137
I10
aI1
aI174
aasS'4IXU'
p2138
(lp2139
(lp2140
I8
aI1
aI354
aasS'3GF0'
p2141
(lp2142
(lp2143
I10
aI89
aI172
aasS'3FUL'
p2144
(lp2145
(lp2146
I4
aI21
aI608
aasS'4CA3'
p2147
(lp2148
(lp2149
I3
aI2
aI88
aasS'1COJ'
p2150
(lp2151
(lp2152
I1
aI8
aI209
aasS'2AF8'
p2153
(lp2154
(lp2155
I3
aI3
aI86
aasS'2P6R'
p2156
(lp2157
(lp2158
I2
aI6
aI661
aasS'2P6U'
p2159
(lp2160
(lp2161
I2
aI6
aI661
aasS'3LQW'
p2162
(lp2163
(lp2164
I10
aI8
aI163
aasS'3IDX'
p2165
(lp2166
(lp2167
I12
aI512
aI664
aa(lp2168
I9
aI34
aI511
aasS'3IDY'
p2169
(lp2170
(lp2171
I12
aI512
aI664
aa(lp2172
I9
aI34
aI511
aasS'3FH8'
p2173
(lp2174
(lp2175
I4
aI21
aI608
aasS'2PHO'
p2176
(lp2177
(lp2178
I8
aI7
aI321
aasS'5CJX'
p2179
(lp2180
(lp2181
I9
aI1
aI479
aasS'1TA1'
p2182
(lp2183
(lp2184
I8
aI1
aI313
aasS'2PHA'
p2185
(lp2186
(lp2187
I8
aI7
aI321
aasS'3FH7'
p2188
(lp2189
(lp2190
I4
aI21
aI608
aasS'2HPT'
p2191
(lp2192
(lp2193
I5
aI3
aI863
aasS'2HPO'
p2194
(lp2195
(lp2196
I5
aI3
aI863
aasS'3TTA'
p2197
(lp2198
(lp2199
I10
aI1
aI152
aasS'4CEV'
p2200
(lp2201
(lp2202
I8
aI4
aI299
aasS'2BKB'
p2203
(lp2204
(lp2205
I1
aI1
aI193
aasS'3FTY'
p2206
(lp2207
(lp2208
I4
aI21
aI608
aasS'1SLH'
p2209
(lp2210
(lp2211
I10
aI1
aI154
aasS'2ROQ'
p2212
(lp2213
(lp2214
I7
aI1
aI1202
aasS'2GPC'
p2215
(lp2216
(lp2217
I1
aI1
aI194
aasS'1FUU'
p2218
(lp2219
(lp2220
I2
aI2
aI394
aasS'1XIL'
p2221
(lp2222
(lp2223
I1
aI18
aI222
aasS'3FTW'
p2224
(lp2225
(lp2226
I4
aI21
aI608
aasS'2MF4'
p2227
(lp2228
(lp2229
I3
aI1
aI85
aasS'2NYB'
p2230
(lp2231
(lp2232
I1
aI1
aI193
aasS'4OLZ'
p2233
(lp2234
(lp2235
I6
aI3
aI210
aasS'4OLY'
p2236
(lp2237
(lp2238
I6
aI3
aI210
aasS'4OLX'
p2239
(lp2240
(lp2241
I6
aI3
aI210
aasS'2RLA'
p2242
(lp2243
(lp2244
I8
aI1
aI313
aasS'4YWG'
p2245
(lp2246
(lp2247
I18
aI9
aI77
aasS'4OLW'
p2248
(lp2249
(lp2250
I6
aI1
aI210
aasS'4OLV'
p2251
(lp2252
(lp2253
I6
aI3
aI210
aasS'4OLU'
p2254
(lp2255
(lp2256
I6
aI3
aI210
aasS'2YD0'
p2257
(lp2258
(lp2259
I4
aI39
aI933
aasS'4NHO'
p2260
(lp2261
(lp2262
I2
aI210
aI811
aasS'1SZX'
p2263
(lp2264
(lp2265
I1
aI18
aI222
aasS'1T6N'
p2266
(lp2267
(lp2268
I2
aI3
aI426
aasS'5AEN'
p2269
(lp2270
(lp2271
I4
aI21
aI608
aasS'3C3S'
p2272
(lp2273
(lp2274
I1
aI18
aI222
aasS'3C3T'
p2275
(lp2276
(lp2277
I1
aI18
aI222
aasS'3CHS'
p2278
(lp2279
(lp2280
I4
aI21
aI608
aasS'2YZJ'
p2281
(lp2282
(lp2283
I10
aI74
aI150
aasS'4H3E'
p2284
(lp2285
(lp2286
I1
aI20
aI241
aasS'1Z1W'
p2287
(lp2288
(lp2289
I4
aI2
aI723
aasS'4YE4'
p2290
(lp2291
(lp2292
I6
aI16
aI218
aasS'4C7U'
p2293
(lp2294
(lp2295
I1
aI22
aI231
aasS'3G0H'
p2296
(lp2297
(lp2298
I2
aI36
aI477
aasS'4I3S'
p2299
(lp2300
(lp2301
I6
aI1
aI208
aasS'3FHO'
p2302
(lp2303
(lp2304
I2
aI31
aI502
aasS'1PL4'
p2305
(lp2306
(lp2307
I1
aI1
aI198
aasS'3FHC'
p2308
(lp2309
(lp2310
I13
aI253
aI550
aasS'3C3I'
p2311
(lp2312
(lp2313
I10
aI1
aI141
aasS'2XCD'
p2314
(lp2315
(lp2316
I10
aI1
aI144
aasS'5AB0'
p2317
(lp2318
(lp2319
I4
aI54
aI956
aasS'3FHE'
p2320
(lp2321
(lp2322
I4
aI21
aI608
aasS'1ZUQ'
p2323
(lp2324
(lp2325
I1
aI18
aI222
aasS'2OKB'
p2326
(lp2327
(lp2328
I10
aI2
aI137
aasS'3SO2'
p2329
(lp2330
(lp2331
I10
aI1
aI146
aasS'1HQG'
p2332
(lp2333
(lp2334
I8
aI1
aI313
aasS'3RJQ'
p2335
(lp2336
(lp2337
I6
aI2
aI130
aasS'3U2S'
p2338
(lp2339
(lp2340
I18
aI9
aI77
aasS'3KV2'
p2341
(lp2342
(lp2343
I8
aI7
aI321
aasS'4QUO'
p2344
(lp2345
(lp2346
I5
aI3
aI863
aasS'5DLL'
p2347
(lp2348
(lp2349
I5
aI12
aI859
aasS'1I0H'
p2350
(lp2351
(lp2352
I1
aI2
aI206
aasS'2GOJ'
p2353
(lp2354
(lp2355
I1
aI1
aI198
aasS'3MFV'
p2356
(lp2357
(lp2358
I8
aI7
aI321
aasS'3MFW'
p2359
(lp2360
(lp2361
I8
aI7
aI321
aasS'2KBE'
p2362
(lp2363
(lp2364
I2
aI24
aI482
aasS'1QVA'
p2365
(lp2366
(lp2367
I2
aI2
aI394
aasS'1GN2'
p2368
(lp2369
(lp2370
I1
aI1
aI204
aasS'1SEH'
p2371
(lp2372
(lp2373
I10
aI1
aI152
aasS'3U9W'
p2374
(lp2375
(lp2376
I4
aI21
aI608
aasS'2XQ0'
p2377
(lp2378
(lp2379
I4
aI67
aI669
aasS'1I08'
p2380
(lp2381
(lp2382
I1
aI2
aI206
aasS'4R0M'
p2383
(lp2384
(lp2385
I11
aI42
aI643
aasS'3GZL'
p2386
(lp2387
(lp2388
I3
aI3
aI79
aasS'3GZM'
p2389
(lp2390
(lp2391
I3
aI3
aI79
aasS'4RLA'
p2392
(lp2393
(lp2394
I8
aI1
aI313
aasS'4RFO'
p2395
(lp2396
(lp2397
I6
aI19
aI221
aasS'4PVB'
p2398
(lp2399
(lp2400
I5
aI5
aI865
aasS'3FH5'
p2401
(lp2402
(lp2403
I4
aI21
aI608
aasS'4IE2'
p2404
(lp2405
(lp2406
I8
aI1
aI354
aasS'4IE3'
p2407
(lp2408
(lp2409
I8
aI1
aI354
aasS'4IE1'
p2410
(lp2411
(lp2412
I8
aI7
aI321
aasS'1YYM'
p2413
(lp2414
(lp2415
I12
aI499
aI651
aa(lp2416
I9
aI33
aI498
aasS'1YYL'
p2417
(lp2418
(lp2419
I12
aI499
aI651
aa(lp2420
I9
aI33
aI498
aasS'4YET'
p2421
(lp2422
(lp2423
I1
aI1
aI201
aasS'1AR5'
p2424
(lp2425
(lp2426
I1
aI2
aI201
aasS'3SQW'
p2427
(lp2428
(lp2429
I2
aI66
aI580
aasS'4QU4'
p2430
(lp2431
(lp2432
I14
aI866
aI1073
aa(lp2433
I2
aI33
aI680
aasS'3E6K'
p2434
(lp2435
(lp2436
I8
aI7
aI321
aasS'1GL9'
p2437
(lp2438
(lp2439
I19
aI405
aI497
aa(lp2440
I2
aI44
aI353
aasS'2OKD'
p2441
(lp2442
(lp2443
I10
aI10
aI147
aasS'1F7O'
p2444
(lp2445
(lp2446
I10
aI710
aI850
aasS'1HS6'
p2447
(lp2448
(lp2449
I4
aI21
aI608
aasS'3LIO'
p2450
(lp2451
(lp2452
I1
aI1
aI192
aasS'4V8M'
p2453
(lp2454
(lp2455
I21
aI1
aI76
aasS'1EN5'
p2456
(lp2457
(lp2458
I1
aI2
aI206
aasS'3TJT'
p2459
(lp2460
(lp2461
I1
aI20
aI233
aasS'5ACO'
p2462
(lp2463
(lp2464
I6
aI106
aI210
aasS'4AOO'
p2465
(lp2466
(lp2467
I10
aI1
aI144
aasS'1T4T'
p2468
(lp2469
(lp2470
I8
aI1
aI313
aasS'1Z5H'
p2471
(lp2472
(lp2473
I4
aI2
aI723
aasS'3OT7'
p2474
(lp2475
(lp2476
I1
aI2
aI206
aasS'2XGJ'
p2477
(lp2478
(lp2479
I14
aI866
aI1073
aa(lp2480
I2
aI33
aI680
aasS'1LUV'
p2481
(lp2482
(lp2483
I1
aI1
aI198
aasS'1LUW'
p2484
(lp2485
(lp2486
I1
aI1
aI198
aasS'2PLL'
p2487
(lp2488
(lp2489
I8
aI7
aI321
aasS'4AOZ'
p2490
(lp2491
(lp2492
I10
aI1
aI144
aasS'1XRE'
p2493
(lp2494
(lp2495
I1
aI1
aI208
aasS'4LAJ'
p2496
(lp2497
(lp2498
I12
aI499
aI651
aa(lp2499
I9
aI33
aI498
aasS'2GTQ'
p2500
(lp2501
(lp2502
I5
aI5
aI865
aasS'1ZPG'
p2503
(lp2504
(lp2505
I8
aI1
aI313
aasS'2LIW'
p2506
(lp2507
(lp2508
I3
aI1
aI99
aasS'1AR4'
p2509
(lp2510
(lp2511
I1
aI2
aI201
aasS'3J5M'
p2512
(lp2513
(lp2514
I6
aI1
aI228
aasS'1CE4'
p2515
(lp2516
(lp2517
I12
aI504
aI656
aa(lp2518
I9
aI33
aI503
aasS'1PM9'
p2519
(lp2520
(lp2521
I1
aI18
aI222
aasS'3TPS'
p2522
(lp2523
(lp2524
I10
aI1
aI152
aasS'4TZ6'
p2525
(lp2526
(lp2527
I2
aI66
aI580
aasS'2I60'
p2528
(lp2529
(lp2530
I12
aI499
aI651
aa(lp2531
I9
aI33
aI498
aasS'3TPW'
p2532
(lp2533
(lp2534
I10
aI11
aI167
aasS'4MKT'
p2535
(lp2536
(lp2537
I4
aI21
aI608
aasS'3K9S'
p2538
(lp2539
(lp2540
I1
aI2
aI206
aasS'2OXC'
p2541
(lp2542
(lp2543
I2
aI29
aI477
aasS'2AEB'
p2544
(lp2545
(lp2546
I8
aI7
aI321
aasS'4CDG'
p2547
(lp2548
(lp2549
I2
aI633
aI1298
aasS'2LOL'
p2550
(lp2551
(lp2552
I3
aI8
aI86
aasS'1CEV'
p2553
(lp2554
(lp2555
I8
aI4
aI299
aasS'3TP1'
p2556
(lp2557
(lp2558
I10
aI11
aI167
aasS'4AO5'
p2559
(lp2560
(lp2561
I10
aI1
aI142
aasS'1MA1'
p2562
(lp2563
(lp2564
I1
aI5
aI205
aasS'3I5X'
p2565
(lp2566
(lp2567
I2
aI66
aI580
aasS'4IZ6'
p2568
(lp2569
(lp2570
I11
aI9
aI536
aasS'4DPR'
p2571
(lp2572
(lp2573
I4
aI21
aI608
aasS'4PW4'
p2574
(lp2575
(lp2576
I5
aI5
aI865
aasS'3MDJ'
p2577
(lp2578
(lp2579
I4
aI39
aI933
aasS'2L4B'
p2580
(lp2581
(lp2582
I3
aI6
aI86
aasS'2PL3'
p2583
(lp2584
(lp2585
I2
aI23
aI516
aasS'3LP4'
p2586
(lp2587
(lp2588
I8
aI7
aI321
aasS'3SDP'
p2589
(lp2590
(lp2591
I1
aI2
aI195
aasS'3TYG'
p2592
(lp2593
(lp2594
I12
aI512
aI664
aa(lp2595
I9
aI34
aI511
aasS'1N0J'
p2596
(lp2597
(lp2598
I1
aI2
aI199
aasS'4LHR'
p2599
(lp2600
(lp2601
I10
aI8
aI156
aasS'1N0N'
p2602
(lp2603
(lp2604
I1
aI2
aI199
aas.