(dp1
S'5E31'
p2
(lp3
(lp4
I922
aS'48'
p5
aS'165'
p6
aa(lp7
I3563
aS'172'
p8
aS'333'
p9
aa(lp10
I4300
aS'367'
p11
aS'666'
p12
aasS'2WAF'
p13
(lp14
(lp15
I3563
aS'58'
p16
aS'294'
p17
aa(lp18
I4300
aS'344'
p19
aS'670'
p20
aasS'3UY6'
p21
(lp22
(lp23
I4300
aS'47'
p24
aS'247'
p25
aasS'2WAD'
p26
(lp27
(lp28
I3563
aS'57'
p29
aS'294'
p30
aa(lp31
I4300
aS'344'
p32
aS'670'
p33
aasS'2WAE'
p34
(lp35
(lp36
I3563
aS'57'
p37
aS'294'
p38
aa(lp39
I4300
aS'344'
p40
aS'670'
p41
aasS'1X23'
p42
(lp43
(lp44
I263
aS'5'
aS'141'
p45
aasS'4D7T'
p46
(lp47
(lp48
I2703
aS'321'
p49
aS'404'
p50
aasS'3CGN'
p51
(lp52
(lp53
I250
aS'5'
aS'132'
p54
aasS'3FYZ'
p55
(lp56
(lp57
I4300
aS'68'
p58
aS'269'
p59
aasS'4FSF'
p60
(lp61
(lp62
I3563
aS'58'
p63
aS'207'
p64
aa(lp65
I4300
aS'247'
p66
aS'546'
p67
aasS'3FFQ'
p68
(lp69
(lp70
I2703
aS'536'
p71
aS'618'
p72
aasS'1Q3E'
p73
(lp74
(lp75
I2703
aS'536'
p76
aS'618'
p77
aasS'4X0P'
p78
(lp79
(lp80
I3939
aS'2097'
p81
aS'2584'
p82
aasS'4X0Q'
p83
(lp84
(lp85
I3939
aS'2097'
p86
aS'2584'
p87
aasS'4RZ7'
p88
(lp89
(lp90
I252
aS'535'
p91
aS'791'
p92
aa(lp93
I2703
aS'71'
p94
aS'151'
p95
aa(lp96
I2703
aS'189'
p97
aS'261'
p98
aa(lp99
I2703
aS'431'
p100
aS'511'
p101
aasS'3MBZ'
p102
(lp103
(lp104
I4300
aS'68'
p105
aS'269'
p106
aasS'3RIZ'
p107
(lp108
(lp109
I2515
aS'513'
p110
aS'571'
p111
aa(lp112
I2515
aS'700'
p113
aS'738'
p114
aa(lp115
I2518
aS'247'
p116
aS'267'
p117
aa(lp118
I2518
aS'367'
p119
aS'388'
p120
aa(lp121
I2518
aS'418'
p122
aS'439'
p123
aa(lp124
I7333
aS'36'
p125
aS'69'
p126
aasS'1MWR'
p127
(lp128
(lp129
I922
aS'27'
p130
aS'140'
p131
aa(lp132
I3563
aS'148'
p133
aS'309'
p134
aa(lp135
I4300
aS'346'
p136
aS'657'
p137
aasS'3ISG'
p138
(lp139
(lp140
I4300
aS'36'
p141
aS'258'
p142
aasS'3PX0'
p143
(lp144
(lp145
I3939
aS'498'
p146
aS'874'
p147
aasS'1U0N'
p148
(lp149
(lp150
I645
aS'1019'
p151
aS'1129'
p152
aa(lp153
I645
aS'2021'
p154
aS'2123'
p155
aa(lp156
I747
aS'3'
aS'30'
p157
aa(lp158
I2515
aS'100'
p159
aS'160'
p160
aa(lp161
I2829
aS'514'
p162
aS'686'
p163
aasS'1L3S'
p164
(lp165
(lp166
I3939
aS'498'
p167
aS'874'
p168
aasS'3E97'
p169
(lp170
(lp171
I996
aS'173'
p172
aS'222'
p173
aa(lp174
I2703
aS'31'
p175
aS'118'
p176
aasS'3J0A'
p177
(lp178
(lp179
I2515
aS'85'
p180
aS'128'
p181
aa(lp182
I2515
aS'135'
p183
aS'182'
p184
aa(lp185
I2515
aS'289'
p186
aS'348'
p187
aa(lp188
I2515
aS'361'
p189
aS'415'
p190
aa(lp191
I2515
aS'491'
p192
aS'538'
p193
aa(lp194
I3607
aS'692'
p195
aS'845'
p196
aasS'3E95'
p197
(lp198
(lp199
I263
aS'5'
aS'140'
p200
aa(lp201
I263
aS'41'
p202
aS'151'
p203
aasS'2PE6'
p204
(lp205
(lp206
I263
aS'8'
aS'150'
p207
aa(lp208
I5132
aS'22'
p209
aS'91'
p210
aasS'4DRM'
p211
(lp212
(lp213
I250
aS'44'
p214
aS'135'
p215
aasS'2OLV'
p216
(lp217
(lp218
I4300
aS'361'
p219
aS'630'
p220
aa(lp221
I5477
aS'82'
p222
aS'257'
p223
aasS'3MDY'
p224
(lp225
(lp226
I250
aS'14'
p227
aS'105'
p228
aa(lp229
I979
aS'204'
p230
aS'489'
p231
aa(lp232
I3464
aS'175'
p233
aS'202'
p234
aasS'2A0Z'
p235
(lp236
(lp237
I2515
aS'52'
p238
aS'111'
p239
aa(lp240
I2515
aS'123'
p241
aS'183'
p242
aa(lp243
I2515
aS'274'
p244
aS'330'
p245
aa(lp246
I2515
aS'409'
p247
aS'467'
p248
aa(lp249
I2515
aS'480'
p250
aS'542'
p251
aa(lp252
I2515
aS'562'
p253
aS'622'
p254
aasS'4ORF'
p255
(lp256
(lp257
I2703
aS'37'
p258
aS'119'
p259
aa(lp260
I4972
aS'154'
p261
aS'288'
p262
aasS'4DKI'
p263
(lp264
(lp265
I922
aS'26'
p266
aS'140'
p267
aa(lp268
I3563
aS'148'
p269
aS'309'
p270
aa(lp271
I4300
aS'346'
p272
aS'657'
p273
aasS'1MWU'
p274
(lp275
(lp276
I922
aS'27'
p277
aS'140'
p278
aa(lp279
I3563
aS'148'
p280
aS'309'
p281
aa(lp282
I4300
aS'346'
p283
aS'657'
p284
aasS'4N9H'
p285
(lp286
(lp287
I2703
aS'22'
p288
aS'108'
p289
aa(lp290
I6009
aS'165'
p291
aS'196'
p292
aasS'1OTM'
p293
(lp294
(lp295
I2515
aS'98'
p296
aS'154'
p297
aa(lp298
I2520
aS'164'
p299
aS'204'
p300
aa(lp301
I5439
aS'36'
p302
aS'58'
p303
aasS'1OTN'
p304
(lp305
(lp306
I2515
aS'98'
p307
aS'154'
p308
aa(lp309
I2520
aS'164'
p310
aS'204'
p311
aa(lp312
I5439
aS'36'
p313
aS'58'
p314
aasS'1OTO'
p315
(lp316
(lp317
I2515
aS'98'
p318
aS'154'
p319
aa(lp320
I2520
aS'164'
p321
aS'204'
p322
aa(lp323
I5439
aS'36'
p324
aS'58'
p325
aasS'4ORH'
p326
(lp327
(lp328
I263
aS'31'
p329
aS'133'
p330
aa(lp331
I263
aS'7'
aS'142'
p332
aa(lp333
I5647
aS'400'
p334
aS'446'
p335
aasS'3FX3'
p336
(lp337
(lp338
I996
aS'153'
p339
aS'222'
p340
aa(lp341
I2703
aS'34'
p342
aS'121'
p343
aasS'1D7J'
p344
(lp345
(lp346
I250
aS'13'
p347
aS'104'
p348
aasS'1D7H'
p349
(lp350
(lp351
I250
aS'13'
p352
aS'104'
p353
aasS'1D7I'
p354
(lp355
(lp356
I250
aS'13'
p357
aS'104'
p358
aasS'2R0J'
p359
(lp360
(lp361
I263
aS'5'
aS'140'
p362
aasS'4Y61'
p363
(lp364
(lp365
I2515
aS'89'
p366
aS'146'
p367
aa(lp368
I4017
aS'332'
p369
aS'412'
p370
aa(lp371
I5590
aS'31'
p372
aS'122'
p373
aa(lp374
I5590
aS'134'
p375
aS'223'
p376
aa(lp377
I5590
aS'243'
p378
aS'326'
p379
aasS'3RR8'
p380
(lp381
(lp382
I3939
aS'455'
p383
aS'828'
p384
aa(lp385
I7506
aS'295'
p386
aS'420'
p387
aasS'4B9M'
p388
(lp389
(lp390
I3939
aS'498'
p391
aS'874'
p392
aasS'4B9L'
p393
(lp394
(lp395
I3939
aS'498'
p396
aS'874'
p397
aasS'4P91'
p398
(lp399
(lp400
I2515
aS'107'
p401
aS'167'
p402
aa(lp403
I2515
aS'204'
p404
aS'261'
p405
aasS'4B9N'
p406
(lp407
(lp408
I3939
aS'498'
p409
aS'874'
p410
aasS'1FXT'
p411
(lp412
(lp413
I263
aS'6'
aS'142'
p414
aa(lp415
I2656
aS'6'
aS'74'
p416
aasS'4F8A'
p417
(lp418
(lp419
I2703
aS'600'
p420
aS'682'
p421
aasS'4RCW'
p422
(lp423
(lp424
I2515
aS'375'
p425
aS'435'
p426
aasS'4LSA'
p427
(lp428
(lp429
I2515
aS'513'
p430
aS'571'
p431
aa(lp432
I2515
aS'700'
p433
aS'738'
p434
aa(lp435
I2518
aS'247'
p436
aS'267'
p437
aa(lp438
I2518
aS'367'
p439
aS'388'
p440
aa(lp441
I2518
aS'418'
p442
aS'439'
p443
aa(lp444
I7333
aS'36'
p445
aS'69'
p446
aasS'3CGM'
p447
(lp448
(lp449
I250
aS'5'
aS'132'
p450
aasS'4LSC'
p451
(lp452
(lp453
I2515
aS'94'
p454
aS'153'
p455
aa(lp456
I2518
aS'167'
p457
aS'183'
p458
aa(lp459
I7333
aS'27'
p460
aS'66'
p461
aasS'1Q34'
p462
(lp463
(lp464
I263
aS'8'
aS'144'
p465
aasS'4HBN'
p466
(lp467
(lp468
I2703
aS'614'
p469
aS'696'
p470
aasS'2XY5'
p471
(lp472
(lp473
I3939
aS'498'
p474
aS'874'
p475
aasS'4F8R'
p476
(lp477
(lp478
I3939
aS'498'
p479
aS'874'
p480
aasS'4LSX'
p481
(lp482
(lp483
I2515
aS'513'
p484
aS'571'
p485
aa(lp486
I2515
aS'700'
p487
aS'738'
p488
aa(lp489
I2515
aS'94'
p490
aS'153'
p491
aa(lp492
I2518
aS'247'
p493
aS'267'
p494
aa(lp495
I2518
aS'367'
p496
aS'388'
p497
aa(lp498
I2518
aS'418'
p499
aS'439'
p500
aa(lp501
I2518
aS'167'
p502
aS'183'
p503
aa(lp504
I7333
aS'36'
p505
aS'69'
p506
aa(lp507
I7333
aS'27'
p508
aS'66'
p509
aasS'1VQQ'
p510
(lp511
(lp512
I922
aS'27'
p513
aS'140'
p514
aa(lp515
I3563
aS'148'
p516
aS'309'
p517
aa(lp518
I4300
aS'346'
p519
aS'657'
p520
aasS'2PBC'
p521
(lp522
(lp523
I250
aS'44'
p524
aS'134'
p525
aasS'1JXE'
p526
(lp527
(lp528
I3939
aS'455'
p529
aS'828'
p530
aa(lp531
I7506
aS'295'
p532
aS'420'
p533
aasS'4B9T'
p534
(lp535
(lp536
I3939
aS'498'
p537
aS'874'
p538
aasS'4B9V'
p539
(lp540
(lp541
I3939
aS'498'
p542
aS'874'
p543
aasS'4RCA'
p544
(lp545
(lp546
I2515
aS'132'
p547
aS'189'
p548
aa(lp549
I5590
aS'24'
p550
aS'115'
p551
aa(lp552
I5590
aS'127'
p553
aS'216'
p554
aa(lp555
I5590
aS'236'
p556
aS'319'
p557
aasS'3VQ1'
p558
(lp559
(lp560
I1141
aS'33'
p561
aS'153'
p562
aa(lp563
I2515
aS'78'
p564
aS'134'
p565
aa(lp566
I2515
aS'495'
p567
aS'554'
p568
aa(lp569
I2518
aS'151'
p570
aS'173'
p571
aasS'3VQ2'
p572
(lp573
(lp574
I1141
aS'33'
p575
aS'153'
p576
aa(lp577
I2515
aS'78'
p578
aS'134'
p579
aa(lp580
I2515
aS'495'
p581
aS'554'
p582
aa(lp583
I2518
aS'151'
p584
aS'173'
p585
aasS'3UL8'
p586
(lp587
(lp588
I219
aS'217'
p589
aS'257'
p590
aa(lp591
I2515
aS'78'
p592
aS'132'
p593
aa(lp594
I2515
aS'151'
p595
aS'207'
p596
aa(lp597
I2518
aS'57'
p598
aS'74'
p599
aa(lp600
I2853
aS'265'
p601
aS'303'
p602
aasS'3UL9'
p603
(lp604
(lp605
I219
aS'217'
p606
aS'257'
p607
aa(lp608
I2515
aS'78'
p609
aS'136'
p610
aa(lp611
I2515
aS'151'
p612
aS'207'
p613
aa(lp614
I2518
aS'57'
p615
aS'74'
p616
aa(lp617
I2853
aS'265'
p618
aS'303'
p619
aasS'4JYS'
p620
(lp621
(lp622
I250
aS'99'
p623
aS'181'
p624
aasS'1J59'
p625
(lp626
(lp627
I2703
aS'22'
p628
aS'108'
p629
aa(lp630
I6009
aS'165'
p631
aS'196'
p632
aasS'2MPF'
p633
(lp634
(lp635
I2703
aS'563'
p636
aS'645'
p637
aasS'3UL7'
p638
(lp639
(lp640
I219
aS'217'
p641
aS'257'
p642
aa(lp643
I2515
aS'78'
p644
aS'136'
p645
aa(lp646
I2515
aS'151'
p647
aS'207'
p648
aa(lp649
I2518
aS'57'
p650
aS'74'
p651
aa(lp652
I2853
aS'265'
p653
aS'303'
p654
aasS'3TGD'
p655
(lp656
(lp657
I263
aS'5'
aS'141'
p658
aasS'2V70'
p659
(lp660
(lp661
I747
aS'505'
p662
aS'532'
p663
aa(lp664
I2515
aS'537'
p665
aS'581'
p666
aa(lp667
I2515
aS'607'
p668
aS'665'
p669
aasS'2Y2P'
p670
(lp671
(lp672
I4300
aS'425'
p673
aS'657'
p674
aasS'4Y1L'
p675
(lp676
(lp677
I263
aS'8'
aS'150'
p678
aa(lp679
I490
aS'10'
p680
aS'118'
p681
aasS'4KL1'
p682
(lp683
(lp684
I2703
aS'614'
p685
aS'696'
p686
aasS'2Y1I'
p687
(lp688
(lp689
I3939
aS'498'
p690
aS'874'
p691
aasS'2Y1J'
p692
(lp693
(lp694
I3939
aS'498'
p695
aS'874'
p696
aasS'1O3Q'
p697
(lp698
(lp699
I2703
aS'22'
p700
aS'108'
p701
aa(lp702
I6009
aS'165'
p703
aS'196'
p704
aasS'2HHS'
p705
(lp706
(lp707
I3939
aS'498'
p708
aS'874'
p709
aasS'1O3S'
p710
(lp711
(lp712
I2703
aS'22'
p713
aS'108'
p714
aa(lp715
I6009
aS'165'
p716
aS'196'
p717
aasS'4DFM'
p718
(lp719
(lp720
I3939
aS'455'
p721
aS'828'
p722
aa(lp723
I7506
aS'295'
p724
aS'420'
p725
aasS'4DFJ'
p726
(lp727
(lp728
I3939
aS'455'
p729
aS'828'
p730
aa(lp731
I7506
aS'295'
p732
aS'420'
p733
aasS'4DFK'
p734
(lp735
(lp736
I3939
aS'455'
p737
aS'828'
p738
aa(lp739
I7506
aS'295'
p740
aS'420'
p741
aasS'2HHT'
p742
(lp743
(lp744
I3939
aS'498'
p745
aS'874'
p746
aasS'2HHU'
p747
(lp748
(lp749
I3939
aS'498'
p750
aS'874'
p751
aasS'4OON'
p752
(lp753
(lp754
I2704
aS'316'
p755
aS'421'
p756
aa(lp757
I4300
aS'426'
p758
aS'743'
p759
aa(lp760
I5477
aS'55'
p761
aS'64'
p762
aasS'1D8Y'
p763
(lp764
(lp765
I3939
aS'551'
p766
aS'925'
p767
aa(lp768
I6020
aS'330'
p769
aS'517'
p770
aasS'4OOM'
p771
(lp772
(lp773
I3563
aS'58'
p774
aS'207'
p775
aa(lp776
I4300
aS'247'
p777
aS'546'
p778
aasS'4I2O'
p779
(lp780
(lp781
I2703
aS'44'
p782
aS'121'
p783
aa(lp784
I6009
aS'180'
p785
aS'210'
p786
aasS'1Y6L'
p787
(lp788
(lp789
I263
aS'5'
aS'141'
p790
aasS'5DZC'
p791
(lp792
(lp793
I252
aS'535'
p794
aS'791'
p795
aa(lp796
I2703
aS'71'
p797
aS'151'
p798
aa(lp799
I2703
aS'189'
p800
aS'261'
p801
aa(lp802
I2703
aS'431'
p803
aS'511'
p804
aasS'3CL1'
p805
(lp806
(lp807
I2703
aS'254'
p808
aS'333'
p809
aasS'2ONU'
p810
(lp811
(lp812
I263
aS'16'
p813
aS'141'
p814
aasS'2K0G'
p815
(lp816
(lp817
I2703
aS'254'
p818
aS'333'
p819
aasS'4JVA'
p820
(lp821
(lp822
I2703
aS'172'
p823
aS'256'
p824
aa(lp825
I2703
aS'293'
p826
aS'383'
p827
aasS'4DFP'
p828
(lp829
(lp830
I3939
aS'455'
p831
aS'828'
p832
aa(lp833
I7506
aS'295'
p834
aS'420'
p835
aasS'2AAK'
p836
(lp837
(lp838
I263
aS'8'
aS'144'
p839
aasS'1NE6'
p840
(lp841
(lp842
I2703
aS'154'
p843
aS'234'
p844
aa(lp845
I2703
aS'272'
p846
aS'357'
p847
aasS'2LKN'
p848
(lp849
(lp850
I250
aS'29'
p851
aS'90'
p852
aasS'1NE4'
p853
(lp854
(lp855
I2703
aS'154'
p856
aS'234'
p857
aa(lp858
I2703
aS'272'
p859
aS'357'
p860
aasS'3UKN'
p861
(lp862
(lp863
I2703
aS'642'
p864
aS'721'
p865
aasS'3SYZ'
p866
(lp867
(lp868
I3939
aS'455'
p869
aS'828'
p870
aa(lp871
I7506
aS'295'
p872
aS'420'
p873
aasS'2PPN'
p874
(lp875
(lp876
I250
aS'13'
p877
aS'104'
p878
aasS'2C5W'
p879
(lp880
(lp881
I4300
aS'332'
p882
aS'622'
p883
aasS'1L1P'
p884
(lp885
(lp886
I250
aS'15'
p887
aS'93'
p888
aasS'1WZW'
p889
(lp890
(lp891
I263
aS'5'
aS'142'
p892
aasS'2PPP'
p893
(lp894
(lp895
I250
aS'13'
p896
aS'104'
p897
aasS'4EV0'
p898
(lp899
(lp900
I996
aS'144'
p901
aS'211'
p902
aa(lp903
I2703
aS'25'
p904
aS'110'
p905
aasS'3UE3'
p906
(lp907
(lp908
I3563
aS'72'
p909
aS'247'
p910
aa(lp911
I4300
aS'289'
p912
aS'587'
p913
aasS'3UE1'
p914
(lp915
(lp916
I2704
aS'300'
p917
aS'394'
p918
aa(lp919
I4300
aS'399'
p920
aS'720'
p921
aa(lp922
I5477
aS'37'
p923
aS'210'
p924
aasS'3UE0'
p925
(lp926
(lp927
I2704
aS'300'
p928
aS'394'
p929
aa(lp930
I4300
aS'399'
p931
aS'720'
p932
aa(lp933
I5477
aS'37'
p934
aS'210'
p935
aasS'4DF4'
p936
(lp937
(lp938
I3939
aS'455'
p939
aS'828'
p940
aa(lp941
I7506
aS'295'
p942
aS'420'
p943
aasS'2FT3'
p944
(lp945
(lp946
I747
aS'26'
p947
aS'52'
p948
aa(lp949
I2515
aS'57'
p950
aS'114'
p951
aa(lp952
I2515
aS'124'
p953
aS'180'
p954
aa(lp955
I2515
aS'194'
p956
aS'253'
p957
aasS'3UKT'
p958
(lp959
(lp960
I2703
aS'642'
p961
aS'721'
p962
aasS'2MNG'
p963
(lp964
(lp965
I2703
aS'614'
p966
aS'696'
p967
aasS'3UKV'
p968
(lp969
(lp970
I2703
aS'642'
p971
aS'721'
p972
aasS'3FV7'
p973
(lp974
(lp975
I4300
aS'68'
p976
aS'269'
p977
aasS'3OE2'
p978
(lp979
(lp980
I248
aS'92'
p981
aS'124'
p982
aa(lp983
I250
aS'136'
p984
aS'220'
p985
aasS'4IPX'
p986
(lp987
(lp988
I250
aS'13'
p989
aS'104'
p990
aasS'1QSS'
p991
(lp992
(lp993
I3939
aS'455'
p994
aS'828'
p995
aa(lp996
I7506
aS'295'
p997
aS'420'
p998
aasS'3ULU'
p999
(lp1000
(lp1001
I1690
aS'120'
p1002
aS'205'
p1003
aa(lp1004
I1690
aS'135'
p1005
aS'214'
p1006
aa(lp1007
I1690
aS'121'
p1008
aS'202'
p1009
aa(lp1010
I1690
aS'136'
p1011
aS'215'
p1012
aa(lp1013
I1690
aS'121'
p1014
aS'206'
p1015
aa(lp1016
I1690
aS'133'
p1017
aS'212'
p1018
aa(lp1019
I2388
aS'6'
aS'106'
p1020
aa(lp1021
I2388
aS'9'
aS'119'
p1022
aa(lp1023
I2388
aS'5'
aS'107'
p1024
aa(lp1025
I2388
aS'5'
aS'120'
p1026
aa(lp1027
I2388
aS'6'
aS'105'
p1028
aa(lp1029
I2388
aS'5'
aS'117'
p1030
aa(lp1031
I2515
aS'52'
p1032
aS'111'
p1033
aa(lp1034
I2515
aS'123'
p1035
aS'183'
p1036
aa(lp1037
I2515
aS'274'
p1038
aS'330'
p1039
aa(lp1040
I2515
aS'409'
p1041
aS'467'
p1042
aa(lp1043
I2515
aS'480'
p1044
aS'542'
p1045
aa(lp1046
I2515
aS'562'
p1047
aS'622'
p1048
aasS'3ULV'
p1049
(lp1050
(lp1051
I1690
aS'120'
p1052
aS'205'
p1053
aa(lp1054
I1690
aS'135'
p1055
aS'214'
p1056
aa(lp1057
I1690
aS'121'
p1058
aS'202'
p1059
aa(lp1060
I1690
aS'136'
p1061
aS'215'
p1062
aa(lp1063
I1690
aS'121'
p1064
aS'206'
p1065
aa(lp1066
I1690
aS'133'
p1067
aS'212'
p1068
aa(lp1069
I2388
aS'6'
aS'106'
p1070
aa(lp1071
I2388
aS'9'
aS'119'
p1072
aa(lp1073
I2388
aS'5'
aS'107'
p1074
aa(lp1075
I2388
aS'5'
aS'120'
p1076
aa(lp1077
I2388
aS'6'
aS'105'
p1078
aa(lp1079
I2388
aS'5'
aS'117'
p1080
aa(lp1081
I2515
aS'52'
p1082
aS'111'
p1083
aa(lp1084
I2515
aS'123'
p1085
aS'183'
p1086
aa(lp1087
I2515
aS'274'
p1088
aS'330'
p1089
aa(lp1090
I2515
aS'409'
p1091
aS'467'
p1092
aa(lp1093
I2515
aS'480'
p1094
aS'542'
p1095
aa(lp1096
I2515
aS'562'
p1097
aS'622'
p1098
aasS'2GJD'
p1099
(lp1100
(lp1101
I263
aS'8'
aS'148'
p1102
aasS'2CYX'
p1103
(lp1104
(lp1105
I263
aS'8'
aS'158'
p1106
aasS'1I5Z'
p1107
(lp1108
(lp1109
I2703
aS'22'
p1110
aS'108'
p1111
aa(lp1112
I6009
aS'165'
p1113
aS'196'
p1114
aasS'4CPK'
p1115
(lp1116
(lp1117
I922
aS'27'
p1118
aS'140'
p1119
aa(lp1120
I3563
aS'148'
p1121
aS'309'
p1122
aa(lp1123
I4300
aS'346'
p1124
aS'657'
p1125
aasS'4OFG'
p1126
(lp1127
(lp1128
I2703
aS'438'
p1129
aS'518'
p1130
aasS'1QSL'
p1131
(lp1132
(lp1133
I3939
aS'551'
p1134
aS'925'
p1135
aa(lp1136
I6020
aS'330'
p1137
aS'517'
p1138
aasS'4ODO'
p1139
(lp1140
(lp1141
I250
aS'5'
aS'132'
p1142
aasS'3ULA'
p1143
(lp1144
(lp1145
I219
aS'217'
p1146
aS'257'
p1147
aa(lp1148
I1141
aS'32'
p1149
aS'152'
p1150
aa(lp1151
I2515
aS'78'
p1152
aS'136'
p1153
aa(lp1154
I2515
aS'151'
p1155
aS'207'
p1156
aa(lp1157
I2518
aS'57'
p1158
aS'74'
p1159
aa(lp1160
I2853
aS'265'
p1161
aS'302'
p1162
aasS'4LLO'
p1163
(lp1164
(lp1165
I2703
aS'600'
p1166
aS'682'
p1167
aa(lp1168
I5368
aS'39'
p1169
aS'135'
p1170
aasS'2JE5'
p1171
(lp1172
(lp1173
I4300
aS'425'
p1174
aS'657'
p1175
aa(lp1176
I5477
aS'113'
p1177
aS'114'
p1178
aasS'1LV5'
p1179
(lp1180
(lp1181
I3939
aS'498'
p1182
aS'874'
p1183
aasS'2F4E'
p1184
(lp1185
(lp1186
I250
aS'63'
p1187
aS'156'
p1188
aasS'4DHJ'
p1189
(lp1190
(lp1191
I263
aS'7'
aS'142'
p1192
aa(lp1193
I2656
aS'506'
p1194
aS'574'
p1195
aa(lp1196
I2656
aS'506'
p1197
aS'571'
p1198
aa(lp1199
I5097
aS'37'
p1200
aS'273'
p1201
aasS'2F4Z'
p1202
(lp1203
(lp1204
I263
aS'64'
p1205
aS'185'
p1206
aasS'3RRH'
p1207
(lp1208
(lp1209
I3939
aS'455'
p1210
aS'828'
p1211
aa(lp1212
I7506
aS'295'
p1213
aS'420'
p1214
aasS'3RRG'
p1215
(lp1216
(lp1217
I3939
aS'455'
p1218
aS'828'
p1219
aa(lp1220
I7506
aS'295'
p1221
aS'420'
p1222
aasS'3EZ5'
p1223
(lp1224
(lp1225
I3939
aS'498'
p1226
aS'874'
p1227
aasS'1M10'
p1228
(lp1229
(lp1230
I747
aS'3'
aS'30'
p1231
aa(lp1232
I2515
aS'100'
p1233
aS'160'
p1234
aa(lp1235
I2829
aS'514'
p1236
aS'686'
p1237
aasS'2A7L'
p1238
(lp1239
(lp1240
I263
aS'7'
aS'117'
p1241
aasS'2F4W'
p1242
(lp1243
(lp1244
I263
aS'16'
p1245
aS'125'
p1246
aasS'3TAR'
p1247
(lp1248
(lp1249
I3939
aS'498'
p1250
aS'874'
p1251
aasS'3VMA'
p1252
(lp1253
(lp1254
I4300
aS'473'
p1255
aS'724'
p1256
aa(lp1257
I5477
aS'209'
p1258
aS'380'
p1259
aa(lp1260
I6454
aS'113'
p1261
aS'197'
p1262
aasS'3TAP'
p1263
(lp1264
(lp1265
I3939
aS'498'
p1266
aS'874'
p1267
aasS'3TAQ'
p1268
(lp1269
(lp1270
I3939
aS'498'
p1271
aS'874'
p1272
aasS'4BF8'
p1273
(lp1274
(lp1275
I250
aS'301'
p1276
aS'389'
p1277
aasS'2FMY'
p1278
(lp1279
(lp1280
I996
aS'143'
p1281
aS'217'
p1282
aa(lp1283
I2703
aS'31'
p1284
aS'107'
p1285
aasS'1PZV'
p1286
(lp1287
(lp1288
I263
aS'8'
aS'157'
p1289
aasS'4OXJ'
p1290
(lp1291
(lp1292
I252
aS'535'
p1293
aS'791'
p1294
aa(lp1295
I2703
aS'71'
p1296
aS'151'
p1297
aa(lp1298
I2703
aS'189'
p1299
aS'261'
p1300
aa(lp1301
I2703
aS'431'
p1302
aS'511'
p1303
aasS'3B7X'
p1304
(lp1305
(lp1306
I250
aS'53'
p1307
aS'140'
p1308
aasS'4A4B'
p1309
(lp1310
(lp1311
I263
aS'5'
aS'141'
p1312
aa(lp1313
I5647
aS'380'
p1314
aS'424'
p1315
aa(lp1316
I6983
aS'51'
p1317
aS'175'
p1318
aa(lp1319
I7113
aS'179'
p1320
aS'262'
p1321
aa(lp1322
I7114
aS'264'
p1323
aS'349'
p1324
aasS'1U4B'
p1325
(lp1326
(lp1327
I3939
aS'498'
p1328
aS'874'
p1329
aasS'3LA7'
p1330
(lp1331
(lp1332
I996
aS'148'
p1333
aS'214'
p1334
aa(lp1335
I2703
aS'26'
p1336
aS'115'
p1337
aasS'3TAN'
p1338
(lp1339
(lp1340
I3939
aS'498'
p1341
aS'874'
p1342
aasS'2CGP'
p1343
(lp1344
(lp1345
I2703
aS'22'
p1346
aS'108'
p1347
aa(lp1348
I6009
aS'165'
p1349
aS'196'
p1350
aasS'4G8A'
p1351
(lp1352
(lp1353
I1141
aS'32'
p1354
aS'152'
p1355
aa(lp1356
I2515
aS'78'
p1357
aS'136'
p1358
aa(lp1359
I2515
aS'151'
p1360
aS'207'
p1361
aa(lp1362
I2515
aS'447'
p1363
aS'508'
p1364
aasS'3PBO'
p1365
(lp1366
(lp1367
I3563
aS'58'
p1368
aS'191'
p1369
aa(lp1370
I4300
aS'247'
p1371
aS'546'
p1372
aasS'3PBN'
p1373
(lp1374
(lp1375
I3563
aS'60'
p1376
aS'187'
p1377
aa(lp1378
I4300
aS'247'
p1379
aS'546'
p1380
aasS'1NJX'
p1381
(lp1382
(lp1383
I3939
aS'498'
p1384
aS'874'
p1385
aasS'2KE0'
p1386
(lp1387
(lp1388
I250
aS'26'
p1389
aS'115'
p1390
aasS'3DKW'
p1391
(lp1392
(lp1393
I996
aS'156'
p1394
aS'224'
p1395
aa(lp1396
I2703
aS'35'
p1397
aS'122'
p1398
aasS'1B6C'
p1399
(lp1400
(lp1401
I250
aS'13'
p1402
aS'104'
p1403
aa(lp1404
I252
aS'208'
p1405
aS'489'
p1406
aa(lp1407
I3464
aS'176'
p1408
aS'203'
p1409
aasS'4S2P'
p1410
(lp1411
(lp1412
I4300
aS'48'
p1413
aS'259'
p1414
aasS'4OVD'
p1415
(lp1416
(lp1417
I3563
aS'66'
p1418
aS'203'
p1419
aa(lp1420
I4300
aS'258'
p1421
aS'557'
p1422
aasS'1U48'
p1423
(lp1424
(lp1425
I3939
aS'498'
p1426
aS'874'
p1427
aasS'1U49'
p1428
(lp1429
(lp1430
I3939
aS'498'
p1431
aS'874'
p1432
aasS'4S2K'
p1433
(lp1434
(lp1435
I4300
aS'48'
p1436
aS'259'
p1437
aasS'4S2J'
p1438
(lp1439
(lp1440
I4300
aS'48'
p1441
aS'259'
p1442
aasS'4S2M'
p1443
(lp1444
(lp1445
I4300
aS'48'
p1446
aS'259'
p1447
aasS'4S2L'
p1448
(lp1449
(lp1450
I4300
aS'48'
p1451
aS'259'
p1452
aasS'4S2O'
p1453
(lp1454
(lp1455
I4300
aS'56'
p1456
aS'259'
p1457
aasS'4S2N'
p1458
(lp1459
(lp1460
I4300
aS'48'
p1461
aS'259'
p1462
aa(lp1463
I4300
aS'48'
p1464
aS'259'
p1465
aasS'3PBT'
p1466
(lp1467
(lp1468
I3563
aS'58'
p1469
aS'207'
p1470
aa(lp1471
I4300
aS'247'
p1472
aS'546'
p1473
aasS'3PBS'
p1474
(lp1475
(lp1476
I3563
aS'58'
p1477
aS'207'
p1478
aa(lp1479
I4300
aS'247'
p1480
aS'546'
p1481
aasS'3PBR'
p1482
(lp1483
(lp1484
I3563
aS'58'
p1485
aS'207'
p1486
aa(lp1487
I4300
aS'247'
p1488
aS'546'
p1489
aasS'3PBQ'
p1490
(lp1491
(lp1492
I3563
aS'58'
p1493
aS'207'
p1494
aa(lp1495
I4300
aS'247'
p1496
aS'546'
p1497
aasS'1H8Z'
p1498
(lp1499
(lp1500
I4300
aS'57'
p1501
aS'258'
p1502
aasS'4N9I'
p1503
(lp1504
(lp1505
I2703
aS'22'
p1506
aS'108'
p1507
aa(lp1508
I6009
aS'165'
p1509
aS'196'
p1510
aasS'4F4K'
p1511
(lp1512
(lp1513
I3939
aS'498'
p1514
aS'874'
p1515
aasS'3D0S'
p1516
(lp1517
(lp1518
I996
aS'148'
p1519
aS'221'
p1520
aa(lp1521
I2703
aS'29'
p1522
aS'114'
p1523
aasS'4AP4'
p1524
(lp1525
(lp1526
I263
aS'5'
aS'141'
p1527
aa(lp1528
I1718
aS'135'
p1529
aS'181'
p1530
aa(lp1531
I1718
aS'200'
p1532
aS'246'
p1533
aa(lp1534
I2656
aS'6'
aS'74'
p1535
aasS'4OQT'
p1536
(lp1537
(lp1538
I1690
aS'121'
p1539
aS'206'
p1540
aa(lp1541
I1690
aS'131'
p1542
aS'211'
p1543
aa(lp1544
I2388
aS'6'
aS'107'
p1545
aa(lp1546
I2388
aS'12'
p1547
aS'116'
p1548
aa(lp1549
I2515
aS'81'
p1550
aS'140'
p1551
aa(lp1552
I2515
aS'178'
p1553
aS'236'
p1554
aa(lp1555
I2515
aS'273'
p1556
aS'332'
p1557
aa(lp1558
I5590
aS'390'
p1559
aS'475'
p1560
aasS'3RR7'
p1561
(lp1562
(lp1563
I3939
aS'455'
p1564
aS'828'
p1565
aa(lp1566
I7506
aS'295'
p1567
aS'420'
p1568
aasS'2OB4'
p1569
(lp1570
(lp1571
I263
aS'14'
p1572
aS'153'
p1573
aasS'3JVZ'
p1574
(lp1575
(lp1576
I263
aS'5'
aS'141'
p1577
aa(lp1578
I2656
aS'6'
aS'74'
p1579
aa(lp1580
I7366
aS'650'
p1581
aS'950'
p1582
aasS'4DH0'
p1583
(lp1584
(lp1585
I250
aS'13'
p1586
aS'104'
p1587
aasS'3LCE'
p1588
(lp1589
(lp1590
I4300
aS'56'
p1591
aS'259'
p1592
aasS'2BDP'
p1593
(lp1594
(lp1595
I3939
aS'498'
p1596
aS'874'
p1597
aasS'1NKC'
p1598
(lp1599
(lp1600
I3939
aS'498'
p1601
aS'874'
p1602
aasS'1NJW'
p1603
(lp1604
(lp1605
I3939
aS'498'
p1606
aS'874'
p1607
aasS'4DQI'
p1608
(lp1609
(lp1610
I3939
aS'498'
p1611
aS'874'
p1612
aasS'3ZGA'
p1613
(lp1614
(lp1615
I4300
aS'357'
p1616
aS'621'
p1617
aa(lp1618
I5477
aS'184'
p1619
aS'259'
p1620
aasS'4L0L'
p1621
(lp1622
(lp1623
I3563
aS'58'
p1624
aS'207'
p1625
aa(lp1626
I4300
aS'247'
p1627
aS'546'
p1628
aasS'1NJZ'
p1629
(lp1630
(lp1631
I3939
aS'498'
p1632
aS'874'
p1633
aa(lp1634
I3939
aS'498'
p1635
aS'874'
p1636
aasS'1NJY'
p1637
(lp1638
(lp1639
I3939
aS'498'
p1640
aS'874'
p1641
aasS'1M6K'
p1642
(lp1643
(lp1644
I4300
aS'36'
p1645
aS'258'
p1646
aasS'3DWK'
p1647
(lp1648
(lp1649
I4300
aS'361'
p1650
aS'631'
p1651
aa(lp1652
I5477
aS'82'
p1653
aS'257'
p1654
aasS'1F40'
p1655
(lp1656
(lp1657
I250
aS'13'
p1658
aS'104'
p1659
aasS'4X56'
p1660
(lp1661
(lp1662
I4300
aS'68'
p1663
aS'269'
p1664
aasS'4X55'
p1665
(lp1666
(lp1667
I4300
aS'67'
p1668
aS'259'
p1669
aasS'2HKX'
p1670
(lp1671
(lp1672
I996
aS'143'
p1673
aS'217'
p1674
aa(lp1675
I2703
aS'31'
p1676
aS'107'
p1677
aasS'4X53'
p1678
(lp1679
(lp1680
I4300
aS'68'
p1681
aS'269'
p1682
aasS'4DQR'
p1683
(lp1684
(lp1685
I3939
aS'498'
p1686
aS'874'
p1687
aasS'4DQQ'
p1688
(lp1689
(lp1690
I3939
aS'498'
p1691
aS'874'
p1692
aasS'4DQP'
p1693
(lp1694
(lp1695
I3939
aS'498'
p1696
aS'874'
p1697
aasS'1Q43'
p1698
(lp1699
(lp1700
I2703
aS'536'
p1701
aS'618'
p1702
aasS'4KNG'
p1703
(lp1704
(lp1705
I747
aS'33'
p1706
aS'64'
p1707
aa(lp1708
I2515
aS'92'
p1709
aS'150'
p1710
aa(lp1711
I2515
aS'188'
p1712
aS'246'
p1713
aa(lp1714
I2515
aS'257'
p1715
aS'314'
p1716
aa(lp1717
I2515
aS'375'
p1718
aS'434'
p1719
aa(lp1720
I2518
aS'353'
p1721
aS'371'
p1722
aa(lp1723
I2960
aS'42'
p1724
aS'143'
p1725
aasS'1FBV'
p1726
(lp1727
(lp1728
I263
aS'1006'
p1729
aS'1143'
p1730
aa(lp1731
I5647
aS'380'
p1732
aS'424'
p1733
aa(lp1734
I6983
aS'51'
p1735
aS'175'
p1736
aa(lp1737
I7113
aS'179'
p1738
aS'262'
p1739
aa(lp1740
I7114
aS'264'
p1741
aS'349'
p1742
aasS'4DQS'
p1743
(lp1744
(lp1745
I3939
aS'498'
p1746
aS'874'
p1747
aasS'5D3I'
p1748
(lp1749
(lp1750
I219
aS'148'
p1751
aS'210'
p1752
aa(lp1753
I2515
aS'81'
p1754
aS'139'
p1755
aa(lp1756
I2515
aS'481'
p1757
aS'539'
p1758
aa(lp1759
I5340
aS'145'
p1760
aS'228'
p1761
aa(lp1762
I6311
aS'240'
p1763
aS'312'
p1764
aasS'1K6R'
p1765
(lp1766
(lp1767
I4300
aS'56'
p1768
aS'259'
p1769
aasS'1K6S'
p1770
(lp1771
(lp1772
I4300
aS'56'
p1773
aS'259'
p1774
aasS'4QT3'
p1775
(lp1776
(lp1777
I250
aS'33'
p1778
aS'123'
p1779
aasS'4QT2'
p1780
(lp1781
(lp1782
I250
aS'33'
p1783
aS'123'
p1784
aasS'4HZF'
p1785
(lp1786
(lp1787
I2703
aS'23'
p1788
aS'109'
p1789
aa(lp1790
I6009
aS'166'
p1791
aS'197'
p1792
aasS'4QBZ'
p1793
(lp1794
(lp1795
I2515
aS'54'
p1796
aS'97'
p1797
aa(lp1798
I2515
aS'277'
p1799
aS'323'
p1800
aa(lp1801
I2515
aS'485'
p1802
aS'542'
p1803
aa(lp1804
I2515
aS'640'
p1805
aS'700'
p1806
aa(lp1807
I2515
aS'712'
p1808
aS'773'
p1809
aa(lp1810
I2518
aS'247'
p1811
aS'261'
p1812
aasS'4FT8'
p1813
(lp1814
(lp1815
I2703
aS'22'
p1816
aS'108'
p1817
aa(lp1818
I6009
aS'165'
p1819
aS'196'
p1820
aasS'3ZFZ'
p1821
(lp1822
(lp1823
I922
aS'28'
p1824
aS'140'
p1825
aa(lp1826
I3563
aS'148'
p1827
aS'309'
p1828
aa(lp1829
I4300
aS'346'
p1830
aS'657'
p1831
aasS'1I6X'
p1832
(lp1833
(lp1834
I2703
aS'22'
p1835
aS'108'
p1836
aa(lp1837
I6009
aS'165'
p1838
aS'196'
p1839
aasS'3L1Y'
p1840
(lp1841
(lp1842
I263
aS'5'
aS'141'
p1843
aasS'3G4P'
p1844
(lp1845
(lp1846
I4300
aS'68'
p1847
aS'269'
p1848
aasS'1H8Y'
p1849
(lp1850
(lp1851
I4300
aS'57'
p1852
aS'258'
p1853
aasS'1NKE'
p1854
(lp1855
(lp1856
I3939
aS'498'
p1857
aS'874'
p1858
aasS'3THV'
p1859
(lp1860
(lp1861
I3939
aS'498'
p1862
aS'874'
p1863
aasS'4CNC'
p1864
(lp1865
(lp1866
I747
aS'61'
p1867
aS'90'
p1868
aa(lp1869
I2515
aS'93'
p1870
aS'154'
p1871
aa(lp1872
I2515
aS'211'
p1873
aS'270'
p1874
aa(lp1875
I3321
aS'321'
p1876
aS'344'
p1877
aasS'1QTM'
p1878
(lp1879
(lp1880
I3939
aS'455'
p1881
aS'828'
p1882
aa(lp1883
I7506
aS'295'
p1884
aS'420'
p1885
aasS'4DZ2'
p1886
(lp1887
(lp1888
I250
aS'22'
p1889
aS'111'
p1890
aasS'4DZ3'
p1891
(lp1892
(lp1893
I250
aS'22'
p1894
aS'111'
p1895
aasS'4K0X'
p1896
(lp1897
(lp1898
I4300
aS'67'
p1899
aS'260'
p1900
aasS'1D9F'
p1901
(lp1902
(lp1903
I3939
aS'551'
p1904
aS'925'
p1905
aa(lp1906
I6020
aS'330'
p1907
aS'517'
p1908
aasS'5AWB'
p1909
(lp1910
(lp1911
I2515
aS'54'
p1912
aS'97'
p1913
aa(lp1914
I2515
aS'277'
p1915
aS'323'
p1916
aa(lp1917
I2515
aS'485'
p1918
aS'542'
p1919
aa(lp1920
I2515
aS'640'
p1921
aS'700'
p1922
aa(lp1923
I2515
aS'712'
p1924
aS'773'
p1925
aa(lp1926
I2518
aS'247'
p1927
aS'261'
p1928
aasS'4K0W'
p1929
(lp1930
(lp1931
I4300
aS'67'
p1932
aS'261'
p1933
aasS'4M7E'
p1934
(lp1935
(lp1936
I2515
aS'513'
p1937
aS'571'
p1938
aa(lp1939
I2515
aS'700'
p1940
aS'738'
p1941
aa(lp1942
I2515
aS'92'
p1943
aS'152'
p1944
aa(lp1945
I2518
aS'247'
p1946
aS'267'
p1947
aa(lp1948
I2518
aS'367'
p1949
aS'388'
p1950
aa(lp1951
I2518
aS'418'
p1952
aS'439'
p1953
aa(lp1954
I2518
aS'166'
p1955
aS'182'
p1956
aa(lp1957
I7333
aS'36'
p1958
aS'69'
p1959
aa(lp1960
I7333
aS'26'
p1961
aS'65'
p1962
aasS'2LGO'
p1963
(lp1964
(lp1965
I250
aS'38'
p1966
aS'128'
p1967
aasS'3ETQ'
p1968
(lp1969
(lp1970
I2703
aS'536'
p1971
aS'618'
p1972
aasS'2YHO'
p1973
(lp1974
(lp1975
I263
aS'5'
aS'141'
p1976
aa(lp1977
I5647
aS'385'
p1978
aS'427'
p1979
aasS'2KJH'
p1980
(lp1981
(lp1982
I263
aS'5'
aS'142'
p1983
aa(lp1984
I2656
aS'6'
aS'74'
p1985
aasS'1JBB'
p1986
(lp1987
(lp1988
I263
aS'7'
aS'143'
p1989
aasS'4LI1'
p1990
(lp1991
(lp1992
I2515
aS'63'
p1993
aS'120'
p1994
aa(lp1995
I2515
aS'180'
p1996
aS'240'
p1997
aa(lp1998
I2515
aS'251'
p1999
aS'307'
p2000
aa(lp2001
I2515
aS'368'
p2002
aS'428'
p2003
aa(lp2004
I2518
aS'157'
p2005
aS'179'
p2006
aasS'2H2Y'
p2007
(lp2008
(lp2009
I263
aS'24'
p2010
aS'134'
p2011
aasS'2FFF'
p2012
(lp2013
(lp2014
I4300
aS'425'
p2015
aS'657'
p2016
aasS'3RDI'
p2017
(lp2018
(lp2019
I2703
aS'22'
p2020
aS'108'
p2021
aa(lp2022
I6009
aS'165'
p2023
aS'196'
p2024
aasS'4OH0'
p2025
(lp2026
(lp2027
I4300
aS'61'
p2028
aS'265'
p2029
aasS'3HIF'
p2030
(lp2031
(lp2032
I2703
aS'22'
p2033
aS'108'
p2034
aa(lp2035
I6009
aS'165'
p2036
aS'196'
p2037
aasS'4HQ1'
p2038
(lp2039
(lp2040
I2515
aS'107'
p2041
aS'146'
p2042
aa(lp2043
I2518
aS'411'
p2044
aS'427'
p2045
aa(lp2046
I7333
aS'26'
p2047
aS'60'
p2048
aa(lp2049
I7333
aS'326'
p2050
aS'360'
p2051
aasS'4MSP'
p2052
(lp2053
(lp2054
I250
aS'21'
p2055
aS'113'
p2056
aa(lp2057
I2637
aS'122'
p2058
aS'186'
p2059
aasS'3SZ2'
p2060
(lp2061
(lp2062
I3939
aS'455'
p2063
aS'828'
p2064
aa(lp2065
I7506
aS'295'
p2066
aS'420'
p2067
aasS'1O3T'
p2068
(lp2069
(lp2070
I2703
aS'22'
p2071
aS'108'
p2072
aa(lp2073
I6009
aS'165'
p2074
aS'196'
p2075
aasS'1SQ0'
p2076
(lp2077
(lp2078
I747
aS'3'
aS'30'
p2079
aa(lp2080
I2515
aS'100'
p2081
aS'160'
p2082
aa(lp2083
I2829
aS'514'
p2084
aS'686'
p2085
aasS'1W26'
p2086
(lp2087
(lp2088
I250
aS'158'
p2089
aS'236'
p2090
aa(lp2091
I2810
aS'262'
p2092
aS'412'
p2093
aa(lp2094
I6951
aS'1'
aS'143'
p2095
aasS'2VCD'
p2096
(lp2097
(lp2098
I248
aS'2'
aS'36'
p2099
aa(lp2100
I250
aS'44'
p2101
aS'131'
p2102
aasS'3FN1'
p2103
(lp2104
(lp2105
I263
aS'37'
p2106
aS'179'
p2107
aa(lp2108
I4880
aS'355'
p2109
aS'440'
p2110
aasS'4DLE'
p2111
(lp2112
(lp2113
I3939
aS'455'
p2114
aS'828'
p2115
aa(lp2116
I7506
aS'295'
p2117
aS'420'
p2118
aasS'3PMH'
p2119
(lp2120
(lp2121
I747
aS'3'
aS'30'
p2122
aa(lp2123
I2515
aS'100'
p2124
aS'160'
p2125
aa(lp2126
I2879
aS'16'
p2127
aS'238'
p2128
aa(lp2129
I4359
aS'1H'
p2130
aS'15'
p2131
aasS'4DLG'
p2132
(lp2133
(lp2134
I3939
aS'455'
p2135
aS'828'
p2136
aa(lp2137
I7506
aS'295'
p2138
aS'420'
p2139
aasS'2IWB'
p2140
(lp2141
(lp2142
I4300
aS'376'
p2143
aS'580'
p2144
aasS'1D6O'
p2145
(lp2146
(lp2147
I250
aS'13'
p2148
aS'104'
p2149
aasS'4O0I'
p2150
(lp2151
(lp2152
I3939
aS'498'
p2153
aS'874'
p2154
aasS'4R5C'
p2155
(lp2156
(lp2157
I2515
aS'58'
p2158
aS'96'
p2159
aa(lp2160
I2515
aS'133'
p2161
aS'192'
p2162
aa(lp2163
I2518
aS'109'
p2164
aS'128'
p2165
aa(lp2166
I2520
aS'204'
p2167
aS'246'
p2168
aa(lp2169
I2520
aS'249'
p2170
aS'290'
p2171
aa(lp2172
I5439
aS'1'
aS'22'
p2173
aasS'3FZC'
p2174
(lp2175
(lp2176
I4300
aS'68'
p2177
aS'269'
p2178
aasS'4R5D'
p2179
(lp2180
(lp2181
I2515
aS'58'
p2182
aS'96'
p2183
aa(lp2184
I2515
aS'133'
p2185
aS'192'
p2186
aa(lp2187
I2515
aS'206'
p2188
aS'268'
p2189
aa(lp2190
I2518
aS'109'
p2191
aS'128'
p2192
aa(lp2193
I2518
aS'287'
p2194
aS'307'
p2195
aa(lp2196
I2518
aS'344'
p2197
aS'364'
p2198
aa(lp2199
I2518
aS'401'
p2200
aS'421'
p2201
aa(lp2202
I5439
aS'1'
aS'22'
p2203
aasS'1QPF'
p2204
(lp2205
(lp2206
I250
aS'13'
p2207
aS'104'
p2208
aasS'4CNM'
p2209
(lp2210
(lp2211
I747
aS'61'
p2212
aS'90'
p2213
aa(lp2214
I2515
aS'93'
p2215
aS'154'
p2216
aa(lp2217
I2515
aS'211'
p2218
aS'270'
p2219
aa(lp2220
I3321
aS'321'
p2221
aS'344'
p2222
aasS'1E4D'
p2223
(lp2224
(lp2225
I4300
aS'56'
p2226
aS'259'
p2227
aasS'2GRO'
p2228
(lp2229
(lp2230
I263
aS'8'
aS'150'
p2231
aa(lp2232
I2362
aS'431'
p2233
aS'585'
p2234
aasS'2GRN'
p2235
(lp2236
(lp2237
I263
aS'8'
aS'150'
p2238
aa(lp2239
I2362
aS'431'
p2240
aS'585'
p2241
aasS'4PSJ'
p2242
(lp2243
(lp2244
I2515
aS'93'
p2245
aS'152'
p2246
aa(lp2247
I2515
aS'188'
p2248
aS'248'
p2249
aa(lp2250
I2518
aS'165'
p2251
aS'187'
p2252
aa(lp2253
I5439
aS'9'
aS'30'
p2254
aasS'2M2A'
p2255
(lp2256
(lp2257
I250
aS'5'
aS'141'
p2258
aasS'2OFN'
p2259
(lp2260
(lp2261
I250
aS'33'
p2262
aS'123'
p2263
aasS'3PTF'
p2264
(lp2265
(lp2266
I263
aS'5'
aS'141'
p2267
aa(lp2268
I2656
aS'6'
aS'73'
p2269
aasS'4F7Z'
p2270
(lp2271
(lp2272
I648
aS'482'
p2273
aS'587'
p2274
aa(lp2275
I1321
aS'204'
p2276
aS'271'
p2277
aa(lp2278
I2703
aS'63'
p2279
aS'150'
p2280
aa(lp2281
I2703
aS'360'
p2282
aS'440'
p2283
aa(lp2284
I2727
aS'757'
p2285
aS'934'
p2286
aasS'2GRR'
p2287
(lp2288
(lp2289
I263
aS'8'
aS'150'
p2290
aa(lp2291
I2362
aS'431'
p2292
aS'585'
p2293
aasS'1YRV'
p2294
(lp2295
(lp2296
I263
aS'9'
aS'144'
p2297
aasS'2GRP'
p2298
(lp2299
(lp2300
I263
aS'8'
aS'150'
p2301
aa(lp2302
I2362
aS'431'
p2303
aS'585'
p2304
aasS'3L1Z'
p2305
(lp2306
(lp2307
I263
aS'5'
aS'141'
p2308
aa(lp2309
I2275
aS'1228'
p2310
aS'1299'
p2311
aasS'2A4D'
p2312
(lp2313
(lp2314
I263
aS'107'
p2315
aS'208'
p2316
aasS'2XD5'
p2317
(lp2318
(lp2319
I4300
aS'425'
p2320
aS'657'
p2321
aasS'2XD1'
p2322
(lp2323
(lp2324
I4300
aS'425'
p2325
aS'657'
p2326
aasS'1KT0'
p2327
(lp2328
(lp2329
I250
aS'46'
p2330
aS'135'
p2331
aa(lp2332
I250
aS'159'
p2333
aS'247'
p2334
aa(lp2335
I2998
aS'352'
p2336
aS'381'
p2337
aa(lp2338
I5736
aS'267'
p2339
aS'347'
p2340
aasS'4MN8'
p2341
(lp2342
(lp2343
I2515
aS'543'
p2344
aS'587'
p2345
aa(lp2346
I2515
aS'677'
p2347
aS'734'
p2348
aa(lp2349
I2515
aS'92'
p2350
aS'152'
p2351
aa(lp2352
I2518
aS'98'
p2353
aS'119'
p2354
aa(lp2355
I2518
aS'217'
p2356
aS'239'
p2357
aa(lp2358
I2518
aS'166'
p2359
aS'181'
p2360
aa(lp2361
I2990
aS'65'
p2362
aS'85'
p2363
aa(lp2364
I7333
aS'29'
p2365
aS'69'
p2366
aa(lp2367
I7333
aS'26'
p2368
aS'65'
p2369
aasS'1KSP'
p2370
(lp2371
(lp2372
I3939
aS'551'
p2373
aS'925'
p2374
aa(lp2375
I6020
aS'330'
p2376
aS'517'
p2377
aasS'4WJC'
p2378
(lp2379
(lp2380
I252
aS'535'
p2381
aS'791'
p2382
aa(lp2383
I2703
aS'71'
p2384
aS'151'
p2385
aa(lp2386
I2703
aS'189'
p2387
aS'261'
p2388
aa(lp2389
I2703
aS'431'
p2390
aS'511'
p2391
aasS'4C2A'
p2392
(lp2393
(lp2394
I747
aS'3'
aS'30'
p2395
aa(lp2396
I2515
aS'100'
p2397
aS'160'
p2398
aa(lp2399
I2829
aS'1277'
p2400
aS'1449'
p2401
aasS'4BH9'
p2402
(lp2403
(lp2404
I2703
aS'22'
p2405
aS'108'
p2406
aa(lp2407
I6009
aS'165'
p2408
aS'196'
p2409
aasS'1K38'
p2410
(lp2411
(lp2412
I4300
aS'59'
p2413
aS'252'
p2414
aasS'2HLW'
p2415
(lp2416
(lp2417
I263
aS'56'
p2418
aS'157'
p2419
aasS'1HW5'
p2420
(lp2421
(lp2422
I2703
aS'22'
p2423
aS'108'
p2424
aa(lp2425
I6009
aS'165'
p2426
aS'196'
p2427
aasS'4F94'
p2428
(lp2429
(lp2430
I4300
aS'68'
p2431
aS'269'
p2432
aasS'2Y4W'
p2433
(lp2434
(lp2435
I263
aS'8'
aS'143'
p2436
aasS'2UZY'
p2437
(lp2438
(lp2439
I254
aS'520'
p2440
aS'559'
p2441
aa(lp2442
I2515
aS'98'
p2443
aS'154'
p2444
aa(lp2445
I2520
aS'164'
p2446
aS'204'
p2447
aa(lp2448
I3612
aS'563'
p2449
aS'654'
p2450
aa(lp2451
I3612
aS'657'
p2452
aS'729'
p2453
aa(lp2454
I5439
aS'36'
p2455
aS'58'
p2456
aa(lp2457
I5990
aS'264'
p2458
aS'320'
p2459
aa(lp2460
I7242
aS'59'
p2461
aS'474'
p2462
aasS'1RGS'
p2463
(lp2464
(lp2465
I2703
aS'154'
p2466
aS'234'
p2467
aa(lp2468
I2703
aS'272'
p2469
aS'357'
p2470
aasS'2Z7X'
p2471
(lp2472
(lp2473
I2515
aS'77'
p2474
aS'134'
p2475
aa(lp2476
I2515
aS'387'
p2477
aS'448'
p2478
aa(lp2479
I2515
aS'477'
p2480
aS'533'
p2481
aa(lp2482
I2515
aS'69'
p2483
aS'125'
p2484
aa(lp2485
I2515
aS'445'
p2486
aS'502'
p2487
aa(lp2488
I2853
aS'538'
p2489
aS'575'
p2490
aa(lp2491
I2853
aS'507'
p2492
aS'544'
p2493
aasS'1QME'
p2494
(lp2495
(lp2496
I78
aS'695'
p2497
aS'749'
p2498
aa(lp2499
I3563
aS'72'
p2500
aS'232'
p2501
aa(lp2502
I4300
aS'289'
p2503
aS'609'
p2504
aasS'4WEJ'
p2505
(lp2506
(lp2507
I3563
aS'58'
p2508
aS'207'
p2509
aa(lp2510
I4300
aS'247'
p2511
aS'546'
p2512
aasS'4WEK'
p2513
(lp2514
(lp2515
I3563
aS'302'
p2516
aS'451'
p2517
aa(lp2518
I4300
aS'491'
p2519
aS'790'
p2520
aasS'4WEL'
p2521
(lp2522
(lp2523
I3563
aS'58'
p2524
aS'207'
p2525
aa(lp2526
I4300
aS'247'
p2527
aS'546'
p2528
aasS'1H6T'
p2529
(lp2530
(lp2531
I2515
aS'98'
p2532
aS'154'
p2533
aa(lp2534
I2520
aS'164'
p2535
aS'204'
p2536
aa(lp2537
I5439
aS'36'
p2538
aS'58'
p2539
aa(lp2540
I5990
aS'264'
p2541
aS'320'
p2542
aasS'3QOP'
p2543
(lp2544
(lp2545
I2703
aS'22'
p2546
aS'108'
p2547
aa(lp2548
I6009
aS'165'
p2549
aS'196'
p2550
aasS'4FH1'
p2551
(lp2552
(lp2553
I263
aS'7'
aS'143'
p2554
aasS'3IIA'
p2555
(lp2556
(lp2557
I2703
aS'154'
p2558
aS'234'
p2559
aasS'3KZ7'
p2560
(lp2561
(lp2562
I250
aS'122'
p2563
aS'221'
p2564
aasS'1Z3D'
p2565
(lp2566
(lp2567
I263
aS'8'
aS'144'
p2568
aasS'3V44'
p2569
(lp2570
(lp2571
I2515
aS'86'
p2572
aS'132'
p2573
aa(lp2574
I2515
aS'295'
p2575
aS'352'
p2576
aa(lp2577
I2853
aS'379'
p2578
aS'419'
p2579
aasS'3MZH'
p2580
(lp2581
(lp2582
I996
aS'148'
p2583
aS'221'
p2584
aa(lp2585
I2703
aS'29'
p2586
aS'114'
p2587
aasS'3OTF'
p2588
(lp2589
(lp2590
I2703
aS'614'
p2591
aS'696'
p2592
aasS'4XVK'
p2593
(lp2594
(lp2595
I3939
aS'448'
p2596
aS'853'
p2597
aasS'4XVI'
p2598
(lp2599
(lp2600
I3939
aS'448'
p2601
aS'853'
p2602
aasS'4XVL'
p2603
(lp2604
(lp2605
I3939
aS'448'
p2606
aS'853'
p2607
aasS'4XVM'
p2608
(lp2609
(lp2610
I3939
aS'448'
p2611
aS'853'
p2612
aasS'1RUN'
p2613
(lp2614
(lp2615
I2703
aS'22'
p2616
aS'108'
p2617
aa(lp2618
I6009
aS'165'
p2619
aS'196'
p2620
aasS'1RUO'
p2621
(lp2622
(lp2623
I2703
aS'22'
p2624
aS'108'
p2625
aa(lp2626
I6009
aS'165'
p2627
aS'196'
p2628
aasS'3OCP'
p2629
(lp2630
(lp2631
I2703
aS'137'
p2632
aS'218'
p2633
aasS'5KTQ'
p2634
(lp2635
(lp2636
I3939
aS'455'
p2637
aS'828'
p2638
aa(lp2639
I7506
aS'295'
p2640
aS'420'
p2641
aasS'3E46'
p2642
(lp2643
(lp2644
I263
aS'8'
aS'147'
p2645
aa(lp2646
I3155
aS'162'
p2647
aS'197'
p2648
aasS'3TNQ'
p2649
(lp2650
(lp2651
I252
aS'44'
p2652
aS'297'
p2653
aa(lp2654
I2703
aS'172'
p2655
aS'256'
p2656
aa(lp2657
I2703
aS'293'
p2658
aS'383'
p2659
aasS'4CCH'
p2660
(lp2661
(lp2662
I3939
aS'455'
p2663
aS'828'
p2664
aa(lp2665
I7506
aS'295'
p2666
aS'420'
p2667
aasS'1FD9'
p2668
(lp2669
(lp2670
I248
aS'9'
aS'112'
p2671
aa(lp2672
I250
aS'120'
p2673
aS'207'
p2674
aasS'4CCG'
p2675
(lp2676
(lp2677
I263
aS'6'
aS'146'
p2678
aa(lp2679
I3922
aS'304'
p2680
aS'371'
p2681
aasS'3TNP'
p2682
(lp2683
(lp2684
I252
aS'44'
p2685
aS'297'
p2686
aa(lp2687
I2703
aS'172'
p2688
aS'256'
p2689
aa(lp2690
I2703
aS'293'
p2691
aS'383'
p2692
aasS'2PQQ'
p2693
(lp2694
(lp2695
I2703
aS'29'
p2696
aS'110'
p2697
aasS'2PWQ'
p2698
(lp2699
(lp2700
I263
aS'6'
aS'141'
p2701
aasS'1U12'
p2702
(lp2703
(lp2704
I2703
aS'254'
p2705
aS'333'
p2706
aasS'2IF4'
p2707
(lp2708
(lp2709
I250
aS'63'
p2710
aS'156'
p2711
aa(lp2712
I2996
aS'264'
p2713
aS'292'
p2714
aa(lp2715
I5736
aS'183'
p2716
aS'257'
p2717
aasS'2PX9'
p2718
(lp2719
(lp2720
I263
aS'8'
aS'150'
p2721
aa(lp2722
I1706
aS'293'
p2723
aS'377'
p2724
aasS'2ESK'
p2725
(lp2726
(lp2727
I263
aS'5'
aS'141'
p2728
aasS'1J4R'
p2729
(lp2730
(lp2731
I250
aS'13'
p2732
aS'104'
p2733
aasS'2Y78'
p2734
(lp2735
(lp2736
I250
aS'22'
p2737
aS'111'
p2738
aasS'1J4I'
p2739
(lp2740
(lp2741
I250
aS'13'
p2742
aS'104'
p2743
aasS'1J4H'
p2744
(lp2745
(lp2746
I250
aS'13'
p2747
aS'104'
p2748
aasS'2C4P'
p2749
(lp2750
(lp2751
I263
aS'5'
aS'141'
p2752
aasS'4MX3'
p2753
(lp2754
(lp2755
I2703
aS'154'
p2756
aS'234'
p2757
aa(lp2758
I2703
aS'272'
p2759
aS'357'
p2760
aasS'1MWT'
p2761
(lp2762
(lp2763
I922
aS'27'
p2764
aS'140'
p2765
aa(lp2766
I3563
aS'148'
p2767
aS'309'
p2768
aa(lp2769
I4300
aS'346'
p2770
aS'657'
p2771
aasS'3RCZ'
p2772
(lp2773
(lp2774
I263
aS'8'
aS'150'
p2775
aa(lp2776
I5132
aS'334'
p2777
aS'404'
p2778
aasS'1ROT'
p2779
(lp2780
(lp2781
I250
aS'43'
p2782
aS'134'
p2783
aasS'2VN1'
p2784
(lp2785
(lp2786
I250
aS'33'
p2787
aS'123'
p2788
aasS'3MDP'
p2789
(lp2790
(lp2791
I2703
aS'31'
p2792
aS'120'
p2793
aasS'1FKR'
p2794
(lp2795
(lp2796
I250
aS'13'
p2797
aS'104'
p2798
aasS'4R23'
p2799
(lp2800
(lp2801
I4300
aS'631'
p2802
aS'941'
p2803
aasS'1BGX'
p2804
(lp2805
(lp2806
I1690
aS'120'
p2807
aS'205'
p2808
aa(lp2809
I1690
aS'130'
p2810
aS'201'
p2811
aa(lp2812
I2388
aS'6'
aS'105'
p2813
aa(lp2814
I2388
aS'11'
p2815
aS'113'
p2816
aa(lp2817
I3939
aS'455'
p2818
aS'828'
p2819
aa(lp2820
I5197
aS'175'
p2821
aS'262'
p2822
aa(lp2823
I5644
aS'13'
p2824
aS'158'
p2825
aa(lp2826
I7506
aS'295'
p2827
aS'420'
p2828
aasS'1XKZ'
p2829
(lp2830
(lp2831
I4300
aS'361'
p2832
aS'577'
p2833
aasS'3FXI'
p2834
(lp2835
(lp2836
I1141
aS'32'
p2837
aS'152'
p2838
aa(lp2839
I2515
aS'78'
p2840
aS'136'
p2841
aa(lp2842
I2515
aS'151'
p2843
aS'207'
p2844
aa(lp2845
I2515
aS'447'
p2846
aS'508'
p2847
aasS'1FKS'
p2848
(lp2849
(lp2850
I250
aS'13'
p2851
aS'104'
p2852
aasS'4R3J'
p2853
(lp2854
(lp2855
I4300
aS'631'
p2856
aS'941'
p2857
aasS'4B9U'
p2858
(lp2859
(lp2860
I3939
aS'498'
p2861
aS'874'
p2862
aasS'2IFG'
p2863
(lp2864
(lp2865
I1098
aS'8'
aS'115'
p2866
aa(lp2867
I2515
aS'92'
p2868
aS'150'
p2869
aa(lp2870
I6688
aS'151'
p2871
aS'192'
p2872
aasS'3SHR'
p2873
(lp2874
(lp2875
I2703
aS'121'
p2876
aS'202'
p2877
aa(lp2878
I2703
aS'239'
p2879
aS'324'
p2880
aasS'3Q81'
p2881
(lp2882
(lp2883
I4300
aS'47'
p2884
aS'247'
p2885
aasS'3Q82'
p2886
(lp2887
(lp2888
I4300
aS'47'
p2889
aS'247'
p2890
aasS'1RL3'
p2891
(lp2892
(lp2893
I2703
aS'154'
p2894
aS'234'
p2895
aa(lp2896
I2703
aS'272'
p2897
aS'357'
p2898
aasS'2VRH'
p2899
(lp2900
(lp2901
I250
aS'158'
p2902
aS'236'
p2903
aa(lp2904
I2417
aS'7'
aS'36'
p2905
aa(lp2906
I2810
aS'262'
p2907
aS'412'
p2908
aa(lp2909
I5992
aS'4'
aS'60'
p2910
aa(lp2911
I5997
aS'9'
aS'95'
p2912
aa(lp2913
I6951
aS'1'
aS'143'
p2914
aasS'4TKP'
p2915
(lp2916
(lp2917
I263
aS'7'
aS'142'
p2918
aa(lp2919
I5646
aS'15'
p2920
aS'59'
p2921
aasS'3U0Z'
p2922
(lp2923
(lp2924
I2703
aS'483'
p2925
aS'565'
p2926
aasS'3T6Q'
p2927
(lp2928
(lp2929
I1141
aS'53'
p2930
aS'160'
p2931
aa(lp2932
I2515
aS'322'
p2933
aS'382'
p2934
aa(lp2935
I2515
aS'438'
p2936
aS'481'
p2937
aa(lp2938
I2515
aS'497'
p2939
aS'555'
p2940
aasS'3SV4'
p2941
(lp2942
(lp2943
I3939
aS'455'
p2944
aS'828'
p2945
aa(lp2946
I7506
aS'295'
p2947
aS'420'
p2948
aasS'3B2D'
p2949
(lp2950
(lp2951
I1141
aS'54'
p2952
aS'159'
p2953
aa(lp2954
I2515
aS'78'
p2955
aS'132'
p2956
aa(lp2957
I2515
aS'323'
p2958
aS'382'
p2959
aa(lp2960
I2515
aS'437'
p2961
aS'481'
p2962
aa(lp2963
I2515
aS'497'
p2964
aS'544'
p2965
aa(lp2966
I2518
aS'397'
p2967
aS'419'
p2968
aasS'4K79'
p2969
(lp2970
(lp2971
I747
aS'2'
aS'29'
p2972
aa(lp2973
I2515
aS'55'
p2974
aS'109'
p2975
aa(lp2976
I2853
aS'166'
p2977
aS'213'
p2978
aasS'1PYY'
p2979
(lp2980
(lp2981
I78
aS'695'
p2982
aS'749'
p2983
aa(lp2984
I3563
aS'73'
p2985
aS'231'
p2986
aa(lp2987
I4300
aS'289'
p2988
aS'609'
p2989
aasS'3SV3'
p2990
(lp2991
(lp2992
I3939
aS'455'
p2993
aS'828'
p2994
aa(lp2995
I7506
aS'295'
p2996
aS'420'
p2997
aasS'5AIU'
p2998
(lp2999
(lp3000
I263
aS'7'
aS'142'
p3001
aa(lp3002
I1718
aS'135'
p3003
aS'181'
p3004
aa(lp3005
I1718
aS'200'
p3006
aS'246'
p3007
aa(lp3008
I2656
aS'6'
aS'74'
p3009
aasS'4B9S'
p3010
(lp3011
(lp3012
I3939
aS'498'
p3013
aS'874'
p3014
aasS'5AIT'
p3015
(lp3016
(lp3017
I263
aS'7'
aS'142'
p3018
aa(lp3019
I263
aS'31'
p3020
aS'133'
p3021
aa(lp3022
I1718
aS'135'
p3023
aS'181'
p3024
aa(lp3025
I1718
aS'200'
p3026
aS'246'
p3027
aa(lp3028
I2656
aS'6'
aS'74'
p3029
aasS'3SQV'
p3030
(lp3031
(lp3032
I263
aS'6'
aS'143'
p3033
aa(lp3034
I1987
aS'379'
p3035
aS'508'
p3036
aa(lp3037
I2461
aS'204'
p3038
aS'240'
p3039
aa(lp3040
I3039
aS'242'
p3041
aS'291'
p3042
aa(lp3043
I5294
aS'623'
p3044
aS'782'
p3045
aasS'4UFS'
p3046
(lp3047
(lp3048
I747
aS'33'
p3049
aS'64'
p3050
aa(lp3051
I2515
aS'92'
p3052
aS'150'
p3053
aa(lp3054
I2515
aS'188'
p3055
aS'246'
p3056
aa(lp3057
I2515
aS'257'
p3058
aS'314'
p3059
aa(lp3060
I2515
aS'375'
p3061
aS'434'
p3062
aa(lp3063
I2518
aS'353'
p3064
aS'371'
p3065
aa(lp3066
I2960
aS'40'
p3067
aS'141'
p3068
aasS'3ZNI'
p3069
(lp3070
(lp3071
I263
aS'5'
aS'141'
p3072
aa(lp3073
I2656
aS'6'
aS'74'
p3074
aa(lp3075
I5647
aS'372'
p3076
aS'416'
p3077
aa(lp3078
I6983
aS'42'
p3079
aS'167'
p3080
aa(lp3081
I7113
aS'171'
p3082
aS'254'
p3083
aa(lp3084
I7114
aS'256'
p3085
aS'341'
p3086
aasS'1O5L'
p3087
(lp3088
(lp3089
I2703
aS'14'
p3090
aS'101'
p3091
aasS'4UFR'
p3092
(lp3093
(lp3094
I747
aS'33'
p3095
aS'64'
p3096
aa(lp3097
I2515
aS'92'
p3098
aS'150'
p3099
aa(lp3100
I2515
aS'188'
p3101
aS'246'
p3102
aa(lp3103
I2515
aS'257'
p3104
aS'314'
p3105
aa(lp3106
I2515
aS'375'
p3107
aS'434'
p3108
aa(lp3109
I2518
aS'353'
p3110
aS'371'
p3111
aa(lp3112
I2960
aS'40'
p3113
aS'141'
p3114
aasS'3OCN'
p3115
(lp3116
(lp3117
I3563
aS'58'
p3118
aS'207'
p3119
aa(lp3120
I4300
aS'247'
p3121
aS'544'
p3122
aasS'2Z2M'
p3123
(lp3124
(lp3125
I78
aS'695'
p3126
aS'749'
p3127
aa(lp3128
I3563
aS'74'
p3129
aS'232'
p3130
aa(lp3131
I4300
aS'289'
p3132
aS'609'
p3133
aasS'3OCL'
p3134
(lp3135
(lp3136
I3563
aS'58'
p3137
aS'207'
p3138
aa(lp3139
I4300
aS'247'
p3140
aS'544'
p3141
aasS'3PAG'
p3142
(lp3143
(lp3144
I4300
aS'68'
p3145
aS'269'
p3146
aasS'3PAE'
p3147
(lp3148
(lp3149
I4300
aS'68'
p3150
aS'269'
p3151
aasS'4JFK'
p3152
(lp3153
(lp3154
I250
aS'44'
p3155
aS'135'
p3156
aasS'4IED'
p3157
(lp3158
(lp3159
I4300
aS'39'
p3160
aS'245'
p3161
aasS'1C9H'
p3162
(lp3163
(lp3164
I250
aS'13'
p3165
aS'104'
p3166
aasS'1ZRF'
p3167
(lp3168
(lp3169
I2703
aS'22'
p3170
aS'108'
p3171
aa(lp3172
I6009
aS'165'
p3173
aS'196'
p3174
aasS'1ZRE'
p3175
(lp3176
(lp3177
I2703
aS'22'
p3178
aS'108'
p3179
aa(lp3180
I6009
aS'165'
p3181
aS'196'
p3182
aasS'1ZRD'
p3183
(lp3184
(lp3185
I2703
aS'22'
p3186
aS'108'
p3187
aa(lp3188
I6009
aS'165'
p3189
aS'196'
p3190
aasS'1ZRC'
p3191
(lp3192
(lp3193
I2703
aS'22'
p3194
aS'108'
p3195
aa(lp3196
I6009
aS'165'
p3197
aS'196'
p3198
aasS'4XIU'
p3199
(lp3200
(lp3201
I3939
aS'455'
p3202
aS'828'
p3203
aa(lp3204
I7506
aS'295'
p3205
aS'420'
p3206
aasS'1KPS'
p3207
(lp3208
(lp3209
I263
aS'8'
aS'150'
p3210
aa(lp3211
I2362
aS'434'
p3212
aS'587'
p3213
aasS'4C8K'
p3214
(lp3215
(lp3216
I3939
aS'455'
p3217
aS'828'
p3218
aa(lp3219
I7506
aS'295'
p3220
aS'420'
p3221
aasS'2PTM'
p3222
(lp3223
(lp3224
I2703
aS'565'
p3225
aS'646'
p3226
aasS'4C8O'
p3227
(lp3228
(lp3229
I3939
aS'455'
p3230
aS'828'
p3231
aa(lp3232
I7506
aS'295'
p3233
aS'420'
p3234
aasS'4C8N'
p3235
(lp3236
(lp3237
I3939
aS'455'
p3238
aS'828'
p3239
aa(lp3240
I7506
aS'295'
p3241
aS'420'
p3242
aasS'4C8M'
p3243
(lp3244
(lp3245
I3939
aS'455'
p3246
aS'828'
p3247
aa(lp3248
I7506
aS'295'
p3249
aS'420'
p3250
aasS'4C8L'
p3251
(lp3252
(lp3253
I3939
aS'455'
p3254
aS'828'
p3255
aa(lp3256
I3939
aS'455'
p3257
aS'828'
p3258
aa(lp3259
I7506
aS'295'
p3260
aS'420'
p3261
aa(lp3262
I7506
aS'295'
p3263
aS'420'
p3264
aasS'3OJ4'
p3265
(lp3266
(lp3267
I263
aS'5'
aS'141'
p3268
aa(lp3269
I914
aS'605'
p3270
aS'628'
p3271
aa(lp3272
I2656
aS'6'
aS'72'
p3273
aasS'2HVI'
p3274
(lp3275
(lp3276
I3939
aS'498'
p3277
aS'874'
p3278
aasS'2GAU'
p3279
(lp3280
(lp3281
I996
aS'155'
p3282
aS'227'
p3283
aa(lp3284
I2703
aS'38'
p3285
aS'121'
p3286
aasS'4LXR'
p3287
(lp3288
(lp3289
I219
aS'215'
p3290
aS'344'
p3291
aa(lp3292
I747
aS'631'
p3293
aS'662'
p3294
aa(lp3295
I2515
aS'390'
p3296
aS'450'
p3297
aa(lp3298
I2518
aS'367'
p3299
aS'387'
p3300
aa(lp3301
I2518
aS'715'
p3302
aS'728'
p3303
aa(lp3304
I3838
aS'8'
aS'102'
p3305
aasS'4LXS'
p3306
(lp3307
(lp3308
I219
aS'215'
p3309
aS'344'
p3310
aa(lp3311
I747
aS'631'
p3312
aS'662'
p3313
aa(lp3314
I2515
aS'390'
p3315
aS'450'
p3316
aa(lp3317
I2518
aS'367'
p3318
aS'387'
p3319
aa(lp3320
I2518
aS'715'
p3321
aS'728'
p3322
aa(lp3323
I3838
aS'8'
aS'102'
p3324
aasS'1H5X'
p3325
(lp3326
(lp3327
I4300
aS'57'
p3328
aS'258'
p3329
aasS'4TX0'
p3330
(lp3331
(lp3332
I250
aS'44'
p3333
aS'135'
p3334
aasS'5AIE'
p3335
(lp3336
(lp3337
I263
aS'6'
aS'142'
p3338
aa(lp3339
I1721
aS'33'
p3340
aS'82'
p3341
aasS'2BEP'
p3342
(lp3343
(lp3344
I263
aS'8'
aS'147'
p3345
aasS'3HCT'
p3346
(lp3347
(lp3348
I263
aS'7'
aS'142'
p3349
aa(lp3350
I787
aS'70'
p3351
aS'106'
p3352
aasS'3HCU'
p3353
(lp3354
(lp3355
I263
aS'7'
aS'142'
p3356
aa(lp3357
I787
aS'70'
p3358
aS'106'
p3359
aasS'2H6B'
p3360
(lp3361
(lp3362
I996
aS'152'
p3363
aS'224'
p3364
aa(lp3365
I2703
aS'35'
p3366
aS'118'
p3367
aasS'3RZ3'
p3368
(lp3369
(lp3370
I263
aS'14'
p3371
aS'153'
p3372
aasS'3OJU'
p3373
(lp3374
(lp3375
I3939
aS'455'
p3376
aS'828'
p3377
aa(lp3378
I7506
aS'295'
p3379
aS'420'
p3380
aasS'1QPL'
p3381
(lp3382
(lp3383
I250
aS'13'
p3384
aS'104'
p3385
aasS'1YAT'
p3386
(lp3387
(lp3388
I250
aS'13'
p3389
aS'104'
p3390
aasS'1BL4'
p3391
(lp3392
(lp3393
I250
aS'13'
p3394
aS'104'
p3395
aasS'3OJS'
p3396
(lp3397
(lp3398
I3939
aS'455'
p3399
aS'828'
p3400
aa(lp3401
I7506
aS'295'
p3402
aS'420'
p3403
aasS'3IF6'
p3404
(lp3405
(lp3406
I4300
aS'61'
p3407
aS'257'
p3408
aa(lp3409
I4300
aS'61'
p3410
aS'257'
p3411
aa(lp3412
I4300
aS'61'
p3413
aS'257'
p3414
aasS'4F2S'
p3415
(lp3416
(lp3417
I3939
aS'498'
p3418
aS'874'
p3419
aasS'4ZTK'
p3420
(lp3421
(lp3422
I4300
aS'365'
p3423
aS'626'
p3424
aasS'2QVS'
p3425
(lp3426
(lp3427
I252
aS'44'
p3428
aS'297'
p3429
aa(lp3430
I2703
aS'155'
p3431
aS'239'
p3432
aa(lp3433
I2703
aS'276'
p3434
aS'367'
p3435
aasS'4MNR'
p3436
(lp3437
(lp3438
I4300
aS'127'
p3439
aS'447'
p3440
aasS'2FUH'
p3441
(lp3442
(lp3443
I263
aS'5'
aS'141'
p3444
aa(lp3445
I2656
aS'6'
aS'74'
p3446
aasS'1Q1C'
p3447
(lp3448
(lp3449
I250
aS'44'
p3450
aS'135'
p3451
aa(lp3452
I250
aS'162'
p3453
aS'249'
p3454
aasS'4ONM'
p3455
(lp3456
(lp3457
I263
aS'31'
p3458
aS'133'
p3459
aa(lp3460
I263
aS'7'
aS'142'
p3461
aasS'4ONL'
p3462
(lp3463
(lp3464
I263
aS'31'
p3465
aS'133'
p3466
aa(lp3467
I263
aS'7'
aS'142'
p3468
aasS'4ONN'
p3469
(lp3470
(lp3471
I263
aS'31'
p3472
aS'133'
p3473
aa(lp3474
I263
aS'7'
aS'142'
p3475
aasS'3EB6'
p3476
(lp3477
(lp3478
I263
aS'5'
aS'141'
p3479
aa(lp3480
I5647
aS'554'
p3481
aS'596'
p3482
aasS'4MNA'
p3483
(lp3484
(lp3485
I2515
aS'543'
p3486
aS'587'
p3487
aa(lp3488
I2515
aS'677'
p3489
aS'734'
p3490
aa(lp3491
I2518
aS'98'
p3492
aS'119'
p3493
aa(lp3494
I2518
aS'652'
p3495
aS'672'
p3496
aa(lp3497
I7333
aS'29'
p3498
aS'69'
p3499
aasS'4ONU'
p3500
(lp3501
(lp3502
I2703
aS'37'
p3503
aS'119'
p3504
aa(lp3505
I4972
aS'154'
p3506
aS'288'
p3507
aasS'3OC2'
p3508
(lp3509
(lp3510
I3563
aS'58'
p3511
aS'207'
p3512
aa(lp3513
I4300
aS'247'
p3514
aS'544'
p3515
aasS'2KR7'
p3516
(lp3517
(lp3518
I250
aS'13'
p3519
aS'103'
p3520
aasS'5D1M'
p3521
(lp3522
(lp3523
I263
aS'6'
aS'142'
p3524
aa(lp3525
I1718
aS'137'
p3526
aS'222'
p3527
aasS'2K8I'
p3528
(lp3529
(lp3530
I250
aS'5'
aS'136'
p3531
aasS'4JBF'
p3532
(lp3533
(lp3534
I4300
aS'631'
p3535
aS'941'
p3536
aasS'4AVC'
p3537
(lp3538
(lp3539
I2703
aS'40'
p3540
aS'119'
p3541
aa(lp3542
I4972
aS'156'
p3543
aS'289'
p3544
aasS'4AVB'
p3545
(lp3546
(lp3547
I2703
aS'40'
p3548
aS'119'
p3549
aa(lp3550
I4972
aS'156'
p3551
aS'289'
p3552
aasS'4AVA'
p3553
(lp3554
(lp3555
I2703
aS'40'
p3556
aS'119'
p3557
aa(lp3558
I4972
aS'156'
p3559
aS'289'
p3560
aasS'2OZ6'
p3561
(lp3562
(lp3563
I2703
aS'22'
p3564
aS'114'
p3565
aa(lp3566
I6009
aS'170'
p3567
aS'200'
p3568
aasS'3UPP'
p3569
(lp3570
(lp3571
I4300
aS'160'
p3572
aS'484'
p3573
aasS'1JAS'
p3574
(lp3575
(lp3576
I263
aS'8'
aS'143'
p3577
aasS'1JAT'
p3578
(lp3579
(lp3580
I263
aS'7'
aS'143'
p3581
aa(lp3582
I263
aS'24'
p3583
aS'127'
p3584
aasS'1Q5O'
p3585
(lp3586
(lp3587
I2703
aS'536'
p3588
aS'618'
p3589
aasS'1P9A'
p3590
(lp3591
(lp3592
I747
aS'3'
aS'30'
p3593
aa(lp3594
I2515
aS'100'
p3595
aS'160'
p3596
aasS'3UPN'
p3597
(lp3598
(lp3599
I4300
aS'160'
p3600
aS'484'
p3601
aasS'3UPO'
p3602
(lp3603
(lp3604
I4300
aS'160'
p3605
aS'484'
p3606
aasS'4PBV'
p3607
(lp3608
(lp3609
I2515
aS'104'
p3610
aS'161'
p3611
aa(lp3612
I4082
aS'215'
p3613
aS'297'
p3614
aa(lp3615
I5590
aS'32'
p3616
aS'123'
p3617
aa(lp3618
I5590
aS'135'
p3619
aS'215'
p3620
aa(lp3621
I6688
aS'163'
p3622
aS'208'
p3623
aasS'4PBW'
p3624
(lp3625
(lp3626
I2515
aS'104'
p3627
aS'161'
p3628
aa(lp3629
I4082
aS'215'
p3630
aS'297'
p3631
aa(lp3632
I5590
aS'32'
p3633
aS'123'
p3634
aa(lp3635
I5590
aS'135'
p3636
aS'215'
p3637
aa(lp3638
I6688
aS'163'
p3639
aS'208'
p3640
aasS'4R62'
p3641
(lp3642
(lp3643
I263
aS'8'
aS'144'
p3644
aa(lp3645
I2656
aS'6'
aS'74'
p3646
aasS'3HBR'
p3647
(lp3648
(lp3649
I4300
aS'48'
p3650
aS'259'
p3651
aasS'2XWU'
p3652
(lp3653
(lp3654
I263
aS'8'
aS'150'
p3655
aa(lp3656
I2325
aS'117'
p3657
aS'262'
p3658
aa(lp3659
I3919
aS'45'
p3660
aS'107'
p3661
aasS'3RGZ'
p3662
(lp3663
(lp3664
I2515
aS'513'
p3665
aS'571'
p3666
aa(lp3667
I2515
aS'700'
p3668
aS'738'
p3669
aa(lp3670
I2518
aS'247'
p3671
aS'267'
p3672
aa(lp3673
I2518
aS'367'
p3674
aS'388'
p3675
aa(lp3676
I2518
aS'418'
p3677
aS'439'
p3678
aa(lp3679
I7333
aS'36'
p3680
aS'69'
p3681
aasS'3RGX'
p3682
(lp3683
(lp3684
I2515
aS'513'
p3685
aS'571'
p3686
aa(lp3687
I2515
aS'700'
p3688
aS'738'
p3689
aa(lp3690
I2518
aS'247'
p3691
aS'267'
p3692
aa(lp3693
I2518
aS'367'
p3694
aS'388'
p3695
aa(lp3696
I2518
aS'418'
p3697
aS'439'
p3698
aa(lp3699
I7333
aS'36'
p3700
aS'69'
p3701
aasS'3EQV'
p3702
(lp3703
(lp3704
I3563
aS'71'
p3705
aS'221'
p3706
aa(lp3707
I4300
aS'263'
p3708
aS'557'
p3709
aasS'3LWL'
p3710
(lp3711
(lp3712
I3939
aS'455'
p3713
aS'828'
p3714
aa(lp3715
I7506
aS'295'
p3716
aS'420'
p3717
aasS'3LWM'
p3718
(lp3719
(lp3720
I3939
aS'455'
p3721
aS'828'
p3722
aa(lp3723
I7506
aS'295'
p3724
aS'420'
p3725
aasS'4BL2'
p3726
(lp3727
(lp3728
I922
aS'27'
p3729
aS'140'
p3730
aa(lp3731
I3563
aS'148'
p3732
aS'309'
p3733
aa(lp3734
I4300
aS'346'
p3735
aS'657'
p3736
aasS'3EQU'
p3737
(lp3738
(lp3739
I3563
aS'71'
p3740
aS'221'
p3741
aa(lp3742
I4300
aS'263'
p3743
aS'557'
p3744
aasS'2GMI'
p3745
(lp3746
(lp3747
I263
aS'7'
aS'143'
p3748
aa(lp3749
I263
aS'24'
p3750
aS'127'
p3751
aa(lp3752
I2656
aS'506'
p3753
aS'574'
p3754
aasS'4X6R'
p3755
(lp3756
(lp3757
I252
aS'44'
p3758
aS'297'
p3759
aa(lp3760
I2703
aS'154'
p3761
aS'234'
p3762
aa(lp3763
I2703
aS'272'
p3764
aS'357'
p3765
aasS'2WGW'
p3766
(lp3767
(lp3768
I4300
aS'56'
p3769
aS'259'
p3770
aa(lp3771
I4300
aS'56'
p3772
aS'259'
p3773
aasS'3TI0'
p3774
(lp3775
(lp3776
I3939
aS'498'
p3777
aS'874'
p3778
aasS'1ZYB'
p3779
(lp3780
(lp3781
I996
aS'155'
p3782
aS'219'
p3783
aa(lp3784
I2703
aS'35'
p3785
aS'114'
p3786
aasS'5CMN'
p3787
(lp3788
(lp3789
I2515
aS'176'
p3790
aS'237'
p3791
aa(lp3792
I2515
aS'247'
p3793
aS'306'
p3794
aa(lp3795
I5508
aS'140'
p3796
aS'391'
p3797
aasS'3W3M'
p3798
(lp3799
(lp3800
I2515
aS'54'
p3801
aS'97'
p3802
aa(lp3803
I2515
aS'277'
p3804
aS'323'
p3805
aa(lp3806
I2515
aS'485'
p3807
aS'542'
p3808
aa(lp3809
I2515
aS'640'
p3810
aS'700'
p3811
aa(lp3812
I2515
aS'712'
p3813
aS'773'
p3814
aa(lp3815
I2518
aS'247'
p3816
aS'261'
p3817
aasS'3W3L'
p3818
(lp3819
(lp3820
I2515
aS'54'
p3821
aS'97'
p3822
aa(lp3823
I2515
aS'277'
p3824
aS'323'
p3825
aa(lp3826
I2515
aS'485'
p3827
aS'542'
p3828
aa(lp3829
I2515
aS'640'
p3830
aS'700'
p3831
aa(lp3832
I2515
aS'712'
p3833
aS'773'
p3834
aa(lp3835
I2518
aS'247'
p3836
aS'261'
p3837
aasS'3W3K'
p3838
(lp3839
(lp3840
I2515
aS'54'
p3841
aS'97'
p3842
aa(lp3843
I2515
aS'277'
p3844
aS'323'
p3845
aa(lp3846
I2515
aS'485'
p3847
aS'542'
p3848
aa(lp3849
I2515
aS'640'
p3850
aS'700'
p3851
aa(lp3852
I2515
aS'712'
p3853
aS'773'
p3854
aa(lp3855
I2518
aS'247'
p3856
aS'261'
p3857
aasS'4Q62'
p3858
(lp3859
(lp3860
I2515
aS'160'
p3861
aS'220'
p3862
aasS'3RG1'
p3863
(lp3864
(lp3865
I1141
aS'52'
p3866
aS'156'
p3867
aa(lp3868
I2515
aS'322'
p3869
aS'382'
p3870
aa(lp3871
I2515
aS'437'
p3872
aS'480'
p3873
aa(lp3874
I2515
aS'497'
p3875
aS'555'
p3876
aa(lp3877
I2518
aS'397'
p3878
aS'419'
p3879
aasS'3W3G'
p3880
(lp3881
(lp3882
I2515
aS'54'
p3883
aS'97'
p3884
aa(lp3885
I2515
aS'277'
p3886
aS'323'
p3887
aa(lp3888
I2515
aS'485'
p3889
aS'542'
p3890
aa(lp3891
I2515
aS'640'
p3892
aS'700'
p3893
aa(lp3894
I2515
aS'712'
p3895
aS'773'
p3896
aa(lp3897
I2518
aS'247'
p3898
aS'261'
p3899
aasS'4DIN'
p3900
(lp3901
(lp3902
I252
aS'44'
p3903
aS'297'
p3904
aa(lp3905
I2703
aS'158'
p3906
aS'234'
p3907
aa(lp3908
I2703
aS'272'
p3909
aS'357'
p3910
aa(lp3911
I5310
aS'23'
p3912
aS'58'
p3913
aasS'2NVU'
p3914
(lp3915
(lp3916
I263
aS'33'
p3917
aS'167'
p3918
aa(lp3919
I2656
aS'6'
aS'74'
p3920
aa(lp3921
I4880
aS'2355'
p3922
aS'2440'
p3923
aa(lp3924
I7017
aS'1024'
p3925
aS'1311'
p3926
aa(lp3927
I7257
aS'13'
p3928
aS'518'
p3929
aa(lp3930
I7257
aS'2046'
p3931
aS'2343'
p3932
aasS'1R9H'
p3933
(lp3934
(lp3935
I250
aS'28'
p3936
aS'118'
p3937
aasS'4R6A'
p3938
(lp3939
(lp3940
I2515
aS'62'
p3941
aS'105'
p3942
aa(lp3943
I2515
aS'285'
p3944
aS'331'
p3945
aa(lp3946
I2515
aS'493'
p3947
aS'550'
p3948
aa(lp3949
I2515
aS'648'
p3950
aS'708'
p3951
aa(lp3952
I2515
aS'720'
p3953
aS'781'
p3954
aa(lp3955
I2518
aS'255'
p3956
aS'269'
p3957
aasS'2HHQ'
p3958
(lp3959
(lp3960
I3939
aS'498'
p3961
aS'874'
p3962
aasS'4R6F'
p3963
(lp3964
(lp3965
I2515
aS'58'
p3966
aS'96'
p3967
aa(lp3968
I2515
aS'108'
p3969
aS'168'
p3970
aa(lp3971
I2515
aS'188'
p3972
aS'248'
p3973
aa(lp3974
I2515
aS'268'
p3975
aS'328'
p3976
aa(lp3977
I5439
aS'1'
aS'22'
p3978
aasS'4DIP'
p3979
(lp3980
(lp3981
I250
aS'40'
p3982
aS'132'
p3983
aasS'2HHV'
p3984
(lp3985
(lp3986
I3939
aS'498'
p3987
aS'874'
p3988
aasS'4R6J'
p3989
(lp3990
(lp3991
I2515
aS'85'
p3992
aS'144'
p3993
aa(lp3994
I2515
aS'188'
p3995
aS'248'
p3996
aa(lp3997
I2518
aS'157'
p3998
aS'186'
p3999
aa(lp4000
I5439
aS'1'
aS'22'
p4001
aasS'4CJN'
p4002
(lp4003
(lp4004
I922
aS'28'
p4005
aS'140'
p4006
aa(lp4007
I3563
aS'148'
p4008
aS'309'
p4009
aa(lp4010
I4300
aS'346'
p4011
aS'657'
p4012
aasS'2HHW'
p4013
(lp4014
(lp4015
I3939
aS'498'
p4016
aS'874'
p4017
aasS'2DG4'
p4018
(lp4019
(lp4020
I250
aS'13'
p4021
aS'104'
p4022
aasS'2DG3'
p4023
(lp4024
(lp4025
I250
aS'13'
p4026
aS'104'
p4027
aasS'1BKF'
p4028
(lp4029
(lp4030
I250
aS'13'
p4031
aS'104'
p4032
aasS'3BDP'
p4033
(lp4034
(lp4035
I3939
aS'498'
p4036
aS'874'
p4037
aasS'3WO9'
p4038
(lp4039
(lp4040
I747
aS'36'
p4041
aS'65'
p4042
aa(lp4043
I2515
aS'91'
p4044
aS'150'
p4045
aasS'2DG9'
p4046
(lp4047
(lp4048
I250
aS'13'
p4049
aS'104'
p4050
aasS'4L83'
p4051
(lp4052
(lp4053
I263
aS'9'
aS'151'
p4054
aasS'1FZY'
p4055
(lp4056
(lp4057
I263
aS'6'
aS'142'
p4058
aasS'3KTQ'
p4059
(lp4060
(lp4061
I3939
aS'455'
p4062
aS'828'
p4063
aa(lp4064
I7506
aS'295'
p4065
aS'420'
p4066
aasS'2WC2'
p4067
(lp4068
(lp4069
I2703
aS'22'
p4070
aS'108'
p4071
aa(lp4072
I6009
aS'165'
p4073
aS'196'
p4074
aasS'4U09'
p4075
(lp4076
(lp4077
I2515
aS'43'
p4078
aS'99'
p4079
aa(lp4080
I2515
aS'134'
p4081
aS'190'
p4082
aa(lp4083
I2515
aS'203'
p4084
aS'260'
p4085
aa(lp4086
I2515
aS'295'
p4087
aS'352'
p4088
aasS'4XGO'
p4089
(lp4090
(lp4091
I2515
aS'92'
p4092
aS'151'
p4093
aa(lp4094
I2515
aS'201'
p4095
aS'258'
p4096
aasS'3I54'
p4097
(lp4098
(lp4099
I996
aS'148'
p4100
aS'221'
p4101
aa(lp4102
I2703
aS'29'
p4103
aS'114'
p4104
aasS'4ARN'
p4105
(lp4106
(lp4107
I2515
aS'198'
p4108
aS'255'
p4109
aa(lp4110
I2853
aS'260'
p4111
aS'300'
p4112
aasS'1KTQ'
p4113
(lp4114
(lp4115
I3939
aS'455'
p4116
aS'828'
p4117
aa(lp4118
I7506
aS'295'
p4119
aS'420'
p4120
aasS'4WMC'
p4121
(lp4122
(lp4123
I4300
aS'48'
p4124
aS'259'
p4125
aa(lp4126
I4300
aS'48'
p4127
aS'259'
p4128
aasS'1J74'
p4129
(lp4130
(lp4131
I263
aS'31'
p4132
aS'133'
p4133
aasS'3O2U'
p4134
(lp4135
(lp4136
I263
aS'1057'
p4137
aS'1170'
p4138
aasS'2UZ5'
p4139
(lp4140
(lp4141
I248
aS'2'
aS'36'
p4142
aa(lp4143
I250
aS'44'
p4144
aS'131'
p4145
aasS'4IQC'
p4146
(lp4147
(lp4148
I250
aS'13'
p4149
aS'104'
p4150
aasS'2HVH'
p4151
(lp4152
(lp4153
I3939
aS'498'
p4154
aS'874'
p4155
aasS'4ELT'
p4156
(lp4157
(lp4158
I3939
aS'455'
p4159
aS'828'
p4160
aa(lp4161
I7506
aS'295'
p4162
aS'420'
p4163
aasS'2WQV'
p4164
(lp4165
(lp4166
I2515
aS'98'
p4167
aS'154'
p4168
aa(lp4169
I2520
aS'164'
p4170
aS'204'
p4171
aa(lp4172
I5439
aS'37'
p4173
aS'58'
p4174
aa(lp4175
I5990
aS'264'
p4176
aS'320'
p4177
aasS'2WQW'
p4178
(lp4179
(lp4180
I2515
aS'98'
p4181
aS'154'
p4182
aa(lp4183
I2520
aS'164'
p4184
aS'203'
p4185
aa(lp4186
I5439
aS'37'
p4187
aS'58'
p4188
aa(lp4189
I5990
aS'264'
p4190
aS'320'
p4191
aasS'2WQU'
p4192
(lp4193
(lp4194
I2515
aS'98'
p4195
aS'154'
p4196
aa(lp4197
I2520
aS'164'
p4198
aS'204'
p4199
aa(lp4200
I5439
aS'36'
p4201
aS'58'
p4202
aa(lp4203
I5990
aS'264'
p4204
aS'320'
p4205
aasS'2GZW'
p4206
(lp4207
(lp4208
I2703
aS'22'
p4209
aS'108'
p4210
aa(lp4211
I6009
aS'165'
p4212
aS'196'
p4213
aasS'3JYM'
p4214
(lp4215
(lp4216
I250
aS'56'
p4217
aS'145'
p4218
aa(lp4219
I250
aS'171'
p4220
aS'262'
p4221
aa(lp4222
I250
aS'287'
p4223
aS'381'
p4224
aasS'2WQX'
p4225
(lp4226
(lp4227
I2515
aS'98'
p4228
aS'154'
p4229
aa(lp4230
I2520
aS'164'
p4231
aS'201'
p4232
aa(lp4233
I5439
aS'36'
p4234
aS'58'
p4235
aa(lp4236
I5990
aS'264'
p4237
aS'320'
p4238
aasS'1Y8X'
p4239
(lp4240
(lp4241
I263
aS'33'
p4242
aS'167'
p4243
aa(lp4244
I4880
aS'355'
p4245
aS'440'
p4246
aasS'3OJA'
p4247
(lp4248
(lp4249
I2515
aS'214'
p4250
aS'270'
p4251
aa(lp4252
I2515
aS'251'
p4253
aS'310'
p4254
aa(lp4255
I2515
aS'360'
p4256
aS'417'
p4257
aa(lp4258
I2518
aS'57'
p4259
aS'76'
p4260
aasS'1CX4'
p4261
(lp4262
(lp4263
I2703
aS'172'
p4264
aS'256'
p4265
aa(lp4266
I2703
aS'293'
p4267
aS'383'
p4268
aasS'4L11'
p4269
(lp4270
(lp4271
I2703
aS'629'
p4272
aS'710'
p4273
aasS'4FMZ'
p4274
(lp4275
(lp4276
I2515
aS'255'
p4277
aS'310'
p4278
aa(lp4279
I2520
aS'99'
p4280
aS'141'
p4281
aa(lp4282
I2520
aS'143'
p4283
aS'186'
p4284
aa(lp4285
I5439
aS'37'
p4286
aS'59'
p4287
aasS'3JW0'
p4288
(lp4289
(lp4290
I263
aS'5'
aS'141'
p4291
aa(lp4292
I2656
aS'6'
aS'74'
p4293
aa(lp4294
I7366
aS'650'
p4295
aS'950'
p4296
aasS'3DV8'
p4297
(lp4298
(lp4299
I996
aS'150'
p4300
aS'215'
p4301
aa(lp4302
I2703
aS'28'
p4303
aS'115'
p4304
aasS'4DRK'
p4305
(lp4306
(lp4307
I250
aS'44'
p4308
aS'135'
p4309
aasS'4QJG'
p4310
(lp4311
(lp4312
I4300
aS'631'
p4313
aS'941'
p4314
aasS'4DRO'
p4315
(lp4316
(lp4317
I250
aS'44'
p4318
aS'135'
p4319
aasS'1GWB'
p4320
(lp4321
(lp4322
I747
aS'19'
p4323
aS'46'
p4324
aa(lp4325
I2515
aS'116'
p4326
aS'176'
p4327
aasS'2MLZ'
p4328
(lp4329
(lp4330
I250
aS'158'
p4331
aS'236'
p4332
aa(lp4333
I2810
aS'262'
p4334
aS'412'
p4335
aa(lp4336
I5527
aS'365'
p4337
aS'430'
p4338
aa(lp4339
I6951
aS'1'
aS'143'
p4340
aasS'2MLY'
p4341
(lp4342
(lp4343
I250
aS'158'
p4344
aS'236'
p4345
aa(lp4346
I2810
aS'262'
p4347
aS'412'
p4348
aa(lp4349
I5527
aS'64'
p4350
aS'149'
p4351
aa(lp4352
I6951
aS'1'
aS'143'
p4353
aasS'2MLX'
p4354
(lp4355
(lp4356
I250
aS'158'
p4357
aS'236'
p4358
aa(lp4359
I2810
aS'262'
p4360
aS'412'
p4361
aa(lp4362
I5527
aS'220'
p4363
aS'297'
p4364
aa(lp4365
I6951
aS'1'
aS'143'
p4366
aasS'3UIO'
p4367
(lp4368
(lp4369
I263
aS'8'
aS'150'
p4370
aa(lp4371
I2362
aS'432'
p4372
aS'585'
p4373
aa(lp4374
I5132
aS'18'
p4375
aS'86'
p4376
aa(lp4377
I6663
aS'2631'
p4378
aS'2691'
p4379
aasS'3UIN'
p4380
(lp4381
(lp4382
I263
aS'8'
aS'150'
p4383
aa(lp4384
I2362
aS'432'
p4385
aS'585'
p4386
aa(lp4387
I5132
aS'18'
p4388
aS'86'
p4389
aa(lp4390
I6663
aS'2631'
p4391
aS'2691'
p4392
aasS'3UIP'
p4393
(lp4394
(lp4395
I263
aS'8'
aS'150'
p4396
aa(lp4397
I2362
aS'432'
p4398
aS'585'
p4399
aa(lp4400
I5132
aS'22'
p4401
aS'91'
p4402
aa(lp4403
I6663
aS'2631'
p4404
aS'2690'
p4405
aasS'3NI6'
p4406
(lp4407
(lp4408
I250
aS'32'
p4409
aS'122'
p4410
aasS'5DIT'
p4411
(lp4412
(lp4413
I250
aS'44'
p4414
aS'135'
p4415
aasS'2IWC'
p4416
(lp4417
(lp4418
I4300
aS'376'
p4419
aS'580'
p4420
aasS'4DRP'
p4421
(lp4422
(lp4423
I250
aS'44'
p4424
aS'135'
p4425
aasS'4DRQ'
p4426
(lp4427
(lp4428
I250
aS'44'
p4429
aS'135'
p4430
aasS'4R8H'
p4431
(lp4432
(lp4433
I2703
aS'23'
p4434
aS'109'
p4435
aa(lp4436
I6009
aS'166'
p4437
aS'197'
p4438
aasS'2IWD'
p4439
(lp4440
(lp4441
I4300
aS'376'
p4442
aS'580'
p4443
aasS'4J0M'
p4444
(lp4445
(lp4446
I2515
aS'665'
p4447
aS'723'
p4448
aa(lp4449
I2518
aS'176'
p4450
aS'195'
p4451
aa(lp4452
I2518
aS'202'
p4453
aS'217'
p4454
aa(lp4455
I2518
aS'376'
p4456
aS'398'
p4457
aa(lp4458
I7333
aS'34'
p4459
aS'74'
p4460
aasS'2VRR'
p4461
(lp4462
(lp4463
I263
aS'8'
aS'150'
p4464
aa(lp4465
I5132
aS'22'
p4466
aS'91'
p4467
aasS'1KT1'
p4468
(lp4469
(lp4470
I250
aS'44'
p4471
aS'135'
p4472
aa(lp4473
I250
aS'159'
p4474
aS'247'
p4475
aa(lp4476
I2998
aS'352'
p4477
aS'384'
p4478
aa(lp4479
I5736
aS'267'
p4480
aS'347'
p4481
aasS'4JFL'
p4482
(lp4483
(lp4484
I250
aS'44'
p4485
aS'135'
p4486
aasS'2L2S'
p4487
(lp4488
(lp4489
I250
aS'26'
p4490
aS'115'
p4491
aasS'1I7K'
p4492
(lp4493
(lp4494
I263
aS'34'
p4495
aS'168'
p4496
aasS'2UZX'
p4497
(lp4498
(lp4499
I254
aS'520'
p4500
aS'559'
p4501
aa(lp4502
I2515
aS'98'
p4503
aS'154'
p4504
aa(lp4505
I2520
aS'164'
p4506
aS'204'
p4507
aa(lp4508
I3612
aS'563'
p4509
aS'654'
p4510
aa(lp4511
I3612
aS'657'
p4512
aS'658'
p4513
aa(lp4514
I5439
aS'36'
p4515
aS'58'
p4516
aa(lp4517
I5990
aS'264'
p4518
aS'320'
p4519
aa(lp4520
I7242
aS'59'
p4521
aS'474'
p4522
aasS'3ONG'
p4523
(lp4524
(lp4525
I263
aS'8'
aS'148'
p4526
aasS'2ESP'
p4527
(lp4528
(lp4529
I263
aS'5'
aS'141'
p4530
aasS'2ESQ'
p4531
(lp4532
(lp4533
I263
aS'5'
aS'141'
p4534
aasS'3FSH'
p4535
(lp4536
(lp4537
I263
aS'8'
aS'158'
p4538
aasS'1CGP'
p4539
(lp4540
(lp4541
I2703
aS'22'
p4542
aS'108'
p4543
aa(lp4544
I6009
aS'165'
p4545
aS'196'
p4546
aasS'1UR6'
p4547
(lp4548
(lp4549
I263
aS'5'
aS'141'
p4550
aa(lp4551
I1721
aS'14'
p4552
aS'60'
p4553
aasS'1IX5'
p4554
(lp4555
(lp4556
I250
aS'6'
aS'150'
p4557
aasS'1J7D'
p4558
(lp4559
(lp4560
I263
aS'31'
p4561
aS'133'
p4562
aa(lp4563
I263
aS'7'
aS'142'
p4564
aasS'2ESO'
p4565
(lp4566
(lp4567
I263
aS'5'
aS'141'
p4568
aasS'4WM9'
p4569
(lp4570
(lp4571
I4300
aS'68'
p4572
aS'269'
p4573
aasS'3ZYN'
p4574
(lp4575
(lp4576
I2515
aS'90'
p4577
aS'148'
p4578
aa(lp4579
I2515
aS'160'
p4580
aS'221'
p4581
aa(lp4582
I2515
aS'230'
p4583
aS'264'
p4584
aa(lp4585
I2515
aS'268'
p4586
aS'314'
p4587
aasS'3ZYO'
p4588
(lp4589
(lp4590
I2515
aS'90'
p4591
aS'148'
p4592
aa(lp4593
I2515
aS'160'
p4594
aS'221'
p4595
aa(lp4596
I2515
aS'230'
p4597
aS'264'
p4598
aa(lp4599
I2515
aS'268'
p4600
aS'314'
p4601
aa(lp4602
I5590
aS'366'
p4603
aS'454'
p4604
aasS'4IQ2'
p4605
(lp4606
(lp4607
I250
aS'13'
p4608
aS'104'
p4609
aasS'4GPR'
p4610
(lp4611
(lp4612
I263
aS'5'
aS'141'
p4613
aa(lp4614
I263
aS'5'
aS'141'
p4615
aasS'5B8I'
p4616
(lp4617
(lp4618
I250
aS'25'
p4619
aS'121'
p4620
aa(lp4621
I959
aS'27'
p4622
aS'45'
p4623
aa(lp4624
I1697
aS'102'
p4625
aS'302'
p4626
aa(lp4627
I2637
aS'92'
p4628
aS'155'
p4629
aasS'2WGI'
p4630
(lp4631
(lp4632
I4300
aS'56'
p4633
aS'259'
p4634
aasS'4JFJ'
p4635
(lp4636
(lp4637
I250
aS'44'
p4638
aS'135'
p4639
aasS'4V2C'
p4640
(lp4641
(lp4642
I2515
aS'98'
p4643
aS'145'
p4644
aa(lp4645
I2515
aS'182'
p4646
aS'242'
p4647
aa(lp4648
I2515
aS'253'
p4649
aS'310'
p4650
aa(lp4651
I3321
aS'338'
p4652
aS'361'
p4653
aasS'1U9A'
p4654
(lp4655
(lp4656
I263
aS'8'
aS'150'
p4657
aasS'4JFM'
p4658
(lp4659
(lp4660
I250
aS'44'
p4661
aS'135'
p4662
aasS'3RPQ'
p4663
(lp4664
(lp4665
I2703
aS'22'
p4666
aS'108'
p4667
aa(lp4668
I6009
aS'165'
p4669
aS'196'
p4670
aasS'1U9B'
p4671
(lp4672
(lp4673
I263
aS'8'
aS'150'
p4674
aasS'4QX5'
p4675
(lp4676
(lp4677
I2703
aS'255'
p4678
aS'340'
p4679
aasS'1HXV'
p4680
(lp4681
(lp4682
I250
aS'29'
p4683
aS'109'
p4684
aasS'2MPH'
p4685
(lp4686
(lp4687
I250
aS'122'
p4688
aS'221'
p4689
aasS'3RPG'
p4690
(lp4691
(lp4692
I263
aS'5'
aS'141'
p4693
aa(lp4694
I787
aS'18'
p4695
aS'56'
p4696
aa(lp4697
I787
aS'51'
p4698
aS'90'
p4699
aasS'4CIL'
p4700
(lp4701
(lp4702
I1082
aS'36'
p4703
aS'63'
p4704
aa(lp4705
I2515
aS'98'
p4706
aS'154'
p4707
aa(lp4708
I2520
aS'164'
p4709
aS'204'
p4710
aa(lp4711
I5990
aS'264'
p4712
aS'320'
p4713
aasS'3Q7Z'
p4714
(lp4715
(lp4716
I4300
aS'377'
p4717
aS'577'
p4718
aasS'4ARR'
p4719
(lp4720
(lp4721
I2515
aS'198'
p4722
aS'255'
p4723
aa(lp4724
I2853
aS'260'
p4725
aS'299'
p4726
aasS'3PRD'
p4727
(lp4728
(lp4729
I250
aS'3'
aS'88'
p4730
aasS'3PRB'
p4731
(lp4732
(lp4733
I250
aS'3'
aS'88'
p4734
aasS'2WGV'
p4735
(lp4736
(lp4737
I4300
aS'56'
p4738
aS'259'
p4739
aasS'3Q7V'
p4740
(lp4741
(lp4742
I4300
aS'47'
p4743
aS'247'
p4744
aa(lp4745
I4300
aS'47'
p4746
aS'247'
p4747
aasS'2Z80'
p4748
(lp4749
(lp4750
I2515
aS'77'
p4751
aS'134'
p4752
aa(lp4753
I2853
aS'316'
p4754
aS'353'
p4755
aasS'2Z81'
p4756
(lp4757
(lp4758
I219
aS'144'
p4759
aS'206'
p4760
aa(lp4761
I2515
aS'77'
p4762
aS'135'
p4763
aa(lp4764
I2515
aS'477'
p4765
aS'533'
p4766
aa(lp4767
I2853
aS'538'
p4768
aS'575'
p4769
aasS'2Z82'
p4770
(lp4771
(lp4772
I219
aS'144'
p4773
aS'206'
p4774
aa(lp4775
I2515
aS'77'
p4776
aS'135'
p4777
aa(lp4778
I2515
aS'477'
p4779
aS'533'
p4780
aa(lp4781
I2853
aS'538'
p4782
aS'575'
p4783
aasS'4U3T'
p4784
(lp4785
(lp4786
I4300
aS'263'
p4787
aS'557'
p4788
aasS'4DSI'
p4789
(lp4790
(lp4791
I3939
aS'498'
p4792
aS'874'
p4793
aasS'2QGX'
p4794
(lp4795
(lp4796
I263
aS'70'
p4797
aS'159'
p4798
aasS'2FKE'
p4799
(lp4800
(lp4801
I250
aS'13'
p4802
aS'104'
p4803
aasS'3E5U'
p4804
(lp4805
(lp4806
I996
aS'152'
p4807
aS'224'
p4808
aa(lp4809
I2703
aS'35'
p4810
aS'118'
p4811
aasS'4BVU'
p4812
(lp4813
(lp4814
I263
aS'5'
aS'141'
p4815
aa(lp4816
I2656
aS'206'
p4817
aS'274'
p4818
aasS'3E5Q'
p4819
(lp4820
(lp4821
I996
aS'152'
p4822
aS'224'
p4823
aa(lp4824
I2703
aS'35'
p4825
aS'118'
p4826
aasS'4LI2'
p4827
(lp4828
(lp4829
I2515
aS'63'
p4830
aS'120'
p4831
aa(lp4832
I2515
aS'180'
p4833
aS'240'
p4834
aa(lp4835
I2515
aS'251'
p4836
aS'307'
p4837
aa(lp4838
I2515
aS'368'
p4839
aS'428'
p4840
aa(lp4841
I2518
aS'157'
p4842
aS'179'
p4843
aa(lp4844
I2960
aS'42'
p4845
aS'143'
p4846
aasS'3U11'
p4847
(lp4848
(lp4849
I2703
aS'614'
p4850
aS'696'
p4851
aasS'3E5X'
p4852
(lp4853
(lp4854
I996
aS'152'
p4855
aS'222'
p4856
aa(lp4857
I2703
aS'35'
p4858
aS'118'
p4859
aasS'4EZ6'
p4860
(lp4861
(lp4862
I3939
aS'498'
p4863
aS'874'
p4864
aasS'1TAU'
p4865
(lp4866
(lp4867
I3939
aS'455'
p4868
aS'828'
p4869
aa(lp4870
I5197
aS'175'
p4871
aS'262'
p4872
aa(lp4873
I5644
aS'13'
p4874
aS'158'
p4875
aa(lp4876
I7506
aS'295'
p4877
aS'420'
p4878
aasS'4JV4'
p4879
(lp4880
(lp4881
I2703
aS'154'
p4882
aS'234'
p4883
aa(lp4884
I2703
aS'272'
p4885
aS'357'
p4886
aasS'4YFU'
p4887
(lp4888
(lp4889
I3939
aS'498'
p4890
aS'874'
p4891
aasS'3U10'
p4892
(lp4893
(lp4894
I2703
aS'563'
p4895
aS'645'
p4896
aasS'4BHP'
p4897
(lp4898
(lp4899
I2703
aS'22'
p4900
aS'108'
p4901
aa(lp4902
I6009
aS'165'
p4903
aS'196'
p4904
aasS'4EZ9'
p4905
(lp4906
(lp4907
I3939
aS'498'
p4908
aS'874'
p4909
aasS'2YBF'
p4910
(lp4911
(lp4912
I263
aS'8'
aS'143'
p4913
aasS'3PLQ'
p4914
(lp4915
(lp4916
I2703
aS'154'
p4917
aS'234'
p4918
aasS'4TW8'
p4919
(lp4920
(lp4921
I250
aS'44'
p4922
aS'135'
p4923
aa(lp4924
I250
aS'162'
p4925
aS'249'
p4926
aasS'1FOF'
p4927
(lp4928
(lp4929
I4300
aS'56'
p4930
aS'259'
p4931
aasS'1XA7'
p4932
(lp4933
(lp4934
I4300
aS'31'
p4935
aS'247'
p4936
aasS'4BV4'
p4937
(lp4938
(lp4939
I2515
aS'184'
p4940
aS'233'
p4941
aa(lp4942
I2515
aS'250'
p4943
aS'304'
p4944
aa(lp4945
I2515
aS'367'
p4946
aS'424'
p4947
aa(lp4948
I2853
aS'429'
p4949
aS'467'
p4950
aa(lp4951
I3838
aS'8'
aS'102'
p4952
aasS'1XA1'
p4953
(lp4954
(lp4955
I4300
aS'31'
p4956
aS'247'
p4957
aasS'3PX4'
p4958
(lp4959
(lp4960
I3939
aS'498'
p4961
aS'874'
p4962
aasS'1EYM'
p4963
(lp4964
(lp4965
I250
aS'13'
p4966
aS'104'
p4967
aasS'3M8R'
p4968
(lp4969
(lp4970
I3939
aS'455'
p4971
aS'828'
p4972
aa(lp4973
I7506
aS'295'
p4974
aS'420'
p4975
aasS'3M8S'
p4976
(lp4977
(lp4978
I3939
aS'455'
p4979
aS'828'
p4980
aa(lp4981
I7506
aS'295'
p4982
aS'420'
p4983
aasS'4TW7'
p4984
(lp4985
(lp4986
I250
aS'44'
p4987
aS'135'
p4988
aasS'4TW6'
p4989
(lp4990
(lp4991
I250
aS'44'
p4992
aS'135'
p4993
aasS'1XKU'
p4994
(lp4995
(lp4996
I747
aS'25'
p4997
aS'51'
p4998
aa(lp4999
I2515
aS'57'
p5000
aS'112'
p5001
aa(lp5002
I2515
aS'122'
p5003
aS'183'
p5004
aa(lp5005
I2515
aS'192'
p5006
aS'252'
p5007
aasS'3PX6'
p5008
(lp5009
(lp5010
I3939
aS'498'
p5011
aS'874'
p5012
aasS'1G6N'
p5013
(lp5014
(lp5015
I2703
aS'22'
p5016
aS'108'
p5017
aa(lp5018
I6009
aS'165'
p5019
aS'196'
p5020
aasS'4R07'
p5021
(lp5022
(lp5023
I2515
aS'54'
p5024
aS'97'
p5025
aa(lp5026
I2515
aS'277'
p5027
aS'323'
p5028
aa(lp5029
I2515
aS'485'
p5030
aS'542'
p5031
aa(lp5032
I2515
aS'640'
p5033
aS'700'
p5034
aa(lp5035
I2515
aS'712'
p5036
aS'773'
p5037
aa(lp5038
I2515
aS'54'
p5039
aS'97'
p5040
aa(lp5041
I2515
aS'277'
p5042
aS'323'
p5043
aa(lp5044
I2515
aS'485'
p5045
aS'542'
p5046
aa(lp5047
I2515
aS'640'
p5048
aS'700'
p5049
aa(lp5050
I2515
aS'712'
p5051
aS'773'
p5052
aa(lp5053
I2518
aS'247'
p5054
aS'261'
p5055
aa(lp5056
I2518
aS'247'
p5057
aS'261'
p5058
aasS'2ZCW'
p5059
(lp5060
(lp5061
I996
aS'120'
p5062
aS'193'
p5063
aa(lp5064
I2703
aS'7'
aS'80'
p5065
aasS'2XKO'
p5066
(lp5067
(lp5068
I996
aS'147'
p5069
aS'218'
p5070
aa(lp5071
I2703
aS'25'
p5072
aS'111'
p5073
aa(lp5074
I3802
aS'4'
aS'88'
p5075
aasS'1KFD'
p5076
(lp5077
(lp5078
I3939
aS'551'
p5079
aS'925'
p5080
aa(lp5081
I6020
aS'330'
p5082
aS'517'
p5083
aasS'3CLP'
p5084
(lp5085
(lp5086
I2703
aS'254'
p5087
aS'333'
p5088
aasS'4MUV'
p5089
(lp5090
(lp5091
I2703
aS'254'
p5092
aS'333'
p5093
aasS'4E0D'
p5094
(lp5095
(lp5096
I3939
aS'498'
p5097
aS'874'
p5098
aasS'3P72'
p5099
(lp5100
(lp5101
I747
aS'3'
aS'30'
p5102
aa(lp5103
I2515
aS'100'
p5104
aS'160'
p5105
aasS'2XKP'
p5106
(lp5107
(lp5108
I996
aS'147'
p5109
aS'218'
p5110
aa(lp5111
I2703
aS'25'
p5112
aS'111'
p5113
aasS'4BYY'
p5114
(lp5115
(lp5116
I996
aS'151'
p5117
aS'224'
p5118
aa(lp5119
I2703
aS'32'
p5120
aS'117'
p5121
aasS'4JF4'
p5122
(lp5123
(lp5124
I4300
aS'67'
p5125
aS'260'
p5126
aasS'1KFS'
p5127
(lp5128
(lp5129
I3939
aS'551'
p5130
aS'925'
p5131
aa(lp5132
I6020
aS'330'
p5133
aS'517'
p5134
aasS'4JF6'
p5135
(lp5136
(lp5137
I4300
aS'67'
p5138
aS'260'
p5139
aasS'4QXF'
p5140
(lp5141
(lp5142
I747
aS'29'
p5143
aS'55'
p5144
aa(lp5145
I2515
aS'61'
p5146
aS'117'
p5147
aa(lp5148
I2515
aS'177'
p5149
aS'237'
p5150
aa(lp5151
I2853
aS'287'
p5152
aS'324'
p5153
aa(lp5154
I2960
aS'52'
p5155
aS'130'
p5156
aasS'4LAW'
p5157
(lp5158
(lp5159
I250
aS'44'
p5160
aS'135'
p5161
aa(lp5162
I250
aS'162'
p5163
aS'249'
p5164
aasS'4KU7'
p5165
(lp5166
(lp5167
I2703
aS'255'
p5168
aS'340'
p5169
aasS'3OGJ'
p5170
(lp5171
(lp5172
I2703
aS'137'
p5173
aS'218'
p5174
aasS'4DF8'
p5175
(lp5176
(lp5177
I3939
aS'455'
p5178
aS'828'
p5179
aa(lp5180
I7506
aS'295'
p5181
aS'420'
p5182
aasS'4KU8'
p5183
(lp5184
(lp5185
I2703
aS'255'
p5186
aS'340'
p5187
aasS'3UN7'
p5188
(lp5189
(lp5190
I4300
aS'160'
p5191
aS'484'
p5192
aasS'2KFZ'
p5193
(lp5194
(lp5195
I3939
aS'551'
p5196
aS'925'
p5197
aa(lp5198
I6020
aS'330'
p5199
aS'517'
p5200
aasS'2V2F'
p5201
(lp5202
(lp5203
I4300
aS'331'
p5204
aS'595'
p5205
aasS'1K57'
p5206
(lp5207
(lp5208
I4300
aS'56'
p5209
aS'259'
p5210
aa(lp5211
I4300
aS'56'
p5212
aS'259'
p5213
aasS'1VP6'
p5214
(lp5215
(lp5216
I2703
aS'254'
p5217
aS'333'
p5218
aasS'3WN4'
p5219
(lp5220
(lp5221
I2515
aS'54'
p5222
aS'97'
p5223
aa(lp5224
I2515
aS'277'
p5225
aS'323'
p5226
aa(lp5227
I2515
aS'485'
p5228
aS'542'
p5229
aa(lp5230
I2515
aS'640'
p5231
aS'700'
p5232
aa(lp5233
I2515
aS'712'
p5234
aS'773'
p5235
aa(lp5236
I2518
aS'247'
p5237
aS'261'
p5238
aasS'1QCQ'
p5239
(lp5240
(lp5241
I263
aS'6'
aS'142'
p5242
aasS'3ZNT'
p5243
(lp5244
(lp5245
I4300
aS'68'
p5246
aS'269'
p5247
aasS'4QDH'
p5248
(lp5249
(lp5250
I219
aS'283'
p5251
aS'362'
p5252
aa(lp5253
I747
aS'1'
aS'27'
p5254
aa(lp5255
I2515
aS'31'
p5256
aS'88'
p5257
aa(lp5258
I2515
aS'90'
p5259
aS'135'
p5260
aa(lp5261
I2515
aS'233'
p5262
aS'269'
p5263
aa(lp5264
I2853
aS'369'
p5265
aS'406'
p5266
aasS'2E2C'
p5267
(lp5268
(lp5269
I263
aS'34'
p5270
aS'168'
p5271
aasS'5D1L'
p5272
(lp5273
(lp5274
I263
aS'6'
aS'142'
p5275
aa(lp5276
I1718
aS'137'
p5277
aS'205'
p5278
aasS'2KXL'
p5279
(lp5280
(lp5281
I2703
aS'254'
p5282
aS'333'
p5283
aasS'4I0B'
p5284
(lp5285
(lp5286
I2703
aS'23'
p5287
aS'109'
p5288
aa(lp5289
I6009
aS'166'
p5290
aS'197'
p5291
aasS'4DT4'
p5292
(lp5293
(lp5294
I250
aS'5'
aS'141'
p5295
aasS'5D1I'
p5296
(lp5297
(lp5298
I2703
aS'35'
p5299
aS'118'
p5300
aasS'2KZM'
p5301
(lp5302
(lp5303
I3939
aS'551'
p5304
aS'925'
p5305
aa(lp5306
I6020
aS'330'
p5307
aS'517'
p5308
aasS'3UGB'
p5309
(lp5310
(lp5311
I263
aS'5'
aS'141'
p5312
aa(lp5313
I2656
aS'6'
aS'74'
p5314
aasS'4Z0C'
p5315
(lp5316
(lp5317
I2515
aS'132'
p5318
aS'186'
p5319
aa(lp5320
I2515
aS'421'
p5321
aS'477'
p5322
aa(lp5323
I2515
aS'492'
p5324
aS'552'
p5325
aa(lp5326
I2515
aS'594'
p5327
aS'653'
p5328
aa(lp5329
I2515
aS'672'
p5330
aS'731'
p5331
aa(lp5332
I2518
aS'106'
p5333
aS'126'
p5334
aasS'3CIY'
p5335
(lp5336
(lp5337
I2515
aS'76'
p5338
aS'135'
p5339
aa(lp5340
I2515
aS'274'
p5341
aS'330'
p5342
aa(lp5343
I2515
aS'345'
p5344
aS'387'
p5345
aa(lp5346
I2515
aS'409'
p5347
aS'467'
p5348
aa(lp5349
I2515
aS'480'
p5350
aS'542'
p5351
aa(lp5352
I2515
aS'562'
p5353
aS'622'
p5354
aa(lp5355
I2518
aS'52'
p5356
aS'71'
p5357
aa(lp5358
I2518
aS'198'
p5359
aS'218'
p5360
aasS'1K4E'
p5361
(lp5362
(lp5363
I4300
aS'56'
p5364
aS'259'
p5365
aasS'1K4F'
p5366
(lp5367
(lp5368
I4300
aS'56'
p5369
aS'259'
p5370
aasS'1N1A'
p5371
(lp5372
(lp5373
I250
aS'44'
p5374
aS'135'
p5375
aasS'2KZZ'
p5376
(lp5377
(lp5378
I3939
aS'551'
p5379
aS'925'
p5380
aa(lp5381
I6020
aS'330'
p5382
aS'517'
p5383
aasS'3PY8'
p5384
(lp5385
(lp5386
I3939
aS'455'
p5387
aS'828'
p5388
aa(lp5389
I7506
aS'295'
p5390
aS'420'
p5391
aasS'1M9S'
p5392
(lp5393
(lp5394
I722
aS'394'
p5395
aS'462'
p5396
aa(lp5397
I722
aS'472'
p5398
aS'546'
p5399
aa(lp5400
I722
aS'555'
p5401
aS'624'
p5402
aa(lp5403
I1728
aS'391'
p5404
aS'319'
p5405
aa(lp5406
I2515
aS'98'
p5407
aS'154'
p5408
aa(lp5409
I2520
aS'164'
p5410
aS'204'
p5411
aa(lp5412
I5439
aS'37'
p5413
aS'58'
p5414
aa(lp5415
I5990
aS'264'
p5416
aS'319'
p5417
aasS'1L3V'
p5418
(lp5419
(lp5420
I3939
aS'498'
p5421
aS'874'
p5422
aasS'1Q6U'
p5423
(lp5424
(lp5425
I248
aS'15'
p5426
aS'127'
p5427
aa(lp5428
I250
aS'134'
p5429
aS'221'
p5430
aasS'3QNB'
p5431
(lp5432
(lp5433
I4300
aS'56'
p5434
aS'259'
p5435
aasS'3QNC'
p5436
(lp5437
(lp5438
I4300
aS'56'
p5439
aS'259'
p5440
aasS'2UWX'
p5441
(lp5442
(lp5443
I4300
aS'425'
p5444
aS'657'
p5445
aasS'2KLY'
p5446
(lp5447
(lp5448
I263
aS'8'
aS'158'
p5449
aasS'1QSY'
p5450
(lp5451
(lp5452
I3939
aS'455'
p5453
aS'828'
p5454
aa(lp5455
I7506
aS'295'
p5456
aS'420'
p5457
aasS'4I09'
p5458
(lp5459
(lp5460
I2703
aS'23'
p5461
aS'109'
p5462
aa(lp5463
I6009
aS'166'
p5464
aS'197'
p5465
aasS'2F2D'
p5466
(lp5467
(lp5468
I250
aS'58'
p5469
aS'143'
p5470
aasS'1ZDN'
p5471
(lp5472
(lp5473
I263
aS'16'
p5474
aS'149'
p5475
aasS'4I01'
p5476
(lp5477
(lp5478
I2703
aS'23'
p5479
aS'109'
p5480
aa(lp5481
I6009
aS'166'
p5482
aS'197'
p5483
aasS'1L3T'
p5484
(lp5485
(lp5486
I3939
aS'498'
p5487
aS'874'
p5488
aasS'4I02'
p5489
(lp5490
(lp5491
I2703
aS'23'
p5492
aS'109'
p5493
aa(lp5494
I6009
aS'166'
p5495
aS'197'
p5496
aasS'1Q6H'
p5497
(lp5498
(lp5499
I248
aS'15'
p5500
aS'127'
p5501
aa(lp5502
I250
aS'134'
p5503
aS'221'
p5504
aasS'1Q6I'
p5505
(lp5506
(lp5507
I248
aS'15'
p5508
aS'127'
p5509
aa(lp5510
I250
aS'134'
p5511
aS'221'
p5512
aasS'1OOK'
p5513
(lp5514
(lp5515
I747
aS'3'
aS'30'
p5516
aa(lp5517
I2515
aS'100'
p5518
aS'160'
p5519
aa(lp5520
I2879
aS'16'
p5521
aS'238'
p5522
aa(lp5523
I4359
aS'1H'
p5524
aS'15'
p5525
aasS'1M0Z'
p5526
(lp5527
(lp5528
I747
aS'3'
aS'30'
p5529
aa(lp5530
I2515
aS'100'
p5531
aS'160'
p5532
aasS'4QPL'
p5533
(lp5534
(lp5535
I263
aS'5'
aS'141'
p5536
aa(lp5537
I739
aS'102'
p5538
aS'167'
p5539
aa(lp5540
I5647
aS'35'
p5541
aS'78'
p5542
aasS'3PR9'
p5543
(lp5544
(lp5545
I250
aS'3'
aS'89'
p5546
aasS'4J4N'
p5547
(lp5548
(lp5549
I250
aS'33'
p5550
aS'123'
p5551
aasS'4J4O'
p5552
(lp5553
(lp5554
I250
aS'32'
p5555
aS'122'
p5556
aasS'2XY7'
p5557
(lp5558
(lp5559
I3939
aS'498'
p5560
aS'874'
p5561
aasS'2XY6'
p5562
(lp5563
(lp5564
I3939
aS'498'
p5565
aS'874'
p5566
aa(lp5567
I3939
aS'498'
p5568
aS'874'
p5569
aasS'3BZH'
p5570
(lp5571
(lp5572
I263
aS'51'
p5573
aS'187'
p5574
aasS'4W5V'
p5575
(lp5576
(lp5577
I263
aS'8'
aS'150'
p5578
aa(lp5579
I3772
aS'452'
p5580
aS'537'
p5581
aasS'3VSL'
p5582
(lp5583
(lp5584
I3563
aS'66'
p5585
aS'303'
p5586
aa(lp5587
I4300
aS'351'
p5588
aS'656'
p5589
aasS'3VSK'
p5590
(lp5591
(lp5592
I3563
aS'66'
p5593
aS'303'
p5594
aa(lp5595
I4300
aS'351'
p5596
aS'656'
p5597
aasS'1XC9'
p5598
(lp5599
(lp5600
I3939
aS'498'
p5601
aS'874'
p5602
aasS'2V9T'
p5603
(lp5604
(lp5605
I747
aS'273'
p5606
aS'299'
p5607
aa(lp5608
I2515
aS'302'
p5609
aS'360'
p5610
aa(lp5611
I2515
aS'373'
p5612
aS'431'
p5613
aa(lp5614
I3321
aS'455'
p5615
aS'478'
p5616
aa(lp5617
I5590
aS'68'
p5618
aS'165'
p5619
aasS'2V9S'
p5620
(lp5621
(lp5622
I747
aS'273'
p5623
aS'299'
p5624
aa(lp5625
I2515
aS'302'
p5626
aS'360'
p5627
aa(lp5628
I2515
aS'373'
p5629
aS'431'
p5630
aa(lp5631
I3321
aS'455'
p5632
aS'478'
p5633
aasS'4NNR'
p5634
(lp5635
(lp5636
I250
aS'43'
p5637
aS'134'
p5638
aasS'4OFF'
p5639
(lp5640
(lp5641
I2703
aS'438'
p5642
aS'518'
p5643
aasS'3A79'
p5644
(lp5645
(lp5646
I219
aS'144'
p5647
aS'206'
p5648
aa(lp5649
I2515
aS'77'
p5650
aS'135'
p5651
aa(lp5652
I2515
aS'477'
p5653
aS'533'
p5654
aa(lp5655
I2515
aS'77'
p5656
aS'133'
p5657
aa(lp5658
I2515
aS'450'
p5659
aS'507'
p5660
aa(lp5661
I2853
aS'538'
p5662
aS'575'
p5663
aa(lp5664
I2853
aS'512'
p5665
aS'557'
p5666
aasS'3OF1'
p5667
(lp5668
(lp5669
I2703
aS'203'
p5670
aS'282'
p5671
aa(lp5672
I2703
aS'322'
p5673
aS'401'
p5674
aasS'3H9R'
p5675
(lp5676
(lp5677
I250
aS'14'
p5678
aS'105'
p5679
aa(lp5680
I252
aS'211'
p5681
aS'493'
p5682
aa(lp5683
I3464
aS'179'
p5684
aS'206'
p5685
aasS'3GYD'
p5686
(lp5687
(lp5688
I2703
aS'51'
p5689
aS'132'
p5690
aasS'3PO4'
p5691
(lp5692
(lp5693
I3939
aS'455'
p5694
aS'828'
p5695
aa(lp5696
I7506
aS'295'
p5697
aS'420'
p5698
aasS'3RTV'
p5699
(lp5700
(lp5701
I3939
aS'455'
p5702
aS'828'
p5703
aa(lp5704
I3939
aS'455'
p5705
aS'828'
p5706
aa(lp5707
I7506
aS'295'
p5708
aS'420'
p5709
aa(lp5710
I7506
aS'295'
p5711
aS'420'
p5712
aasS'2HW3'
p5713
(lp5714
(lp5715
I3939
aS'498'
p5716
aS'874'
p5717
aasS'1A3S'
p5718
(lp5719
(lp5720
I263
aS'8'
aS'150'
p5721
aasS'2BF8'
p5722
(lp5723
(lp5724
I263
aS'8'
aS'147'
p5725
aa(lp5726
I5132
aS'22'
p5727
aS'91'
p5728
aasS'4P8S'
p5729
(lp5730
(lp5731
I2515
aS'107'
p5732
aS'167'
p5733
aa(lp5734
I2515
aS'204'
p5735
aS'261'
p5736
aasS'2WKH'
p5737
(lp5738
(lp5739
I4300
aS'56'
p5740
aS'259'
p5741
aasS'2WKI'
p5742
(lp5743
(lp5744
I4300
aS'56'
p5745
aS'259'
p5746
aasS'3FWL'
p5747
(lp5748
(lp5749
I4300
aS'473'
p5750
aS'724'
p5751
aa(lp5752
I5477
aS'209'
p5753
aS'380'
p5754
aa(lp5755
I6454
aS'113'
p5756
aS'197'
p5757
aasS'1L3U'
p5758
(lp5759
(lp5760
I3939
aS'498'
p5761
aS'874'
p5762
aasS'3HP6'
p5763
(lp5764
(lp5765
I3939
aS'498'
p5766
aS'874'
p5767
aasS'2XO7'
p5768
(lp5769
(lp5770
I3939
aS'498'
p5771
aS'874'
p5772
aasS'1KRP'
p5773
(lp5774
(lp5775
I3939
aS'551'
p5776
aS'925'
p5777
aa(lp5778
I6020
aS'330'
p5779
aS'517'
p5780
aasS'3FWE'
p5781
(lp5782
(lp5783
I2703
aS'22'
p5784
aS'108'
p5785
aa(lp5786
I6009
aS'165'
p5787
aS'196'
p5788
aasS'3PVB'
p5789
(lp5790
(lp5791
I252
aS'44'
p5792
aS'297'
p5793
aa(lp5794
I2703
aS'154'
p5795
aS'234'
p5796
aasS'4V2D'
p5797
(lp5798
(lp5799
I2515
aS'98'
p5800
aS'145'
p5801
aa(lp5802
I2515
aS'182'
p5803
aS'242'
p5804
aa(lp5805
I2515
aS'253'
p5806
aS'310'
p5807
aa(lp5808
I3321
aS'338'
p5809
aS'361'
p5810
aasS'3ZG5'
p5811
(lp5812
(lp5813
I922
aS'28'
p5814
aS'140'
p5815
aa(lp5816
I3563
aS'148'
p5817
aS'309'
p5818
aa(lp5819
I4300
aS'346'
p5820
aS'657'
p5821
aasS'4BJP'
p5822
(lp5823
(lp5824
I3563
aS'71'
p5825
aS'201'
p5826
aa(lp5827
I4300
aS'260'
p5828
aS'554'
p5829
aasS'5AWD'
p5830
(lp5831
(lp5832
I2515
aS'54'
p5833
aS'97'
p5834
aa(lp5835
I2515
aS'277'
p5836
aS'323'
p5837
aa(lp5838
I2515
aS'485'
p5839
aS'542'
p5840
aa(lp5841
I2515
aS'640'
p5842
aS'700'
p5843
aa(lp5844
I2515
aS'712'
p5845
aS'773'
p5846
aa(lp5847
I2518
aS'247'
p5848
aS'261'
p5849
aasS'1XEC'
p5850
(lp5851
(lp5852
I747
aS'25'
p5853
aS'51'
p5854
aa(lp5855
I2515
aS'57'
p5856
aS'112'
p5857
aa(lp5858
I2515
aS'122'
p5859
aS'183'
p5860
aa(lp5861
I2515
aS'192'
p5862
aS'252'
p5863
aasS'3VON'
p5864
(lp5865
(lp5866
I263
aS'31'
p5867
aS'132'
p5868
aa(lp5869
I263
aS'7'
aS'142'
p5870
aa(lp5871
I5097
aS'45'
p5872
aS'270'
p5873
aasS'4QXK'
p5874
(lp5875
(lp5876
I2703
aS'255'
p5877
aS'340'
p5878
aasS'2MHF'
p5879
(lp5880
(lp5881
I2703
aS'32'
p5882
aS'111'
p5883
aasS'2Y5Q'
p5884
(lp5885
(lp5886
I2515
aS'98'
p5887
aS'154'
p5888
aa(lp5889
I2520
aS'164'
p5890
aS'204'
p5891
aa(lp5892
I5439
aS'36'
p5893
aS'58'
p5894
aa(lp5895
I5990
aS'264'
p5896
aS'320'
p5897
aasS'4C02'
p5898
(lp5899
(lp5900
I250
aS'13'
p5901
aS'104'
p5902
aa(lp5903
I252
aS'211'
p5904
aS'493'
p5905
aa(lp5906
I3464
aS'179'
p5907
aS'206'
p5908
aasS'4KG1'
p5909
(lp5910
(lp5911
I2703
aS'42'
p5912
aS'125'
p5913
aasS'1YF9'
p5914
(lp5915
(lp5916
I263
aS'28'
p5917
aS'150'
p5918
aasS'5E2F'
p5919
(lp5920
(lp5921
I4300
aS'97'
p5922
aS'286'
p5923
aasS'2HHX'
p5924
(lp5925
(lp5926
I3939
aS'498'
p5927
aS'874'
p5928
aasS'2X02'
p5929
(lp5930
(lp5931
I4300
aS'56'
p5932
aS'259'
p5933
aasS'3IYD'
p5934
(lp5935
(lp5936
I529
aS'591'
p5937
aS'656'
p5938
aa(lp5939
I1311
aS'458'
p5940
aS'533'
p5941
aa(lp5942
I1312
aS'379'
p5943
aS'448'
p5944
aa(lp5945
I1313
aS'547'
p5946
aS'600'
p5947
aa(lp5948
I1874
aS'60'
p5949
aS'156'
p5950
aa(lp5951
I2150
aS'15'
p5952
aS'342'
p5953
aa(lp5954
I2154
aS'674'
p5955
aS'763'
p5956
aa(lp5957
I2673
aS'113'
p5958
aS'126'
p5959
aa(lp5960
I2703
aS'22'
p5961
aS'108'
p5962
aa(lp5963
I3219
aS'245'
p5964
aS'308'
p5965
aa(lp5966
I3290
aS'10'
p5967
aS'59'
p5968
aa(lp5969
I3356
aS'29'
p5970
aS'228'
p5971
aa(lp5972
I3506
aS'513'
p5973
aS'580'
p5974
aa(lp5975
I4338
aS'1266'
p5976
aS'1340'
p5977
aa(lp5978
I4339
aS'717'
p5979
aS'1264'
p5980
aa(lp5981
I4340
aS'26'
p5982
aS'500'
p5983
aa(lp5984
I4342
aS'151'
p5985
aS'225'
p5986
aa(lp5987
I4342
aS'340'
p5988
aS'454'
p5989
aa(lp5990
I4564
aS'137'
p5991
aS'348'
p5992
aa(lp5993
I5408
aS'344'
p5994
aS'393'
p5995
aa(lp5996
I5408
aS'392'
p5997
aS'485'
p5998
aa(lp5999
I5409
aS'489'
p6000
aS'644'
p6001
aa(lp6002
I5415
aS'766'
p6003
aS'1321'
p6004
aa(lp6005
I6009
aS'165'
p6006
aS'196'
p6007
aasS'4BSU'
p6008
(lp6009
(lp6010
I747
aS'33'
p6011
aS'64'
p6012
aa(lp6013
I2515
aS'92'
p6014
aS'150'
p6015
aa(lp6016
I2515
aS'188'
p6017
aS'246'
p6018
aa(lp6019
I2515
aS'257'
p6020
aS'314'
p6021
aa(lp6022
I2515
aS'375'
p6023
aS'434'
p6024
aa(lp6025
I2518
aS'353'
p6026
aS'371'
p6027
aa(lp6028
I2960
aS'42'
p6029
aS'142'
p6030
aasS'4A2U'
p6031
(lp6032
(lp6033
I996
aS'148'
p6034
aS'221'
p6035
aa(lp6036
I2703
aS'29'
p6037
aS'114'
p6038
aasS'2Z62'
p6039
(lp6040
(lp6041
I219
aS'217'
p6042
aS'257'
p6043
aa(lp6044
I2515
aS'78'
p6045
aS'136'
p6046
aa(lp6047
I2515
aS'151'
p6048
aS'207'
p6049
aa(lp6050
I2518
aS'57'
p6051
aS'74'
p6052
aa(lp6053
I2853
aS'265'
p6054
aS'302'
p6055
aasS'2Z63'
p6056
(lp6057
(lp6058
I2515
aS'78'
p6059
aS'136'
p6060
aa(lp6061
I2515
aS'151'
p6062
aS'207'
p6063
aa(lp6064
I2515
aS'496'
p6065
aS'554'
p6066
aa(lp6067
I2518
aS'57'
p6068
aS'74'
p6069
aa(lp6070
I2853
aS'559'
p6071
aS'596'
p6072
aasS'4C2B'
p6073
(lp6074
(lp6075
I747
aS'3'
aS'30'
p6076
aa(lp6077
I2515
aS'100'
p6078
aS'160'
p6079
aa(lp6080
I2829
aS'1277'
p6081
aS'1449'
p6082
aasS'2Z66'
p6083
(lp6084
(lp6085
I747
aS'24'
p6086
aS'50'
p6087
aa(lp6088
I2515
aS'54'
p6089
aS'410'
p6090
aa(lp6091
I2515
aS'447'
p6092
aS'508'
p6093
aasS'2Z64'
p6094
(lp6095
(lp6096
I1141
aS'33'
p6097
aS'153'
p6098
aa(lp6099
I2515
aS'78'
p6100
aS'134'
p6101
aa(lp6102
I2515
aS'495'
p6103
aS'554'
p6104
aa(lp6105
I2518
aS'151'
p6106
aS'173'
p6107
aasS'2Z65'
p6108
(lp6109
(lp6110
I219
aS'217'
p6111
aS'257'
p6112
aa(lp6113
I1141
aS'32'
p6114
aS'152'
p6115
aa(lp6116
I2515
aS'78'
p6117
aS'136'
p6118
aa(lp6119
I2515
aS'151'
p6120
aS'207'
p6121
aa(lp6122
I2518
aS'57'
p6123
aS'74'
p6124
aa(lp6125
I2853
aS'265'
p6126
aS'302'
p6127
aasS'4U7L'
p6128
(lp6129
(lp6130
I2515
aS'29'
p6131
aS'64'
p6132
aa(lp6133
I2515
aS'76'
p6134
aS'135'
p6135
aa(lp6136
I2515
aS'149'
p6137
aS'207'
p6138
aa(lp6139
I2515
aS'268'
p6140
aS'327'
p6141
aa(lp6142
I2515
aS'343'
p6143
aS'400'
p6144
aa(lp6145
I3321
aS'426'
p6146
aS'450'
p6147
aasS'2FO3'
p6148
(lp6149
(lp6150
I263
aS'10'
p6151
aS'117'
p6152
aasS'2Z69'
p6153
(lp6154
(lp6155
I2703
aS'35'
p6156
aS'122'
p6157
aasS'1FKT'
p6158
(lp6159
(lp6160
I250
aS'13'
p6161
aS'104'
p6162
aasS'4BDP'
p6163
(lp6164
(lp6165
I3939
aS'498'
p6166
aS'874'
p6167
aasS'1FKH'
p6168
(lp6169
(lp6170
I250
aS'13'
p6171
aS'104'
p6172
aasS'1FKI'
p6173
(lp6174
(lp6175
I250
aS'13'
p6176
aS'104'
p6177
aasS'1FKJ'
p6178
(lp6179
(lp6180
I250
aS'13'
p6181
aS'104'
p6182
aasS'1FKK'
p6183
(lp6184
(lp6185
I250
aS'13'
p6186
aS'104'
p6187
aasS'1FKL'
p6188
(lp6189
(lp6190
I250
aS'13'
p6191
aS'104'
p6192
aasS'1W4U'
p6193
(lp6194
(lp6195
I263
aS'5'
aS'141'
p6196
aasS'1FKB'
p6197
(lp6198
(lp6199
I250
aS'13'
p6200
aS'104'
p6201
aasS'3PV8'
p6202
(lp6203
(lp6204
I3939
aS'498'
p6205
aS'874'
p6206
aasS'1FKD'
p6207
(lp6208
(lp6209
I250
aS'13'
p6210
aS'104'
p6211
aasS'1FKF'
p6212
(lp6213
(lp6214
I250
aS'13'
p6215
aS'104'
p6216
aasS'1FKG'
p6217
(lp6218
(lp6219
I250
aS'13'
p6220
aS'104'
p6221
aasS'3HPO'
p6222
(lp6223
(lp6224
I3939
aS'498'
p6225
aS'874'
p6226
aasS'4PQ8'
p6227
(lp6228
(lp6229
I2515
aS'93'
p6230
aS'152'
p6231
aa(lp6232
I2515
aS'164'
p6233
aS'224'
p6234
aa(lp6235
I2515
aS'93'
p6236
aS'152'
p6237
aa(lp6238
I2515
aS'164'
p6239
aS'224'
p6240
aa(lp6241
I2518
aS'237'
p6242
aS'248'
p6243
aa(lp6244
I2518
aS'237'
p6245
aS'248'
p6246
aa(lp6247
I5439
aS'9'
aS'30'
p6248
aa(lp6249
I5439
aS'9'
aS'30'
p6250
aasS'3K9O'
p6251
(lp6252
(lp6253
I263
aS'8'
aS'147'
p6254
aa(lp6255
I2656
aS'6'
aS'74'
p6256
aa(lp6257
I3155
aS'162'
p6258
aS'197'
p6259
aasS'2YB6'
p6260
(lp6261
(lp6262
I263
aS'8'
aS'143'
p6263
aasS'3RYP'
p6264
(lp6265
(lp6266
I2703
aS'22'
p6267
aS'108'
p6268
aa(lp6269
I6009
aS'165'
p6270
aS'196'
p6271
aasS'4MDK'
p6272
(lp6273
(lp6274
I263
aS'14'
p6275
aS'153'
p6276
aa(lp6277
I2656
aS'6'
aS'74'
p6278
aasS'4JF5'
p6279
(lp6280
(lp6281
I4300
aS'67'
p6282
aS'260'
p6283
aasS'4AUQ'
p6284
(lp6285
(lp6286
I263
aS'5'
aS'141'
p6287
aa(lp6288
I2656
aS'6'
aS'74'
p6289
aa(lp6290
I5647
aS'248'
p6291
aS'291'
p6292
aasS'3RYR'
p6293
(lp6294
(lp6295
I2703
aS'22'
p6296
aS'108'
p6297
aa(lp6298
I6009
aS'165'
p6299
aS'196'
p6300
aasS'4UQG'
p6301
(lp6302
(lp6303
I3939
aS'498'
p6304
aS'874'
p6305
aasS'3A7C'
p6306
(lp6307
(lp6308
I219
aS'144'
p6309
aS'206'
p6310
aa(lp6311
I2515
aS'77'
p6312
aS'135'
p6313
aa(lp6314
I2515
aS'477'
p6315
aS'533'
p6316
aa(lp6317
I2853
aS'538'
p6318
aS'575'
p6319
aasS'1MWS'
p6320
(lp6321
(lp6322
I922
aS'27'
p6323
aS'140'
p6324
aa(lp6325
I3563
aS'148'
p6326
aS'309'
p6327
aa(lp6328
I4300
aS'346'
p6329
aS'657'
p6330
aasS'2MT6'
p6331
(lp6332
(lp6333
I263
aS'7'
aS'140'
p6334
aasS'2XOT'
p6335
(lp6336
(lp6337
I2515
aS'110'
p6338
aS'170'
p6339
aa(lp6340
I5590
aS'278'
p6341
aS'357'
p6342
aasS'4WZ5'
p6343
(lp6344
(lp6345
I4300
aS'56'
p6346
aS'259'
p6347
aa(lp6348
I4300
aS'56'
p6349
aS'259'
p6350
aasS'4K5U'
p6351
(lp6352
(lp6353
I747
aS'2'
aS'29'
p6354
aa(lp6355
I2515
aS'55'
p6356
aS'109'
p6357
aa(lp6358
I2853
aS'166'
p6359
aS'213'
p6360
aasS'4W9O'
p6361
(lp6362
(lp6363
I250
aS'44'
p6364
aS'135'
p6365
aasS'4ELU'
p6366
(lp6367
(lp6368
I3939
aS'455'
p6369
aS'828'
p6370
aa(lp6371
I7506
aS'295'
p6372
aS'420'
p6373
aasS'1ZGU'
p6374
(lp6375
(lp6376
I263
aS'36'
p6377
aS'138'
p6378
aa(lp6379
I2656
aS'6'
aS'74'
p6380
aasS'4WZ3'
p6381
(lp6382
(lp6383
I263
aS'5'
aS'141'
p6384
aa(lp6385
I263
aS'5'
aS'141'
p6386
aa(lp6387
I2275
aS'32'
p6388
aS'101'
p6389
aa(lp6390
I2275
aS'126'
p6391
aS'186'
p6392
aa(lp6393
I2275
aS'32'
p6394
aS'101'
p6395
aa(lp6396
I2275
aS'126'
p6397
aS'186'
p6398
aasS'4ELV'
p6399
(lp6400
(lp6401
I3939
aS'455'
p6402
aS'828'
p6403
aa(lp6404
I7506
aS'295'
p6405
aS'420'
p6406
aasS'2C6W'
p6407
(lp6408
(lp6409
I4300
aS'332'
p6410
aS'622'
p6411
aasS'4DSE'
p6412
(lp6413
(lp6414
I3939
aS'498'
p6415
aS'874'
p6416
aasS'3O53'
p6417
(lp6418
(lp6419
I2515
aS'214'
p6420
aS'270'
p6421
aa(lp6422
I2518
aS'57'
p6423
aS'76'
p6424
aasS'4DSF'
p6425
(lp6426
(lp6427
I3939
aS'498'
p6428
aS'874'
p6429
aasS'3B02'
p6430
(lp6431
(lp6432
I996
aS'114'
p6433
aS'186'
p6434
aa(lp6435
I2703
aS'2'
aS'76'
p6436
aasS'2EKE'
p6437
(lp6438
(lp6439
I263
aS'8'
aS'148'
p6440
aa(lp6441
I5132
aS'1024'
p6442
aS'1091'
p6443
aasS'4DSL'
p6444
(lp6445
(lp6446
I3939
aS'498'
p6447
aS'874'
p6448
aasS'3LA2'
p6449
(lp6450
(lp6451
I996
aS'148'
p6452
aS'218'
p6453
aa(lp6454
I2703
aS'26'
p6455
aS'115'
p6456
aasS'4NRG'
p6457
(lp6458
(lp6459
I263
aS'31'
p6460
aS'133'
p6461
aa(lp6462
I263
aS'7'
aS'142'
p6463
aasS'4W9P'
p6464
(lp6465
(lp6466
I250
aS'44'
p6467
aS'135'
p6468
aasS'4W9Q'
p6469
(lp6470
(lp6471
I250
aS'44'
p6472
aS'135'
p6473
aasS'4DSK'
p6474
(lp6475
(lp6476
I3939
aS'498'
p6477
aS'874'
p6478
aasS'4DSJ'
p6479
(lp6480
(lp6481
I3939
aS'498'
p6482
aS'874'
p6483
aasS'2KFW'
p6484
(lp6485
(lp6486
I250
aS'5'
aS'136'
p6487
aasS'4FCG'
p6488
(lp6489
(lp6490
I2515
aS'306'
p6491
aS'361'
p6492
aasS'3LO7'
p6493
(lp6494
(lp6495
I4300
aS'160'
p6496
aS'484'
p6497
aasS'2ZC3'
p6498
(lp6499
(lp6500
I78
aS'695'
p6501
aS'749'
p6502
aa(lp6503
I3563
aS'74'
p6504
aS'231'
p6505
aa(lp6506
I4300
aS'289'
p6507
aS'609'
p6508
aasS'4R8P'
p6509
(lp6510
(lp6511
I263
aS'205'
p6512
aS'341'
p6513
aa(lp6514
I787
aS'18'
p6515
aS'56'
p6516
aa(lp6517
I787
aS'51'
p6518
aS'90'
p6519
aa(lp6520
I1405
aS'91'
p6521
aS'119'
p6522
aa(lp6523
I5541
aS'33'
p6524
aS'95'
p6525
aa(lp6526
I5994
aS'37'
p6527
aS'131'
p6528
aa(lp6529
I5994
aS'16'
p6530
aS'88'
p6531
aa(lp6532
I5994
aS'31'
p6533
aS'100'
p6534
aasS'4CHW'
p6535
(lp6536
(lp6537
I955
aS'139'
p6538
aS'212'
p6539
aa(lp6540
I2703
aS'254'
p6541
aS'333'
p6542
aasS'4CHV'
p6543
(lp6544
(lp6545
I955
aS'139'
p6546
aS'212'
p6547
aa(lp6548
I2703
aS'254'
p6549
aS'333'
p6550
aasS'1YLA'
p6551
(lp6552
(lp6553
I263
aS'8'
aS'147'
p6554
aa(lp6555
I3155
aS'162'
p6556
aS'197'
p6557
aasS'4N5S'
p6558
(lp6559
(lp6560
I3939
aS'455'
p6561
aS'828'
p6562
aa(lp6563
I7506
aS'295'
p6564
aS'420'
p6565
aasS'3LA3'
p6566
(lp6567
(lp6568
I996
aS'148'
p6569
aS'218'
p6570
aa(lp6571
I2703
aS'26'
p6572
aS'115'
p6573
aasS'2KFN'
p6574
(lp6575
(lp6576
I3939
aS'551'
p6577
aS'925'
p6578
aa(lp6579
I6020
aS'330'
p6580
aS'517'
p6581
aasS'2ID5'
p6582
(lp6583
(lp6584
I2515
aS'81'
p6585
aS'140'
p6586
aa(lp6587
I2515
aS'178'
p6588
aS'236'
p6589
aa(lp6590
I2515
aS'273'
p6591
aS'332'
p6592
aa(lp6593
I5590
aS'390'
p6594
aS'475'
p6595
aasS'4N56'
p6596
(lp6597
(lp6598
I3939
aS'455'
p6599
aS'828'
p6600
aa(lp6601
I7506
aS'295'
p6602
aS'420'
p6603
aasS'3WE5'
p6604
(lp6605
(lp6606
I263
aS'8'
aS'139'
p6607
aasS'4BL3'
p6608
(lp6609
(lp6610
I922
aS'27'
p6611
aS'140'
p6612
aa(lp6613
I3563
aS'148'
p6614
aS'309'
p6615
aa(lp6616
I4300
aS'346'
p6617
aS'657'
p6618
aasS'2LPV'
p6619
(lp6620
(lp6621
I250
aS'16'
p6622
aS'105'
p6623
aasS'1P8V'
p6624
(lp6625
(lp6626
I747
aS'3'
aS'30'
p6627
aa(lp6628
I2515
aS'100'
p6629
aS'160'
p6630
aa(lp6631
I2879
aS'1'
aS'250'
p6632
aa(lp6633
I4359
aS'1'
aS'29'
p6634
aasS'1P8T'
p6635
(lp6636
(lp6637
I2515
aS'61'
p6638
aS'115'
p6639
aa(lp6640
I2515
aS'156'
p6641
aS'213'
p6642
aasS'3KJ4'
p6643
(lp6644
(lp6645
I1690
aS'125'
p6646
aS'210'
p6647
aa(lp6648
I1690
aS'135'
p6649
aS'212'
p6650
aa(lp6651
I2388
aS'6'
aS'111'
p6652
aa(lp6653
I2388
aS'11'
p6654
aS'118'
p6655
aa(lp6656
I2515
aS'61'
p6657
aS'115'
p6658
aa(lp6659
I2515
aS'156'
p6660
aS'213'
p6661
aasS'1KLN'
p6662
(lp6663
(lp6664
I3939
aS'551'
p6665
aS'925'
p6666
aa(lp6667
I6020
aS'330'
p6668
aS'517'
p6669
aasS'1Z5S'
p6670
(lp6671
(lp6672
I263
aS'8'
aS'150'
p6673
aa(lp6674
I2362
aS'432'
p6675
aS'585'
p6676
aa(lp6677
I5132
aS'22'
p6678
aS'91'
p6679
aa(lp6680
I6663
aS'2631'
p6681
aS'2691'
p6682
aasS'2CLW'
p6683
(lp6684
(lp6685
I263
aS'5'
aS'141'
p6686
aa(lp6687
I263
aS'5'
aS'141'
p6688
aasS'4BST'
p6689
(lp6690
(lp6691
I747
aS'33'
p6692
aS'64'
p6693
aa(lp6694
I2515
aS'92'
p6695
aS'150'
p6696
aa(lp6697
I2515
aS'188'
p6698
aS'246'
p6699
aa(lp6700
I2515
aS'257'
p6701
aS'314'
p6702
aa(lp6703
I2515
aS'375'
p6704
aS'434'
p6705
aa(lp6706
I2518
aS'353'
p6707
aS'371'
p6708
aa(lp6709
I2960
aS'42'
p6710
aS'142'
p6711
aasS'4BSS'
p6712
(lp6713
(lp6714
I747
aS'33'
p6715
aS'64'
p6716
aa(lp6717
I2515
aS'92'
p6718
aS'150'
p6719
aa(lp6720
I2515
aS'188'
p6721
aS'246'
p6722
aa(lp6723
I2515
aS'257'
p6724
aS'314'
p6725
aa(lp6726
I2515
aS'375'
p6727
aS'434'
p6728
aa(lp6729
I2518
aS'353'
p6730
aS'371'
p6731
aa(lp6732
I2960
aS'42'
p6733
aS'142'
p6734
aasS'4BSR'
p6735
(lp6736
(lp6737
I747
aS'33'
p6738
aS'64'
p6739
aa(lp6740
I2515
aS'92'
p6741
aS'150'
p6742
aa(lp6743
I2515
aS'188'
p6744
aS'246'
p6745
aa(lp6746
I2515
aS'257'
p6747
aS'314'
p6748
aa(lp6749
I2515
aS'375'
p6750
aS'434'
p6751
aa(lp6752
I2518
aS'353'
p6753
aS'371'
p6754
aa(lp6755
I2960
aS'42'
p6756
aS'142'
p6757
aasS'4DHI'
p6758
(lp6759
(lp6760
I263
aS'7'
aS'142'
p6761
aa(lp6762
I5097
aS'38'
p6763
aS'273'
p6764
aasS'3UQI'
p6765
(lp6766
(lp6767
I250
aS'16'
p6768
aS'105'
p6769
aasS'1QMF'
p6770
(lp6771
(lp6772
I78
aS'695'
p6773
aS'749'
p6774
aa(lp6775
I3563
aS'72'
p6776
aS'234'
p6777
aa(lp6778
I4300
aS'289'
p6779
aS'609'
p6780
aasS'4II2'
p6781
(lp6782
(lp6783
I263
aS'5'
aS'141'
p6784
aa(lp6785
I1706
aS'599'
p6786
aS'845'
p6787
aa(lp6788
I2083
aS'260'
p6789
aS'328'
p6790
aa(lp6791
I2656
aS'6'
aS'74'
p6792
aa(lp6793
I5068
aS'190'
p6794
aS'258'
p6795
aa(lp6796
I5128
aS'917'
p6797
aS'1008'
p6798
aa(lp6799
I7257
aS'20'
p6800
aS'399'
p6801
aa(lp6802
I7257
aS'410'
p6803
aS'907'
p6804
aasS'2QCS'
p6805
(lp6806
(lp6807
I252
aS'44'
p6808
aS'297'
p6809
aa(lp6810
I2703
aS'154'
p6811
aS'234'
p6812
aa(lp6813
I2703
aS'272'
p6814
aS'357'
p6815
aasS'3PO5'
p6816
(lp6817
(lp6818
I3939
aS'455'
p6819
aS'828'
p6820
aa(lp6821
I7506
aS'295'
p6822
aS'420'
p6823
aasS'3ROU'
p6824
(lp6825
(lp6826
I2703
aS'22'
p6827
aS'108'
p6828
aa(lp6829
I6009
aS'165'
p6830
aS'196'
p6831
aasS'3A33'
p6832
(lp6833
(lp6834
I263
aS'5'
aS'141'
p6835
aa(lp6836
I2656
aS'6'
aS'74'
p6837
aasS'4DS5'
p6838
(lp6839
(lp6840
I3939
aS'498'
p6841
aS'874'
p6842
aasS'4DS4'
p6843
(lp6844
(lp6845
I3939
aS'498'
p6846
aS'874'
p6847
aasS'2ZC5'
p6848
(lp6849
(lp6850
I4300
aS'332'
p6851
aS'622'
p6852
aasS'4X6Q'
p6853
(lp6854
(lp6855
I252
aS'44'
p6856
aS'297'
p6857
aa(lp6858
I2703
aS'172'
p6859
aS'256'
p6860
aa(lp6861
I2703
aS'293'
p6862
aS'383'
p6863
aasS'3O5E'
p6864
(lp6865
(lp6866
I250
aS'44'
p6867
aS'135'
p6868
aasS'3O5D'
p6869
(lp6870
(lp6871
I250
aS'44'
p6872
aS'135'
p6873
aa(lp6874
I250
aS'159'
p6875
aS'247'
p6876
aasS'3O5G'
p6877
(lp6878
(lp6879
I250
aS'44'
p6880
aS'135'
p6881
aasS'4DS2'
p6882
(lp6883
(lp6884
I263
aS'31'
p6885
aS'159'
p6886
aasS'3O5I'
p6887
(lp6888
(lp6889
I250
aS'44'
p6890
aS'135'
p6891
aasS'4KQQ'
p6892
(lp6893
(lp6894
I3563
aS'58'
p6895
aS'207'
p6896
aa(lp6897
I4300
aS'247'
p6898
aS'546'
p6899
aasS'3O5K'
p6900
(lp6901
(lp6902
I250
aS'44'
p6903
aS'135'
p6904
aasS'3O5F'
p6905
(lp6906
(lp6907
I250
aS'44'
p6908
aS'135'
p6909
aasS'1WZV'
p6910
(lp6911
(lp6912
I263
aS'5'
aS'142'
p6913
aasS'4R1G'
p6914
(lp6915
(lp6916
I4300
aS'631'
p6917
aS'941'
p6918
aasS'3O5O'
p6919
(lp6920
(lp6921
I250
aS'44'
p6922
aS'135'
p6923
aasS'3O5Q'
p6924
(lp6925
(lp6926
I250
aS'44'
p6927
aS'135'
p6928
aasS'3O5P'
p6929
(lp6930
(lp6931
I250
aS'44'
p6932
aS'135'
p6933
aasS'3PRA'
p6934
(lp6935
(lp6936
I250
aS'3'
aS'89'
p6937
aasS'3O5R'
p6938
(lp6939
(lp6940
I250
aS'44'
p6941
aS'135'
p6942
aasS'2AWF'
p6943
(lp6944
(lp6945
I263
aS'10'
p6946
aS'131'
p6947
aasS'3W31'
p6948
(lp6949
(lp6950
I263
aS'7'
aS'142'
p6951
aasS'4Q5E'
p6952
(lp6953
(lp6954
I263
aS'6'
aS'143'
p6955
aa(lp6956
I2656
aS'6'
aS'74'
p6957
aasS'4Q5H'
p6958
(lp6959
(lp6960
I263
aS'6'
aS'143'
p6961
aa(lp6962
I2656
aS'6'
aS'74'
p6963
aasS'2KO7'
p6964
(lp6965
(lp6966
I250
aS'26'
p6967
aS'115'
p6968
aasS'4KQR'
p6969
(lp6970
(lp6971
I3563
aS'58'
p6972
aS'207'
p6973
aa(lp6974
I4300
aS'247'
p6975
aS'546'
p6976
aasS'2ZC4'
p6977
(lp6978
(lp6979
I78
aS'695'
p6980
aS'749'
p6981
aa(lp6982
I3563
aS'74'
p6983
aS'231'
p6984
aa(lp6985
I4300
aS'289'
p6986
aS'609'
p6987
aasS'3HT3'
p6988
(lp6989
(lp6990
I3939
aS'498'
p6991
aS'874'
p6992
aasS'3O5J'
p6993
(lp6994
(lp6995
I250
aS'44'
p6996
aS'135'
p6997
aasS'1JVW'
p6998
(lp6999
(lp7000
I250
aS'79'
p7001
aS'168'
p7002
aasS'2AYV'
p7003
(lp7004
(lp7005
I263
aS'5'
aS'141'
p7006
aasS'3W3N'
p7007
(lp7008
(lp7009
I2515
aS'54'
p7010
aS'97'
p7011
aa(lp7012
I2515
aS'277'
p7013
aS'323'
p7014
aa(lp7015
I2515
aS'485'
p7016
aS'542'
p7017
aa(lp7018
I2515
aS'640'
p7019
aS'700'
p7020
aa(lp7021
I2515
aS'712'
p7022
aS'773'
p7023
aa(lp7024
I2518
aS'247'
p7025
aS'261'
p7026
aasS'3O5M'
p7027
(lp7028
(lp7029
I250
aS'44'
p7030
aS'135'
p7031
aasS'4MGV'
p7032
(lp7033
(lp7034
I250
aS'32'
p7035
aS'122'
p7036
aasS'3O5L'
p7037
(lp7038
(lp7039
I250
aS'44'
p7040
aS'135'
p7041
aasS'4JFI'
p7042
(lp7043
(lp7044
I250
aS'44'
p7045
aS'135'
p7046
aasS'4S3O'
p7047
(lp7048
(lp7049
I263
aS'5'
aS'141'
p7050
aa(lp7051
I787
aS'51'
p7052
aS'90'
p7053
aa(lp7054
I787
aS'18'
p7055
aS'56'
p7056
aasS'2HPB'
p7057
(lp7058
(lp7059
I4300
aS'56'
p7060
aS'259'
p7061
aasS'1D0B'
p7062
(lp7063
(lp7064
I2515
aS'98'
p7065
aS'154'
p7066
aa(lp7067
I2520
aS'164'
p7068
aS'204'
p7069
aa(lp7070
I5439
aS'37'
p7071
aS'58'
p7072
aasS'2O25'
p7073
(lp7074
(lp7075
I263
aS'8'
aS'147'
p7076
aa(lp7077
I263
aS'8'
aS'150'
p7078
aa(lp7079
I3155
aS'162'
p7080
aS'197'
p7081
aasS'3IDC'
p7082
(lp7083
(lp7084
I252
aS'44'
p7085
aS'297'
p7086
aa(lp7087
I2703
aS'172'
p7088
aS'256'
p7089
aasS'2KTQ'
p7090
(lp7091
(lp7092
I3939
aS'455'
p7093
aS'828'
p7094
aa(lp7095
I7506
aS'295'
p7096
aS'420'
p7097
aasS'3W3J'
p7098
(lp7099
(lp7100
I2515
aS'54'
p7101
aS'97'
p7102
aa(lp7103
I2515
aS'277'
p7104
aS'323'
p7105
aa(lp7106
I2515
aS'485'
p7107
aS'542'
p7108
aa(lp7109
I2515
aS'640'
p7110
aS'700'
p7111
aa(lp7112
I2515
aS'712'
p7113
aS'773'
p7114
aa(lp7115
I2518
aS'247'
p7116
aS'261'
p7117
aasS'1EWZ'
p7118
(lp7119
(lp7120
I4300
aS'56'
p7121
aS'259'
p7122
aasS'3WPH'
p7123
(lp7124
(lp7125
I2515
aS'273'
p7126
aS'318'
p7127
aa(lp7128
I2515
aS'478'
p7129
aS'509'
p7130
aa(lp7131
I2515
aS'511'
p7132
aS'556'
p7133
aasS'3WPI'
p7134
(lp7135
(lp7136
I2515
aS'273'
p7137
aS'318'
p7138
aa(lp7139
I2515
aS'478'
p7140
aS'509'
p7141
aa(lp7142
I2515
aS'511'
p7143
aS'556'
p7144
aasS'1NKB'
p7145
(lp7146
(lp7147
I3939
aS'498'
p7148
aS'874'
p7149
aasS'3OD0'
p7150
(lp7151
(lp7152
I2703
aS'137'
p7153
aS'218'
p7154
aasS'3WPB'
p7155
(lp7156
(lp7157
I2515
aS'275'
p7158
aS'318'
p7159
aa(lp7160
I2515
aS'476'
p7161
aS'533'
p7162
aa(lp7163
I2515
aS'702'
p7164
aS'762'
p7165
aasS'2XHK'
p7166
(lp7167
(lp7168
I996
aS'147'
p7169
aS'218'
p7170
aa(lp7171
I2703
aS'25'
p7172
aS'111'
p7173
aasS'4D7S'
p7174
(lp7175
(lp7176
I2703
aS'321'
p7177
aS'404'
p7178
aasS'3WPF'
p7179
(lp7180
(lp7181
I2515
aS'273'
p7182
aS'318'
p7183
aa(lp7184
I2515
aS'478'
p7185
aS'509'
p7186
aa(lp7187
I2515
aS'511'
p7188
aS'556'
p7189
aasS'3WPG'
p7190
(lp7191
(lp7192
I2515
aS'273'
p7193
aS'318'
p7194
aa(lp7195
I2515
aS'478'
p7196
aS'509'
p7197
aa(lp7198
I2515
aS'511'
p7199
aS'556'
p7200
aasS'3WPD'
p7201
(lp7202
(lp7203
I2515
aS'275'
p7204
aS'318'
p7205
aa(lp7206
I2515
aS'476'
p7207
aS'533'
p7208
aa(lp7209
I2515
aS'702'
p7210
aS'762'
p7211
aasS'3WPE'
p7212
(lp7213
(lp7214
I2515
aS'273'
p7215
aS'317'
p7216
aa(lp7217
I2515
aS'474'
p7218
aS'531'
p7219
aa(lp7220
I2515
aS'700'
p7221
aS'760'
p7222
aasS'1RP5'
p7223
(lp7224
(lp7225
I78
aS'695'
p7226
aS'749'
p7227
aa(lp7228
I3563
aS'72'
p7229
aS'245'
p7230
aa(lp7231
I4300
aS'289'
p7232
aS'609'
p7233
aasS'2D9F'
p7234
(lp7235
(lp7236
I250
aS'32'
p7237
aS'118'
p7238
aasS'4NVP'
p7239
(lp7240
(lp7241
I2703
aS'614'
p7242
aS'696'
p7243
aasS'4DHZ'
p7244
(lp7245
(lp7246
I263
aS'7'
aS'142'
p7247
aa(lp7248
I2656
aS'506'
p7249
aS'574'
p7250
aa(lp7251
I2656
aS'506'
p7252
aS'572'
p7253
aa(lp7254
I5097
aS'39'
p7255
aS'273'
p7256
aasS'2RL3'
p7257
(lp7258
(lp7259
I4300
aS'56'
p7260
aS'259'
p7261
aasS'2MF9'
p7262
(lp7263
(lp7264
I250
aS'58'
p7265
aS'144'
p7266
aasS'3EYZ'
p7267
(lp7268
(lp7269
I3939
aS'498'
p7270
aS'874'
p7271
aasS'4IP3'
p7272
(lp7273
(lp7274
I263
aS'7'
aS'142'
p7275
aasS'2ZC6'
p7276
(lp7277
(lp7278
I4300
aS'332'
p7279
aS'622'
p7280
aasS'3RJ0'
p7281
(lp7282
(lp7283
I2515
aS'513'
p7284
aS'571'
p7285
aa(lp7286
I2515
aS'700'
p7287
aS'738'
p7288
aa(lp7289
I2518
aS'247'
p7290
aS'267'
p7291
aa(lp7292
I2518
aS'367'
p7293
aS'388'
p7294
aa(lp7295
I2518
aS'418'
p7296
aS'439'
p7297
aa(lp7298
I7333
aS'36'
p7299
aS'69'
p7300
aasS'3CO2'
p7301
(lp7302
(lp7303
I2703
aS'254'
p7304
aS'333'
p7305
aasS'1Y0O'
p7306
(lp7307
(lp7308
I250
aS'25'
p7309
aS'125'
p7310
aasS'4ZDX'
p7311
(lp7312
(lp7313
I4300
aS'48'
p7314
aS'267'
p7315
aasS'4KQO'
p7316
(lp7317
(lp7318
I3563
aS'58'
p7319
aS'207'
p7320
aa(lp7321
I4300
aS'247'
p7322
aS'546'
p7323
aasS'4LDT'
p7324
(lp7325
(lp7326
I263
aS'5'
aS'141'
p7327
aa(lp7328
I2656
aS'6'
aS'74'
p7329
aa(lp7330
I2656
aS'6'
aS'74'
p7331
aa(lp7332
I5097
aS'39'
p7333
aS'273'
p7334
aasS'1NRF'
p7335
(lp7336
(lp7337
I4300
aS'377'
p7338
aS'590'
p7339
aasS'3DN7'
p7340
(lp7341
(lp7342
I2703
aS'30'
p7343
aS'116'
p7344
aasS'1K54'
p7345
(lp7346
(lp7347
I4300
aS'56'
p7348
aS'259'
p7349
aa(lp7350
I4300
aS'56'
p7351
aS'259'
p7352
aasS'3EY6'
p7353
(lp7354
(lp7355
I250
aS'58'
p7356
aS'143'
p7357
aasS'4OLL'
p7358
(lp7359
(lp7360
I2703
aS'37'
p7361
aS'119'
p7362
aa(lp7363
I4972
aS'154'
p7364
aS'288'
p7365
aasS'3KCC'
p7366
(lp7367
(lp7368
I2703
aS'22'
p7369
aS'108'
p7370
aa(lp7371
I6009
aS'165'
p7372
aS'196'
p7373
aasS'3BPZ'
p7374
(lp7375
(lp7376
I2703
aS'536'
p7377
aS'618'
p7378
aasS'1TTE'
p7379
(lp7380
(lp7381
I263
aS'6'
aS'142'
p7382
aa(lp7383
I6564
aS'161'
p7384
aS'215'
p7385
aasS'1ZUO'
p7386
(lp7387
(lp7388
I263
aS'269'
p7389
aS'359'
p7390
aasS'3UDF'
p7391
(lp7392
(lp7393
I2704
aS'300'
p7394
aS'394'
p7395
aa(lp7396
I4300
aS'399'
p7397
aS'720'
p7398
aa(lp7399
I5477
aS'37'
p7400
aS'210'
p7401
aasS'2HP9'
p7402
(lp7403
(lp7404
I4300
aS'56'
p7405
aS'259'
p7406
aasS'1XCD'
p7407
(lp7408
(lp7409
I747
aS'25'
p7410
aS'51'
p7411
aa(lp7412
I2515
aS'57'
p7413
aS'112'
p7414
aa(lp7415
I2515
aS'122'
p7416
aS'183'
p7417
aa(lp7418
I2515
aS'192'
p7419
aS'252'
p7420
aasS'2PPO'
p7421
(lp7422
(lp7423
I250
aS'13'
p7424
aS'104'
p7425
aasS'1TAQ'
p7426
(lp7427
(lp7428
I3939
aS'455'
p7429
aS'828'
p7430
aa(lp7431
I5197
aS'175'
p7432
aS'262'
p7433
aa(lp7434
I5644
aS'13'
p7435
aS'158'
p7436
aa(lp7437
I7506
aS'295'
p7438
aS'420'
p7439
aasS'1XWL'
p7440
(lp7441
(lp7442
I3939
aS'498'
p7443
aS'874'
p7444
aasS'3RFS'
p7445
(lp7446
(lp7447
I2515
aS'59'
p7448
aS'97'
p7449
aa(lp7450
I2515
aS'109'
p7451
aS'169'
p7452
aa(lp7453
I2853
aS'220'
p7454
aS'264'
p7455
aa(lp7456
I5439
aS'2'
aS'23'
p7457
aasS'2HP6'
p7458
(lp7459
(lp7460
I4300
aS'56'
p7461
aS'259'
p7462
aasS'3UDI'
p7463
(lp7464
(lp7465
I2704
aS'300'
p7466
aS'394'
p7467
aa(lp7468
I4300
aS'399'
p7469
aS'720'
p7470
aa(lp7471
I5477
aS'37'
p7472
aS'210'
p7473
aasS'2HP5'
p7474
(lp7475
(lp7476
I4300
aS'56'
p7477
aS'259'
p7478
aasS'4TZH'
p7479
(lp7480
(lp7481
I2515
aS'66'
p7482
aS'123'
p7483
aa(lp7484
I2515
aS'135'
p7485
aS'190'
p7486
aasS'3JXV'
p7487
(lp7488
(lp7489
I250
aS'171'
p7490
aS'262'
p7491
aa(lp7492
I250
aS'287'
p7493
aS'381'
p7494
aasS'4V2E'
p7495
(lp7496
(lp7497
I747
aS'31'
p7498
aS'57'
p7499
aa(lp7500
I2515
aS'176'
p7501
aS'237'
p7502
aa(lp7503
I2515
aS'248'
p7504
aS'306'
p7505
aasS'2Y2J'
p7506
(lp7507
(lp7508
I4300
aS'425'
p7509
aS'657'
p7510
aasS'1D9D'
p7511
(lp7512
(lp7513
I3939
aS'551'
p7514
aS'925'
p7515
aa(lp7516
I6020
aS'330'
p7517
aS'517'
p7518
aasS'2JC7'
p7519
(lp7520
(lp7521
I4300
aS'68'
p7522
aS'269'
p7523
aasS'4WHV'
p7524
(lp7525
(lp7526
I263
aS'18'
p7527
aS'149'
p7528
aa(lp7529
I2656
aS'13'
p7530
aS'70'
p7531
aa(lp7532
I5647
aS'408'
p7533
aS'454'
p7534
aasS'3UDX'
p7535
(lp7536
(lp7537
I2704
aS'300'
p7538
aS'394'
p7539
aa(lp7540
I4300
aS'399'
p7541
aS'720'
p7542
aa(lp7543
I5477
aS'37'
p7544
aS'210'
p7545
aasS'2Y2L'
p7546
(lp7547
(lp7548
I4300
aS'425'
p7549
aS'657'
p7550
aasS'1QYY'
p7551
(lp7552
(lp7553
I747
aS'3'
aS'30'
p7554
aa(lp7555
I2515
aS'100'
p7556
aS'160'
p7557
aasS'2X01'
p7558
(lp7559
(lp7560
I4300
aS'56'
p7561
aS'259'
p7562
aasS'3IWZ'
p7563
(lp7564
(lp7565
I2703
aS'36'
p7566
aS'124'
p7567
aa(lp7568
I6009
aS'186'
p7569
aS'217'
p7570
aasS'4LAX'
p7571
(lp7572
(lp7573
I250
aS'44'
p7574
aS'135'
p7575
aa(lp7576
I250
aS'162'
p7577
aS'249'
p7578
aasS'4R6G'
p7579
(lp7580
(lp7581
I2515
aS'58'
p7582
aS'96'
p7583
aa(lp7584
I2515
aS'108'
p7585
aS'168'
p7586
aa(lp7587
I2515
aS'236'
p7588
aS'296'
p7589
aa(lp7590
I2518
aS'309'
p7591
aS'321'
p7592
aa(lp7593
I2518
aS'367'
p7594
aS'387'
p7595
aa(lp7596
I2518
aS'424'
p7597
aS'444'
p7598
aa(lp7599
I2520
aS'188'
p7600
aS'228'
p7601
aasS'1UA1'
p7602
(lp7603
(lp7604
I3939
aS'498'
p7605
aS'874'
p7606
aasS'1UA0'
p7607
(lp7608
(lp7609
I3939
aS'498'
p7610
aS'874'
p7611
aasS'4DWI'
p7612
(lp7613
(lp7614
I3939
aS'498'
p7615
aS'874'
p7616
aasS'3H3U'
p7617
(lp7618
(lp7619
I996
aS'148'
p7620
aS'221'
p7621
aa(lp7622
I2703
aS'29'
p7623
aS'114'
p7624
aasS'1U79'
p7625
(lp7626
(lp7627
I250
aS'25'
p7628
aS'125'
p7629
aasS'2UYZ'
p7630
(lp7631
(lp7632
I263
aS'8'
aS'150'
p7633
aa(lp7634
I263
aS'8'
aS'150'
p7635
aa(lp7636
I5132
aS'22'
p7637
aS'91'
p7638
aa(lp7639
I5132
aS'22'
p7640
aS'91'
p7641
aasS'3O6N'
p7642
(lp7643
(lp7644
I2515
aS'251'
p7645
aS'310'
p7646
aa(lp7647
I2515
aS'360'
p7648
aS'417'
p7649
aa(lp7650
I2518
aS'430'
p7651
aS'445'
p7652
aasS'1W8A'
p7653
(lp7654
(lp7655
I747
aS'542'
p7656
aS'569'
p7657
aa(lp7658
I2515
aS'620'
p7659
aS'678'
p7660
aa(lp7661
I3321
aS'702'
p7662
aS'726'
p7663
aasS'3N4M'
p7664
(lp7665
(lp7666
I2703
aS'22'
p7667
aS'108'
p7668
aa(lp7669
I3219
aS'251'
p7670
aS'308'
p7671
aa(lp7672
I6009
aS'165'
p7673
aS'196'
p7674
aasS'5D1K'
p7675
(lp7676
(lp7677
I263
aS'6'
aS'142'
p7678
aa(lp7679
I1718
aS'137'
p7680
aS'205'
p7681
aasS'3H3Z'
p7682
(lp7683
(lp7684
I996
aS'153'
p7685
aS'222'
p7686
aa(lp7687
I2703
aS'34'
p7688
aS'121'
p7689
aasS'4DRN'
p7690
(lp7691
(lp7692
I250
aS'44'
p7693
aS'135'
p7694
aasS'4KTQ'
p7695
(lp7696
(lp7697
I3939
aS'455'
p7698
aS'828'
p7699
aa(lp7700
I7506
aS'295'
p7701
aS'420'
p7702
aasS'3CEG'
p7703
(lp7704
(lp7705
I263
aS'4549'
p7706
aS'4705'
p7707
aasS'4N19'
p7708
(lp7709
(lp7710
I250
aS'13'
p7711
aS'104'
p7712
aasS'1L5U'
p7713
(lp7714
(lp7715
I3939
aS'498'
p7716
aS'874'
p7717
aasS'1PBK'
p7718
(lp7719
(lp7720
I250
aS'122'
p7721
aS'221'
p7722
aasS'4R08'
p7723
(lp7724
(lp7725
I2515
aS'54'
p7726
aS'97'
p7727
aa(lp7728
I2515
aS'277'
p7729
aS'323'
p7730
aa(lp7731
I2515
aS'485'
p7732
aS'542'
p7733
aa(lp7734
I2515
aS'640'
p7735
aS'700'
p7736
aa(lp7737
I2515
aS'712'
p7738
aS'773'
p7739
aa(lp7740
I2518
aS'247'
p7741
aS'261'
p7742
aasS'4R09'
p7743
(lp7744
(lp7745
I2515
aS'54'
p7746
aS'97'
p7747
aa(lp7748
I2515
aS'277'
p7749
aS'323'
p7750
aa(lp7751
I2515
aS'485'
p7752
aS'542'
p7753
aa(lp7754
I2515
aS'640'
p7755
aS'700'
p7756
aa(lp7757
I2515
aS'712'
p7758
aS'773'
p7759
aa(lp7760
I2518
aS'247'
p7761
aS'261'
p7762
aasS'2C2V'
p7763
(lp7764
(lp7765
I263
aS'11'
p7766
aS'146'
p7767
aa(lp7768
I263
aS'60'
p7769
aS'161'
p7770
aa(lp7771
I2275
aS'228'
p7772
aS'300'
p7773
aasS'2JCH'
p7774
(lp7775
(lp7776
I4300
aS'425'
p7777
aS'657'
p7778
aa(lp7779
I5477
aS'113'
p7780
aS'119'
p7781
aasS'1YH2'
p7782
(lp7783
(lp7784
I263
aS'6'
aS'146'
p7785
aasS'5CMP'
p7786
(lp7787
(lp7788
I2515
aS'176'
p7789
aS'237'
p7790
aa(lp7791
I2515
aS'247'
p7792
aS'306'
p7793
aasS'1ROU'
p7794
(lp7795
(lp7796
I250
aS'43'
p7797
aS'134'
p7798
aa(lp7799
I250
aS'43'
p7800
aS'134'
p7801
aasS'2O6S'
p7802
(lp7803
(lp7804
I2515
aS'54'
p7805
aS'87'
p7806
aa(lp7807
I2515
aS'124'
p7808
aS'181'
p7809
aa(lp7810
I2518
aS'100'
p7811
aS'122'
p7812
aa(lp7813
I2853
aS'186'
p7814
aS'231'
p7815
aasS'1E3U'
p7816
(lp7817
(lp7818
I4300
aS'56'
p7819
aS'259'
p7820
aa(lp7821
I4300
aS'56'
p7822
aS'259'
p7823
aasS'2WFH'
p7824
(lp7825
(lp7826
I747
aS'727'
p7827
aS'753'
p7828
aa(lp7829
I2515
aS'778'
p7830
aS'837'
p7831
aa(lp7832
I3321
aS'884'
p7833
aS'907'
p7834
aasS'4KT1'
p7835
(lp7836
(lp7837
I747
aS'29'
p7838
aS'55'
p7839
aa(lp7840
I2515
aS'61'
p7841
aS'117'
p7842
aa(lp7843
I2515
aS'177'
p7844
aS'237'
p7845
aa(lp7846
I2515
aS'248'
p7847
aS'305'
p7848
aa(lp7849
I2515
aS'367'
p7850
aS'425'
p7851
aa(lp7852
I2518
aS'345'
p7853
aS'360'
p7854
aa(lp7855
I2960
aS'42'
p7856
aS'127'
p7857
aasS'4V3K'
p7858
(lp7859
(lp7860
I263
aS'5'
aS'141'
p7861
aa(lp7862
I1718
aS'413'
p7863
aS'454'
p7864
aa(lp7865
I2656
aS'6'
aS'74'
p7866
aasS'4N1X'
p7867
(lp7868
(lp7869
I4300
aS'631'
p7870
aS'941'
p7871
aasS'2Z2L'
p7872
(lp7873
(lp7874
I78
aS'695'
p7875
aS'749'
p7876
aa(lp7877
I3563
aS'74'
p7878
aS'232'
p7879
aa(lp7880
I4300
aS'289'
p7881
aS'609'
p7882
aasS'4R0A'
p7883
(lp7884
(lp7885
I2515
aS'54'
p7886
aS'97'
p7887
aa(lp7888
I2515
aS'277'
p7889
aS'323'
p7890
aa(lp7891
I2515
aS'485'
p7892
aS'542'
p7893
aa(lp7894
I2515
aS'640'
p7895
aS'700'
p7896
aa(lp7897
I2515
aS'712'
p7898
aS'773'
p7899
aa(lp7900
I2518
aS'247'
p7901
aS'261'
p7902
aasS'1O3R'
p7903
(lp7904
(lp7905
I2703
aS'22'
p7906
aS'108'
p7907
aa(lp7908
I6009
aS'165'
p7909
aS'196'
p7910
aasS'2O6Q'
p7911
(lp7912
(lp7913
I2515
aS'62'
p7914
aS'119'
p7915
aa(lp7916
I2515
aS'132'
p7917
aS'191'
p7918
aasS'2R9U'
p7919
(lp7920
(lp7921
I2515
aS'53'
p7922
aS'109'
p7923
aa(lp7924
I2853
aS'137'
p7925
aS'185'
p7926
aasS'4V3L'
p7927
(lp7928
(lp7929
I263
aS'5'
aS'141'
p7930
aa(lp7931
I1718
aS'413'
p7932
aS'454'
p7933
aa(lp7934
I2656
aS'6'
aS'74'
p7935
aasS'4R0X'
p7936
(lp7937
(lp7938
I250
aS'44'
p7939
aS'135'
p7940
aasS'1Z2U'
p7941
(lp7942
(lp7943
I263
aS'5'
aS'141'
p7944
aasS'2LXP'
p7945
(lp7946
(lp7947
I263
aS'8'
aS'158'
p7948
aa(lp7949
I1718
aS'339'
p7950
aS'379'
p7951
aasS'4R0Q'
p7952
(lp7953
(lp7954
I4300
aS'631'
p7955
aS'941'
p7956
aasS'2BYV'
p7957
(lp7958
(lp7959
I648
aS'482'
p7960
aS'587'
p7961
aa(lp7962
I1321
aS'204'
p7963
aS'271'
p7964
aa(lp7965
I2703
aS'63'
p7966
aS'150'
p7967
aa(lp7968
I2703
aS'360'
p7969
aS'440'
p7970
aa(lp7971
I2727
aS'757'
p7972
aS'934'
p7973
aasS'3E6B'
p7974
(lp7975
(lp7976
I996
aS'152'
p7977
aS'224'
p7978
aa(lp7979
I2703
aS'35'
p7980
aS'118'
p7981
aasS'3E6C'
p7982
(lp7983
(lp7984
I996
aS'152'
p7985
aS'224'
p7986
aa(lp7987
I2703
aS'35'
p7988
aS'118'
p7989
aasS'4I0A'
p7990
(lp7991
(lp7992
I2703
aS'23'
p7993
aS'109'
p7994
aa(lp7995
I2703
aS'23'
p7996
aS'109'
p7997
aa(lp7998
I6009
aS'166'
p7999
aS'197'
p8000
aa(lp8001
I6009
aS'166'
p8002
aS'197'
p8003
aasS'3RFJ'
p8004
(lp8005
(lp8006
I2515
aS'59'
p8007
aS'97'
p8008
aa(lp8009
I2515
aS'109'
p8010
aS'169'
p8011
aa(lp8012
I2853
aS'220'
p8013
aS'266'
p8014
aa(lp8015
I5439
aS'4'
aS'23'
p8016
aasS'3E6D'
p8017
(lp8018
(lp8019
I996
aS'152'
p8020
aS'224'
p8021
aa(lp8022
I2703
aS'35'
p8023
aS'118'
p8024
aasS'3E6J'
p8025
(lp8026
(lp8027
I2515
aS'50'
p8028
aS'109'
p8029
aa(lp8030
I2515
aS'122'
p8031
aS'178'
p8032
aasS'4BWJ'
p8033
(lp8034
(lp8035
I3939
aS'455'
p8036
aS'828'
p8037
aa(lp8038
I7506
aS'295'
p8039
aS'420'
p8040
aasS'2Q0A'
p8041
(lp8042
(lp8043
I2703
aS'536'
p8044
aS'618'
p8045
aasS'2GRQ'
p8046
(lp8047
(lp8048
I263
aS'8'
aS'150'
p8049
aa(lp8050
I2362
aS'431'
p8051
aS'585'
p8052
aasS'3R6S'
p8053
(lp8054
(lp8055
I996
aS'151'
p8056
aS'224'
p8057
aa(lp8058
I2703
aS'32'
p8059
aS'117'
p8060
aasS'4BWM'
p8061
(lp8062
(lp8063
I3939
aS'455'
p8064
aS'828'
p8065
aa(lp8066
I7506
aS'295'
p8067
aS'420'
p8068
aasS'4PO4'
p8069
(lp8070
(lp8071
I2515
aS'42'
p8072
aS'100'
p8073
aa(lp8074
I2515
aS'112'
p8075
aS'171'
p8076
aasS'1DPI'
p8077
(lp8078
(lp8079
I3939
aS'551'
p8080
aS'925'
p8081
aa(lp8082
I6020
aS'330'
p8083
aS'517'
p8084
aasS'3T3F'
p8085
(lp8086
(lp8087
I3939
aS'455'
p8088
aS'828'
p8089
aa(lp8090
I7506
aS'295'
p8091
aS'420'
p8092
aasS'3CIG'
p8093
(lp8094
(lp8095
I2515
aS'76'
p8096
aS'135'
p8097
aa(lp8098
I2515
aS'274'
p8099
aS'330'
p8100
aa(lp8101
I2515
aS'345'
p8102
aS'387'
p8103
aa(lp8104
I2515
aS'409'
p8105
aS'467'
p8106
aa(lp8107
I2515
aS'480'
p8108
aS'542'
p8109
aa(lp8110
I2515
aS'562'
p8111
aS'622'
p8112
aa(lp8113
I2518
aS'52'
p8114
aS'71'
p8115
aa(lp8116
I2518
aS'198'
p8117
aS'218'
p8118
aasS'4DDG'
p8119
(lp8120
(lp8121
I263
aS'5'
aS'141'
p8122
aa(lp8123
I2656
aS'6'
aS'74'
p8124
aa(lp8125
I5097
aS'1043'
p8126
aS'1271'
p8127
aasS'2EDI'
p8128
(lp8129
(lp8130
I263
aS'19'
p8131
aS'161'
p8132
aa(lp8133
I263
aS'19'
p8134
aS'161'
p8135
aasS'4QXE'
p8136
(lp8137
(lp8138
I747
aS'29'
p8139
aS'55'
p8140
aa(lp8141
I2515
aS'61'
p8142
aS'117'
p8143
aa(lp8144
I2515
aS'177'
p8145
aS'237'
p8146
aa(lp8147
I2515
aS'248'
p8148
aS'305'
p8149
aa(lp8150
I2515
aS'367'
p8151
aS'423'
p8152
aa(lp8153
I2518
aS'345'
p8154
aS'360'
p8155
aa(lp8156
I2853
aS'428'
p8157
aS'466'
p8158
aasS'1U45'
p8159
(lp8160
(lp8161
I3939
aS'498'
p8162
aS'874'
p8163
aasS'2Q0V'
p8164
(lp8165
(lp8166
I263
aS'38'
p8167
aS'148'
p8168
aasS'2AWG'
p8169
(lp8170
(lp8171
I250
aS'115'
p8172
aS'200'
p8173
aasS'2UCZ'
p8174
(lp8175
(lp8176
I263
aS'8'
aS'157'
p8177
aasS'4LAV'
p8178
(lp8179
(lp8180
I250
aS'44'
p8181
aS'135'
p8182
aa(lp8183
I250
aS'162'
p8184
aS'249'
p8185
aasS'1LB2'
p8186
(lp8187
(lp8188
I2703
aS'22'
p8189
aS'108'
p8190
aa(lp8191
I3219
aS'251'
p8192
aS'308'
p8193
aa(lp8194
I6009
aS'165'
p8195
aS'196'
p8196
aasS'4JUE'
p8197
(lp8198
(lp8199
I263
aS'7'
aS'150'
p8200
aasS'1K56'
p8201
(lp8202
(lp8203
I4300
aS'56'
p8204
aS'259'
p8205
aa(lp8206
I4300
aS'56'
p8207
aS'259'
p8208
aasS'1K55'
p8209
(lp8210
(lp8211
I4300
aS'56'
p8212
aS'259'
p8213
aa(lp8214
I4300
aS'56'
p8215
aS'259'
p8216
aa(lp8217
I4300
aS'56'
p8218
aS'259'
p8219
aa(lp8220
I4300
aS'56'
p8221
aS'259'
p8222
aasS'1U47'
p8223
(lp8224
(lp8225
I3939
aS'498'
p8226
aS'874'
p8227
aasS'4LAY'
p8228
(lp8229
(lp8230
I250
aS'44'
p8231
aS'135'
p8232
aa(lp8233
I250
aS'162'
p8234
aS'249'
p8235
aasS'2KI3'
p8236
(lp8237
(lp8238
I250
aS'32'
p8239
aS'122'
p8240
aasS'4YEB'
p8241
(lp8242
(lp8243
I2515
aS'183'
p8244
aS'244'
p8245
aa(lp8246
I2515
aS'255'
p8247
aS'313'
p8248
aa(lp8249
I5508
aS'227'
p8250
aS'466'
p8251
aasS'4LAD'
p8252
(lp8253
(lp8254
I263
aS'8'
aS'158'
p8255
aa(lp8256
I1718
aS'339'
p8257
aS'379'
p8258
aasS'3ZG8'
p8259
(lp8260
(lp8261
I4300
aS'357'
p8262
aS'621'
p8263
aa(lp8264
I5477
aS'184'
p8265
aS'259'
p8266
aasS'3ZG9'
p8267
(lp8268
(lp8269
I4300
aS'357'
p8270
aS'621'
p8271
aa(lp8272
I5477
aS'186'
p8273
aS'259'
p8274
aasS'4QC0'
p8275
(lp8276
(lp8277
I2515
aS'54'
p8278
aS'97'
p8279
aa(lp8280
I2515
aS'277'
p8281
aS'323'
p8282
aa(lp8283
I2515
aS'485'
p8284
aS'542'
p8285
aa(lp8286
I2515
aS'640'
p8287
aS'700'
p8288
aa(lp8289
I2515
aS'712'
p8290
aS'773'
p8291
aa(lp8292
I2518
aS'247'
p8293
aS'261'
p8294
aasS'3ZG7'
p8295
(lp8296
(lp8297
I4300
aS'357'
p8298
aS'621'
p8299
aa(lp8300
I5477
aS'185'
p8301
aS'259'
p8302
aasS'2D93'
p8303
(lp8304
(lp8305
I2703
aS'46'
p8306
aS'124'
p8307
aasS'2XGX'
p8308
(lp8309
(lp8310
I996
aS'147'
p8311
aS'218'
p8312
aa(lp8313
I2703
aS'25'
p8314
aS'111'
p8315
aasS'3IDB'
p8316
(lp8317
(lp8318
I252
aS'44'
p8319
aS'297'
p8320
aa(lp8321
I2703
aS'172'
p8322
aS'256'
p8323
aasS'3ZG0'
p8324
(lp8325
(lp8326
I922
aS'28'
p8327
aS'140'
p8328
aa(lp8329
I3563
aS'148'
p8330
aS'309'
p8331
aa(lp8332
I4300
aS'346'
p8333
aS'657'
p8334
aasS'1NK0'
p8335
(lp8336
(lp8337
I3939
aS'498'
p8338
aS'874'
p8339
aasS'4NRI'
p8340
(lp8341
(lp8342
I263
aS'31'
p8343
aS'133'
p8344
aa(lp8345
I263
aS'7'
aS'142'
p8346
aasS'1NK4'
p8347
(lp8348
(lp8349
I3939
aS'498'
p8350
aS'874'
p8351
aasS'1NK5'
p8352
(lp8353
(lp8354
I3939
aS'498'
p8355
aS'874'
p8356
aasS'1NK6'
p8357
(lp8358
(lp8359
I3939
aS'498'
p8360
aS'874'
p8361
aasS'1NK7'
p8362
(lp8363
(lp8364
I3939
aS'498'
p8365
aS'874'
p8366
aasS'1NK8'
p8367
(lp8368
(lp8369
I3939
aS'498'
p8370
aS'874'
p8371
aa(lp8372
I3939
aS'498'
p8373
aS'874'
p8374
aasS'1NK9'
p8375
(lp8376
(lp8377
I3939
aS'498'
p8378
aS'874'
p8379
aasS'1O7F'
p8380
(lp8381
(lp8382
I1321
aS'204'
p8383
aS'271'
p8384
aa(lp8385
I2703
aS'63'
p8386
aS'150'
p8387
aa(lp8388
I2703
aS'360'
p8389
aS'440'
p8390
aasS'3I59'
p8391
(lp8392
(lp8393
I996
aS'148'
p8394
aS'221'
p8395
aa(lp8396
I996
aS'148'
p8397
aS'215'
p8398
aa(lp8399
I2703
aS'29'
p8400
aS'114'
p8401
aa(lp8402
I2703
aS'29'
p8403
aS'114'
p8404
aasS'4WBB'
p8405
(lp8406
(lp8407
I252
aS'44'
p8408
aS'297'
p8409
aa(lp8410
I2703
aS'172'
p8411
aS'256'
p8412
aa(lp8413
I2703
aS'293'
p8414
aS'383'
p8415
aasS'4F2R'
p8416
(lp8417
(lp8418
I3939
aS'498'
p8419
aS'874'
p8420
aasS'4U06'
p8421
(lp8422
(lp8423
I2515
aS'48'
p8424
aS'104'
p8425
aa(lp8426
I2515
aS'139'
p8427
aS'196'
p8428
aa(lp8429
I2515
aS'205'
p8430
aS'242'
p8431
aa(lp8432
I2515
aS'254'
p8433
aS'311'
p8434
aa(lp8435
I2518
aS'116'
p8436
aS'131'
p8437
aasS'4DDI'
p8438
(lp8439
(lp8440
I263
aS'5'
aS'141'
p8441
aa(lp8442
I2656
aS'6'
aS'74'
p8443
aa(lp8444
I5097
aS'1043'
p8445
aS'1271'
p8446
aasS'3IHZ'
p8447
(lp8448
(lp8449
I250
aS'32'
p8450
aS'122'
p8451
aasS'4OOL'
p8452
(lp8453
(lp8454
I3563
aS'58'
p8455
aS'207'
p8456
aa(lp8457
I4300
aS'247'
p8458
aS'546'
p8459
aasS'3K9P'
p8460
(lp8461
(lp8462
I263
aS'8'
aS'147'
p8463
aa(lp8464
I2656
aS'6'
aS'72'
p8465
aa(lp8466
I3155
aS'162'
p8467
aS'197'
p8468
aasS'3PNA'
p8469
(lp8470
(lp8471
I2703
aS'154'
p8472
aS'234'
p8473
aasS'1A7X'
p8474
(lp8475
(lp8476
I250
aS'13'
p8477
aS'104'
p8478
aasS'4F3O'
p8479
(lp8480
(lp8481
I3939
aS'498'
p8482
aS'874'
p8483
aasS'4YE5'
p8484
(lp8485
(lp8486
I3563
aS'62'
p8487
aS'231'
p8488
aa(lp8489
I4300
aS'277'
p8490
aS'576'
p8491
aasS'1WGP'
p8492
(lp8493
(lp8494
I2703
aS'35'
p8495
aS'123'
p8496
aasS'2BG1'
p8497
(lp8498
(lp8499
I4300
aS'425'
p8500
aS'657'
p8501
aasS'1P5Q'
p8502
(lp8503
(lp8504
I250
aS'162'
p8505
aS'249'
p8506
aa(lp8507
I2998
aS'354'
p8508
aS'386'
p8509
aa(lp8510
I5736
aS'274'
p8511
aS'349'
p8512
aasS'2Y2Q'
p8513
(lp8514
(lp8515
I4300
aS'425'
p8516
aS'657'
p8517
aasS'4M1N'
p8518
(lp8519
(lp8520
I263
aS'7'
aS'150'
p8521
aasS'2Z5D'
p8522
(lp8523
(lp8524
I263
aS'49'
p8525
aS'163'
p8526
aasS'1PMD'
p8527
(lp8528
(lp8529
I78
aS'695'
p8530
aS'749'
p8531
aa(lp8532
I3563
aS'76'
p8533
aS'245'
p8534
aa(lp8535
I4300
aS'289'
p8536
aS'609'
p8537
aasS'2Y2I'
p8538
(lp8539
(lp8540
I4300
aS'425'
p8541
aS'657'
p8542
aasS'2Y2H'
p8543
(lp8544
(lp8545
I4300
aS'425'
p8546
aS'657'
p8547
aasS'2Y2K'
p8548
(lp8549
(lp8550
I4300
aS'425'
p8551
aS'657'
p8552
aasS'1AYZ'
p8553
(lp8554
(lp8555
I263
aS'8'
aS'144'
p8556
aasS'2Y2M'
p8557
(lp8558
(lp8559
I4300
aS'425'
p8560
aS'657'
p8561
aasS'3A4S'
p8562
(lp8563
(lp8564
I263
aS'8'
aS'150'
p8565
aa(lp8566
I5132
aS'342'
p8567
aS'410'
p8568
aasS'2Y2O'
p8569
(lp8570
(lp8571
I4300
aS'425'
p8572
aS'657'
p8573
aasS'2Y2N'
p8574
(lp8575
(lp8576
I4300
aS'425'
p8577
aS'657'
p8578
aasS'3FHI'
p8579
(lp8580
(lp8581
I252
aS'44'
p8582
aS'297'
p8583
aa(lp8584
I252
aS'44'
p8585
aS'297'
p8586
aa(lp8587
I2703
aS'154'
p8588
aS'234'
p8589
aa(lp8590
I2703
aS'154'
p8591
aS'234'
p8592
aasS'3F92'
p8593
(lp8594
(lp8595
I263
aS'8'
aS'147'
p8596
aa(lp8597
I3155
aS'162'
p8598
aS'197'
p8599
aasS'4NR3'
p8600
(lp8601
(lp8602
I263
aS'31'
p8603
aS'133'
p8604
aa(lp8605
I263
aS'7'
aS'142'
p8606
aasS'2Y2G'
p8607
(lp8608
(lp8609
I4300
aS'425'
p8610
aS'657'
p8611
aasS'1OZN'
p8612
(lp8613
(lp8614
I2515
aS'61'
p8615
aS'115'
p8616
aa(lp8617
I2515
aS'156'
p8618
aS'213'
p8619
aasS'2O6R'
p8620
(lp8621
(lp8622
I747
aS'24'
p8623
aS'50'
p8624
aa(lp8625
I2515
aS'54'
p8626
aS'111'
p8627
aa(lp8628
I2853
aS'162'
p8629
aS'200'
p8630
aasS'2OLU'
p8631
(lp8632
(lp8633
I4300
aS'361'
p8634
aS'630'
p8635
aa(lp8636
I5477
aS'82'
p8637
aS'257'
p8638
aasS'1ZIW'
p8639
(lp8640
(lp8641
I2515
aS'75'
p8642
aS'135'
p8643
aa(lp8644
I2515
aS'274'
p8645
aS'330'
p8646
aa(lp8647
I2515
aS'409'
p8648
aS'467'
p8649
aa(lp8650
I2515
aS'480'
p8651
aS'542'
p8652
aa(lp8653
I2515
aS'562'
p8654
aS'622'
p8655
aa(lp8656
I2518
aS'52'
p8657
aS'71'
p8658
aasS'3TWI'
p8659
(lp8660
(lp8661
I747
aS'21'
p8662
aS'48'
p8663
aa(lp8664
I2515
aS'78'
p8665
aS'132'
p8666
aasS'4U08'
p8667
(lp8668
(lp8669
I2515
aS'119'
p8670
aS'176'
p8671
aa(lp8672
I2515
aS'210'
p8673
aS'268'
p8674
aa(lp8675
I2515
aS'303'
p8676
aS'360'
p8677
aasS'4MLL'
p8678
(lp8679
(lp8680
I4300
aS'36'
p8681
aS'258'
p8682
aasS'3WPC'
p8683
(lp8684
(lp8685
I2515
aS'275'
p8686
aS'318'
p8687
aa(lp8688
I2515
aS'476'
p8689
aS'533'
p8690
aa(lp8691
I2515
aS'702'
p8692
aS'762'
p8693
aasS'4A49'
p8694
(lp8695
(lp8696
I263
aS'5'
aS'141'
p8697
aa(lp8698
I5647
aS'380'
p8699
aS'425'
p8700
aas.