(dp1
S'3QCQ'
p2
(lp3
(lp4
I1
aI3
aI423
aasS'3QCS'
p5
(lp6
(lp7
I1
aI3
aI423
aasS'4OGR'
p8
(lp9
(lp10
I1
aI1
aI367
aasS'3QCY'
p11
(lp12
(lp13
I1
aI3
aI423
aasS'3QCX'
p14
(lp15
(lp16
I1
aI3
aI423
aasS'3CGO'
p17
(lp18
(lp19
I1
aI1
aI418
aasS'3CGF'
p20
(lp21
(lp22
I1
aI1
aI418
aasS'2PVR'
p23
(lp24
(lp25
I1
aI1
aI389
aasS'3AGM'
p26
(lp27
(lp28
I1
aI2
aI350
aasS'3AGL'
p29
(lp30
(lp31
I1
aI2
aI350
aasS'3TEI'
p32
(lp33
(lp34
I1
aI17
aI734
aasS'2XUU'
p35
(lp36
(lp37
I2
aI348
aI679
aa(lp38
I1
aI1
aI383
aasS'3OWK'
p39
(lp40
(lp41
I1
aI1
aI389
aasS'3OWJ'
p42
(lp43
(lp44
I1
aI1
aI389
aasS'3CY3'
p45
(lp46
(lp47
I1
aI71
aI402
aasS'3CY2'
p48
(lp49
(lp50
I1
aI71
aI402
aasS'3OWL'
p51
(lp52
(lp53
I1
aI1
aI389
aasS'2YWP'
p54
(lp55
(lp56
I1
aI1
aI466
aasS'4X0M'
p57
(lp58
(lp59
I1
aI100
aI501
aasS'4BBM'
p60
(lp61
(lp62
I1
aI1
aI457
aasS'3MB6'
p63
(lp64
(lp65
I1
aI1
aI389
aasS'3MB7'
p66
(lp67
(lp68
I1
aI1
aI389
aasS'4O1P'
p69
(lp70
(lp71
I2
aI12
aI308
aa(lp72
I1
aI340
aI709
aasS'3OW4'
p73
(lp74
(lp75
I1
aI17
aI385
aasS'3AG9'
p76
(lp77
(lp78
I1
aI2
aI350
aasS'4O1O'
p79
(lp80
(lp81
I2
aI12
aI308
aa(lp82
I1
aI340
aI709
aasS'2W5B'
p83
(lp84
(lp85
I1
aI1
aI370
aasS'4MBL'
p86
(lp87
(lp88
I1
aI71
aI402
aasS'3R1N'
p89
(lp90
(lp91
I1
aI13
aI376
aasS'3TWJ'
p92
(lp93
(lp94
I1
aI6
aI1198
aasS'3QC4'
p95
(lp96
(lp97
I1
aI3
aI423
aasS'3N9X'
p98
(lp99
(lp100
I1
aI1
aI418
aasS'2Z7Q'
p101
(lp102
(lp103
I1
aI17
aI734
aasS'2Z7S'
p104
(lp105
(lp106
I1
aI17
aI734
aasS'2Z7R'
p107
(lp108
(lp109
I1
aI17
aI734
aasS'4YO4'
p110
(lp111
(lp112
I2
aI348
aI679
aa(lp113
I1
aI1
aI383
aasS'2Z7L'
p114
(lp115
(lp116
I1
aI12
aI357
aasS'3RWP'
p117
(lp118
(lp119
I1
aI3
aI423
aasS'3RWQ'
p120
(lp121
(lp122
I1
aI3
aI423
aasS'2R5T'
p123
(lp124
(lp125
I1
aI27
aI431
aasS'4LL5'
p126
(lp127
(lp128
I1
aI71
aI402
aasS'3ORX'
p129
(lp130
(lp131
I1
aI3
aI423
aasS'3QU0'
p132
(lp133
(lp134
I1
aI1
aI298
aasS'2W5H'
p135
(lp136
(lp137
I1
aI1
aI370
aasS'3OEF'
p138
(lp139
(lp140
I1
aI2
aI354
aasS'4QFG'
p141
(lp142
(lp143
I1
aI4
aI476
aasS'4CRL'
p144
(lp145
(lp146
I1
aI14
aI395
aasS'4WT6'
p147
(lp148
(lp149
I1
aI71
aI402
aasS'3M1S'
p150
(lp151
(lp152
I1
aI17
aI385
aasS'4QFS'
p153
(lp154
(lp155
I1
aI4
aI476
aasS'4FX3'
p156
(lp157
(lp158
I1
aI1
aI298
aasS'4DFY'
p159
(lp160
(lp161
I1
aI2
aI350
aasS'4CRS'
p162
(lp163
(lp164
I1
aI596
aI981
aasS'4QMM'
p165
(lp166
(lp167
I1
aI6
aI353
aasS'3M11'
p168
(lp169
(lp170
I1
aI43
aI403
aasS'4DTK'
p171
(lp172
(lp173
I1
aI71
aI402
aasS'1WZY'
p174
(lp175
(lp176
I1
aI14
aI359
aasS'3QUE'
p177
(lp178
(lp179
I1
aI2
aI354
aasS'3FXZ'
p180
(lp181
(lp182
I3
aI66
aI110
aa(lp183
I1
aI204
aI545
aasS'2VTP'
p184
(lp185
(lp186
I1
aI1
aI298
aasS'2OU7'
p187
(lp188
(lp189
I1
aI2
aI587
aasS'2VTR'
p190
(lp191
(lp192
I1
aI1
aI298
aasS'2VTS'
p193
(lp194
(lp195
I1
aI1
aI298
aasS'2VTT'
p196
(lp197
(lp198
I1
aI1
aI298
aasS'2V7O'
p199
(lp200
(lp201
I4
aI357
aI558
aa(lp202
I1
aI1
aI419
aasS'2VTH'
p203
(lp204
(lp205
I1
aI1
aI298
aasS'2VTI'
p206
(lp207
(lp208
I1
aI1
aI298
aasS'2VTJ'
p209
(lp210
(lp211
I1
aI1
aI298
aasS'2VTL'
p212
(lp213
(lp214
I1
aI1
aI298
aasS'2VTM'
p215
(lp216
(lp217
I1
aI1
aI298
aasS'2VTN'
p218
(lp219
(lp220
I1
aI1
aI298
aasS'2VTO'
p221
(lp222
(lp223
I1
aI1
aI298
aasS'2VTA'
p224
(lp225
(lp226
I1
aI1
aI298
aasS'1CKJ'
p227
(lp228
(lp229
I1
aI1
aI339
aasS'4APP'
p230
(lp231
(lp232
I5
aI1
aI116
aa(lp233
I1
aI244
aI591
aasS'4DHF'
p234
(lp235
(lp236
I1
aI43
aI403
aasS'3DB8'
p237
(lp238
(lp239
I1
aI1
aI317
aasS'2CJM'
p240
(lp241
(lp242
I1
aI1
aI298
aasS'1ZZL'
p243
(lp244
(lp245
I1
aI2
aI354
aasS'3DB6'
p246
(lp247
(lp248
I1
aI2
aI301
aasS'4APC'
p249
(lp250
(lp251
I1
aI1
aI319
aasS'4JDJ'
p252
(lp253
(lp254
I5
aI1
aI116
aa(lp255
I1
aI244
aI591
aasS'4JDK'
p256
(lp257
(lp258
I5
aI1
aI116
aa(lp259
I1
aI244
aI591
aasS'4JDH'
p260
(lp261
(lp262
I5
aI1
aI116
aa(lp263
I1
aI244
aI591
aasS'4JDI'
p264
(lp265
(lp266
I5
aI1
aI116
aa(lp267
I1
aI244
aI591
aasS'4OR5'
p268
(lp269
(lp270
I1
aI1
aI367
aasS'4RLP'
p271
(lp272
(lp273
I1
aI42
aI449
aasS'3E92'
p274
(lp275
(lp276
I1
aI2
aI354
aasS'3W55'
p277
(lp278
(lp279
I1
aI14
aI359
aasS'3RIN'
p280
(lp281
(lp282
I1
aI2
aI354
aasS'4RLO'
p283
(lp284
(lp285
I1
aI42
aI449
aasS'4RLL'
p286
(lp287
(lp288
I1
aI1
aI389
aasS'4RLK'
p289
(lp290
(lp291
I1
aI1
aI327
aasS'4B4L'
p292
(lp293
(lp294
I2
aI348
aI679
aa(lp295
I1
aI1
aI383
aasS'2HXL'
p296
(lp297
(lp298
I1
aI1
aI466
aasS'1X8B'
p299
(lp300
(lp301
I1
aI280
aI640
aasS'2XIK'
p302
(lp303
(lp304
I1
aI1
aI325
aasS'3V8S'
p305
(lp306
(lp307
I1
aI6
aI1198
aasS'3LJ2'
p308
(lp309
(lp310
I6
aI1
aI1115
aasS'3LJ1'
p311
(lp312
(lp313
I6
aI1
aI1115
aasS'3LJ0'
p314
(lp315
(lp316
I6
aI1
aI1115
aasS'2XIY'
p317
(lp318
(lp319
I1
aI71
aI402
aasS'2XIX'
p320
(lp321
(lp322
I1
aI71
aI402
aasS'2XIZ'
p323
(lp324
(lp325
I1
aI71
aI402
aasS'3DBC'
p326
(lp327
(lp328
I1
aI1
aI317
aasS'2J7T'
p329
(lp330
(lp331
I7
aI411
aI964
aa(lp332
I1
aI1
aI380
aasS'2ZMD'
p333
(lp334
(lp335
I1
aI490
aI832
aasS'2ZMC'
p336
(lp337
(lp338
I1
aI490
aI832
aasS'3DBF'
p339
(lp340
(lp341
I1
aI2
aI301
aasS'3DBE'
p342
(lp343
(lp344
I1
aI2
aI301
aasS'3DBD'
p345
(lp346
(lp347
I1
aI1
aI317
aasS'3R28'
p348
(lp349
(lp350
I1
aI1
aI298
aasS'3R21'
p351
(lp352
(lp353
I1
aI43
aI403
aasS'3R22'
p354
(lp355
(lp356
I1
aI43
aI403
aasS'4ENY'
p357
(lp358
(lp359
I1
aI71
aI402
aasS'4G31'
p360
(lp361
(lp362
I1
aI830
aI1116
aa(lp363
I1
aI579
aI681
aasS'4G34'
p364
(lp365
(lp366
I1
aI830
aI1116
aa(lp367
I1
aI579
aI681
aasS'3IS5'
p368
(lp369
(lp370
I1
aI1
aI285
aasS'2CN5'
p371
(lp372
(lp373
I1
aI113
aI522
aasS'4KS7'
p374
(lp375
(lp376
I5
aI1
aI112
aa(lp377
I1
aI365
aI681
aasS'1VYZ'
p378
(lp379
(lp380
I1
aI1
aI298
aasS'1OI9'
p381
(lp382
(lp383
I1
aI1
aI298
aasS'3ITZ'
p384
(lp385
(lp386
I1
aI2
aI354
aasS'2CN8'
p387
(lp388
(lp389
I1
aI113
aI522
aasS'2QHM'
p390
(lp391
(lp392
I1
aI1
aI466
aasS'2OI4'
p393
(lp394
(lp395
I1
aI71
aI402
aasS'1OIR'
p396
(lp397
(lp398
I1
aI1
aI298
aasS'1OIQ'
p399
(lp400
(lp401
I1
aI1
aI298
aasS'1OIU'
p402
(lp403
(lp404
I1
aI1
aI298
aasS'1OIT'
p405
(lp406
(lp407
I1
aI1
aI298
aasS'1OIY'
p408
(lp409
(lp410
I1
aI1
aI298
aasS'1Q4L'
p411
(lp412
(lp413
I1
aI17
aI385
aasS'4G3C'
p414
(lp415
(lp416
I1
aI346
aI688
aasS'4G3F'
p417
(lp418
(lp419
I1
aI346
aI688
aasS'4G3G'
p420
(lp421
(lp422
I1
aI346
aI688
aasS'4G3D'
p423
(lp424
(lp425
I1
aI344
aI692
aasS'4G3E'
p426
(lp427
(lp428
I1
aI346
aI688
aasS'3IPH'
p429
(lp430
(lp431
I1
aI2
aI354
aasS'1DM2'
p432
(lp433
(lp434
I1
aI1
aI298
aasS'4MNE'
p435
(lp436
(lp437
I1
aI8
aI388
aasS'3DS6'
p438
(lp439
(lp440
I1
aI2
aI354
aasS'3R2B'
p441
(lp442
(lp443
I1
aI8
aI397
aasS'4BCO'
p444
(lp445
(lp446
I1
aI1
aI298
aasS'4BCN'
p447
(lp448
(lp449
I1
aI1
aI298
aasS'4BCM'
p450
(lp451
(lp452
I1
aI1
aI298
aasS'4BCK'
p453
(lp454
(lp455
I1
aI1
aI298
aasS'3C50'
p456
(lp457
(lp458
I1
aI3
aI529
aasS'4O0Y'
p459
(lp460
(lp461
I5
aI1
aI116
aa(lp462
I1
aI244
aI591
aasS'4O0X'
p463
(lp464
(lp465
I5
aI1
aI116
aa(lp466
I1
aI244
aI591
aasS'4BCG'
p467
(lp468
(lp469
I1
aI1
aI367
aasS'4O0V'
p470
(lp471
(lp472
I5
aI1
aI116
aa(lp473
I1
aI244
aI591
aasS'2WIP'
p474
(lp475
(lp476
I1
aI1
aI298
aasS'4O0T'
p477
(lp478
(lp479
I3
aI66
aI110
aa(lp480
I1
aI204
aI545
aasS'4O0S'
p481
(lp482
(lp483
I1
aI43
aI403
aasS'4O0R'
p484
(lp485
(lp486
I3
aI66
aI110
aa(lp487
I1
aI204
aI545
aasS'2WIH'
p488
(lp489
(lp490
I1
aI1
aI298
aasS'3F88'
p491
(lp492
(lp493
I1
aI17
aI385
aasS'3HV3'
p494
(lp495
(lp496
I1
aI2
aI354
aasS'4E3C'
p497
(lp498
(lp499
I8
aI4
aI675
aasS'3HV7'
p500
(lp501
(lp502
I1
aI2
aI354
aasS'4MAO'
p503
(lp504
(lp505
I1
aI11
aI739
aasS'1OUY'
p506
(lp507
(lp508
I1
aI2
aI354
aasS'4BCP'
p509
(lp510
(lp511
I1
aI1
aI298
aasS'3E3P'
p512
(lp513
(lp514
I1
aI1
aI355
aasS'2P55'
p515
(lp516
(lp517
I1
aI8
aI388
aasS'4QYY'
p518
(lp519
(lp520
I1
aI12
aI357
aasS'5AUY'
p521
(lp522
(lp523
I2
aI348
aI679
aa(lp524
I1
aI1
aI383
aasS'5AUX'
p525
(lp526
(lp527
I2
aI348
aI679
aa(lp528
I1
aI1
aI383
aasS'3E3B'
p529
(lp530
(lp531
I1
aI1
aI347
aasS'1H1P'
p532
(lp533
(lp534
I1
aI1
aI298
aasS'1H1Q'
p535
(lp536
(lp537
I1
aI1
aI298
aasS'1H1R'
p538
(lp539
(lp540
I1
aI1
aI298
aasS'1H1S'
p541
(lp542
(lp543
I1
aI1
aI298
aasS'3G51'
p544
(lp545
(lp546
I1
aI11
aI739
aasS'4QYG'
p547
(lp548
(lp549
I1
aI1
aI466
aasS'4QYE'
p550
(lp551
(lp552
I1
aI1
aI466
aasS'5AUU'
p553
(lp554
(lp555
I2
aI348
aI679
aa(lp556
I1
aI1
aI383
aasS'5AUT'
p557
(lp558
(lp559
I2
aI348
aI679
aa(lp560
I1
aI1
aI383
aasS'5AUW'
p561
(lp562
(lp563
I2
aI348
aI679
aa(lp564
I1
aI1
aI383
aasS'5AUV'
p565
(lp566
(lp567
I2
aI348
aI679
aa(lp568
I1
aI1
aI383
aasS'1KE7'
p569
(lp570
(lp571
I1
aI1
aI298
aasS'1KE6'
p572
(lp573
(lp574
I1
aI1
aI298
aasS'1KE5'
p575
(lp576
(lp577
I1
aI1
aI298
aasS'2PMN'
p578
(lp579
(lp580
I1
aI5
aI343
aasS'1KE9'
p581
(lp582
(lp583
I1
aI1
aI298
aasS'1KE8'
p584
(lp585
(lp586
I1
aI1
aI298
aasS'2R64'
p587
(lp588
(lp589
I1
aI1
aI298
aasS'3TV7'
p590
(lp591
(lp592
I1
aI6
aI1198
aasS'3EFW'
p593
(lp594
(lp595
I1
aI43
aI403
aasS'3HVC'
p596
(lp597
(lp598
I1
aI2
aI354
aasS'3NNU'
p599
(lp600
(lp601
I1
aI2
aI354
aasS'3NNW'
p602
(lp603
(lp604
I1
aI2
aI354
aasS'3NNV'
p605
(lp606
(lp607
I1
aI2
aI354
aasS'2WAJ'
p608
(lp609
(lp610
I1
aI1
aI418
aasS'4BC6'
p611
(lp612
(lp613
I7
aI411
aI964
aa(lp614
I1
aI1
aI380
aasS'3DGK'
p615
(lp616
(lp617
I2
aI348
aI679
aa(lp618
I1
aI1
aI383
aasS'3NNX'
p619
(lp620
(lp621
I1
aI2
aI354
aasS'3QC9'
p622
(lp623
(lp624
I1
aI3
aI529
aasS'4ENX'
p625
(lp626
(lp627
I1
aI71
aI402
aasS'3OTU'
p628
(lp629
(lp630
I1
aI3
aI423
aasS'4BKY'
p631
(lp632
(lp633
I9
aI554
aI651
aa(lp634
I1
aI1
aI406
aasS'3QD0'
p635
(lp636
(lp637
I1
aI3
aI423
aasS'3QD2'
p638
(lp639
(lp640
I1
aI826
aI1107
aa(lp641
I1
aI575
aI687
aasS'3QD3'
p642
(lp643
(lp644
I1
aI3
aI423
aasS'3QD4'
p645
(lp646
(lp647
I1
aI3
aI423
aasS'4LMU'
p648
(lp649
(lp650
I1
aI71
aI402
aasS'4EH3'
p651
(lp652
(lp653
I1
aI2
aI354
aasS'4LMN'
p654
(lp655
(lp656
I1
aI8
aI388
aasS'2BR1'
p657
(lp658
(lp659
I1
aI1
aI466
aasS'2BRN'
p660
(lp661
(lp662
I1
aI1
aI466
aasS'2BRO'
p663
(lp664
(lp665
I1
aI1
aI466
aasS'2BRM'
p666
(lp667
(lp668
I1
aI1
aI466
aasS'4LM5'
p669
(lp670
(lp671
I1
aI71
aI402
aasS'4YNO'
p672
(lp673
(lp674
I1
aI1
aI369
aasS'2BRG'
p675
(lp676
(lp677
I1
aI1
aI466
aasS'4BCI'
p678
(lp679
(lp680
I1
aI1
aI367
aasS'2BRB'
p681
(lp682
(lp683
I1
aI1
aI466
aasS'4MWH'
p684
(lp685
(lp686
I1
aI1
aI372
aasS'3AXW'
p687
(lp688
(lp689
I1
aI1
aI389
aasS'3SV0'
p690
(lp691
(lp692
I1
aI1
aI428
aasS'3OT3'
p693
(lp694
(lp695
I1
aI1
aI466
aasS'1F0Q'
p696
(lp697
(lp698
I1
aI1
aI327
aasS'3OT8'
p699
(lp700
(lp701
I1
aI1
aI466
aasS'2VGP'
p702
(lp703
(lp704
I1
aI41
aI361
aasS'4AAC'
p705
(lp706
(lp707
I1
aI2
aI354
aasS'4AAA'
p708
(lp709
(lp710
I1
aI1
aI457
aasS'3QXO'
p711
(lp712
(lp713
I1
aI1
aI298
aasS'3KA0'
p714
(lp715
(lp716
I1
aI8
aI397
aasS'3QXP'
p717
(lp718
(lp719
I1
aI1
aI298
aasS'1LP4'
p720
(lp721
(lp722
I1
aI1
aI327
aasS'5AIR'
p723
(lp724
(lp725
I1
aI17
aI396
aasS'2VGO'
p726
(lp727
(lp728
I1
aI41
aI361
aasS'2J0I'
p729
(lp730
(lp731
I5
aI1
aI116
aa(lp732
I1
aI244
aI591
aasS'4BCF'
p733
(lp734
(lp735
I1
aI1
aI367
aasS'2XNM'
p736
(lp737
(lp738
I1
aI1
aI370
aasS'4FG9'
p739
(lp740
(lp741
I1
aI1
aI338
aasS'4FG8'
p742
(lp743
(lp744
I1
aI1
aI338
aasS'4FG7'
p745
(lp746
(lp747
I1
aI1
aI338
aasS'2XNB'
p748
(lp749
(lp750
I1
aI1
aI298
aasS'3FC2'
p751
(lp752
(lp753
I1
aI2
aI587
aasS'2XNE'
p754
(lp755
(lp756
I1
aI43
aI403
aasS'2XNG'
p757
(lp758
(lp759
I1
aI43
aI403
aasS'3FME'
p760
(lp761
(lp762
I1
aI6
aI334
aasS'2OZA'
p763
(lp764
(lp765
I1
aI2
aI354
aasS'2XNP'
p766
(lp767
(lp768
I1
aI1
aI370
aasS'3FMM'
p769
(lp770
(lp771
I1
aI2
aI354
aasS'3FMN'
p772
(lp773
(lp774
I1
aI2
aI354
aasS'3FMH'
p775
(lp776
(lp777
I1
aI2
aI354
aasS'1W7H'
p778
(lp779
(lp780
I1
aI2
aI354
aasS'3FMJ'
p781
(lp782
(lp783
I1
aI2
aI354
aasS'3FMK'
p784
(lp785
(lp786
I1
aI2
aI354
aasS'2H6D'
p787
(lp788
(lp789
I1
aI1
aI471
aasS'2X8D'
p790
(lp791
(lp792
I1
aI1
aI466
aasS'4TXC'
p793
(lp794
(lp795
I2
aI348
aI679
aa(lp796
I1
aI1
aI383
aasS'2X8E'
p797
(lp798
(lp799
I1
aI1
aI466
aasS'1BL7'
p800
(lp801
(lp802
I1
aI2
aI354
aasS'1BL6'
p803
(lp804
(lp805
I1
aI2
aI354
aasS'4FGB'
p806
(lp807
(lp808
I1
aI1
aI338
aasS'2V0D'
p809
(lp810
(lp811
I1
aI1
aI298
aasS'2X8I'
p812
(lp813
(lp814
I1
aI1
aI466
aasS'4DGM'
p815
(lp816
(lp817
I1
aI1
aI327
aasS'4DGL'
p818
(lp819
(lp820
I1
aI1
aI389
aasS'4DGO'
p821
(lp822
(lp823
I1
aI1
aI327
aasS'4DGN'
p824
(lp825
(lp826
I1
aI1
aI327
aasS'1V0P'
p827
(lp828
(lp829
I1
aI1
aI288
aasS'3QX4'
p830
(lp831
(lp832
I1
aI1
aI298
aasS'4AA4'
p833
(lp834
(lp835
I1
aI2
aI354
aasS'4AA5'
p836
(lp837
(lp838
I1
aI2
aI354
aasS'4WIH'
p839
(lp840
(lp841
I1
aI1
aI350
aasS'4AA0'
p842
(lp843
(lp844
I1
aI2
aI354
aasS'3M2W'
p845
(lp846
(lp847
I1
aI8
aI397
aasS'1V0B'
p848
(lp849
(lp850
I1
aI1
aI288
aasS'2CMW'
p851
(lp852
(lp853
I1
aI11
aI333
aasS'1Q5K'
p854
(lp855
(lp856
I1
aI17
aI385
aasS'1S9J'
p857
(lp858
(lp859
I1
aI8
aI388
aasS'1S9I'
p860
(lp861
(lp862
I1
aI8
aI397
aasS'3DA6'
p863
(lp864
(lp865
I1
aI1
aI418
aasS'1ZY4'
p866
(lp867
(lp868
I1
aI712
aI1087
aa(lp869
I1
aI286
aI702
aasS'1ZY5'
p870
(lp871
(lp872
I1
aI286
aI702
aa(lp873
I1
aI712
aI1087
aasS'1ZYC'
p874
(lp875
(lp876
I1
aI712
aI1087
aa(lp877
I1
aI286
aI702
aasS'3DAE'
p878
(lp879
(lp880
I1
aI2
aI585
aasS'1ZYD'
p881
(lp882
(lp883
I1
aI286
aI702
aa(lp884
I1
aI712
aI1087
aasS'1ZYJ'
p885
(lp886
(lp887
I1
aI2
aI354
aasS'4DIN'
p888
(lp889
(lp890
I1
aI2
aI350
aasS'3DAJ'
p891
(lp892
(lp893
I1
aI5
aI395
aasS'3DAK'
p894
(lp895
(lp896
I1
aI1
aI527
aasS'3S2P'
p897
(lp898
(lp899
I1
aI1
aI298
aasS'1ZYS'
p900
(lp901
(lp902
I1
aI1
aI466
aasS'4DIT'
p903
(lp904
(lp905
I1
aI17
aI385
aasS'1U5Q'
p906
(lp907
(lp908
I10
aI469
aI764
aa(lp909
I1
aI1
aI309
aasS'1U5R'
p910
(lp911
(lp912
I10
aI469
aI764
aa(lp913
I1
aI1
aI309
aasS'3LIJ'
p914
(lp915
(lp916
I1
aI1
aI491
aasS'3H10'
p917
(lp918
(lp919
I1
aI43
aI403
aasS'4LQS'
p920
(lp921
(lp922
I1
aI301
aI756
aasS'4LQQ'
p923
(lp924
(lp925
I1
aI301
aI756
aasS'4LQP'
p926
(lp927
(lp928
I1
aI301
aI756
aasS'2OH0'
p929
(lp930
(lp931
I1
aI2
aI350
aasS'3W8L'
p932
(lp933
(lp934
I1
aI1
aI389
aasS'2WZJ'
p935
(lp936
(lp937
I9
aI624
aI722
aa(lp938
I1
aI2
aI481
aasS'3BQC'
p939
(lp940
(lp941
I1
aI1
aI389
aasS'2PML'
p942
(lp943
(lp944
I1
aI1
aI348
aasS'2GCD'
p945
(lp946
(lp947
I10
aI469
aI764
aa(lp948
I1
aI1
aI309
aasS'2X7G'
p949
(lp950
(lp951
I1
aI502
aI688
aa(lp952
I1
aI49
aI288
aasS'2X7F'
p953
(lp954
(lp955
I11
aI939
aI1360
aa(lp956
I1
aI1
aI399
aasS'3BQR'
p957
(lp958
(lp959
I1
aI1
aI445
aasS'2JII'
p960
(lp961
(lp962
I1
aI150
aI474
aasS'3VW6'
p963
(lp964
(lp965
I1
aI652
aI1032
aasS'4IXP'
p966
(lp967
(lp968
I9
aI554
aI651
aa(lp969
I1
aI1
aI406
aasS'2BAQ'
p970
(lp971
(lp972
I1
aI2
aI354
aasS'3JYA'
p973
(lp974
(lp975
I1
aI71
aI402
aasS'2QR7'
p976
(lp977
(lp978
I1
aI11
aI739
aasS'2QR8'
p979
(lp980
(lp981
I1
aI11
aI739
aasS'3GFW'
p982
(lp983
(lp984
I1
aI490
aI832
aasS'3HUB'
p985
(lp986
(lp987
I1
aI2
aI354
aasS'3HUC'
p988
(lp989
(lp990
I1
aI2
aI354
aasS'2BAK'
p991
(lp992
(lp993
I1
aI2
aI354
aasS'2BAJ'
p994
(lp995
(lp996
I1
aI2
aI354
aasS'3NIZ'
p997
(lp998
(lp999
I1
aI1
aI311
aasS'1V1K'
p1000
(lp1001
(lp1002
I1
aI1
aI298
aasS'3UIB'
p1003
(lp1004
(lp1005
I1
aI8
aI372
aasS'4IX3'
p1006
(lp1007
(lp1008
I1
aI3
aI349
aasS'4IX5'
p1009
(lp1010
(lp1011
I1
aI3
aI349
aasS'4IX4'
p1012
(lp1013
(lp1014
I1
aI3
aI349
aasS'4IX6'
p1015
(lp1016
(lp1017
I1
aI3
aI349
aasS'4IJP'
p1018
(lp1019
(lp1020
I1
aI599
aI1007
aasS'1M7Q'
p1021
(lp1022
(lp1023
I1
aI2
aI354
aasS'3JY0'
p1024
(lp1025
(lp1026
I1
aI71
aI402
aasS'3UIU'
p1027
(lp1028
(lp1029
I1
aI234
aI545
aasS'3UIX'
p1030
(lp1031
(lp1032
I1
aI71
aI402
aasS'4OBQ'
p1033
(lp1034
(lp1035
I11
aI825
aI1239
aa(lp1036
I1
aI1
aI403
aasS'4OBP'
p1037
(lp1038
(lp1039
I1
aI1
aI332
aasS'4KIK'
p1040
(lp1041
(lp1042
I8
aI4
aI675
aasS'4KIN'
p1043
(lp1044
(lp1045
I1
aI2
aI354
aasS'4KIP'
p1046
(lp1047
(lp1048
I1
aI2
aI354
aasS'2UZL'
p1049
(lp1050
(lp1051
I1
aI1
aI298
aasS'2UZO'
p1052
(lp1053
(lp1054
I1
aI1
aI298
aasS'2UZN'
p1055
(lp1056
(lp1057
I1
aI1
aI298
aasS'2ESM'
p1058
(lp1059
(lp1060
I1
aI6
aI1198
aasS'2UZE'
p1061
(lp1062
(lp1063
I1
aI1
aI298
aasS'2UZD'
p1064
(lp1065
(lp1066
I1
aI1
aI298
aasS'4OBO'
p1067
(lp1068
(lp1069
I1
aI1
aI332
aasS'2UZB'
p1070
(lp1071
(lp1072
I1
aI1
aI298
aasS'1YXV'
p1073
(lp1074
(lp1075
I1
aI71
aI402
aasS'3EQI'
p1076
(lp1077
(lp1078
I1
aI8
aI388
aasS'3EQH'
p1079
(lp1080
(lp1081
I1
aI8
aI388
aasS'4N0S'
p1082
(lp1083
(lp1084
I1
aI14
aI359
aasS'3EQC'
p1085
(lp1086
(lp1087
I1
aI8
aI388
aasS'3EQB'
p1088
(lp1089
(lp1090
I1
aI8
aI388
aasS'3EQG'
p1091
(lp1092
(lp1093
I1
aI8
aI388
aasS'3EQF'
p1094
(lp1095
(lp1096
I1
aI8
aI388
aasS'1YXX'
p1097
(lp1098
(lp1099
I1
aI71
aI402
aasS'3EQD'
p1100
(lp1101
(lp1102
I1
aI8
aI388
aasS'1H07'
p1103
(lp1104
(lp1105
I1
aI1
aI298
aasS'1H01'
p1106
(lp1107
(lp1108
I1
aI1
aI298
aasS'1H00'
p1109
(lp1110
(lp1111
I1
aI1
aI298
aasS'1H08'
p1112
(lp1113
(lp1114
I1
aI1
aI298
aasS'4O38'
p1115
(lp1116
(lp1117
I1
aI3
aI338
aasS'4R8Q'
p1118
(lp1119
(lp1120
I1
aI758
aI1057
aasS'4TWC'
p1121
(lp1122
(lp1123
I1
aI1
aI339
aasS'4L3J'
p1124
(lp1125
(lp1126
I1
aI42
aI449
aasS'4MVF'
p1127
(lp1128
(lp1129
I12
aI363
aI512
aa(lp1130
I1
aI20
aI511
aasS'3CEK'
p1131
(lp1132
(lp1133
I1
aI490
aI832
aasS'4X2N'
p1134
(lp1135
(lp1136
I1
aI100
aI501
aasS'4X2J'
p1137
(lp1138
(lp1139
I1
aI100
aI501
aasS'4X2K'
p1140
(lp1141
(lp1142
I1
aI100
aI501
aasS'3RKB'
p1143
(lp1144
(lp1145
I1
aI1
aI298
aasS'4X2G'
p1146
(lp1147
(lp1148
I1
aI100
aI501
aasS'3O8P'
p1149
(lp1150
(lp1151
I1
aI2
aI354
aasS'3O8T'
p1152
(lp1153
(lp1154
I1
aI2
aI354
aasS'3O8U'
p1155
(lp1156
(lp1157
I1
aI2
aI354
aasS'3RK9'
p1158
(lp1159
(lp1160
I1
aI1
aI298
aasS'4OTG'
p1161
(lp1162
(lp1163
I1
aI551
aI941
aasS'3EB0'
p1164
(lp1165
(lp1166
I1
aI3
aI376
aasS'4OTD'
p1167
(lp1168
(lp1169
I1
aI551
aI941
aasS'4OTI'
p1170
(lp1171
(lp1172
I1
aI551
aI941
aasS'4OTH'
p1173
(lp1174
(lp1175
I1
aI551
aI941
aasS'3RK7'
p1176
(lp1177
(lp1178
I1
aI1
aI298
aasS'3RK5'
p1179
(lp1180
(lp1181
I1
aI1
aI298
aasS'3VAP'
p1182
(lp1183
(lp1184
I1
aI43
aI403
aasS'2F9G'
p1185
(lp1186
(lp1187
I1
aI1
aI353
aasS'2YEX'
p1188
(lp1189
(lp1190
I1
aI1
aI466
aasS'5AJQ'
p1191
(lp1192
(lp1193
I7
aI411
aI964
aa(lp1194
I1
aI1
aI380
aasS'2WHB'
p1195
(lp1196
(lp1197
I1
aI1
aI298
aasS'3KB7'
p1198
(lp1199
(lp1200
I1
aI2
aI587
aasS'2YER'
p1201
(lp1202
(lp1203
I1
aI1
aI466
aasS'1H0W'
p1204
(lp1205
(lp1206
I1
aI1
aI298
aasS'1H0V'
p1207
(lp1208
(lp1209
I1
aI1
aI298
aasS'2R7B'
p1210
(lp1211
(lp1212
I1
aI3
aI423
aasS'2R7I'
p1213
(lp1214
(lp1215
I1
aI1
aI344
aasS'3FBV'
p1216
(lp1217
(lp1218
I6
aI1
aI1115
aasS'1WFC'
p1219
(lp1220
(lp1221
I1
aI3
aI360
aasS'1UVR'
p1222
(lp1223
(lp1224
I1
aI3
aI423
aasS'3N51'
p1225
(lp1226
(lp1227
I1
aI1
aI483
aasS'3SW4'
p1228
(lp1229
(lp1230
I1
aI1
aI298
aasS'4FV8'
p1231
(lp1232
(lp1233
I1
aI14
aI359
aasS'4FV9'
p1234
(lp1235
(lp1236
I1
aI14
aI359
aasS'4FV4'
p1237
(lp1238
(lp1239
I1
aI14
aI359
aasS'4FV5'
p1240
(lp1241
(lp1242
I1
aI14
aI359
aasS'4FV6'
p1243
(lp1244
(lp1245
I1
aI14
aI359
aasS'4FV7'
p1246
(lp1247
(lp1248
I1
aI14
aI359
aasS'4FV0'
p1249
(lp1250
(lp1251
I1
aI14
aI359
aasS'4FV1'
p1252
(lp1253
(lp1254
I1
aI14
aI359
aasS'4FV2'
p1255
(lp1256
(lp1257
I1
aI14
aI359
aasS'4FV3'
p1258
(lp1259
(lp1260
I1
aI14
aI359
aasS'1AQ1'
p1261
(lp1262
(lp1263
I1
aI1
aI298
aasS'4QFR'
p1264
(lp1265
(lp1266
I1
aI4
aI476
aasS'2PVJ'
p1267
(lp1268
(lp1269
I1
aI1
aI327
aasS'2PVK'
p1270
(lp1271
(lp1272
I1
aI1
aI327
aasS'2PVL'
p1273
(lp1274
(lp1275
I1
aI1
aI327
aasS'2PVM'
p1276
(lp1277
(lp1278
I1
aI1
aI327
aasS'2PVN'
p1279
(lp1280
(lp1281
I1
aI1
aI327
aasS'4Y12'
p1282
(lp1283
(lp1284
I1
aI139
aI526
aasS'4PDS'
p1285
(lp1286
(lp1287
I1
aI66
aI532
aasS'4HNF'
p1288
(lp1289
(lp1290
I1
aI1
aI339
aasS'3KN5'
p1291
(lp1292
(lp1293
I1
aI2
aI795
aasS'3KN6'
p1294
(lp1295
(lp1296
I1
aI2
aI795
aasS'4HNI'
p1297
(lp1298
(lp1299
I1
aI1
aI325
aasS'3MN3'
p1300
(lp1301
(lp1302
I1
aI2
aI585
aasS'3QWK'
p1303
(lp1304
(lp1305
I1
aI1
aI298
aasS'3QWJ'
p1306
(lp1307
(lp1308
I1
aI1
aI298
aasS'1CKP'
p1309
(lp1310
(lp1311
I1
aI1
aI298
aasS'4L8M'
p1312
(lp1313
(lp1314
I1
aI2
aI354
aasS'3QUD'
p1315
(lp1316
(lp1317
I1
aI2
aI354
aasS'4IIR'
p1318
(lp1319
(lp1320
I1
aI599
aI1007
aasS'4TY1'
p1321
(lp1322
(lp1323
I1
aI71
aI402
aasS'2VTQ'
p1324
(lp1325
(lp1326
I1
aI1
aI298
aasS'1CKI'
p1327
(lp1328
(lp1329
I1
aI1
aI339
aasS'1UV5'
p1330
(lp1331
(lp1332
I1
aI17
aI385
aasS'2VV9'
p1333
(lp1334
(lp1335
I1
aI1
aI298
aasS'3BLR'
p1336
(lp1337
(lp1338
I1
aI1
aI367
aasS'3FL5'
p1339
(lp1340
(lp1341
I1
aI1
aI327
aasS'3FL4'
p1342
(lp1343
(lp1344
I1
aI2
aI354
aasS'3I6W'
p1345
(lp1346
(lp1347
I1
aI113
aI522
aasS'1ZXE'
p1348
(lp1349
(lp1350
I1
aI286
aI702
aa(lp1351
I1
aI712
aI1087
aasS'3S3I'
p1352
(lp1353
(lp1354
I1
aI2
aI354
aasS'4JJR'
p1355
(lp1356
(lp1357
I1
aI1
aI339
aasS'4AUA'
p1358
(lp1359
(lp1360
I1
aI1
aI320
aasS'2ZOQ'
p1361
(lp1362
(lp1363
I1
aI15
aI377
aasS'3BLH'
p1364
(lp1365
(lp1366
I1
aI1
aI367
aasS'3LHJ'
p1367
(lp1368
(lp1369
I1
aI2
aI354
aasS'4B8L'
p1370
(lp1371
(lp1372
I1
aI41
aI361
aasS'4B8M'
p1373
(lp1374
(lp1375
I1
aI41
aI361
aasS'4RBL'
p1376
(lp1377
(lp1378
I1
aI71
aI402
aasS'5AIK'
p1379
(lp1380
(lp1381
I1
aI104
aI499
aasS'4JT3'
p1382
(lp1383
(lp1384
I1
aI490
aI832
aasS'3P23'
p1385
(lp1386
(lp1387
I13
aI32
aI144
aa(lp1388
I1
aI497
aI967
aasS'3QYW'
p1389
(lp1390
(lp1391
I1
aI12
aI357
aasS'1GZO'
p1392
(lp1393
(lp1394
I1
aI71
aI481
aasS'3QYZ'
p1395
(lp1396
(lp1397
I1
aI12
aI357
aasS'3FLW'
p1398
(lp1399
(lp1400
I1
aI2
aI354
aasS'3FLS'
p1401
(lp1402
(lp1403
I1
aI2
aI354
aasS'3FLQ'
p1404
(lp1405
(lp1406
I1
aI2
aI354
aasS'1W0X'
p1407
(lp1408
(lp1409
I1
aI1
aI298
aasS'3FLZ'
p1410
(lp1411
(lp1412
I1
aI2
aI354
aasS'3FLY'
p1413
(lp1414
(lp1415
I1
aI2
aI354
aasS'3FLN'
p1416
(lp1417
(lp1418
I1
aI2
aI354
aasS'1B38'
p1419
(lp1420
(lp1421
I1
aI1
aI298
aasS'1B39'
p1422
(lp1423
(lp1424
I1
aI1
aI298
aasS'3K3J'
p1425
(lp1426
(lp1427
I1
aI2
aI354
aasS'3UJG'
p1428
(lp1429
(lp1430
I1
aI1
aI317
aasS'3K3I'
p1431
(lp1432
(lp1433
I1
aI2
aI354
aasS'3GFE'
p1434
(lp1435
(lp1436
I1
aI2
aI354
aasS'1R3C'
p1437
(lp1438
(lp1439
I1
aI2
aI354
aasS'3JVS'
p1440
(lp1441
(lp1442
I1
aI1
aI466
aasS'3JVR'
p1443
(lp1444
(lp1445
I1
aI1
aI466
aasS'4YPD'
p1446
(lp1447
(lp1448
I2
aI348
aI679
aa(lp1449
I1
aI1
aI383
aasS'1JOW'
p1450
(lp1451
(lp1452
I1
aI1
aI320
aasS'4EQM'
p1453
(lp1454
(lp1455
I1
aI1
aI292
aasS'2QC6'
p1456
(lp1457
(lp1458
I1
aI1
aI327
aasS'4PDP'
p1459
(lp1460
(lp1461
I1
aI66
aI532
aasS'4RGJ'
p1462
(lp1463
(lp1464
I1
aI1
aI527
aasS'3VVH'
p1465
(lp1466
(lp1467
I1
aI8
aI388
aasS'1OKY'
p1468
(lp1469
(lp1470
I1
aI3
aI423
aasS'1OKZ'
p1471
(lp1472
(lp1473
I1
aI3
aI423
aasS'2CLX'
p1474
(lp1475
(lp1476
I1
aI1
aI298
aasS'5BML'
p1477
(lp1478
(lp1479
I1
aI6
aI1198
aasS'2CLQ'
p1480
(lp1481
(lp1482
I1
aI652
aI1032
aasS'1OKW'
p1483
(lp1484
(lp1485
I1
aI1
aI298
aasS'1OKV'
p1486
(lp1487
(lp1488
I1
aI1
aI298
aasS'1MQ4'
p1489
(lp1490
(lp1491
I1
aI43
aI403
aasS'4II5'
p1492
(lp1493
(lp1494
I14
aI138
aI414
aasS'3H0Y'
p1495
(lp1496
(lp1497
I1
aI43
aI403
aasS'2QCS'
p1498
(lp1499
(lp1500
I15
aI88
aI378
aasS'3H0Z'
p1501
(lp1502
(lp1503
I1
aI43
aI403
aasS'5BMS'
p1504
(lp1505
(lp1506
I5
aI1
aI116
aa(lp1507
I1
aI244
aI591
aasS'4J8N'
p1508
(lp1509
(lp1510
I1
aI43
aI403
aasS'4J8M'
p1511
(lp1512
(lp1513
I1
aI43
aI403
aasS'4EL9'
p1514
(lp1515
(lp1516
I1
aI11
aI739
aasS'4FZD'
p1517
(lp1518
(lp1519
I1
aI1
aI361
aasS'1R39'
p1520
(lp1521
(lp1522
I1
aI2
aI354
aasS'3WBL'
p1523
(lp1524
(lp1525
I1
aI1
aI298
aasS'4DLI'
p1526
(lp1527
(lp1528
I1
aI2
aI354
aasS'4NM5'
p1529
(lp1530
(lp1531
I1
aI17
aI385
aasS'4IW0'
p1532
(lp1533
(lp1534
I1
aI1
aI367
aasS'3TTI'
p1535
(lp1536
(lp1537
I1
aI1
aI418
aasS'3TTJ'
p1538
(lp1539
(lp1540
I1
aI1
aI418
aasS'3CTQ'
p1541
(lp1542
(lp1543
I1
aI2
aI354
aasS'4H36'
p1544
(lp1545
(lp1546
I1
aI1
aI418
aasS'3G9L'
p1547
(lp1548
(lp1549
I1
aI1
aI418
aasS'3G9N'
p1550
(lp1551
(lp1552
I1
aI1
aI418
aasS'2R0U'
p1553
(lp1554
(lp1555
I1
aI1
aI466
aasS'2JDR'
p1556
(lp1557
(lp1558
I1
aI17
aI385
aasS'4AZV'
p1559
(lp1560
(lp1561
I16
aI1
aI505
aasS'2WOT'
p1562
(lp1563
(lp1564
I1
aI100
aI501
aasS'2WOU'
p1565
(lp1566
(lp1567
I1
aI100
aI501
aasS'2YDI'
p1568
(lp1569
(lp1570
I1
aI1
aI466
aasS'2R0I'
p1571
(lp1572
(lp1573
I9
aI624
aI722
aa(lp1574
I1
aI2
aI481
aasS'2JDO'
p1575
(lp1576
(lp1577
I1
aI17
aI385
aasS'4O2Z'
p1578
(lp1579
(lp1580
I1
aI3
aI374
aasS'2JD5'
p1581
(lp1582
(lp1583
I1
aI496
aI742
aa(lp1584
I1
aI125
aI341
aasS'2X4Z'
p1585
(lp1586
(lp1587
I5
aI1
aI116
aa(lp1588
I1
aI244
aI591
aasS'2ERK'
p1589
(lp1590
(lp1591
I1
aI5
aI364
aasS'4O27'
p1592
(lp1593
(lp1594
I1
aI6
aI353
aasS'2X4F'
p1595
(lp1596
(lp1597
I1
aI41
aI387
aasS'1OL6'
p1598
(lp1599
(lp1600
I1
aI43
aI403
aasS'2YZA'
p1601
(lp1602
(lp1603
I1
aI1
aI471
aasS'3UDB'
p1604
(lp1605
(lp1606
I1
aI1
aI317
aasS'1YKR'
p1607
(lp1608
(lp1609
I1
aI1
aI298
aasS'4H3B'
p1610
(lp1611
(lp1612
I1
aI1
aI418
aasS'4IWP'
p1613
(lp1614
(lp1615
I1
aI1
aI367
aasS'4IWQ'
p1616
(lp1617
(lp1618
I1
aI1
aI367
aasS'1IG1'
p1619
(lp1620
(lp1621
I2
aI348
aI679
aa(lp1622
I1
aI1
aI383
aasS'3JXW'
p1623
(lp1624
(lp1625
I1
aI71
aI402
aasS'4IWO'
p1626
(lp1627
(lp1628
I1
aI1
aI367
aasS'1XWS'
p1629
(lp1630
(lp1631
I1
aI71
aI402
aasS'4H3Q'
p1632
(lp1633
(lp1634
I1
aI8
aI397
aasS'4H3P'
p1635
(lp1636
(lp1637
I1
aI17
aI734
aasS'3O96'
p1638
(lp1639
(lp1640
I1
aI71
aI478
aasS'3RJC'
p1641
(lp1642
(lp1643
I1
aI1
aI298
aasS'3TIY'
p1644
(lp1645
(lp1646
I1
aI1
aI298
aasS'1UA2'
p1647
(lp1648
(lp1649
I1
aI1
aI339
aasS'4HOK'
p1650
(lp1651
(lp1652
I1
aI1
aI325
aasS'4F70'
p1653
(lp1654
(lp1655
I1
aI14
aI395
aasS'4W4Y'
p1656
(lp1657
(lp1658
I1
aI1
aI418
aasS'3QHW'
p1659
(lp1660
(lp1661
I14
aI138
aI414
aasS'3QHR'
p1662
(lp1663
(lp1664
I14
aI138
aI414
aasS'3QF9'
p1665
(lp1666
(lp1667
I1
aI71
aI402
aasS'4W4W'
p1668
(lp1669
(lp1670
I1
aI1
aI418
aasS'4W4V'
p1671
(lp1672
(lp1673
I1
aI1
aI418
aasS'5D9L'
p1674
(lp1675
(lp1676
I1
aI11
aI739
aasS'5D9H'
p1677
(lp1678
(lp1679
I1
aI9
aI556
aasS'5D9K'
p1680
(lp1681
(lp1682
I1
aI11
aI739
aasS'4A4X'
p1683
(lp1684
(lp1685
I1
aI1
aI370
aasS'4YLL'
p1686
(lp1687
(lp1688
I1
aI104
aI499
aasS'4YLK'
p1689
(lp1690
(lp1691
I1
aI104
aI499
aasS'4YLJ'
p1692
(lp1693
(lp1694
I1
aI104
aI499
aasS'3QFV'
p1695
(lp1696
(lp1697
I1
aI1
aI1178
aasS'2RG5'
p1698
(lp1699
(lp1700
I1
aI2
aI354
aasS'2Z2W'
p1701
(lp1702
(lp1703
I1
aI280
aI640
aasS'2RG6'
p1704
(lp1705
(lp1706
I1
aI2
aI354
aasS'3ERK'
p1707
(lp1708
(lp1709
I1
aI4
aI363
aasS'4XP0'
p1710
(lp1711
(lp1712
I1
aI12
aI357
aasS'4XP2'
p1713
(lp1714
(lp1715
I1
aI12
aI357
aasS'4XP3'
p1716
(lp1717
(lp1718
I1
aI12
aI357
aasS'4BWP'
p1719
(lp1720
(lp1721
I17
aI337
aI788
aasS'3OZ6'
p1722
(lp1723
(lp1724
I1
aI3
aI378
aasS'4X3F'
p1725
(lp1726
(lp1727
I1
aI1
aI309
aasS'3QZF'
p1728
(lp1729
(lp1730
I1
aI1
aI298
aasS'3QZG'
p1731
(lp1732
(lp1733
I1
aI1
aI298
aasS'3QZH'
p1734
(lp1735
(lp1736
I1
aI1
aI298
aasS'3QZI'
p1737
(lp1738
(lp1739
I1
aI1
aI298
aasS'3OBG'
p1740
(lp1741
(lp1742
I1
aI2
aI354
aasS'4AOT'
p1743
(lp1744
(lp1745
I7
aI411
aI964
aa(lp1746
I1
aI1
aI380
aasS'1LR4'
p1747
(lp1748
(lp1749
I1
aI1
aI327
aasS'2OXY'
p1750
(lp1751
(lp1752
I1
aI1
aI327
aasS'2OXX'
p1753
(lp1754
(lp1755
I1
aI1
aI327
aasS'3MYG'
p1756
(lp1757
(lp1758
I1
aI43
aI403
aasS'3FKO'
p1759
(lp1760
(lp1761
I1
aI2
aI354
aasS'2OXD'
p1762
(lp1763
(lp1764
I1
aI1
aI327
aasS'2J2I'
p1765
(lp1766
(lp1767
I1
aI71
aI402
aasS'3ALN'
p1768
(lp1769
(lp1770
I1
aI63
aI393
aasS'3ALO'
p1771
(lp1772
(lp1773
I1
aI63
aI393
aasS'2VWI'
p1774
(lp1775
(lp1776
I1
aI1
aI527
aasS'4Z9L'
p1777
(lp1778
(lp1779
I1
aI1
aI418
aasS'4GSB'
p1780
(lp1781
(lp1782
I1
aI12
aI357
aasS'3OHT'
p1783
(lp1784
(lp1785
I1
aI19
aI384
aasS'4TZR'
p1786
(lp1787
(lp1788
I1
aI1
aI483
aasS'4ZZM'
p1789
(lp1790
(lp1791
I1
aI14
aI359
aasS'4ZZN'
p1792
(lp1793
(lp1794
I1
aI14
aI359
aasS'4ZZO'
p1795
(lp1796
(lp1797
I1
aI14
aI359
aasS'3MY1'
p1798
(lp1799
(lp1800
I1
aI1
aI367
aasS'3MY5'
p1801
(lp1802
(lp1803
I1
aI1
aI298
aasS'2GPH'
p1804
(lp1805
(lp1806
I1
aI12
aI357
aasS'4HYI'
p1807
(lp1808
(lp1809
I1
aI1
aI466
aasS'4HYH'
p1810
(lp1811
(lp1812
I1
aI1
aI466
aasS'3IOP'
p1813
(lp1814
(lp1815
I1
aI3
aI423
aasS'3ION'
p1816
(lp1817
(lp1818
I1
aI3
aI423
aasS'4DYM'
p1819
(lp1820
(lp1821
I1
aI46
aI509
aasS'1ERK'
p1822
(lp1823
(lp1824
I1
aI4
aI363
aasS'3FYJ'
p1825
(lp1826
(lp1827
I1
aI8
aI397
aasS'3FYK'
p1828
(lp1829
(lp1830
I1
aI8
aI397
aasS'2ONL'
p1831
(lp1832
(lp1833
I1
aI2
aI354
aasS'4RC4'
p1834
(lp1835
(lp1836
I1
aI71
aI402
aasS'1Q3W'
p1837
(lp1838
(lp1839
I1
aI17
aI385
aasS'4RC2'
p1840
(lp1841
(lp1842
I1
aI71
aI402
aasS'4B99'
p1843
(lp1844
(lp1845
I1
aI27
aI410
aasS'2CKE'
p1846
(lp1847
(lp1848
I1
aI1
aI369
aasS'1Q3D'
p1849
(lp1850
(lp1851
I1
aI17
aI385
aasS'1V0O'
p1852
(lp1853
(lp1854
I1
aI1
aI288
aasS'2YDK'
p1855
(lp1856
(lp1857
I1
aI1
aI466
aasS'3V51'
p1858
(lp1859
(lp1860
I1
aI1
aI483
aasS'3S00'
p1861
(lp1862
(lp1863
I1
aI1
aI298
aasS'2YDJ'
p1864
(lp1865
(lp1866
I1
aI1
aI466
aasS'4CYI'
p1867
(lp1868
(lp1869
I17
aI208
aI631
aasS'4CYJ'
p1870
(lp1871
(lp1872
I17
aI208
aI631
aasS'3DOG'
p1873
(lp1874
(lp1875
I1
aI1
aI298
aasS'3T9I'
p1876
(lp1877
(lp1878
I1
aI71
aI402
aasS'3V5T'
p1879
(lp1880
(lp1881
I1
aI1
aI483
aasS'3V5W'
p1882
(lp1883
(lp1884
I1
aI1
aI531
aasS'3V5P'
p1885
(lp1886
(lp1887
I1
aI1
aI483
aasS'3UYS'
p1888
(lp1889
(lp1890
I1
aI1
aI339
aasS'3UYT'
p1891
(lp1892
(lp1893
I1
aI1
aI339
aasS'4B9D'
p1894
(lp1895
(lp1896
I1
aI1
aI319
aasS'2XEZ'
p1897
(lp1898
(lp1899
I1
aI1
aI466
aasS'3FY0'
p1900
(lp1901
(lp1902
I3
aI66
aI110
aa(lp1903
I1
aI204
aI545
aasS'3P1A'
p1904
(lp1905
(lp1906
I1
aI76
aI385
aasS'3DBQ'
p1907
(lp1908
(lp1909
I1
aI490
aI832
aasS'2J51'
p1910
(lp1911
(lp1912
I7
aI683
aI1229
aa(lp1913
I1
aI1
aI371
aasS'3MBL'
p1914
(lp1915
(lp1916
I1
aI8
aI388
aasS'2WXV'
p1917
(lp1918
(lp1919
I1
aI1
aI298
aasS'2EUF'
p1920
(lp1921
(lp1922
I1
aI1
aI320
aasS'2B9I'
p1923
(lp1924
(lp1925
I1
aI1
aI353
aasS'3D15'
p1926
(lp1927
(lp1928
I1
aI5
aI395
aasS'4IH8'
p1929
(lp1930
(lp1931
I1
aI3
aI506
aasS'3HV5'
p1932
(lp1933
(lp1934
I1
aI2
aI354
aasS'3F5X'
p1935
(lp1936
(lp1937
I1
aI1
aI298
aasS'4EC9'
p1938
(lp1939
(lp1940
I1
aI1
aI367
aasS'3F5U'
p1941
(lp1942
(lp1943
I2
aI348
aI679
aa(lp1944
I1
aI1
aI383
aasS'3GUB'
p1945
(lp1946
(lp1947
I2
aI348
aI679
aa(lp1948
I1
aI1
aI383
aasS'2Y8O'
p1949
(lp1950
(lp1951
I1
aI6
aI334
aasS'3R73'
p1952
(lp1953
(lp1954
I1
aI1
aI298
aasS'3C0H'
p1955
(lp1956
(lp1957
I1
aI1
aI375
aasS'3R71'
p1958
(lp1959
(lp1960
I1
aI1
aI298
aasS'3C0G'
p1961
(lp1962
(lp1963
I1
aI1
aI375
aasS'3F5G'
p1964
(lp1965
(lp1966
I2
aI348
aI679
aa(lp1967
I1
aI1
aI383
aasS'1ZZ2'
p1968
(lp1969
(lp1970
I1
aI2
aI354
aasS'1JNK'
p1971
(lp1972
(lp1973
I1
aI1
aI418
aasS'3R7E'
p1974
(lp1975
(lp1976
I1
aI1
aI298
aasS'3NYV'
p1977
(lp1978
(lp1979
I1
aI1
aI483
aasS'3MI9'
p1980
(lp1981
(lp1982
I1
aI1
aI367
aasS'3R7I'
p1983
(lp1984
(lp1985
I1
aI1
aI298
aasS'3R7V'
p1986
(lp1987
(lp1988
I1
aI1
aI298
aasS'3GU8'
p1989
(lp1990
(lp1991
I2
aI348
aI679
aa(lp1992
I1
aI1
aI383
aasS'3R7U'
p1993
(lp1994
(lp1995
I1
aI1
aI298
aasS'3GGF'
p1996
(lp1997
(lp1998
I1
aI1
aI361
aasS'3GU5'
p1999
(lp2000
(lp2001
I2
aI348
aI679
aa(lp2002
I1
aI1
aI383
aasS'3GU4'
p2003
(lp2004
(lp2005
I2
aI348
aI679
aa(lp2006
I1
aI1
aI383
aasS'3GU7'
p2007
(lp2008
(lp2009
I2
aI348
aI679
aa(lp2010
I1
aI1
aI383
aasS'3GU6'
p2011
(lp2012
(lp2013
I2
aI348
aI679
aa(lp2014
I1
aI1
aI383
aasS'3HEG'
p2015
(lp2016
(lp2017
I1
aI2
aI354
aasS'1BI8'
p2018
(lp2019
(lp2020
I1
aI1
aI320
aasS'5DBX'
p2021
(lp2022
(lp2023
I1
aI9
aI556
aasS'4KKH'
p2024
(lp2025
(lp2026
I1
aI1
aI418
aasS'4KKG'
p2027
(lp2028
(lp2029
I1
aI1
aI418
aasS'4KKE'
p2030
(lp2031
(lp2032
I1
aI1
aI418
aasS'1KV2'
p2033
(lp2034
(lp2035
I1
aI2
aI354
aasS'1KV1'
p2036
(lp2037
(lp2038
I1
aI2
aI354
aasS'4IHP'
p2039
(lp2040
(lp2041
I1
aI3
aI506
aasS'2B1P'
p2042
(lp2043
(lp2044
I1
aI1
aI418
aasS'2EU9'
p2045
(lp2046
(lp2047
I1
aI149
aI638
aasS'4Q9Z'
p2048
(lp2049
(lp2050
I18
aI145
aI285
aa(lp2051
I1
aI232
aI702
aasS'1O9U'
p2052
(lp2053
(lp2054
I1
aI17
aI385
aasS'3NEW'
p2055
(lp2056
(lp2057
I1
aI2
aI354
aasS'2BMC'
p2058
(lp2059
(lp2060
I1
aI43
aI403
aasS'1H28'
p2061
(lp2062
(lp2063
I19
aI761
aI1044
aa(lp2064
I20
aI23
aI623
aasS'1H25'
p2065
(lp2066
(lp2067
I19
aI617
aI870
aa(lp2068
I20
aI59
aI616
aasS'5CLR'
p2069
(lp2070
(lp2071
I1
aI40
aI333
aasS'4BF2'
p2072
(lp2073
(lp2074
I1
aI652
aI1032
aasS'4BTM'
p2075
(lp2076
(lp2077
I1
aI9
aI394
aasS'4BTJ'
p2078
(lp2079
(lp2080
I1
aI9
aI394
aasS'4BTK'
p2081
(lp2082
(lp2083
I1
aI9
aI394
aasS'4OXJ'
p2084
(lp2085
(lp2086
I15
aI9
aI532
aa(lp2087
I1
aI501
aI842
aasS'3G90'
p2088
(lp2089
(lp2090
I1
aI1
aI418
aasS'4MTA'
p2091
(lp2092
(lp2093
I1
aI71
aI402
aasS'3VC4'
p2094
(lp2095
(lp2096
I1
aI71
aI402
aasS'3D7Z'
p2097
(lp2098
(lp2099
I1
aI2
aI354
aasS'2XBJ'
p2100
(lp2101
(lp2102
I1
aI113
aI522
aasS'1YHV'
p2103
(lp2104
(lp2105
I3
aI66
aI110
aa(lp2106
I1
aI204
aI545
aasS'1YHW'
p2107
(lp2108
(lp2109
I3
aI66
aI110
aa(lp2110
I1
aI204
aI545
aasS'1YHS'
p2111
(lp2112
(lp2113
I1
aI71
aI402
aasS'3D9V'
p2114
(lp2115
(lp2116
I1
aI6
aI1198
aasS'4BFM'
p2117
(lp2118
(lp2119
I9
aI507
aI643
aa(lp2120
I1
aI1
aI324
aasS'2JED'
p2121
(lp2122
(lp2123
I18
aI145
aI285
aa(lp2124
I1
aI232
aI702
aasS'2WNT'
p2125
(lp2126
(lp2127
I1
aI17
aI734
aasS'4BZD'
p2128
(lp2129
(lp2130
I1
aI1
aI298
aasS'2BAL'
p2131
(lp2132
(lp2133
I1
aI2
aI354
aasS'4BZN'
p2134
(lp2135
(lp2136
I1
aI71
aI402
aasS'1CM8'
p2137
(lp2138
(lp2139
I1
aI1
aI367
aasS'3AMY'
p2140
(lp2141
(lp2142
I1
aI1
aI389
aasS'4W7P'
p2143
(lp2144
(lp2145
I1
aI6
aI1198
aasS'4FT9'
p2146
(lp2147
(lp2148
I1
aI1
aI466
aasS'3RM6'
p2149
(lp2150
(lp2151
I1
aI1
aI298
aasS'3RM7'
p2152
(lp2153
(lp2154
I1
aI1
aI298
aasS'4FBX'
p2155
(lp2156
(lp2157
I1
aI1
aI389
aasS'4FT3'
p2158
(lp2159
(lp2160
I1
aI1
aI466
aasS'4FT0'
p2161
(lp2162
(lp2163
I1
aI1
aI466
aasS'4FT7'
p2164
(lp2165
(lp2166
I1
aI1
aI466
aasS'4FT5'
p2167
(lp2168
(lp2169
I1
aI1
aI466
aasS'4FTJ'
p2170
(lp2171
(lp2172
I1
aI1
aI466
aasS'4M7I'
p2173
(lp2174
(lp2175
I1
aI579
aI681
aa(lp2176
I1
aI830
aI1116
aasS'4FTI'
p2177
(lp2178
(lp2179
I1
aI1
aI466
aasS'4FTN'
p2180
(lp2181
(lp2182
I1
aI1
aI466
aasS'4FTO'
p2183
(lp2184
(lp2185
I1
aI1
aI466
aasS'3RMF'
p2186
(lp2187
(lp2188
I1
aI1
aI298
aasS'4FTM'
p2189
(lp2190
(lp2191
I1
aI1
aI466
aasS'4FTC'
p2192
(lp2193
(lp2194
I1
aI1
aI466
aasS'4FTA'
p2195
(lp2196
(lp2197
I1
aI1
aI466
aasS'1WVX'
p2198
(lp2199
(lp2200
I2
aI348
aI679
aa(lp2201
I1
aI1
aI383
aasS'1WVY'
p2202
(lp2203
(lp2204
I2
aI348
aI679
aa(lp2205
I1
aI1
aI383
aasS'4FTR'
p2206
(lp2207
(lp2208
I1
aI1
aI466
aasS'4QTD'
p2209
(lp2210
(lp2211
I1
aI1
aI379
aasS'4FTQ'
p2212
(lp2213
(lp2214
I1
aI1
aI466
aasS'4QTA'
p2215
(lp2216
(lp2217
I1
aI14
aI359
aasS'1WVW'
p2218
(lp2219
(lp2220
I2
aI348
aI679
aa(lp2221
I1
aI1
aI383
aasS'4FTT'
p2222
(lp2223
(lp2224
I1
aI1
aI466
aasS'4QTB'
p2225
(lp2226
(lp2227
I1
aI15
aI377
aasS'3MH0'
p2228
(lp2229
(lp2230
I1
aI2
aI354
aasS'3MH1'
p2231
(lp2232
(lp2233
I1
aI2
aI354
aasS'3MH2'
p2234
(lp2235
(lp2236
I1
aI2
aI354
aasS'3MH3'
p2237
(lp2238
(lp2239
I1
aI2
aI354
aasS'2IWI'
p2240
(lp2241
(lp2242
I1
aI3
aI304
aasS'3MIA'
p2243
(lp2244
(lp2245
I1
aI1
aI367
aasS'2VX3'
p2246
(lp2247
(lp2248
I1
aI104
aI499
aasS'3S1H'
p2249
(lp2250
(lp2251
I1
aI1
aI298
aasS'4DLJ'
p2252
(lp2253
(lp2254
I1
aI2
aI354
aasS'4C58'
p2255
(lp2256
(lp2257
I1
aI4
aI363
aasS'4C59'
p2258
(lp2259
(lp2260
I1
aI4
aI363
aasS'2XM9'
p2261
(lp2262
(lp2263
I1
aI113
aI522
aasS'2XM8'
p2264
(lp2265
(lp2266
I1
aI113
aI522
aasS'4CXA'
p2267
(lp2268
(lp2269
I1
aI699
aI1048
aasS'4C57'
p2270
(lp2271
(lp2272
I1
aI4
aI363
aasS'3T8O'
p2273
(lp2274
(lp2275
I1
aI3
aI529
aasS'4A9Y'
p2276
(lp2277
(lp2278
I1
aI2
aI354
aasS'4A9T'
p2279
(lp2280
(lp2281
I1
aI113
aI522
aasS'3JPV'
p2282
(lp2283
(lp2284
I1
aI71
aI402
aasS'4A9R'
p2285
(lp2286
(lp2287
I1
aI113
aI522
aasS'4A9S'
p2288
(lp2289
(lp2290
I1
aI113
aI522
aasS'1A06'
p2291
(lp2292
(lp2293
I1
aI1
aI332
aasS'3LFN'
p2294
(lp2295
(lp2296
I1
aI1
aI298
aasS'1LEW'
p2297
(lp2298
(lp2299
I1
aI2
aI354
aasS'3LFF'
p2300
(lp2301
(lp2302
I1
aI2
aI354
aasS'3UZT'
p2303
(lp2304
(lp2305
I1
aI1
aI531
aasS'3LFD'
p2306
(lp2307
(lp2308
I1
aI2
aI354
aasS'3LFC'
p2309
(lp2310
(lp2311
I1
aI2
aI354
aasS'3LFB'
p2312
(lp2313
(lp2314
I1
aI2
aI354
aasS'3UZP'
p2315
(lp2316
(lp2317
I1
aI1
aI339
aasS'1NA7'
p2318
(lp2319
(lp2320
I1
aI1
aI389
aasS'4AN9'
p2321
(lp2322
(lp2323
I1
aI8
aI388
aasS'3LFS'
p2324
(lp2325
(lp2326
I1
aI1
aI298
aasS'4AN2'
p2327
(lp2328
(lp2329
I1
aI8
aI388
aasS'3LFQ'
p2330
(lp2331
(lp2332
I1
aI1
aI298
aasS'3L8S'
p2333
(lp2334
(lp2335
I1
aI2
aI354
aasS'3TXO'
p2336
(lp2337
(lp2338
I18
aI158
aI314
aa(lp2339
I1
aI246
aI681
aasS'4WJC'
p2340
(lp2341
(lp2342
I15
aI9
aI532
aa(lp2343
I1
aI501
aI842
aasS'3L8X'
p2344
(lp2345
(lp2346
I1
aI2
aI354
aasS'4ANB'
p2347
(lp2348
(lp2349
I1
aI8
aI388
aasS'1P38'
p2350
(lp2351
(lp2352
I1
aI19
aI373
aasS'4NZW'
p2353
(lp2354
(lp2355
I1
aI1
aI325
aasS'1FIN'
p2356
(lp2357
(lp2358
I1
aI1
aI298
aasS'3CKX'
p2359
(lp2360
(lp2361
I1
aI6
aI353
aasS'4RRV'
p2362
(lp2363
(lp2364
I1
aI3
aI423
aasS'3ZSH'
p2365
(lp2366
(lp2367
I1
aI2
aI354
aasS'3ZSI'
p2368
(lp2369
(lp2370
I1
aI2
aI354
aasS'4FTL'
p2371
(lp2372
(lp2373
I1
aI1
aI466
aasS'2FYS'
p2374
(lp2375
(lp2376
I1
aI12
aI357
aasS'4UN0'
p2377
(lp2378
(lp2379
I1
aI699
aI1048
aasS'3ZSG'
p2380
(lp2381
(lp2382
I1
aI2
aI354
aasS'4GRB'
p2383
(lp2384
(lp2385
I1
aI1
aI389
aasS'3R6X'
p2386
(lp2387
(lp2388
I1
aI1
aI298
aasS'3UTO'
p2389
(lp2390
(lp2391
I21
aI824
aI7158
aa(lp2392
I21
aI1
aI546
aasS'1OGU'
p2393
(lp2394
(lp2395
I1
aI1
aI298
aasS'3HDM'
p2396
(lp2397
(lp2398
I1
aI27
aI431
aasS'3HDN'
p2399
(lp2400
(lp2401
I1
aI27
aI431
aasS'1BUH'
p2402
(lp2403
(lp2404
I1
aI1
aI298
aasS'1BMK'
p2405
(lp2406
(lp2407
I1
aI2
aI354
aasS'4PTE'
p2408
(lp2409
(lp2410
I1
aI17
aI385
aasS'4PTG'
p2411
(lp2412
(lp2413
I1
aI17
aI385
aasS'4PF4'
p2414
(lp2415
(lp2416
I2
aI348
aI679
aa(lp2417
I1
aI1
aI383
aasS'4PTC'
p2418
(lp2419
(lp2420
I1
aI17
aI385
aasS'1DI8'
p2421
(lp2422
(lp2423
I1
aI1
aI298
aasS'1DI9'
p2424
(lp2425
(lp2426
I1
aI2
aI354
aasS'3FXW'
p2427
(lp2428
(lp2429
I1
aI13
aI376
aasS'4A7C'
p2430
(lp2431
(lp2432
I1
aI71
aI402
aasS'2V22'
p2433
(lp2434
(lp2435
I1
aI1
aI298
aasS'3R63'
p2436
(lp2437
(lp2438
I1
aI12
aI357
aasS'5AP0'
p2439
(lp2440
(lp2441
I1
aI490
aI832
aasS'3ZS5'
p2442
(lp2443
(lp2444
I1
aI2
aI354
aasS'4BGQ'
p2445
(lp2446
(lp2447
I1
aI3
aI411
aasS'5AP1'
p2448
(lp2449
(lp2450
I1
aI490
aI832
aasS'3C13'
p2451
(lp2452
(lp2453
I1
aI1
aI389
aasS'5AP7'
p2454
(lp2455
(lp2456
I1
aI490
aI832
aasS'3VBY'
p2457
(lp2458
(lp2459
I1
aI71
aI402
aasS'3VBX'
p2460
(lp2461
(lp2462
I1
aI71
aI402
aasS'4BGG'
p2463
(lp2464
(lp2465
I1
aI46
aI509
aasS'2W4O'
p2466
(lp2467
(lp2468
I1
aI4
aI410
aasS'3VBQ'
p2469
(lp2470
(lp2471
I1
aI71
aI402
aasS'4BGH'
p2472
(lp2473
(lp2474
I1
aI1
aI298
aasS'3VBT'
p2475
(lp2476
(lp2477
I1
aI71
aI402
aasS'3VBW'
p2478
(lp2479
(lp2480
I1
aI71
aI402
aasS'3VBV'
p2481
(lp2482
(lp2483
I1
aI71
aI402
aasS'4MED'
p2484
(lp2485
(lp2486
I1
aI71
aI402
aasS'2WMB'
p2487
(lp2488
(lp2489
I1
aI1
aI298
aasS'2WMA'
p2490
(lp2491
(lp2492
I1
aI1
aI298
aasS'3RZF'
p2493
(lp2494
(lp2495
I8
aI6
aI677
aa(lp2496
I1
aI1
aI283
aasS'2WMX'
p2497
(lp2498
(lp2499
I1
aI1
aI466
aasS'3RZB'
p2500
(lp2501
(lp2502
I1
aI1
aI298
aasS'2WMV'
p2503
(lp2504
(lp2505
I1
aI1
aI466
aasS'2WMW'
p2506
(lp2507
(lp2508
I1
aI1
aI466
aasS'2WMT'
p2509
(lp2510
(lp2511
I1
aI1
aI466
aasS'2WMU'
p2512
(lp2513
(lp2514
I1
aI1
aI466
aasS'2WMR'
p2515
(lp2516
(lp2517
I1
aI1
aI466
aasS'2WMS'
p2518
(lp2519
(lp2520
I1
aI1
aI466
aasS'2JFL'
p2521
(lp2522
(lp2523
I7
aI683
aI1229
aa(lp2524
I1
aI1
aI371
aasS'2JFM'
p2525
(lp2526
(lp2527
I7
aI683
aI1229
aa(lp2528
I1
aI1
aI371
aasS'2X81'
p2529
(lp2530
(lp2531
I1
aI43
aI403
aasS'4IDT'
p2532
(lp2533
(lp2534
I1
aI344
aI692
aasS'2ETK'
p2535
(lp2536
(lp2537
I1
aI6
aI1198
aasS'1KWP'
p2538
(lp2539
(lp2540
I1
aI8
aI397
aasS'2ETR'
p2541
(lp2542
(lp2543
I1
aI6
aI1198
aasS'3R2Y'
p2544
(lp2545
(lp2546
I1
aI8
aI397
aasS'3CR0'
p2547
(lp2548
(lp2549
I1
aI280
aI640
aasS'1J3H'
p2550
(lp2551
(lp2552
I1
aI2
aI350
aasS'3HZT'
p2553
(lp2554
(lp2555
I1
aI1
aI462
aasS'1FOT'
p2556
(lp2557
(lp2558
I1
aI1
aI397
aasS'1YI3'
p2559
(lp2560
(lp2561
I1
aI71
aI402
aasS'1YI4'
p2562
(lp2563
(lp2564
I1
aI71
aI402
aasS'4KD1'
p2565
(lp2566
(lp2567
I1
aI1
aI298
aasS'3D83'
p2568
(lp2569
(lp2570
I1
aI2
aI354
aasS'2PUU'
p2571
(lp2572
(lp2573
I1
aI2
aI354
aasS'4ZJI'
p2574
(lp2575
(lp2576
I3
aI66
aI110
aa(lp2577
I1
aI204
aI545
aasS'4ZJJ'
p2578
(lp2579
(lp2580
I3
aI66
aI110
aa(lp2581
I1
aI204
aI545
aasS'4FUY'
p2582
(lp2583
(lp2584
I1
aI14
aI359
aasS'4FUX'
p2585
(lp2586
(lp2587
I1
aI14
aI359
aasS'4XRJ'
p2588
(lp2589
(lp2590
I1
aI12
aI357
aasS'1GNG'
p2591
(lp2592
(lp2593
I1
aI17
aI385
aasS'4Y8D'
p2594
(lp2595
(lp2596
I1
aI4
aI363
aasS'1G3N'
p2597
(lp2598
(lp2599
I1
aI1
aI320
aasS'1YW2'
p2600
(lp2601
(lp2602
I1
aI2
aI354
aasS'4NST'
p2603
(lp2604
(lp2605
I1
aI699
aI1048
aasS'3TKH'
p2606
(lp2607
(lp2608
I1
aI1
aI466
aasS'3SD0'
p2609
(lp2610
(lp2611
I1
aI17
aI385
aasS'3SDJ'
p2612
(lp2613
(lp2614
I6
aI1
aI1115
aasS'2WMQ'
p2615
(lp2616
(lp2617
I1
aI1
aI466
aasS'4NM7'
p2618
(lp2619
(lp2620
I1
aI17
aI385
aasS'4NM0'
p2621
(lp2622
(lp2623
I1
aI17
aI385
aasS'4NM3'
p2624
(lp2625
(lp2626
I1
aI17
aI385
aasS'3SDM'
p2627
(lp2628
(lp2629
I6
aI1
aI1115
aa(lp2630
I1
aI658
aI1119
aasS'1YWV'
p2631
(lp2632
(lp2633
I1
aI71
aI402
aasS'3NDM'
p2634
(lp2635
(lp2636
I1
aI6
aI1198
aasS'1YWR'
p2637
(lp2638
(lp2639
I1
aI2
aI354
aasS'3GXL'
p2640
(lp2641
(lp2642
I1
aI100
aI501
aasS'4Y83'
p2643
(lp2644
(lp2645
I1
aI75
aI441
aasS'4Y85'
p2646
(lp2647
(lp2648
I1
aI75
aI441
aasS'1NVQ'
p2649
(lp2650
(lp2651
I1
aI1
aI466
aasS'4M69'
p2652
(lp2653
(lp2654
I1
aI10
aI347
aasS'4M66'
p2655
(lp2656
(lp2657
I1
aI10
aI347
aasS'1SYK'
p2658
(lp2659
(lp2660
I1
aI2
aI350
aasS'4CI6'
p2661
(lp2662
(lp2663
I1
aI56
aI335
aasS'3C51'
p2664
(lp2665
(lp2666
I1
aI3
aI529
aasS'4BCJ'
p2667
(lp2668
(lp2669
I1
aI1
aI367
aasS'1UU3'
p2670
(lp2671
(lp2672
I1
aI3
aI423
aasS'2W17'
p2673
(lp2674
(lp2675
I1
aI1
aI298
aasS'1UU7'
p2676
(lp2677
(lp2678
I1
aI3
aI423
aasS'1UU9'
p2679
(lp2680
(lp2681
I1
aI3
aI423
aasS'1UU8'
p2682
(lp2683
(lp2684
I1
aI3
aI423
aasS'3H4J'
p2685
(lp2686
(lp2687
I1
aI2
aI535
aasS'4BCH'
p2688
(lp2689
(lp2690
I1
aI1
aI367
aasS'3HMO'
p2691
(lp2692
(lp2693
I1
aI490
aI832
aasS'4O0W'
p2694
(lp2695
(lp2696
I1
aI43
aI403
aasS'4C4J'
p2697
(lp2698
(lp2699
I1
aI490
aI832
aasS'4C4I'
p2700
(lp2701
(lp2702
I1
aI490
aI832
aasS'4C4H'
p2703
(lp2704
(lp2705
I1
aI490
aI832
aasS'4C4G'
p2706
(lp2707
(lp2708
I1
aI490
aI832
aasS'4C4F'
p2709
(lp2710
(lp2711
I1
aI490
aI832
aasS'4C4E'
p2712
(lp2713
(lp2714
I1
aI490
aI832
aasS'2O3P'
p2715
(lp2716
(lp2717
I1
aI71
aI402
aasS'4O0U'
p2718
(lp2719
(lp2720
I1
aI43
aI403
aasS'3ANR'
p2721
(lp2722
(lp2723
I1
aI104
aI499
aasS'3ANQ'
p2724
(lp2725
(lp2726
I1
aI104
aI499
aasS'1OUK'
p2727
(lp2728
(lp2729
I1
aI2
aI354
aasS'3FI2'
p2730
(lp2731
(lp2732
I1
aI1
aI418
aasS'3FI3'
p2733
(lp2734
(lp2735
I1
aI1
aI418
aasS'3FI4'
p2736
(lp2737
(lp2738
I1
aI2
aI354
aasS'2W1C'
p2739
(lp2740
(lp2741
I1
aI43
aI403
aasS'2W1F'
p2742
(lp2743
(lp2744
I1
aI43
aI403
aasS'2W1G'
p2745
(lp2746
(lp2747
I1
aI43
aI403
aasS'2W1D'
p2748
(lp2749
(lp2750
I1
aI43
aI403
aasS'2W1E'
p2751
(lp2752
(lp2753
I1
aI43
aI403
aasS'2W1H'
p2754
(lp2755
(lp2756
I1
aI1
aI298
aasS'3NAX'
p2757
(lp2758
(lp2759
I1
aI3
aI423
aasS'1WAK'
p2760
(lp2761
(lp2762
I1
aI48
aI287
aa(lp2763
I1
aI441
aI655
aasS'2VD5'
p2764
(lp2765
(lp2766
I1
aI1
aI556
aasS'1ZOH'
p2767
(lp2768
(lp2769
I1
aI1
aI327
aasS'1ZOE'
p2770
(lp2771
(lp2772
I1
aI1
aI327
aasS'1ZOG'
p2773
(lp2774
(lp2775
I1
aI1
aI327
aasS'3P7A'
p2776
(lp2777
(lp2778
I1
aI2
aI354
aasS'3P7B'
p2779
(lp2780
(lp2781
I1
aI2
aI354
aasS'3P7C'
p2782
(lp2783
(lp2784
I1
aI2
aI354
aasS'3U8W'
p2785
(lp2786
(lp2787
I1
aI2
aI354
aasS'4QP2'
p2788
(lp2789
(lp2790
I1
aI14
aI359
aasS'2QLU'
p2791
(lp2792
(lp2793
I1
aI4
aI492
aasS'3LE6'
p2794
(lp2795
(lp2796
I1
aI1
aI298
aasS'3HV6'
p2797
(lp2798
(lp2799
I1
aI2
aI354
aasS'2ZDT'
p2800
(lp2801
(lp2802
I1
aI1
aI418
aasS'2ZDU'
p2803
(lp2804
(lp2805
I1
aI1
aI418
aasS'4BCQ'
p2806
(lp2807
(lp2808
I1
aI1
aI298
aasS'3HV4'
p2809
(lp2810
(lp2811
I1
aI2
aI354
aasS'4G6L'
p2812
(lp2813
(lp2814
I1
aI14
aI395
aasS'4G6O'
p2815
(lp2816
(lp2817
I1
aI14
aI359
aasS'4G6N'
p2818
(lp2819
(lp2820
I1
aI14
aI359
aasS'4XNE'
p2821
(lp2822
(lp2823
I1
aI12
aI357
aasS'3Q04'
p2824
(lp2825
(lp2826
I1
aI1
aI389
aasS'4D2S'
p2827
(lp2828
(lp2829
I1
aI490
aI832
aasS'3HL7'
p2830
(lp2831
(lp2832
I1
aI2
aI354
aasS'2ZJW'
p2833
(lp2834
(lp2835
I1
aI1
aI389
aasS'4C2W'
p2836
(lp2837
(lp2838
I1
aI41
aI361
aasS'3U87'
p2839
(lp2840
(lp2841
I1
aI1
aI389
aasS'1FVV'
p2842
(lp2843
(lp2844
I1
aI1
aI298
aasS'1FVT'
p2845
(lp2846
(lp2847
I1
aI1
aI298
aasS'4JIK'
p2848
(lp2849
(lp2850
I1
aI1
aI466
aasS'4RA5'
p2851
(lp2852
(lp2853
I18
aI145
aI285
aa(lp2854
I1
aI232
aI702
aasS'4RA4'
p2855
(lp2856
(lp2857
I18
aI22
aI160
aa(lp2858
I1
aI255
aI667
aasS'1P2A'
p2859
(lp2860
(lp2861
I1
aI1
aI298
aasS'3P78'
p2862
(lp2863
(lp2864
I1
aI2
aI354
aasS'3P79'
p2865
(lp2866
(lp2867
I1
aI2
aI354
aasS'3MPA'
p2868
(lp2869
(lp2870
I1
aI2
aI354
aasS'2EWA'
p2871
(lp2872
(lp2873
I1
aI2
aI354
aasS'4USD'
p2874
(lp2875
(lp2876
I7
aI411
aI964
aa(lp2877
I1
aI1
aI380
aasS'4USE'
p2878
(lp2879
(lp2880
I7
aI411
aI964
aa(lp2881
I1
aI1
aI380
aasS'4USF'
p2882
(lp2883
(lp2884
I7
aI683
aI1229
aa(lp2885
I1
aI1
aI371
aasS'2HAK'
p2886
(lp2887
(lp2888
I9
aI687
aI795
aa(lp2889
I1
aI2
aI371
aasS'3F7Z'
p2890
(lp2891
(lp2892
I1
aI17
aI385
aasS'3NUU'
p2893
(lp2894
(lp2895
I1
aI3
aI423
aasS'3NUP'
p2896
(lp2897
(lp2898
I1
aI1
aI320
aasS'3NUS'
p2899
(lp2900
(lp2901
I1
aI3
aI423
aasS'3ZDI'
p2902
(lp2903
(lp2904
I1
aI17
aI385
aasS'3NUX'
p2905
(lp2906
(lp2907
I1
aI1
aI320
aasS'3NUY'
p2908
(lp2909
(lp2910
I1
aI3
aI423
aasS'3HYH'
p2911
(lp2912
(lp2913
I1
aI2
aI585
aasS'5AUZ'
p2914
(lp2915
(lp2916
I2
aI348
aI679
aa(lp2917
I1
aI1
aI383
aasS'3ZDU'
p2918
(lp2919
(lp2920
I1
aI1
aI476
aasS'4UX9'
p2921
(lp2922
(lp2923
I1
aI60
aI409
aasS'3NUN'
p2924
(lp2925
(lp2926
I1
aI3
aI423
aasS'3R9N'
p2927
(lp2928
(lp2929
I1
aI1
aI298
aasS'3R9O'
p2930
(lp2931
(lp2932
I1
aI1
aI298
aasS'3R9H'
p2933
(lp2934
(lp2935
I1
aI1
aI298
aasS'4QYH'
p2936
(lp2937
(lp2938
I1
aI1
aI466
aasS'2XKF'
p2939
(lp2940
(lp2941
I1
aI1
aI370
aasS'3R9D'
p2942
(lp2943
(lp2944
I1
aI1
aI298
aasS'4GUB'
p2945
(lp2946
(lp2947
I1
aI1
aI389
aasS'4GUE'
p2948
(lp2949
(lp2950
I1
aI11
aI739
aasS'4QYF'
p2951
(lp2952
(lp2953
I1
aI1
aI466
aasS'4UMT'
p2954
(lp2955
(lp2956
I9
aI554
aI651
aa(lp2957
I1
aI1
aI406
aasS'4UMU'
p2958
(lp2959
(lp2960
I9
aI554
aI651
aa(lp2961
I1
aI1
aI406
aasS'4UMR'
p2962
(lp2963
(lp2964
I9
aI554
aI651
aa(lp2965
I1
aI1
aI406
aasS'4UMP'
p2966
(lp2967
(lp2968
I9
aI554
aI651
aa(lp2969
I1
aI1
aI406
aasS'3WAR'
p2970
(lp2971
(lp2972
I1
aI1
aI389
aasS'1R0E'
p2973
(lp2974
(lp2975
I1
aI17
aI385
aasS'3ZRL'
p2976
(lp2977
(lp2978
I1
aI17
aI385
aasS'3ZRK'
p2979
(lp2980
(lp2981
I1
aI17
aI385
aasS'3HKO'
p2982
(lp2983
(lp2984
I1
aI1
aI345
aasS'4IFG'
p2985
(lp2986
(lp2987
I1
aI3
aI506
aasS'4IFC'
p2988
(lp2989
(lp2990
I1
aI599
aI1007
aasS'2YAA'
p2991
(lp2992
(lp2993
I1
aI1
aI370
aasS'2YAB'
p2994
(lp2995
(lp2996
I1
aI1
aI370
aasS'3NGA'
p2997
(lp2998
(lp2999
I1
aI1
aI389
aasS'3E8D'
p3000
(lp3001
(lp3002
I1
aI17
aI385
aasS'2YAK'
p3003
(lp3004
(lp3005
I2
aI348
aI679
aa(lp3006
I1
aI1
aI383
aasS'2GU8'
p3007
(lp3008
(lp3009
I1
aI2
aI350
aasS'2HW7'
p3010
(lp3011
(lp3012
I1
aI34
aI456
aasS'2HW6'
p3013
(lp3014
(lp3015
I1
aI12
aI453
aasS'4MD7'
p3016
(lp3017
(lp3018
I1
aI1
aI389
aasS'4MD9'
p3019
(lp3020
(lp3021
I1
aI1
aI389
aasS'4MD8'
p3022
(lp3023
(lp3024
I1
aI1
aI389
aasS'4OH4'
p3025
(lp3026
(lp3027
I1
aI835
aI1173
aasS'3D5V'
p3028
(lp3029
(lp3030
I1
aI1
aI317
aasS'3D5W'
p3031
(lp3032
(lp3033
I1
aI1
aI317
aasS'3D5U'
p3034
(lp3035
(lp3036
I1
aI1
aI317
aasS'3D5X'
p3037
(lp3038
(lp3039
I1
aI2
aI301
aasS'5BVF'
p3040
(lp3041
(lp3042
I1
aI14
aI359
aasS'5BVE'
p3043
(lp3044
(lp3045
I1
aI14
aI359
aasS'5DVR'
p3046
(lp3047
(lp3048
I1
aI1
aI524
aasS'4WBO'
p3049
(lp3050
(lp3051
I1
aI3
aI529
aasS'4GCJ'
p3052
(lp3053
(lp3054
I1
aI1
aI298
aasS'4BDJ'
p3055
(lp3056
(lp3057
I1
aI113
aI522
aasS'4BDK'
p3058
(lp3059
(lp3060
I1
aI113
aI522
aasS'4BDH'
p3061
(lp3062
(lp3063
I1
aI113
aI522
aasS'4BDI'
p3064
(lp3065
(lp3066
I1
aI113
aI522
aasS'4BDF'
p3067
(lp3068
(lp3069
I1
aI113
aI522
aasS'4BDG'
p3070
(lp3071
(lp3072
I1
aI113
aI522
aasS'4BDD'
p3073
(lp3074
(lp3075
I1
aI113
aI522
aasS'4BDE'
p3076
(lp3077
(lp3078
I1
aI113
aI522
aasS'4BDB'
p3079
(lp3080
(lp3081
I1
aI113
aI522
aasS'4BDC'
p3082
(lp3083
(lp3084
I1
aI113
aI522
aasS'4BDA'
p3085
(lp3086
(lp3087
I1
aI113
aI522
aasS'1H4L'
p3088
(lp3089
(lp3090
I1
aI1
aI292
aasS'2R3Q'
p3091
(lp3092
(lp3093
I1
aI1
aI298
aasS'2R3P'
p3094
(lp3095
(lp3096
I1
aI1
aI298
aasS'2R3R'
p3097
(lp3098
(lp3099
I1
aI1
aI298
aasS'2R3I'
p3100
(lp3101
(lp3102
I1
aI1
aI298
aasS'2R3H'
p3103
(lp3104
(lp3105
I1
aI1
aI298
aasS'2R3K'
p3106
(lp3107
(lp3108
I1
aI1
aI298
aasS'2R3J'
p3109
(lp3110
(lp3111
I1
aI1
aI298
aasS'2R3M'
p3112
(lp3113
(lp3114
I1
aI1
aI298
aasS'2R3L'
p3115
(lp3116
(lp3117
I1
aI1
aI298
aasS'2R3O'
p3118
(lp3119
(lp3120
I1
aI1
aI298
aasS'3E87'
p3121
(lp3122
(lp3123
I1
aI17
aI385
aasS'3E88'
p3124
(lp3125
(lp3126
I1
aI17
aI385
aasS'2YA9'
p3127
(lp3128
(lp3129
I1
aI1
aI370
aasS'1E9H'
p3130
(lp3131
(lp3132
I1
aI1
aI298
aasS'2R3G'
p3133
(lp3134
(lp3135
I1
aI1
aI298
aasS'2X6E'
p3136
(lp3137
(lp3138
I1
aI43
aI403
aasS'4BXB'
p3139
(lp3140
(lp3141
I1
aI1
aI335
aasS'4NJ3'
p3142
(lp3143
(lp3144
I1
aI1
aI298
aasS'2IO6'
p3145
(lp3146
(lp3147
I1
aI280
aI640
aasS'2PMO'
p3148
(lp3149
(lp3150
I1
aI5
aI343
aasS'3COM'
p3151
(lp3152
(lp3153
I1
aI1
aI425
aasS'3COK'
p3154
(lp3155
(lp3156
I1
aI1
aI346
aasS'3COI'
p3157
(lp3158
(lp3159
I1
aI1
aI365
aasS'3COH'
p3160
(lp3161
(lp3162
I1
aI43
aI403
aasS'4W9X'
p3163
(lp3164
(lp3165
I22
aI591
aI700
aa(lp3166
I1
aI1
aI397
aasS'2W0J'
p3167
(lp3168
(lp3169
I1
aI113
aI522
aasS'4W9W'
p3170
(lp3171
(lp3172
I22
aI591
aI700
aa(lp3173
I1
aI1
aI397
aasS'4Y72'
p3174
(lp3175
(lp3176
I1
aI1
aI297
aasS'1WBN'
p3177
(lp3178
(lp3179
I1
aI2
aI354
aasS'1WBO'
p3180
(lp3181
(lp3182
I1
aI2
aI354
aasS'3OY1'
p3183
(lp3184
(lp3185
I1
aI1
aI418
aasS'3R01'
p3186
(lp3187
(lp3188
I1
aI71
aI402
aasS'3RAL'
p3189
(lp3190
(lp3191
I1
aI1
aI298
aasS'3RAH'
p3192
(lp3193
(lp3194
I1
aI1
aI298
aasS'3RAI'
p3195
(lp3196
(lp3197
I1
aI1
aI298
aasS'1EH4'
p3198
(lp3199
(lp3200
I1
aI1
aI427
aasS'3RAK'
p3201
(lp3202
(lp3203
I1
aI1
aI298
aasS'3RAW'
p3204
(lp3205
(lp3206
I1
aI149
aI638
aasS'1WBV'
p3207
(lp3208
(lp3209
I1
aI2
aI354
aasS'1WBW'
p3210
(lp3211
(lp3212
I1
aI2
aI354
aasS'4ZK5'
p3213
(lp3214
(lp3215
I11
aI825
aI1239
aa(lp3216
I1
aI1
aI403
aasS'1WBS'
p3217
(lp3218
(lp3219
I1
aI2
aI354
aasS'1WBP'
p3220
(lp3221
(lp3222
I1
aI48
aI287
aa(lp3223
I1
aI441
aI655
aasS'3C5U'
p3224
(lp3225
(lp3226
I1
aI2
aI354
aasS'2PZY'
p3227
(lp3228
(lp3229
I1
aI8
aI397
aasS'3ROC'
p3230
(lp3231
(lp3232
I1
aI2
aI354
aasS'4ZY5'
p3233
(lp3234
(lp3235
I3
aI66
aI110
aa(lp3236
I1
aI204
aI545
aasS'4ZY4'
p3237
(lp3238
(lp3239
I3
aI66
aI110
aa(lp3240
I1
aI204
aI545
aasS'4ZY6'
p3241
(lp3242
(lp3243
I3
aI66
aI110
aa(lp3244
I1
aI204
aI545
aasS'2PZI'
p3245
(lp3246
(lp3247
I1
aI139
aI526
aasS'3ROY'
p3248
(lp3249
(lp3250
I1
aI1
aI298
aasS'1GY3'
p3251
(lp3252
(lp3253
I1
aI1
aI298
aasS'4U7Z'
p3254
(lp3255
(lp3256
I1
aI8
aI388
aasS'1JKT'
p3257
(lp3258
(lp3259
I2
aI348
aI679
aa(lp3260
I1
aI1
aI383
aasS'2FA2'
p3261
(lp3262
(lp3263
I1
aI1
aI353
aasS'2W05'
p3264
(lp3265
(lp3266
I1
aI1
aI298
aasS'2W06'
p3267
(lp3268
(lp3269
I1
aI1
aI298
aasS'3BLQ'
p3270
(lp3271
(lp3272
I1
aI1
aI367
aasS'4AFJ'
p3273
(lp3274
(lp3275
I1
aI17
aI385
aasS'3QKM'
p3276
(lp3277
(lp3278
I1
aI71
aI478
aasS'3QKL'
p3279
(lp3280
(lp3281
I1
aI71
aI478
aasS'4NJD'
p3282
(lp3283
(lp3284
I5
aI1
aI116
aa(lp3285
I1
aI244
aI591
aasS'4EH5'
p3286
(lp3287
(lp3288
I1
aI2
aI354
aasS'3QKK'
p3289
(lp3290
(lp3291
I1
aI17
aI385
aasS'4Q5J'
p3292
(lp3293
(lp3294
I1
aI835
aI1173
aasS'2VZ6'
p3295
(lp3296
(lp3297
I4
aI233
aI475
aa(lp3298
I1
aI1
aI398
aasS'2AYP'
p3299
(lp3300
(lp3301
I1
aI1
aI466
aasS'3KXM'
p3302
(lp3303
(lp3304
I1
aI1
aI327
aasS'4CZU'
p3305
(lp3306
(lp3307
I1
aI1
aI456
aasS'4CZT'
p3308
(lp3309
(lp3310
I1
aI1
aI456
aasS'3KXH'
p3311
(lp3312
(lp3313
I1
aI1
aI327
aasS'3V6R'
p3314
(lp3315
(lp3316
I1
aI1
aI418
aasS'3KXG'
p3317
(lp3318
(lp3319
I1
aI1
aI327
aasS'4XOY'
p3320
(lp3321
(lp3322
I1
aI12
aI357
aasS'4XOZ'
p3323
(lp3324
(lp3325
I1
aI12
aI357
aasS'3IDB'
p3326
(lp3327
(lp3328
I15
aI102
aI405
aasS'3IDC'
p3329
(lp3330
(lp3331
I15
aI102
aI405
aasS'1CSN'
p3332
(lp3333
(lp3334
I1
aI1
aI298
aasS'4AZF'
p3335
(lp3336
(lp3337
I1
aI139
aI554
aasS'4AZE'
p3338
(lp3339
(lp3340
I1
aI104
aI499
aasS'4E7W'
p3341
(lp3342
(lp3343
I1
aI10
aI370
aasS'4AZS'
p3344
(lp3345
(lp3346
I16
aI1
aI505
aasS'4AZW'
p3347
(lp3348
(lp3349
I16
aI1
aI505
aasS'1P5E'
p3350
(lp3351
(lp3352
I1
aI1
aI298
aasS'4JNW'
p3353
(lp3354
(lp3355
I23
aI11129
aI34350
aa(lp3356
I21
aI738
aI3845
aa(lp3357
I21
aI1
aI303
aa(lp3358
I21
aI4205
aI9923
aasS'4JX3'
p3359
(lp3360
(lp3361
I1
aI71
aI402
aasS'4JX7'
p3362
(lp3363
(lp3364
I1
aI71
aI402
aasS'4ALU'
p3365
(lp3366
(lp3367
I1
aI71
aI402
aasS'4ALW'
p3368
(lp3369
(lp3370
I1
aI71
aI402
aasS'4ALV'
p3371
(lp3372
(lp3373
I1
aI71
aI402
aasS'1SZM'
p3374
(lp3375
(lp3376
I1
aI2
aI350
aasS'1HOW'
p3377
(lp3378
(lp3379
I1
aI125
aI341
aa(lp3380
I1
aI496
aI742
aasS'4JXF'
p3381
(lp3382
(lp3383
I1
aI1
aI346
aasS'2FSM'
p3384
(lp3385
(lp3386
I1
aI2
aI354
aasS'2FSL'
p3387
(lp3388
(lp3389
I1
aI2
aI354
aasS'2FSO'
p3390
(lp3391
(lp3392
I1
aI2
aI354
aasS'4DN5'
p3393
(lp3394
(lp3395
I1
aI344
aI692
aasS'4QP6'
p3396
(lp3397
(lp3398
I1
aI14
aI359
aasS'3MTL'
p3399
(lp3400
(lp3401
I1
aI150
aI485
aasS'3FHI'
p3402
(lp3403
(lp3404
I15
aI88
aI378
aasS'2XCK'
p3405
(lp3406
(lp3407
I1
aI3
aI423
aasS'2XCH'
p3408
(lp3409
(lp3410
I1
aI3
aI423
aasS'2FST'
p3411
(lp3412
(lp3413
I1
aI2
aI354
aasS'3MTF'
p3414
(lp3415
(lp3416
I1
aI46
aI509
aasS'2H9V'
p3417
(lp3418
(lp3419
I1
aI22
aI916
aasS'4RPV'
p3420
(lp3421
(lp3422
I1
aI71
aI402
aasS'3UVR'
p3423
(lp3424
(lp3425
I1
aI2
aI354
aasS'3R8M'
p3426
(lp3427
(lp3428
I1
aI1
aI298
aasS'3R8L'
p3429
(lp3430
(lp3431
I1
aI1
aI298
aasS'3ZUT'
p3432
(lp3433
(lp3434
I1
aI1
aI317
aasS'3ZUU'
p3435
(lp3436
(lp3437
I1
aI1
aI317
aasS'3ZUV'
p3438
(lp3439
(lp3440
I1
aI12
aI357
aasS'1VJY'
p3441
(lp3442
(lp3443
I1
aI100
aI501
aasS'3R8Z'
p3444
(lp3445
(lp3446
I1
aI1
aI298
aasS'3R8V'
p3447
(lp3448
(lp3449
I1
aI1
aI298
aasS'4K1B'
p3450
(lp3451
(lp3452
I1
aI71
aI402
aasS'3R8P'
p3453
(lp3454
(lp3455
I1
aI1
aI298
aasS'3FZ1'
p3456
(lp3457
(lp3458
I1
aI1
aI298
aasS'3HEC'
p3459
(lp3460
(lp3461
I1
aI2
aI354
aasS'1MUO'
p3462
(lp3463
(lp3464
I1
aI43
aI403
aasS'4IEB'
p3465
(lp3466
(lp3467
I1
aI3
aI507
aasS'3V6S'
p3468
(lp3469
(lp3470
I1
aI1
aI418
aasS'4CV8'
p3471
(lp3472
(lp3473
I1
aI490
aI832
aasS'3OCB'
p3474
(lp3475
(lp3476
I1
aI71
aI478
aasS'4ERK'
p3477
(lp3478
(lp3479
I1
aI4
aI363
aasS'1I09'
p3480
(lp3481
(lp3482
I1
aI17
aI385
aasS'5BVD'
p3483
(lp3484
(lp3485
I1
aI14
aI359
aasS'3U9C'
p3486
(lp3487
(lp3488
I1
aI1
aI389
aasS'4ERW'
p3489
(lp3490
(lp3491
I1
aI1
aI298
aasS'2A4L'
p3492
(lp3493
(lp3494
I1
aI1
aI298
aasS'3U9N'
p3495
(lp3496
(lp3497
I1
aI1
aI466
aasS'1R78'
p3498
(lp3499
(lp3500
I1
aI1
aI298
aasS'4QP1'
p3501
(lp3502
(lp3503
I1
aI14
aI359
aasS'3ZU7'
p3504
(lp3505
(lp3506
I1
aI12
aI357
aasS'2CHL'
p3507
(lp3508
(lp3509
I1
aI1
aI374
aasS'3KVW'
p3510
(lp3511
(lp3512
I1
aI139
aI554
aasS'3WF5'
p3513
(lp3514
(lp3515
I1
aI42
aI449
aasS'3WF6'
p3516
(lp3517
(lp3518
I1
aI42
aI449
aasS'3WF7'
p3519
(lp3520
(lp3521
I1
aI42
aI449
aasS'3WF8'
p3522
(lp3523
(lp3524
I1
aI42
aI449
aasS'3WF9'
p3525
(lp3526
(lp3527
I1
aI42
aI449
aasS'3KVX'
p3528
(lp3529
(lp3530
I1
aI1
aI418
aasS'3O0G'
p3531
(lp3532
(lp3533
I1
aI1
aI292
aasS'3ELJ'
p3534
(lp3535
(lp3536
I1
aI1
aI379
aasS'5BUE'
p3537
(lp3538
(lp3539
I1
aI14
aI359
aasS'5BUJ'
p3540
(lp3541
(lp3542
I1
aI14
aI359
aasS'5BUI'
p3543
(lp3544
(lp3545
I1
aI14
aI359
aasS'4I6H'
p3546
(lp3547
(lp3548
I1
aI11
aI683
aasS'4I6F'
p3549
(lp3550
(lp3551
I1
aI11
aI683
aasS'4I6B'
p3552
(lp3553
(lp3554
I1
aI11
aI683
aasS'2EXE'
p3555
(lp3556
(lp3557
I1
aI149
aI638
aasS'2EXC'
p3558
(lp3559
(lp3560
I1
aI1
aI418
aasS'4O6L'
p3561
(lp3562
(lp3563
I1
aI490
aI832
aasS'2EXM'
p3564
(lp3565
(lp3566
I1
aI1
aI298
aasS'4O6E'
p3567
(lp3568
(lp3569
I1
aI14
aI359
aasS'2GTM'
p3570
(lp3571
(lp3572
I1
aI2
aI354
aasS'4JBV'
p3573
(lp3574
(lp3575
I1
aI1
aI483
aasS'2GTN'
p3576
(lp3577
(lp3578
I1
aI2
aI354
aasS'2GFS'
p3579
(lp3580
(lp3581
I1
aI2
aI354
aasS'5DGZ'
p3582
(lp3583
(lp3584
I1
aI71
aI402
aasS'4N4S'
p3585
(lp3586
(lp3587
I1
aI12
aI357
aasS'1J1B'
p3588
(lp3589
(lp3590
I1
aI17
aI385
aasS'1J1C'
p3591
(lp3592
(lp3593
I1
aI17
aI385
aasS'2X6D'
p3594
(lp3595
(lp3596
I1
aI43
aI403
aasS'3HX4'
p3597
(lp3598
(lp3599
I1
aI4
aI507
aasS'3F61'
p3600
(lp3601
(lp3602
I1
aI1
aI324
aasS'2Y9Q'
p3603
(lp3604
(lp3605
I1
aI12
aI453
aasS'3F69'
p3606
(lp3607
(lp3608
I1
aI1
aI324
aasS'3RNI'
p3609
(lp3610
(lp3611
I1
aI1
aI298
aasS'4FSR'
p3612
(lp3613
(lp3614
I1
aI1
aI466
aasS'4FSQ'
p3615
(lp3616
(lp3617
I1
aI1
aI466
aasS'4FSW'
p3618
(lp3619
(lp3620
I1
aI1
aI466
aasS'4FSU'
p3621
(lp3622
(lp3623
I1
aI1
aI466
aasS'3TN8'
p3624
(lp3625
(lp3626
I1
aI1
aI367
aasS'4TL0'
p3627
(lp3628
(lp3629
I2
aI348
aI679
aa(lp3630
I1
aI1
aI383
aasS'4FSZ'
p3631
(lp3632
(lp3633
I1
aI1
aI466
aasS'4FSY'
p3634
(lp3635
(lp3636
I1
aI1
aI466
aasS'4UMQ'
p3637
(lp3638
(lp3639
I9
aI554
aI651
aa(lp3640
I1
aI1
aI406
aasS'3RNY'
p3641
(lp3642
(lp3643
I1
aI17
aI734
aasS'4U6R'
p3644
(lp3645
(lp3646
I13
aI32
aI144
aa(lp3647
I1
aI497
aI967
aasS'3VN9'
p3648
(lp3649
(lp3650
I1
aI6
aI334
aasS'4FSN'
p3651
(lp3652
(lp3653
I1
aI1
aI466
aasS'4FSM'
p3654
(lp3655
(lp3656
I1
aI1
aI466
aasS'5CYI'
p3657
(lp3658
(lp3659
I1
aI1
aI298
aasS'2PE1'
p3660
(lp3661
(lp3662
I1
aI3
aI423
aasS'2PE0'
p3663
(lp3664
(lp3665
I1
aI3
aI423
aasS'2PE2'
p3666
(lp3667
(lp3668
I1
aI3
aI423
aasS'2BZJ'
p3669
(lp3670
(lp3671
I1
aI71
aI402
aasS'2BZK'
p3672
(lp3673
(lp3674
I1
aI71
aI402
aasS'2BZH'
p3675
(lp3676
(lp3677
I1
aI71
aI402
aasS'2BZI'
p3678
(lp3679
(lp3680
I1
aI71
aI402
aasS'3QL8'
p3681
(lp3682
(lp3683
I1
aI1
aI298
aasS'4IM2'
p3684
(lp3685
(lp3686
I1
aI1
aI367
aasS'4RC3'
p3687
(lp3688
(lp3689
I1
aI71
aI402
aasS'2IN6'
p3690
(lp3691
(lp3692
I1
aI280
aI640
aasS'2BHH'
p3693
(lp3694
(lp3695
I1
aI1
aI298
aasS'4YHJ'
p3696
(lp3697
(lp3698
I1
aI2
aI526
aasS'2BHE'
p3699
(lp3700
(lp3701
I1
aI1
aI298
aasS'4P90'
p3702
(lp3703
(lp3704
I3
aI66
aI110
aa(lp3705
I1
aI204
aI545
aasS'4KIQ'
p3706
(lp3707
(lp3708
I1
aI2
aI354
aasS'3TNW'
p3709
(lp3710
(lp3711
I1
aI1
aI298
aasS'4BKZ'
p3712
(lp3713
(lp3714
I9
aI554
aI651
aa(lp3715
I1
aI1
aI406
aasS'3TNQ'
p3716
(lp3717
(lp3718
I15
aI102
aI405
aasS'3TNP'
p3719
(lp3720
(lp3721
I15
aI102
aI405
aasS'3TNI'
p3722
(lp3723
(lp3724
I1
aI1
aI367
aasS'3TNH'
p3725
(lp3726
(lp3727
I1
aI1
aI367
aasS'4MYG'
p3728
(lp3729
(lp3730
I1
aI1
aI365
aasS'4QO9'
p3731
(lp3732
(lp3733
I1
aI6
aI353
aasS'3KK9'
p3734
(lp3735
(lp3736
I4
aI431
aI713
aa(lp3737
I1
aI1
aI376
aasS'3KK8'
p3738
(lp3739
(lp3740
I4
aI431
aI713
aa(lp3741
I1
aI1
aI376
aasS'1GZ8'
p3742
(lp3743
(lp3744
I1
aI1
aI298
aasS'1ZMV'
p3745
(lp3746
(lp3747
I9
aI624
aI722
aa(lp3748
I1
aI2
aI481
aasS'1ZMW'
p3749
(lp3750
(lp3751
I9
aI624
aI722
aa(lp3752
I1
aI2
aI481
aasS'1ZMU'
p3753
(lp3754
(lp3755
I9
aI624
aI722
aa(lp3756
I1
aI2
aI481
aasS'4WOT'
p3757
(lp3758
(lp3759
I1
aI22
aI916
aasS'4FA2'
p3760
(lp3761
(lp3762
I1
aI2
aI354
aasS'3UNJ'
p3763
(lp3764
(lp3765
I1
aI1
aI298
aasS'4RQV'
p3766
(lp3767
(lp3768
I1
aI3
aI423
aasS'2BRH'
p3769
(lp3770
(lp3771
I1
aI1
aI466
aasS'3E93'
p3772
(lp3773
(lp3774
I1
aI2
aI354
aasS'3FV8'
p3775
(lp3776
(lp3777
I1
aI1
aI418
aasS'2VU3'
p3778
(lp3779
(lp3780
I1
aI1
aI298
aasS'4RQK'
p3781
(lp3782
(lp3783
I1
aI3
aI423
aasS'2W7X'
p3784
(lp3785
(lp3786
I1
aI113
aI522
aasS'4L3L'
p3787
(lp3788
(lp3789
I1
aI42
aI449
aasS'4BYI'
p3790
(lp3791
(lp3792
I1
aI43
aI403
aasS'4BYJ'
p3793
(lp3794
(lp3795
I1
aI43
aI403
aasS'4W8E'
p3796
(lp3797
(lp3798
I1
aI6
aI353
aasS'4W8D'
p3799
(lp3800
(lp3801
I1
aI6
aI353
aasS'3NR9'
p3802
(lp3803
(lp3804
I1
aI1
aI499
aasS'3W16'
p3805
(lp3806
(lp3807
I1
aI43
aI403
aasS'4EH4'
p3808
(lp3809
(lp3810
I1
aI2
aI354
aasS'4QOX'
p3811
(lp3812
(lp3813
I1
aI1
aI527
aasS'3KKV'
p3814
(lp3815
(lp3816
I1
aI2
aI350
aasS'1WCC'
p3817
(lp3818
(lp3819
I1
aI1
aI298
aasS'3Q9Y'
p3820
(lp3821
(lp3822
I1
aI1
aI389
aasS'1GZN'
p3823
(lp3824
(lp3825
I1
aI71
aI481
aasS'2XRU'
p3826
(lp3827
(lp3828
I1
aI43
aI403
aasS'1GZK'
p3829
(lp3830
(lp3831
I1
aI71
aI481
aasS'3P5K'
p3832
(lp3833
(lp3834
I1
aI2
aI354
aasS'1XJD'
p3835
(lp3836
(lp3837
I18
aI145
aI285
aa(lp3838
I1
aI232
aI702
aasS'4EQC'
p3839
(lp3840
(lp3841
I3
aI66
aI110
aa(lp3842
I1
aI204
aI545
aasS'3W2C'
p3843
(lp3844
(lp3845
I1
aI43
aI403
aasS'4NW6'
p3846
(lp3847
(lp3848
I1
aI11
aI739
aasS'4NW5'
p3849
(lp3850
(lp3851
I1
aI11
aI739
aasS'4PWN'
p3852
(lp3853
(lp3854
I24
aI1038
aI2382
aa(lp3855
I25
aI1
aI820
aasS'2OBJ'
p3856
(lp3857
(lp3858
I1
aI71
aI402
aasS'4EQU'
p3859
(lp3860
(lp3861
I7
aI411
aI964
aa(lp3862
I1
aI1
aI380
aasS'4A4L'
p3863
(lp3864
(lp3865
I1
aI2
aI587
aasS'4A4O'
p3866
(lp3867
(lp3868
I1
aI2
aI587
aasS'3T3U'
p3869
(lp3870
(lp3871
I1
aI1
aI483
aasS'3T3V'
p3872
(lp3873
(lp3874
I1
aI1
aI483
aasS'2CGX'
p3875
(lp3876
(lp3877
I1
aI1
aI466
aasS'4D1Z'
p3878
(lp3879
(lp3880
I1
aI1
aI298
aasS'4D1X'
p3881
(lp3882
(lp3883
I1
aI1
aI298
aasS'2CGU'
p3884
(lp3885
(lp3886
I1
aI1
aI466
aasS'2CGV'
p3887
(lp3888
(lp3889
I1
aI1
aI466
aasS'2CGW'
p3890
(lp3891
(lp3892
I1
aI1
aI466
aasS'4XH6'
p3893
(lp3894
(lp3895
I1
aI71
aI402
aasS'3BEG'
p3896
(lp3897
(lp3898
I1
aI441
aI655
aa(lp3899
I1
aI48
aI287
aasS'3BE9'
p3900
(lp3901
(lp3902
I1
aI1
aI327
aasS'4XHK'
p3903
(lp3904
(lp3905
I1
aI71
aI402
aasS'3IW5'
p3906
(lp3907
(lp3908
I1
aI2
aI354
aasS'3IW4'
p3909
(lp3910
(lp3911
I18
aI22
aI160
aa(lp3912
I1
aI255
aI667
aasS'3IW7'
p3913
(lp3914
(lp3915
I1
aI2
aI354
aasS'3IW6'
p3916
(lp3917
(lp3918
I1
aI2
aI354
aasS'3FKN'
p3919
(lp3920
(lp3921
I1
aI2
aI354
aasS'3IW8'
p3922
(lp3923
(lp3924
I1
aI2
aI354
aasS'3FKL'
p3925
(lp3926
(lp3927
I1
aI2
aI354
aasS'1WMK'
p3928
(lp3929
(lp3930
I1
aI1
aI369
aasS'3OBJ'
p3931
(lp3932
(lp3933
I1
aI2
aI354
aasS'3PP1'
p3934
(lp3935
(lp3936
I1
aI8
aI388
aasS'3E8N'
p3937
(lp3938
(lp3939
I1
aI8
aI388
aasS'3IEC'
p3940
(lp3941
(lp3942
I9
aI672
aI788
aa(lp3943
I1
aI1
aI435
aasS'3DY7'
p3944
(lp3945
(lp3946
I1
aI8
aI388
aasS'4E6C'
p3947
(lp3948
(lp3949
I1
aI2
aI354
aasS'4E6A'
p3950
(lp3951
(lp3952
I1
aI2
aI354
aasS'1P4F'
p3953
(lp3954
(lp3955
I2
aI348
aI679
aa(lp3956
I1
aI1
aI383
aasS'4GEO'
p3957
(lp3958
(lp3959
I1
aI2
aI354
aasS'4IAA'
p3960
(lp3961
(lp3962
I1
aI71
aI402
aasS'3S0O'
p3963
(lp3964
(lp3965
I1
aI1
aI298
aasS'3BWF'
p3966
(lp3967
(lp3968
I1
aI71
aI402
aasS'4A06'
p3969
(lp3970
(lp3971
I1
aI3
aI423
aasS'5DFZ'
p3972
(lp3973
(lp3974
I1
aI9
aI400
aasS'3BWJ'
p3975
(lp3976
(lp3977
I1
aI2
aI350
aasS'1Q8Z'
p3978
(lp3979
(lp3980
I1
aI125
aI341
aa(lp3981
I1
aI496
aI742
aasS'4GW8'
p3982
(lp3983
(lp3984
I1
aI71
aI402
aasS'3FML'
p3985
(lp3986
(lp3987
I1
aI2
aI354
aasS'4AW0'
p3988
(lp3989
(lp3990
I1
aI3
aI423
aasS'4AW1'
p3991
(lp3992
(lp3993
I1
aI3
aI423
aasS'4AW2'
p3994
(lp3995
(lp3996
I26
aI1086
aI1165
aa(lp3997
I18
aI1000
aI1080
aa(lp3998
I1
aI1
aI808
aasS'3LQ5'
p3999
(lp4000
(lp4001
I1
aI1
aI367
aasS'4K0Y'
p4002
(lp4003
(lp4004
I1
aI71
aI402
aasS'3I4B'
p4005
(lp4006
(lp4007
I1
aI17
aI385
aasS'3ZTX'
p4008
(lp4009
(lp4010
I1
aI41
aI361
aasS'4AWI'
p4011
(lp4012
(lp4013
I1
aI1
aI379
aasS'3GI3'
p4014
(lp4015
(lp4016
I1
aI2
aI354
aasS'3U4U'
p4017
(lp4018
(lp4019
I1
aI1
aI389
aasS'4KWP'
p4020
(lp4021
(lp4022
I1
aI1
aI389
aasS'4IDV'
p4023
(lp4024
(lp4025
I1
aI344
aI692
aasS'1OB3'
p4026
(lp4027
(lp4028
I1
aI1
aI288
aasS'2BIY'
p4029
(lp4030
(lp4031
I1
aI3
aI423
aasS'2YCF'
p4032
(lp4033
(lp4034
I1
aI113
aI522
aasS'2BIK'
p4035
(lp4036
(lp4037
I1
aI71
aI402
aasS'3NAY'
p4038
(lp4039
(lp4040
I1
aI3
aI423
aasS'2BIL'
p4041
(lp4042
(lp4043
I1
aI71
aI402
aasS'2YCR'
p4044
(lp4045
(lp4046
I1
aI113
aI522
aasS'2YCS'
p4047
(lp4048
(lp4049
I1
aI113
aI522
aasS'2YCQ'
p4050
(lp4051
(lp4052
I1
aI113
aI522
aasS'4BHZ'
p4053
(lp4054
(lp4055
I1
aI490
aI832
aasS'3A2C'
p4056
(lp4057
(lp4058
I1
aI8
aI397
aasS'1PMN'
p4059
(lp4060
(lp4061
I1
aI1
aI418
aasS'4BHN'
p4062
(lp4063
(lp4064
I1
aI652
aI1032
aasS'2Y4I'
p4065
(lp4066
(lp4067
I1
aI8
aI388
aasS'4I5P'
p4068
(lp4069
(lp4070
I1
aI11
aI683
aasS'3CQU'
p4071
(lp4072
(lp4073
I1
aI17
aI385
aasS'3CQW'
p4074
(lp4075
(lp4076
I1
aI17
aI385
aasS'4I5H'
p4077
(lp4078
(lp4079
I1
aI12
aI357
aasS'4I5M'
p4080
(lp4081
(lp4082
I1
aI11
aI683
aasS'3CQE'
p4083
(lp4084
(lp4085
I1
aI280
aI640
aasS'2Y4P'
p4086
(lp4087
(lp4088
I2
aI348
aI679
aa(lp4089
I1
aI1
aI383
aasS'3SC1'
p4090
(lp4091
(lp4092
I1
aI3
aI423
aasS'2JAV'
p4093
(lp4094
(lp4095
I1
aI1
aI370
aasS'2JAM'
p4096
(lp4097
(lp4098
I1
aI1
aI371
aasS'3G2F'
p4099
(lp4100
(lp4101
I1
aI12
aI538
aasS'3ZH8'
p4102
(lp4103
(lp4104
I18
aI116
aI201
aa(lp4105
I1
aI141
aI592
aasS'4NH1'
p4106
(lp4107
(lp4108
I1
aI1
aI389
aasS'2YM4'
p4109
(lp4110
(lp4111
I1
aI1
aI466
aasS'2YM5'
p4112
(lp4113
(lp4114
I1
aI1
aI466
aasS'4QP3'
p4115
(lp4116
(lp4117
I1
aI14
aI359
aasS'2YM7'
p4118
(lp4119
(lp4120
I1
aI1
aI466
aasS'4QP4'
p4121
(lp4122
(lp4123
I1
aI14
aI359
aasS'4QP7'
p4124
(lp4125
(lp4126
I1
aI14
aI359
aasS'2YM3'
p4127
(lp4128
(lp4129
I1
aI1
aI466
aasS'4QP9'
p4130
(lp4131
(lp4132
I1
aI14
aI359
aasS'4QP8'
p4133
(lp4134
(lp4135
I1
aI14
aI359
aasS'2YM8'
p4136
(lp4137
(lp4138
I1
aI1
aI466
aasS'3KRX'
p4139
(lp4140
(lp4141
I1
aI1
aI531
aasS'4QNY'
p4142
(lp4143
(lp4144
I1
aI3
aI370
aasS'2ZAZ'
p4145
(lp4146
(lp4147
I1
aI2
aI354
aasS'3RCJ'
p4148
(lp4149
(lp4150
I1
aI3
aI423
aasS'5A14'
p4151
(lp4152
(lp4153
I1
aI1
aI298
aasS'4MX9'
p4154
(lp4155
(lp4156
I1
aI1
aI505
aasS'4QNA'
p4157
(lp4158
(lp4159
I1
aI6
aI353
aasS'4MXA'
p4160
(lp4161
(lp4162
I1
aI1
aI505
aasS'1BLX'
p4163
(lp4164
(lp4165
I1
aI1
aI320
aasS'2I40'
p4166
(lp4167
(lp4168
I1
aI1
aI298
aasS'1GIJ'
p4169
(lp4170
(lp4171
I1
aI1
aI298
aasS'1GII'
p4172
(lp4173
(lp4174
I1
aI1
aI298
aasS'1GIH'
p4175
(lp4176
(lp4177
I1
aI1
aI298
aasS'4QPA'
p4178
(lp4179
(lp4180
I1
aI14
aI359
aasS'4Y5H'
p4181
(lp4182
(lp4183
I1
aI1
aI418
aasS'2XNN'
p4184
(lp4185
(lp4186
I1
aI1
aI370
aasS'2XNO'
p4187
(lp4188
(lp4189
I1
aI1
aI370
aasS'4QPM'
p4190
(lp4191
(lp4192
I1
aI758
aI1057
aasS'3SQQ'
p4193
(lp4194
(lp4195
I1
aI1
aI298
aasS'4L42'
p4196
(lp4197
(lp4198
I1
aI42
aI449
aasS'4Y5Q'
p4199
(lp4200
(lp4201
I1
aI1
aI485
aasS'4L44'
p4202
(lp4203
(lp4204
I1
aI42
aI449
aasS'4L45'
p4205
(lp4206
(lp4207
I1
aI42
aI449
aasS'4L46'
p4208
(lp4209
(lp4210
I1
aI42
aI449
aasS'3OCG'
p4211
(lp4212
(lp4213
I1
aI2
aI354
aasS'1ZRZ'
p4214
(lp4215
(lp4216
I18
aI116
aI201
aa(lp4217
I1
aI141
aI592
aasS'1PME'
p4218
(lp4219
(lp4220
I1
aI33
aI379
aasS'3MV5'
p4221
(lp4222
(lp4223
I1
aI17
aI385
aasS'2VN9'
p4224
(lp4225
(lp4226
I4
aI323
aI478
aa(lp4227
I1
aI1
aI382
aasS'3FC1'
p4228
(lp4229
(lp4230
I1
aI2
aI354
aasS'4JLC'
p4231
(lp4232
(lp4233
I1
aI1
aI356
aasS'4NTS'
p4234
(lp4235
(lp4236
I1
aI2
aI350
aasS'1VZO'
p4237
(lp4238
(lp4239
I1
aI2
aI795
aasS'4NTT'
p4240
(lp4241
(lp4242
I1
aI2
aI350
aasS'1HCK'
p4243
(lp4244
(lp4245
I1
aI1
aI298
aasS'4E5B'
p4246
(lp4247
(lp4248
I1
aI2
aI354
aasS'1HCL'
p4249
(lp4250
(lp4251
I1
aI1
aI298
aasS'4E5A'
p4252
(lp4253
(lp4254
I1
aI2
aI354
aasS'4WNK'
p4255
(lp4256
(lp4257
I1
aI2
aI526
aasS'4WNO'
p4258
(lp4259
(lp4260
I1
aI1
aI383
aasS'1PHK'
p4261
(lp4262
(lp4263
I1
aI1
aI298
aasS'4AX8'
p4264
(lp4265
(lp4266
I16
aI1
aI505
aasS'1YM7'
p4267
(lp4268
(lp4269
I1
aI1
aI531
aasS'1ZLT'
p4270
(lp4271
(lp4272
I1
aI1
aI466
aasS'4JL9'
p4273
(lp4274
(lp4275
I1
aI1
aI356
aasS'4WNP'
p4276
(lp4277
(lp4278
I1
aI1
aI383
aasS'4NFN'
p4279
(lp4280
(lp4281
I1
aI9
aI394
aasS'2O0U'
p4282
(lp4283
(lp4284
I1
aI1
aI418
aasS'3V01'
p4285
(lp4286
(lp4287
I1
aI8
aI388
aasS'3KF7'
p4288
(lp4289
(lp4290
I1
aI2
aI354
aasS'4RVT'
p4291
(lp4292
(lp4293
I11
aI825
aI1239
aa(lp4294
I1
aI1
aI403
aasS'3DJ6'
p4295
(lp4296
(lp4297
I1
aI5
aI395
aasS'3DJ5'
p4298
(lp4299
(lp4300
I1
aI5
aI395
aasS'1DAY'
p4301
(lp4302
(lp4303
I1
aI1
aI327
aasS'2JGZ'
p4304
(lp4305
(lp4306
I14
aI129
aI415
aasS'4CT2'
p4307
(lp4308
(lp4309
I1
aI3
aI423
aasS'4CT1'
p4310
(lp4311
(lp4312
I1
aI3
aI423
aasS'4LFI'
p4313
(lp4314
(lp4315
I1
aI1
aI372
aasS'3MVH'
p4316
(lp4317
(lp4318
I1
aI71
aI478
aasS'3MVL'
p4319
(lp4320
(lp4321
I1
aI2
aI354
aasS'3MVM'
p4322
(lp4323
(lp4324
I1
aI2
aI354
aasS'3PA3'
p4325
(lp4326
(lp4327
I1
aI1
aI466
aasS'4RVK'
p4328
(lp4329
(lp4330
I1
aI1
aI293
aasS'4RVL'
p4331
(lp4332
(lp4333
I1
aI1
aI293
aasS'4RVM'
p4334
(lp4335
(lp4336
I1
aI1
aI293
aasS'3PA4'
p4337
(lp4338
(lp4339
I1
aI1
aI466
aasS'3PA5'
p4340
(lp4341
(lp4342
I1
aI1
aI466
aasS'3UPX'
p4343
(lp4344
(lp4345
I1
aI1
aI483
aasS'3UPZ'
p4346
(lp4347
(lp4348
I1
aI1
aI483
aasS'3Q3B'
p4349
(lp4350
(lp4351
I1
aI17
aI385
aasS'4JBO'
p4352
(lp4353
(lp4354
I1
aI43
aI403
aasS'4UBA'
p4355
(lp4356
(lp4357
I1
aI1
aI389
aasS'4GVA'
p4358
(lp4359
(lp4360
I1
aI12
aI357
aasS'3I5Z'
p4361
(lp4362
(lp4363
I1
aI14
aI359
aasS'4D28'
p4364
(lp4365
(lp4366
I1
aI1
aI433
aasS'4JBP'
p4367
(lp4368
(lp4369
I1
aI43
aI403
aasS'4JBQ'
p4370
(lp4371
(lp4372
I1
aI43
aI403
aasS'1JAM'
p4373
(lp4374
(lp4375
I1
aI1
aI327
aasS'1W82'
p4376
(lp4377
(lp4378
I1
aI2
aI354
aasS'1W83'
p4379
(lp4380
(lp4381
I1
aI2
aI354
aasS'1W84'
p4382
(lp4383
(lp4384
I1
aI2
aI354
aasS'2BFY'
p4385
(lp4386
(lp4387
I1
aI41
aI361
aasS'3P4K'
p4388
(lp4389
(lp4390
I1
aI2
aI354
aasS'4IC7'
p4391
(lp4392
(lp4393
I1
aI57
aI448
aasS'4IC8'
p4394
(lp4395
(lp4396
I1
aI27
aI410
aasS'2R3N'
p4397
(lp4398
(lp4399
I1
aI1
aI298
aasS'2X9E'
p4400
(lp4401
(lp4402
I1
aI490
aI832
aasS'4RJ3'
p4403
(lp4404
(lp4405
I1
aI1
aI298
aasS'1JST'
p4406
(lp4407
(lp4408
I1
aI1
aI298
aasS'4EC8'
p4409
(lp4410
(lp4411
I1
aI1
aI367
aasS'1JSV'
p4412
(lp4413
(lp4414
I1
aI1
aI298
aasS'1W8C'
p4415
(lp4416
(lp4417
I1
aI1
aI298
aasS'4GV1'
p4418
(lp4419
(lp4420
I1
aI71
aI478
aasS'3PWD'
p4421
(lp4422
(lp4423
I1
aI1
aI327
aasS'3DXN'
p4424
(lp4425
(lp4426
I1
aI1
aI287
aasS'3UP2'
p4427
(lp4428
(lp4429
I1
aI43
aI403
aasS'3UP7'
p4430
(lp4431
(lp4432
I1
aI43
aI403
aasS'1BKX'
p4433
(lp4434
(lp4435
I1
aI2
aI350
aasS'4UB7'
p4436
(lp4437
(lp4438
I1
aI1
aI389
aasS'3PWY'
p4439
(lp4440
(lp4441
I1
aI3
aI423
aasS'4D2P'
p4442
(lp4443
(lp4444
I9
aI554
aI651
aa(lp4445
I1
aI1
aI406
aasS'2R3F'
p4446
(lp4447
(lp4448
I1
aI1
aI298
aasS'4D2V'
p4449
(lp4450
(lp4451
I9
aI554
aI651
aa(lp4452
I1
aI1
aI406
aasS'4D2W'
p4453
(lp4454
(lp4455
I9
aI554
aI651
aa(lp4456
I1
aI1
aI406
aasS'4D2T'
p4457
(lp4458
(lp4459
I9
aI554
aI651
aa(lp4460
I1
aI1
aI406
aasS'2Y7J'
p4461
(lp4462
(lp4463
I1
aI6
aI345
aasS'3ENM'
p4464
(lp4465
(lp4466
I1
aI6
aI334
aasS'4BXA'
p4467
(lp4468
(lp4469
I1
aI1
aI335
aasS'4NFM'
p4470
(lp4471
(lp4472
I1
aI9
aI394
aasS'3BV3'
p4473
(lp4474
(lp4475
I1
aI2
aI354
aasS'3BV2'
p4476
(lp4477
(lp4478
I1
aI2
aI354
aasS'1IAN'
p4479
(lp4480
(lp4481
I1
aI1
aI360
aasS'3DV3'
p4482
(lp4483
(lp4484
I1
aI8
aI388
aasS'2WQE'
p4485
(lp4486
(lp4487
I1
aI43
aI403
aasS'1IAS'
p4488
(lp4489
(lp4490
I1
aI100
aI501
aasS'2WQN'
p4491
(lp4492
(lp4493
I1
aI5
aI302
aasS'2WQO'
p4494
(lp4495
(lp4496
I1
aI1
aI370
aasS'2WQM'
p4497
(lp4498
(lp4499
I1
aI5
aI302
aasS'3C0I'
p4500
(lp4501
(lp4502
I1
aI1
aI375
aasS'3G33'
p4503
(lp4504
(lp4505
I14
aI16
aI243
aasS'5DIA'
p4506
(lp4507
(lp4508
I1
aI71
aI402
aasS'1IA8'
p4509
(lp4510
(lp4511
I1
aI1
aI466
aasS'4I41'
p4512
(lp4513
(lp4514
I1
aI71
aI402
aasS'4FST'
p4515
(lp4516
(lp4517
I1
aI1
aI466
aasS'3DJ7'
p4518
(lp4519
(lp4520
I1
aI5
aI395
aasS'3SXF'
p4521
(lp4522
(lp4523
I1
aI1
aI483
aasS'2FUM'
p4524
(lp4525
(lp4526
I1
aI1
aI324
aasS'3V04'
p4527
(lp4528
(lp4529
I1
aI8
aI388
aasS'2GDO'
p4530
(lp4531
(lp4532
I1
aI1
aI466
aasS'3GNI'
p4533
(lp4534
(lp4535
I1
aI32
aI431
aasS'3UBD'
p4536
(lp4537
(lp4538
I1
aI11
aI739
aasS'4MQ1'
p4539
(lp4540
(lp4541
I1
aI104
aI499
aasS'3ZYA'
p4542
(lp4543
(lp4544
I1
aI2
aI354
aasS'4IQ6'
p4545
(lp4546
(lp4547
I1
aI17
aI385
aasS'3RPV'
p4548
(lp4549
(lp4550
I1
aI1
aI298
aasS'4TND'
p4551
(lp4552
(lp4553
I1
aI2
aI526
aasS'4TNB'
p4554
(lp4555
(lp4556
I1
aI2
aI526
aasS'3RPR'
p4557
(lp4558
(lp4559
I1
aI1
aI298
aasS'4BI1'
p4560
(lp4561
(lp4562
I1
aI490
aI832
aasS'4BI0'
p4563
(lp4564
(lp4565
I1
aI490
aI832
aasS'3RPY'
p4566
(lp4567
(lp4568
I1
aI1
aI298
aasS'4BI2'
p4569
(lp4570
(lp4571
I1
aI490
aI832
aasS'1KOA'
p4572
(lp4573
(lp4574
I1
aI1
aI491
aasS'2HXQ'
p4575
(lp4576
(lp4577
I1
aI1
aI466
aasS'2F2U'
p4578
(lp4579
(lp4580
I1
aI22
aI916
aasS'3RPO'
p4581
(lp4582
(lp4583
I1
aI1
aI298
aasS'5CI7'
p4584
(lp4585
(lp4586
I1
aI1
aI383
aasS'2W96'
p4587
(lp4588
(lp4589
I1
aI3
aI303
aasS'2BTR'
p4590
(lp4591
(lp4592
I1
aI1
aI298
aasS'2BTS'
p4593
(lp4594
(lp4595
I1
aI1
aI298
aasS'4Q2A'
p4596
(lp4597
(lp4598
I24
aI784
aI2126
aa(lp4599
I25
aI1
aI819
aasS'1XO2'
p4600
(lp4601
(lp4602
I1
aI1
aI320
aasS'4NIF'
p4603
(lp4604
(lp4605
I1
aI17
aI734
aasS'4Y46'
p4606
(lp4607
(lp4608
I1
aI1
aI418
aasS'3QX2'
p4609
(lp4610
(lp4611
I1
aI1
aI298
aasS'2JBO'
p4612
(lp4613
(lp4614
I1
aI8
aI397
aasS'2E9N'
p4615
(lp4616
(lp4617
I1
aI1
aI466
aasS'2E9O'
p4618
(lp4619
(lp4620
I1
aI1
aI466
aasS'2RSV'
p4621
(lp4622
(lp4623
I1
aI2
aI388
aasS'2E9U'
p4624
(lp4625
(lp4626
I1
aI1
aI466
aasS'2E9V'
p4627
(lp4628
(lp4629
I1
aI1
aI466
aasS'2E9P'
p4630
(lp4631
(lp4632
I1
aI1
aI466
aasS'2JBP'
p4633
(lp4634
(lp4635
I1
aI8
aI397
aasS'4FR4'
p4636
(lp4637
(lp4638
I1
aI1
aI337
aasS'3D2K'
p4639
(lp4640
(lp4641
I1
aI5
aI395
aasS'3D2I'
p4642
(lp4643
(lp4644
I1
aI5
aI395
aasS'3RP9'
p4645
(lp4646
(lp4647
I1
aI32
aI458
aasS'4TN6'
p4648
(lp4649
(lp4650
I1
aI1
aI339
aasS'1LPU'
p4651
(lp4652
(lp4653
I1
aI1
aI327
aasS'4BIE'
p4654
(lp4655
(lp4656
I1
aI652
aI1032
aasS'4BID'
p4657
(lp4658
(lp4659
I1
aI652
aI1032
aasS'4U43'
p4660
(lp4661
(lp4662
I1
aI1
aI332
aasS'4U45'
p4663
(lp4664
(lp4665
I11
aI825
aI1239
aa(lp4666
I1
aI1
aI403
aasS'4U44'
p4667
(lp4668
(lp4669
I11
aI825
aI1239
aa(lp4670
I1
aI1
aI403
aasS'4BIC'
p4671
(lp4672
(lp4673
I1
aI652
aI1032
aasS'2UUE'
p4674
(lp4675
(lp4676
I1
aI1
aI298
aasS'4XX9'
p4677
(lp4678
(lp4679
I1
aI3
aI423
aasS'2IZS'
p4680
(lp4681
(lp4682
I1
aI1
aI374
aasS'2IZR'
p4683
(lp4684
(lp4685
I1
aI1
aI374
aasS'2IZU'
p4686
(lp4687
(lp4688
I1
aI1
aI374
aasS'2IZT'
p4689
(lp4690
(lp4691
I1
aI1
aI374
aasS'4L43'
p4692
(lp4693
(lp4694
I1
aI42
aI449
aasS'4CEG'
p4695
(lp4696
(lp4697
I1
aI43
aI403
aasS'3OOM'
p4698
(lp4699
(lp4700
I1
aI46
aI509
aasS'1TKI'
p4701
(lp4702
(lp4703
I23
aI11129
aI34350
aa(lp4704
I21
aI738
aI3795
aa(lp4705
I21
aI1
aI303
aa(lp4706
I21
aI4271
aI9923
aasS'3ZLX'
p4707
(lp4708
(lp4709
I1
aI8
aI388
aasS'5BNJ'
p4710
(lp4711
(lp4712
I1
aI14
aI395
aasS'5D1J'
p4713
(lp4714
(lp4715
I1
aI1
aI298
aasS'2FVD'
p4716
(lp4717
(lp4718
I1
aI1
aI298
aasS'3NYN'
p4719
(lp4720
(lp4721
I1
aI2
aI526
aasS'3R7Y'
p4722
(lp4723
(lp4724
I1
aI1
aI298
aasS'4LG4'
p4725
(lp4726
(lp4727
I1
aI1
aI319
aasS'4U79'
p4728
(lp4729
(lp4730
I1
aI1
aI418
aasS'1WBT'
p4731
(lp4732
(lp4733
I1
aI2
aI354
aasS'3VQU'
p4734
(lp4735
(lp4736
I1
aI490
aI832
aasS'3ORT'
p4737
(lp4738
(lp4739
I1
aI1
aI311
aasS'4QMX'
p4740
(lp4741
(lp4742
I1
aI6
aI353
aasS'4QMY'
p4743
(lp4744
(lp4745
I1
aI6
aI353
aasS'3ORP'
p4746
(lp4747
(lp4748
I1
aI1
aI311
aasS'2W5A'
p4749
(lp4750
(lp4751
I1
aI1
aI370
aasS'4QMS'
p4752
(lp4753
(lp4754
I1
aI6
aI353
aasS'4QMP'
p4755
(lp4756
(lp4757
I1
aI6
aI353
aasS'4QMQ'
p4758
(lp4759
(lp4760
I1
aI6
aI353
aasS'4QMV'
p4761
(lp4762
(lp4763
I1
aI6
aI353
aasS'4QMW'
p4764
(lp4765
(lp4766
I1
aI6
aI353
aasS'3ORZ'
p4767
(lp4768
(lp4769
I1
aI3
aI423
aasS'4QMU'
p4770
(lp4771
(lp4772
I1
aI6
aI353
aasS'4QMN'
p4773
(lp4774
(lp4775
I1
aI6
aI353
aasS'4QMO'
p4776
(lp4777
(lp4778
I1
aI6
aI353
aasS'4QML'
p4779
(lp4780
(lp4781
I1
aI6
aI353
aasS'3EH9'
p4782
(lp4783
(lp4784
I2
aI348
aI679
aa(lp4785
I1
aI1
aI383
aasS'3ORL'
p4786
(lp4787
(lp4788
I1
aI1
aI311
aasS'3ORM'
p4789
(lp4790
(lp4791
I1
aI1
aI311
aasS'3ORN'
p4792
(lp4793
(lp4794
I1
aI8
aI388
aasS'3ORO'
p4795
(lp4796
(lp4797
I1
aI1
aI324
aasS'3ORI'
p4798
(lp4799
(lp4800
I1
aI1
aI324
aasS'3ORK'
p4801
(lp4802
(lp4803
I1
aI1
aI311
aasS'2VAG'
p4804
(lp4805
(lp4806
I1
aI1
aI484
aasS'4EWQ'
p4807
(lp4808
(lp4809
I1
aI2
aI354
aasS'3FWQ'
p4810
(lp4811
(lp4812
I1
aI1
aI389
aasS'4RED'
p4813
(lp4814
(lp4815
I1
aI4
aI476
aasS'1VYW'
p4816
(lp4817
(lp4818
I1
aI1
aI298
aasS'3H9O'
p4819
(lp4820
(lp4821
I1
aI3
aI423
aasS'3IG7'
p4822
(lp4823
(lp4824
I1
aI1
aI298
aasS'4RER'
p4825
(lp4826
(lp4827
I1
aI4
aI476
aasS'4NU1'
p4828
(lp4829
(lp4830
I1
aI17
aI396
aasS'2QHN'
p4831
(lp4832
(lp4833
I1
aI1
aI466
aasS'4REW'
p4834
(lp4835
(lp4836
I1
aI4
aI476
aasS'2ZV2'
p4837
(lp4838
(lp4839
I1
aI116
aI546
aasS'3PVB'
p4840
(lp4841
(lp4842
I15
aI88
aI378
aasS'3PVG'
p4843
(lp4844
(lp4845
I1
aI1
aI327
aasS'4XJ0'
p4846
(lp4847
(lp4848
I1
aI14
aI359
aasS'3M42'
p4849
(lp4850
(lp4851
I1
aI8
aI397
aasS'4C02'
p4852
(lp4853
(lp4854
I1
aI46
aI509
aasS'3MW1'
p4855
(lp4856
(lp4857
I1
aI2
aI354
aasS'3FE3'
p4858
(lp4859
(lp4860
I9
aI593
aI753
aa(lp4861
I1
aI3
aI424
aasS'4DAW'
p4862
(lp4863
(lp4864
I3
aI66
aI110
aa(lp4865
I1
aI204
aI545
aasS'3MWU'
p4866
(lp4867
(lp4868
I1
aI1
aI485
aasS'3KGA'
p4869
(lp4870
(lp4871
I1
aI8
aI397
aasS'4C0T'
p4872
(lp4873
(lp4874
I1
aI171
aI592
aasS'4FMQ'
p4875
(lp4876
(lp4877
I1
aI14
aI359
aasS'3KU2'
p4878
(lp4879
(lp4880
I1
aI3
aI506
aasS'4AGU'
p4881
(lp4882
(lp4883
I1
aI1
aI310
aasS'1W98'
p4884
(lp4885
(lp4886
I1
aI1
aI298
aasS'3IGG'
p4887
(lp4888
(lp4889
I1
aI1
aI298
aasS'1GOL'
p4890
(lp4891
(lp4892
I1
aI4
aI363
aasS'3LAU'
p4893
(lp4894
(lp4895
I1
aI43
aI403
aasS'3IGO'
p4896
(lp4897
(lp4898
I1
aI1
aI485
aasS'4LYN'
p4899
(lp4900
(lp4901
I1
aI1
aI298
aasS'3H9F'
p4902
(lp4903
(lp4904
I1
aI490
aI832
aasS'4NUS'
p4905
(lp4906
(lp4907
I1
aI11
aI739
aasS'1RW8'
p4908
(lp4909
(lp4910
I1
aI100
aI501
aasS'5DHJ'
p4911
(lp4912
(lp4913
I1
aI71
aI402
aasS'4IB5'
p4914
(lp4915
(lp4916
I1
aI1
aI389
aasS'2C6T'
p4917
(lp4918
(lp4919
I1
aI1
aI298
aasS'2CSN'
p4920
(lp4921
(lp4922
I1
aI1
aI297
aasS'4J1R'
p4923
(lp4924
(lp4925
I1
aI17
aI385
aasS'2C6O'
p4926
(lp4927
(lp4928
I1
aI1
aI298
aasS'2C6M'
p4929
(lp4930
(lp4931
I1
aI1
aI298
aasS'2C6L'
p4932
(lp4933
(lp4934
I1
aI1
aI298
aasS'2C6K'
p4935
(lp4936
(lp4937
I1
aI1
aI298
aasS'2C6I'
p4938
(lp4939
(lp4940
I1
aI1
aI298
aasS'2C6E'
p4941
(lp4942
(lp4943
I1
aI43
aI403
aasS'2C6D'
p4944
(lp4945
(lp4946
I1
aI43
aI403
aasS'3ZXT'
p4947
(lp4948
(lp4949
I2
aI348
aI679
aa(lp4950
I1
aI1
aI383
aasS'3I60'
p4951
(lp4952
(lp4953
I1
aI14
aI359
aasS'3GOK'
p4954
(lp4955
(lp4956
I1
aI8
aI397
aasS'3WE8'
p4957
(lp4958
(lp4959
I1
aI1
aI273
aasS'4AU8'
p4960
(lp4961
(lp4962
I1
aI1
aI292
aasS'3WE4'
p4963
(lp4964
(lp4965
I1
aI42
aI449
aasS'4UAK'
p4966
(lp4967
(lp4968
I1
aI1
aI1178
aasS'3UC3'
p4969
(lp4970
(lp4971
I1
aI1
aI346
aasS'3I6U'
p4972
(lp4973
(lp4974
I1
aI113
aI522
aasS'3UC4'
p4975
(lp4976
(lp4977
I1
aI1
aI317
aasS'4UAL'
p4978
(lp4979
(lp4980
I1
aI1
aI1178
aasS'4UW0'
p4981
(lp4982
(lp4983
I16
aI1
aI505
aasS'3Q4T'
p4984
(lp4985
(lp4986
I1
aI60
aI492
aasS'3Q4U'
p4987
(lp4988
(lp4989
I1
aI46
aI509
aasS'3BGP'
p4990
(lp4991
(lp4992
I1
aI71
aI402
aasS'3BGQ'
p4993
(lp4994
(lp4995
I1
aI71
aI402
aasS'3Q4Z'
p4996
(lp4997
(lp4998
I3
aI66
aI110
aa(lp4999
I1
aI204
aI545
aasS'3BGZ'
p5000
(lp5001
(lp5002
I1
aI71
aI402
aasS'2C69'
p5003
(lp5004
(lp5005
I1
aI1
aI298
aasS'2C68'
p5006
(lp5007
(lp5008
I1
aI1
aI298
aasS'3P9J'
p5009
(lp5010
(lp5011
I1
aI43
aI403
aasS'3LM5'
p5012
(lp5013
(lp5014
I1
aI2
aI355
aasS'1BX6'
p5015
(lp5016
(lp5017
I1
aI1
aI346
aasS'3DU8'
p5018
(lp5019
(lp5020
I1
aI17
aI385
aasS'1OL7'
p5021
(lp5022
(lp5023
I1
aI43
aI403
aasS'1OL1'
p5024
(lp5025
(lp5026
I1
aI1
aI298
aasS'1OL2'
p5027
(lp5028
(lp5029
I1
aI1
aI298
aasS'3SAY'
p5030
(lp5031
(lp5032
I1
aI17
aI385
aasS'2PHK'
p5033
(lp5034
(lp5035
I1
aI1
aI366
aasS'3NCZ'
p5036
(lp5037
(lp5038
I1
aI6
aI1198
aasS'3NWW'
p5039
(lp5040
(lp5041
I1
aI2
aI354
aasS'3NCG'
p5042
(lp5043
(lp5044
I1
aI1
aI485
aasS'1RE8'
p5045
(lp5046
(lp5047
I1
aI2
aI350
aasS'4EK4'
p5048
(lp5049
(lp5050
I1
aI1
aI298
aasS'4EK6'
p5051
(lp5052
(lp5053
I1
aI1
aI298
aasS'4EK3'
p5054
(lp5055
(lp5056
I1
aI1
aI298
aasS'2BKZ'
p5057
(lp5058
(lp5059
I1
aI1
aI298
aasS'4EK8'
p5060
(lp5061
(lp5062
I1
aI1
aI298
aasS'3ZRM'
p5063
(lp5064
(lp5065
I1
aI17
aI385
aasS'2B9J'
p5066
(lp5067
(lp5068
I1
aI1
aI353
aasS'3D14'
p5069
(lp5070
(lp5071
I1
aI5
aI395
aasS'2B9H'
p5072
(lp5073
(lp5074
I1
aI1
aI353
aasS'4HGT'
p5075
(lp5076
(lp5077
I1
aI1
aI339
aasS'4EKL'
p5078
(lp5079
(lp5080
I1
aI71
aI478
aasS'4BN1'
p5081
(lp5082
(lp5083
I1
aI43
aI403
aasS'2B9F'
p5084
(lp5085
(lp5086
I1
aI1
aI353
aasS'4EKK'
p5087
(lp5088
(lp5089
I1
aI17
aI385
aasS'3F3Z'
p5090
(lp5091
(lp5092
I1
aI1
aI277
aasS'3EOC'
p5093
(lp5094
(lp5095
I1
aI1
aI298
aasS'3UO6'
p5096
(lp5097
(lp5098
I1
aI43
aI403
aasS'1REJ'
p5099
(lp5100
(lp5101
I1
aI2
aI350
aasS'1REK'
p5102
(lp5103
(lp5104
I1
aI2
aI350
aasS'5DZC'
p5105
(lp5106
(lp5107
I15
aI9
aI532
aa(lp5108
I1
aI501
aI842
aasS'3SA0'
p5109
(lp5110
(lp5111
I1
aI14
aI359
aasS'2JC6'
p5112
(lp5113
(lp5114
I1
aI1
aI348
aasS'1H8F'
p5115
(lp5116
(lp5117
I1
aI17
aI385
aasS'4I3Z'
p5118
(lp5119
(lp5120
I14
aI138
aI414
aasS'2WPA'
p5121
(lp5122
(lp5123
I1
aI1
aI298
aasS'3KXN'
p5124
(lp5125
(lp5126
I1
aI1
aI327
aasS'2DYL'
p5127
(lp5128
(lp5129
I1
aI60
aI409
aasS'4L6Q'
p5130
(lp5131
(lp5132
I1
aI22
aI916
aasS'3UOH'
p5133
(lp5134
(lp5135
I1
aI43
aI403
aasS'1F5Q'
p5136
(lp5137
(lp5138
I1
aI1
aI298
aasS'4MBI'
p5139
(lp5140
(lp5141
I1
aI71
aI402
aasS'4GH2'
p5142
(lp5143
(lp5144
I1
aI1
aI466
aasS'1JVP'
p5145
(lp5146
(lp5147
I1
aI1
aI298
aasS'3CKW'
p5148
(lp5149
(lp5150
I1
aI6
aI353
aasS'4N6Y'
p5151
(lp5152
(lp5153
I1
aI71
aI402
aasS'4N6Z'
p5154
(lp5155
(lp5156
I1
aI71
aI402
aasS'2P3G'
p5157
(lp5158
(lp5159
I1
aI8
aI397
aasS'3DLS'
p5160
(lp5161
(lp5162
I1
aI971
aI1269
aasS'5AP2'
p5163
(lp5164
(lp5165
I1
aI490
aI832
aasS'5AP3'
p5166
(lp5167
(lp5168
I1
aI490
aI832
aasS'2W4K'
p5169
(lp5170
(lp5171
I2
aI348
aI679
aa(lp5172
I1
aI1
aI383
aasS'2W4J'
p5173
(lp5174
(lp5175
I2
aI348
aI679
aa(lp5176
I1
aI1
aI383
aasS'5AP6'
p5177
(lp5178
(lp5179
I1
aI490
aI832
aasS'4M97'
p5180
(lp5181
(lp5182
I1
aI1
aI505
aasS'5AP4'
p5183
(lp5184
(lp5185
I1
aI490
aI832
aasS'5AP5'
p5186
(lp5187
(lp5188
I1
aI490
aI832
aasS'2QNJ'
p5189
(lp5190
(lp5191
I9
aI593
aI753
aa(lp5192
I1
aI3
aI424
aasS'2HY8'
p5193
(lp5194
(lp5195
I3
aI66
aI110
aa(lp5196
I1
aI204
aI545
aasS'3MFR'
p5197
(lp5198
(lp5199
I1
aI1
aI375
aasS'3MFS'
p5200
(lp5201
(lp5202
I1
aI1
aI375
aasS'2HY0'
p5203
(lp5204
(lp5205
I1
aI1
aI466
aasS'3MFT'
p5206
(lp5207
(lp5208
I1
aI1
aI375
aasS'3MFU'
p5209
(lp5210
(lp5211
I1
aI1
aI375
aasS'3OS3'
p5212
(lp5213
(lp5214
I1
aI8
aI388
aasS'2R9S'
p5215
(lp5216
(lp5217
I1
aI1
aI418
aasS'3TKI'
p5218
(lp5219
(lp5220
I1
aI1
aI466
aasS'2WFY'
p5221
(lp5222
(lp5223
I1
aI1
aI298
aasS'3W8Q'
p5224
(lp5225
(lp5226
I1
aI8
aI388
aasS'2P33'
p5227
(lp5228
(lp5229
I1
aI1
aI418
aasS'3TKU'
p5230
(lp5231
(lp5232
I1
aI1
aI1178
aasS'3AQV'
p5233
(lp5234
(lp5235
I1
aI1
aI471
aasS'4L67'
p5236
(lp5237
(lp5238
I5
aI1
aI116
aa(lp5239
I1
aI244
aI591
aasS'2Q0N'
p5240
(lp5241
(lp5242
I5
aI1
aI116
aa(lp5243
I1
aI244
aI591
aasS'3GCV'
p5244
(lp5245
(lp5246
I1
aI2
aI354
aasS'3SOC'
p5247
(lp5248
(lp5249
I1
aI60
aI492
aasS'2BUJ'
p5250
(lp5251
(lp5252
I1
aI1
aI303
aasS'3SOA'
p5253
(lp5254
(lp5255
I4
aI233
aI475
aa(lp5256
I1
aI1
aI398
aasS'2LAV'
p5257
(lp5258
(lp5259
I1
aI2
aI388
aasS'2O63'
p5260
(lp5261
(lp5262
I1
aI71
aI402
aasS'3FDN'
p5263
(lp5264
(lp5265
I1
aI43
aI403
aasS'1Z5M'
p5266
(lp5267
(lp5268
I1
aI3
aI423
aasS'2O65'
p5269
(lp5270
(lp5271
I1
aI71
aI402
aasS'2O64'
p5272
(lp5273
(lp5274
I1
aI71
aI402
aasS'2J9M'
p5275
(lp5276
(lp5277
I1
aI1
aI298
aasS'3MPT'
p5278
(lp5279
(lp5280
I1
aI2
aI354
aasS'4C3R'
p5281
(lp5282
(lp5283
I1
aI43
aI403
aasS'2NO3'
p5284
(lp5285
(lp5286
I1
aI1
aI379
aasS'4CVA'
p5287
(lp5288
(lp5289
I1
aI490
aI832
aasS'4WBB'
p5290
(lp5291
(lp5292
I15
aI102
aI405
aasS'4AFE'
p5293
(lp5294
(lp5295
I1
aI1
aI370
aasS'4B0G'
p5296
(lp5297
(lp5298
I1
aI43
aI403
aasS'4FI1'
p5299
(lp5300
(lp5301
I1
aI1
aI372
aasS'4JR7'
p5302
(lp5303
(lp5304
I1
aI1
aI372
aasS'4AF3'
p5305
(lp5306
(lp5307
I1
aI6
aI344
aasS'2I6L'
p5308
(lp5309
(lp5310
I1
aI5
aI355
aasS'3QQL'
p5311
(lp5312
(lp5313
I1
aI1
aI298
aasS'3QQK'
p5314
(lp5315
(lp5316
I1
aI1
aI298
aasS'3QQJ'
p5317
(lp5318
(lp5319
I1
aI1
aI298
aasS'3QQH'
p5320
(lp5321
(lp5322
I1
aI1
aI298
aasS'3QQG'
p5323
(lp5324
(lp5325
I1
aI1
aI298
aasS'3QQF'
p5326
(lp5327
(lp5328
I1
aI1
aI298
aasS'4CV9'
p5329
(lp5330
(lp5331
I1
aI490
aI832
aasS'1NY3'
p5332
(lp5333
(lp5334
I1
aI8
aI397
aasS'3FSK'
p5335
(lp5336
(lp5337
I1
aI2
aI354
aasS'3PG1'
p5338
(lp5339
(lp5340
I1
aI8
aI372
aasS'3PG3'
p5341
(lp5342
(lp5343
I1
aI2
aI354
aasS'2DWB'
p5344
(lp5345
(lp5346
I1
aI43
aI403
aasS'1QL6'
p5347
(lp5348
(lp5349
I1
aI1
aI366
aasS'3FSF'
p5350
(lp5351
(lp5352
I1
aI2
aI354
aasS'2J90'
p5353
(lp5354
(lp5355
I1
aI1
aI445
aasS'1Z57'
p5356
(lp5357
(lp5358
I1
aI1
aI484
aasS'3WZU'
p5359
(lp5360
(lp5361
I1
aI60
aI409
aasS'1TVO'
p5362
(lp5363
(lp5364
I1
aI14
aI359
aasS'3Q5I'
p5365
(lp5366
(lp5367
I1
aI1
aI497
aasS'3I7C'
p5368
(lp5369
(lp5370
I1
aI1
aI483
aasS'3I7B'
p5371
(lp5372
(lp5373
I1
aI1
aI483
aasS'1BI7'
p5374
(lp5375
(lp5376
I1
aI1
aI320
aasS'3WZJ'
p5377
(lp5378
(lp5379
I1
aI490
aI832
aasS'3WZK'
p5380
(lp5381
(lp5382
I1
aI490
aI832
aasS'4RZ7'
p5383
(lp5384
(lp5385
I15
aI9
aI532
aa(lp5386
I1
aI501
aI842
aasS'3W10'
p5387
(lp5388
(lp5389
I1
aI43
aI403
aasS'4FKS'
p5390
(lp5391
(lp5392
I1
aI1
aI298
aasS'3W18'
p5393
(lp5394
(lp5395
I1
aI43
aI403
aasS'4IAN'
p5396
(lp5397
(lp5398
I1
aI599
aI1007
aasS'3RTP'
p5399
(lp5400
(lp5401
I1
aI1
aI418
aasS'1FQ1'
p5402
(lp5403
(lp5404
I1
aI1
aI298
aasS'4PL4'
p5405
(lp5406
(lp5407
I13
aI34
aI146
aa(lp5408
I1
aI497
aI969
aasS'4PL5'
p5409
(lp5410
(lp5411
I13
aI34
aI146
aa(lp5412
I1
aI497
aI969
aasS'4AZT'
p5413
(lp5414
(lp5415
I16
aI1
aI505
aasS'2QKR'
p5416
(lp5417
(lp5418
I1
aI1
aI313
aasS'4PL3'
p5419
(lp5420
(lp5421
I13
aI34
aI146
aa(lp5422
I1
aI497
aI969
aasS'1PF8'
p5423
(lp5424
(lp5425
I1
aI1
aI298
aasS'3W1F'
p5426
(lp5427
(lp5428
I1
aI490
aI832
aasS'2A0C'
p5429
(lp5430
(lp5431
I1
aI1
aI298
aasS'3I79'
p5432
(lp5433
(lp5434
I1
aI1
aI483
aasS'4PRJ'
p5435
(lp5436
(lp5437
I1
aI43
aI403
aasS'2CDZ'
p5438
(lp5439
(lp5440
I5
aI1
aI116
aa(lp5441
I1
aI244
aI591
aasS'3Q53'
p5442
(lp5443
(lp5444
I3
aI66
aI110
aa(lp5445
I1
aI204
aI545
aasS'3Q52'
p5446
(lp5447
(lp5448
I3
aI66
aI110
aa(lp5449
I1
aI204
aI545
aasS'3DFC'
p5450
(lp5451
(lp5452
I2
aI348
aI679
aa(lp5453
I1
aI1
aI383
aasS'3DFA'
p5454
(lp5455
(lp5456
I1
aI1
aI286
aasS'3PUP'
p5457
(lp5458
(lp5459
I1
aI17
aI385
aasS'3KRW'
p5460
(lp5461
(lp5462
I1
aI1
aI531
aasS'1RDQ'
p5463
(lp5464
(lp5465
I1
aI2
aI350
aasS'3F2A'
p5466
(lp5467
(lp5468
I1
aI71
aI402
aasS'4EJN'
p5469
(lp5470
(lp5471
I1
aI71
aI478
aasS'4YVE'
p5472
(lp5473
(lp5474
I1
aI6
aI1198
aasS'4YVC'
p5475
(lp5476
(lp5477
I1
aI6
aI1198
aasS'4KBA'
p5478
(lp5479
(lp5480
I1
aI1
aI339
aasS'3EHA'
p5481
(lp5482
(lp5483
I2
aI348
aI679
aa(lp5484
I1
aI1
aI383
aasS'4KBC'
p5485
(lp5486
(lp5487
I1
aI1
aI339
aasS'4UV0'
p5488
(lp5489
(lp5490
I2
aI348
aI679
aa(lp5491
I1
aI1
aI383
aasS'4KBK'
p5492
(lp5493
(lp5494
I1
aI1
aI339
aasS'1DAW'
p5495
(lp5496
(lp5497
I1
aI1
aI327
aasS'2X7O'
p5498
(lp5499
(lp5500
I1
aI100
aI501
aasS'3BX5'
p5501
(lp5502
(lp5503
I1
aI2
aI354
aasS'3DT1'
p5504
(lp5505
(lp5506
I1
aI2
aI354
aasS'1OM1'
p5507
(lp5508
(lp5509
I1
aI1
aI327
aasS'2C5X'
p5510
(lp5511
(lp5512
I1
aI1
aI298
aasS'2C5Y'
p5513
(lp5514
(lp5515
I1
aI1
aI298
aasS'2C5V'
p5516
(lp5517
(lp5518
I1
aI1
aI298
aasS'3DTC'
p5519
(lp5520
(lp5521
I1
aI58
aI484
aasS'2C5N'
p5522
(lp5523
(lp5524
I1
aI1
aI298
aasS'2C5O'
p5525
(lp5526
(lp5527
I1
aI1
aI298
aasS'3ODY'
p5528
(lp5529
(lp5530
I1
aI2
aI354
aasS'3NIE'
p5531
(lp5532
(lp5533
I1
aI1
aI421
aasS'4KB8'
p5534
(lp5535
(lp5536
I1
aI1
aI339
aasS'1M2P'
p5537
(lp5538
(lp5539
I1
aI1
aI327
aasS'1M2Q'
p5540
(lp5541
(lp5542
I1
aI1
aI327
aasS'1M2R'
p5543
(lp5544
(lp5545
I1
aI1
aI327
aasS'3ULI'
p5546
(lp5547
(lp5548
I1
aI1
aI298
aasS'3NPC'
p5549
(lp5550
(lp5551
I1
aI1
aI383
aasS'2WEV'
p5552
(lp5553
(lp5554
I1
aI1
aI298
aasS'2XH5'
p5555
(lp5556
(lp5557
I1
aI17
aI385
aasS'4ZLO'
p5558
(lp5559
(lp5560
I3
aI66
aI110
aa(lp5561
I1
aI204
aI545
aasS'2WEL'
p5562
(lp5563
(lp5564
I12
aI1
aI149
aasS'2WEI'
p5565
(lp5566
(lp5567
I1
aI1
aI287
aasS'3SLS'
p5568
(lp5569
(lp5570
I1
aI8
aI388
aasS'3E7O'
p5571
(lp5572
(lp5573
I1
aI1
aI383
aasS'4HGS'
p5574
(lp5575
(lp5576
I1
aI1
aI374
aasS'4M8T'
p5577
(lp5578
(lp5579
I1
aI11
aI739
aasS'4HGL'
p5580
(lp5581
(lp5582
I1
aI1
aI374
aasS'2BVA'
p5583
(lp5584
(lp5585
I5
aI1
aI116
aa(lp5586
I1
aI244
aI591
aasS'3ZM4'
p5587
(lp5588
(lp5589
I1
aI8
aI388
aasS'4BZO'
p5590
(lp5591
(lp5592
I1
aI71
aI402
aasS'5ACK'
p5593
(lp5594
(lp5595
I1
aI3
aI423
aasS'2JLD'
p5596
(lp5597
(lp5598
I1
aI17
aI385
aasS'1XQZ'
p5599
(lp5600
(lp5601
I1
aI71
aI402
aasS'4M84'
p5602
(lp5603
(lp5604
I1
aI1
aI483
aasS'3HRF'
p5605
(lp5606
(lp5607
I1
aI3
aI423
aasS'1YQJ'
p5608
(lp5609
(lp5610
I1
aI2
aI354
aasS'3HRC'
p5611
(lp5612
(lp5613
I1
aI3
aI423
aasS'3HRB'
p5614
(lp5615
(lp5616
I1
aI2
aI354
aasS'2F49'
p5617
(lp5618
(lp5619
I1
aI1
aI353
aasS'3D0E'
p5620
(lp5621
(lp5622
I1
aI71
aI481
aasS'3C9W'
p5623
(lp5624
(lp5625
I1
aI12
aI357
aasS'3FHR'
p5626
(lp5627
(lp5628
I1
aI13
aI376
aasS'3EZV'
p5629
(lp5630
(lp5631
I1
aI1
aI298
aasS'2BDW'
p5632
(lp5633
(lp5634
I4
aI431
aI713
aa(lp5635
I1
aI1
aI376
aasS'3EZR'
p5636
(lp5637
(lp5638
I1
aI1
aI298
aasS'4WSQ'
p5639
(lp5640
(lp5641
I22
aI662
aI767
aa(lp5642
I1
aI15
aI396
aasS'2RIO'
p5643
(lp5644
(lp5645
I6
aI1
aI1115
aasS'3OP5'
p5646
(lp5647
(lp5648
I1
aI2
aI388
aasS'4WSY'
p5649
(lp5650
(lp5651
I1
aI71
aI402
aasS'3QRT'
p5652
(lp5653
(lp5654
I1
aI1
aI298
aasS'3QRU'
p5655
(lp5656
(lp5657
I1
aI1
aI298
aasS'4U81'
p5658
(lp5659
(lp5660
I1
aI8
aI388
aasS'4U80'
p5661
(lp5662
(lp5663
I1
aI8
aI388
aasS'4Z7H'
p5664
(lp5665
(lp5666
I13
aI32
aI144
aa(lp5667
I1
aI497
aI967
aasS'3O71'
p5668
(lp5669
(lp5670
I21
aI17
aI1075
aasS'4Z7G'
p5671
(lp5672
(lp5673
I13
aI32
aI144
aa(lp5674
I1
aI497
aI967
aasS'2O5K'
p5675
(lp5676
(lp5677
I1
aI17
aI385
aasS'4N70'
p5678
(lp5679
(lp5680
I1
aI71
aI402
aasS'3L1S'
p5681
(lp5682
(lp5683
I1
aI17
aI385
aasS'4L7F'
p5684
(lp5685
(lp5686
I1
aI1
aI379
aasS'2O2U'
p5687
(lp5688
(lp5689
I1
aI1
aI418
aasS'3MGY'
p5690
(lp5691
(lp5692
I1
aI2
aI354
aasS'4U8Z'
p5693
(lp5694
(lp5695
I1
aI6
aI353
aasS'5DLS'
p5696
(lp5697
(lp5698
I1
aI1
aI466
aasS'4AE6'
p5699
(lp5700
(lp5701
I1
aI2
aI350
aasS'4EUT'
p5702
(lp5703
(lp5704
I1
aI1
aI367
aasS'4EUU'
p5705
(lp5706
(lp5707
I1
aI1
aI367
aasS'3UVP'
p5708
(lp5709
(lp5710
I1
aI2
aI354
aasS'4JS8'
p5711
(lp5712
(lp5713
I1
aI490
aI832
aasS'3UVQ'
p5714
(lp5715
(lp5716
I1
aI2
aI354
aasS'4F9A'
p5717
(lp5718
(lp5719
I27
aI374
aI568
aa(lp5720
I28
aI527
aI573
aa(lp5721
I29
aI346
aI443
aa(lp5722
I1
aI9
aI214
aasS'4F9C'
p5723
(lp5724
(lp5725
I27
aI374
aI568
aa(lp5726
I28
aI527
aI573
aa(lp5727
I29
aI346
aI443
aa(lp5728
I1
aI9
aI214
aasS'4F9B'
p5729
(lp5730
(lp5731
I27
aI374
aI568
aa(lp5732
I28
aI527
aI573
aa(lp5733
I29
aI346
aI443
aa(lp5734
I1
aI9
aI214
aasS'2CCH'
p5735
(lp5736
(lp5737
I1
aI1
aI298
aasS'2CCI'
p5738
(lp5739
(lp5740
I1
aI1
aI298
aasS'2J4Z'
p5741
(lp5742
(lp5743
I1
aI43
aI403
aasS'2C3I'
p5744
(lp5745
(lp5746
I1
aI71
aI402
aasS'4FKJ'
p5747
(lp5748
(lp5749
I1
aI1
aI298
aasS'4FKI'
p5750
(lp5751
(lp5752
I1
aI1
aI298
aasS'4FKO'
p5753
(lp5754
(lp5755
I1
aI1
aI298
aasS'3OFM'
p5756
(lp5757
(lp5758
I1
aI1
aI347
aasS'4A07'
p5759
(lp5760
(lp5761
I1
aI3
aI423
aasS'4FKL'
p5762
(lp5763
(lp5764
I1
aI1
aI298
aasS'4FKG'
p5765
(lp5766
(lp5767
I1
aI1
aI298
aasS'2XJ0'
p5768
(lp5769
(lp5770
I1
aI71
aI402
aasS'2XJ2'
p5771
(lp5772
(lp5773
I1
aI71
aI402
aasS'4F99'
p5774
(lp5775
(lp5776
I27
aI374
aI568
aa(lp5777
I28
aI527
aI573
aa(lp5778
I29
aI346
aI443
aa(lp5779
I1
aI9
aI214
aasS'4FKR'
p5780
(lp5781
(lp5782
I1
aI1
aI298
aasS'4FKQ'
p5783
(lp5784
(lp5785
I1
aI1
aI298
aasS'4FKP'
p5786
(lp5787
(lp5788
I1
aI1
aI298
aasS'4FKW'
p5789
(lp5790
(lp5791
I1
aI1
aI298
aasS'4FKV'
p5792
(lp5793
(lp5794
I1
aI1
aI298
aasS'4FKU'
p5795
(lp5796
(lp5797
I1
aI1
aI298
aasS'4C2V'
p5798
(lp5799
(lp5800
I1
aI41
aI361
aasS'1NXK'
p5801
(lp5802
(lp5803
I1
aI8
aI397
aasS'4CQG'
p5804
(lp5805
(lp5806
I9
aI507
aI643
aa(lp5807
I1
aI1
aI324
aasS'1PW2'
p5808
(lp5809
(lp5810
I1
aI1
aI298
aasS'1ZWS'
p5811
(lp5812
(lp5813
I1
aI1
aI369
aasS'3BHY'
p5814
(lp5815
(lp5816
I1
aI1
aI445
aasS'1QMZ'
p5817
(lp5818
(lp5819
I1
aI1
aI298
aasS'1PY5'
p5820
(lp5821
(lp5822
I1
aI100
aI501
aasS'3PZE'
p5823
(lp5824
(lp5825
I1
aI1
aI379
aasS'4FTK'
p5826
(lp5827
(lp5828
I1
aI1
aI466
aasS'2QD9'
p5829
(lp5830
(lp5831
I1
aI2
aI354
aasS'3PZH'
p5832
(lp5833
(lp5834
I1
aI1
aI327
aasS'3R8U'
p5835
(lp5836
(lp5837
I1
aI1
aI298
aasS'3WIL'
p5838
(lp5839
(lp5840
I1
aI1
aI389
aasS'2C4G'
p5841
(lp5842
(lp5843
I1
aI1
aI298
aasS'3R1Q'
p5844
(lp5845
(lp5846
I1
aI1
aI298
aasS'3WIK'
p5847
(lp5848
(lp5849
I1
aI1
aI389
aasS'3UMX'
p5850
(lp5851
(lp5852
I1
aI71
aI402
aasS'3UMW'
p5853
(lp5854
(lp5855
I1
aI71
aI402
aasS'3WIG'
p5856
(lp5857
(lp5858
I1
aI8
aI388
aasS'3R1Y'
p5859
(lp5860
(lp5861
I1
aI1
aI298
aasS'2YM6'
p5862
(lp5863
(lp5864
I1
aI1
aI466
aasS'4AS0'
p5865
(lp5866
(lp5867
I1
aI71
aI402
aasS'3BI6'
p5868
(lp5869
(lp5870
I1
aI280
aI640
aasS'4JAI'
p5871
(lp5872
(lp5873
I1
aI43
aI403
aasS'4JAJ'
p5874
(lp5875
(lp5876
I1
aI43
aI403
aasS'4ASX'
p5877
(lp5878
(lp5879
I1
aI60
aI492
aasS'2C47'
p5880
(lp5881
(lp5882
I1
aI4
aI363
aasS'1NVS'
p5883
(lp5884
(lp5885
I1
aI1
aI466
aasS'1NVR'
p5886
(lp5887
(lp5888
I1
aI1
aI466
aasS'3BIZ'
p5889
(lp5890
(lp5891
I1
aI280
aI640
aasS'3WI6'
p5892
(lp5893
(lp5894
I1
aI8
aI397
aasS'4E8A'
p5895
(lp5896
(lp5897
I1
aI2
aI354
aasS'4J71'
p5898
(lp5899
(lp5900
I1
aI17
aI385
aasS'1PYX'
p5901
(lp5902
(lp5903
I1
aI17
aI385
aasS'3HMP'
p5904
(lp5905
(lp5906
I1
aI490
aI832
aasS'3HMN'
p5907
(lp5908
(lp5909
I1
aI490
aI832
aasS'1PYE'
p5910
(lp5911
(lp5912
I1
aI1
aI298
aasS'3HMM'
p5913
(lp5914
(lp5915
I1
aI100
aI501
aasS'4KS8'
p5916
(lp5917
(lp5918
I5
aI1
aI112
aa(lp5919
I1
aI365
aI681
aasS'2F2C'
p5920
(lp5921
(lp5922
I1
aI1
aI320
aasS'1YXT'
p5923
(lp5924
(lp5925
I1
aI71
aI402
aasS'4QTE'
p5926
(lp5927
(lp5928
I1
aI14
aI359
aasS'3ZLY'
p5929
(lp5930
(lp5931
I1
aI8
aI388
aasS'1YXU'
p5932
(lp5933
(lp5934
I1
aI71
aI402
aasS'3ZLS'
p5935
(lp5936
(lp5937
I1
aI8
aI388
aasS'3RPS'
p5938
(lp5939
(lp5940
I1
aI1
aI389
aasS'3ZLW'
p5941
(lp5942
(lp5943
I1
aI8
aI388
aasS'1YXS'
p5944
(lp5945
(lp5946
I1
aI71
aI402
aasS'2LGC'
p5947
(lp5948
(lp5949
I1
aI2
aI354
aasS'4YU2'
p5950
(lp5951
(lp5952
I1
aI104
aI499
aasS'4FTU'
p5953
(lp5954
(lp5955
I1
aI1
aI466
aasS'3NS9'
p5956
(lp5957
(lp5958
I1
aI1
aI298
aasS'1PKD'
p5959
(lp5960
(lp5961
I1
aI1
aI298
aasS'4R3C'
p5962
(lp5963
(lp5964
I1
aI2
aI354
aasS'3A62'
p5965
(lp5966
(lp5967
I1
aI42
aI449
aasS'3A60'
p5968
(lp5969
(lp5970
I1
aI42
aI449
aasS'3A61'
p5971
(lp5972
(lp5973
I1
aI42
aI449
aasS'2Y0A'
p5974
(lp5975
(lp5976
I2
aI348
aI679
aa(lp5977
I1
aI1
aI383
aasS'5A6N'
p5978
(lp5979
(lp5980
I1
aI1
aI445
aasS'4YC6'
p5981
(lp5982
(lp5983
I1
aI1
aI297
aasS'3EID'
p5984
(lp5985
(lp5986
I1
aI1
aI298
aasS'4YUR'
p5987
(lp5988
(lp5989
I1
aI1
aI346
aasS'4W4X'
p5990
(lp5991
(lp5992
I1
aI1
aI418
aasS'5A6O'
p5993
(lp5994
(lp5995
I1
aI1
aI445
aasS'3NSZ'
p5996
(lp5997
(lp5998
I1
aI1
aI389
aasS'2QVS'
p5999
(lp6000
(lp6001
I1
aI2
aI350
aasS'4ONA'
p6002
(lp6003
(lp6004
I1
aI1
aI483
aasS'3WOW'
p6005
(lp6006
(lp6007
I1
aI1
aI389
aasS'1KOB'
p6008
(lp6009
(lp6010
I1
aI2
aI382
aasS'2X39'
p6011
(lp6012
(lp6013
I1
aI17
aI385
aasS'3A8W'
p6014
(lp6015
(lp6016
I18
aI116
aI201
aa(lp6017
I1
aI141
aI592
aasS'3A8X'
p6018
(lp6019
(lp6020
I18
aI116
aI201
aa(lp6021
I1
aI141
aI592
aasS'5AV0'
p6022
(lp6023
(lp6024
I2
aI348
aI679
aa(lp6025
I1
aI1
aI383
aasS'5AV1'
p6026
(lp6027
(lp6028
I2
aI348
aI679
aa(lp6029
I1
aI1
aI383
aasS'5AV2'
p6030
(lp6031
(lp6032
I2
aI348
aI679
aa(lp6033
I1
aI1
aI383
aasS'5AV3'
p6034
(lp6035
(lp6036
I2
aI348
aI679
aa(lp6037
I1
aI1
aI383
aasS'5AV4'
p6038
(lp6039
(lp6040
I2
aI348
aI679
aa(lp6041
I1
aI1
aI383
aasS'3WYY'
p6042
(lp6043
(lp6044
I1
aI490
aI832
aasS'3CIK'
p6045
(lp6046
(lp6047
I1
aI1
aI531
aasS'1F3M'
p6048
(lp6049
(lp6050
I3
aI66
aI110
aa(lp6051
I1
aI204
aI545
aasS'3RGF'
p6052
(lp6053
(lp6054
I1
aI14
aI395
aasS'4BL1'
p6055
(lp6056
(lp6057
I9
aI554
aI651
aa(lp6058
I1
aI1
aI406
aasS'4X6R'
p6059
(lp6060
(lp6061
I15
aI88
aI378
aasS'4FZA'
p6062
(lp6063
(lp6064
I1
aI1
aI361
aasS'4X6Q'
p6065
(lp6066
(lp6067
I15
aI102
aI405
aasS'2F57'
p6068
(lp6069
(lp6070
I5
aI1
aI116
aa(lp6071
I1
aI406
aI719
aasS'4FZF'
p6072
(lp6073
(lp6074
I1
aI1
aI361
aasS'3TI1'
p6075
(lp6076
(lp6077
I1
aI1
aI298
aasS'1E1X'
p6078
(lp6079
(lp6080
I1
aI1
aI298
aasS'1E1V'
p6081
(lp6082
(lp6083
I1
aI1
aI298
aasS'2YAC'
p6084
(lp6085
(lp6086
I1
aI2
aI587
aasS'3TIZ'
p6087
(lp6088
(lp6089
I1
aI1
aI298
aasS'3TG1'
p6090
(lp6091
(lp6092
I1
aI2
aI354
aasS'1UNG'
p6093
(lp6094
(lp6095
I1
aI1
aI292
aasS'1UNH'
p6096
(lp6097
(lp6098
I1
aI1
aI292
aasS'1UNL'
p6099
(lp6100
(lp6101
I1
aI1
aI292
aasS'2YIX'
p6102
(lp6103
(lp6104
I1
aI2
aI354
aasS'4QMZ'
p6105
(lp6106
(lp6107
I1
aI6
aI353
aasS'3QA8'
p6108
(lp6109
(lp6110
I8
aI5
aI676
aa(lp6111
I1
aI3
aI282
aasS'2YIQ'
p6112
(lp6113
(lp6114
I1
aI113
aI522
aasS'2YIR'
p6115
(lp6116
(lp6117
I1
aI113
aI522
aasS'2YIS'
p6118
(lp6119
(lp6120
I1
aI2
aI354
aasS'2YIT'
p6121
(lp6122
(lp6123
I1
aI113
aI522
aasS'3QA0'
p6124
(lp6125
(lp6126
I1
aI1
aI389
aasS'1URC'
p6127
(lp6128
(lp6129
I1
aI1
aI298
aasS'2H34'
p6130
(lp6131
(lp6132
I1
aI3
aI349
aasS'2XEY'
p6133
(lp6134
(lp6135
I1
aI1
aI466
aasS'2OWB'
p6136
(lp6137
(lp6138
I1
aI2
aI587
aasS'1URW'
p6139
(lp6140
(lp6141
I1
aI1
aI298
aasS'2IW8'
p6142
(lp6143
(lp6144
I1
aI1
aI298
aasS'2IW9'
p6145
(lp6146
(lp6147
I1
aI1
aI298
aasS'2IW6'
p6148
(lp6149
(lp6150
I1
aI1
aI298
aasS'2V55'
p6151
(lp6152
(lp6153
I1
aI6
aI1198
aasS'1Y8Y'
p6154
(lp6155
(lp6156
I1
aI1
aI298
aasS'1Y8G'
p6157
(lp6158
(lp6159
I9
aI624
aI722
aa(lp6160
I1
aI2
aI481
aasS'4CFU'
p6161
(lp6162
(lp6163
I1
aI1
aI298
aasS'4K18'
p6164
(lp6165
(lp6166
I1
aI71
aI402
aasS'4CFW'
p6167
(lp6168
(lp6169
I1
aI1
aI298
aasS'4CFV'
p6170
(lp6171
(lp6172
I1
aI1
aI298
aasS'2I0E'
p6173
(lp6174
(lp6175
I18
aI10
aI164
aa(lp6176
I1
aI276
aI671
aasS'2V5Q'
p6177
(lp6178
(lp6179
I1
aI2
aI587
aasS'2I0H'
p6180
(lp6181
(lp6182
I1
aI2
aI354
aasS'4CFX'
p6183
(lp6184
(lp6185
I1
aI1
aI298
aasS'4WRS'
p6186
(lp6187
(lp6188
I1
aI71
aI402
aasS'4CFE'
p6189
(lp6190
(lp6191
I1
aI1
aI471
aasS'4X2F'
p6192
(lp6193
(lp6194
I1
aI100
aI501
aasS'4CFF'
p6195
(lp6196
(lp6197
I1
aI1
aI471
aasS'1LEZ'
p6198
(lp6199
(lp6200
I1
aI31
aI345
aasS'4CFM'
p6201
(lp6202
(lp6203
I1
aI1
aI298
aasS'4CFN'
p6204
(lp6205
(lp6206
I1
aI1
aI298
aasS'4CFH'
p6207
(lp6208
(lp6209
I1
aI4
aI476
aasS'2OW3'
p6210
(lp6211
(lp6212
I1
aI17
aI385
aasS'2VRX'
p6213
(lp6214
(lp6215
I1
aI41
aI361
aasS'3PE2'
p6216
(lp6217
(lp6218
I1
aI1
aI389
aasS'3PE1'
p6219
(lp6220
(lp6221
I1
aI1
aI389
aasS'3OC1'
p6222
(lp6223
(lp6224
I1
aI2
aI354
aasS'2DUV'
p6225
(lp6226
(lp6227
I1
aI1
aI298
aasS'4ARK'
p6228
(lp6229
(lp6230
I1
aI8
aI388
aasS'3BHH'
p6231
(lp6232
(lp6233
I4
aI506
aI666
aa(lp6234
I1
aI1
aI442
aasS'3LLT'
p6235
(lp6236
(lp6237
I1
aI1
aI360
aasS'2XK7'
p6238
(lp6239
(lp6240
I1
aI1
aI370
aasS'2XK6'
p6241
(lp6242
(lp6243
I1
aI1
aI370
aasS'2XK4'
p6244
(lp6245
(lp6246
I1
aI1
aI370
aasS'2XK3'
p6247
(lp6248
(lp6249
I1
aI1
aI370
aasS'2A27'
p6250
(lp6251
(lp6252
I1
aI1
aI369
aasS'2J50'
p6253
(lp6254
(lp6255
I1
aI43
aI403
aasS'3K5U'
p6256
(lp6257
(lp6258
I1
aI43
aI403
aasS'3BHV'
p6259
(lp6260
(lp6261
I1
aI1
aI298
aasS'3BHU'
p6262
(lp6263
(lp6264
I1
aI1
aI298
aasS'3BHT'
p6265
(lp6266
(lp6267
I1
aI1
aI298
aasS'2XK9'
p6268
(lp6269
(lp6270
I1
aI113
aI522
aasS'2XK8'
p6271
(lp6272
(lp6273
I1
aI1
aI370
aasS'4A9U'
p6274
(lp6275
(lp6276
I1
aI113
aI522
aasS'1PXP'
p6277
(lp6278
(lp6279
I1
aI1
aI298
aasS'1OVE'
p6280
(lp6281
(lp6282
I1
aI2
aI354
aasS'4PNK'
p6283
(lp6284
(lp6285
I1
aI1
aI531
aasS'4PNI'
p6286
(lp6287
(lp6288
I1
aI3
aI529
aasS'3HLL'
p6289
(lp6290
(lp6291
I1
aI2
aI354
aasS'1PXO'
p6292
(lp6293
(lp6294
I1
aI1
aI298
aasS'1PXN'
p6295
(lp6296
(lp6297
I1
aI1
aI298
aasS'1PXM'
p6298
(lp6299
(lp6300
I1
aI1
aI298
aasS'1PXL'
p6301
(lp6302
(lp6303
I1
aI1
aI298
aasS'1PXK'
p6304
(lp6305
(lp6306
I1
aI1
aI298
aasS'1PXJ'
p6307
(lp6308
(lp6309
I1
aI1
aI298
aasS'1PXI'
p6310
(lp6311
(lp6312
I1
aI1
aI298
aasS'4EZ7'
p6313
(lp6314
(lp6315
I1
aI1
aI298
aasS'4EZ5'
p6316
(lp6317
(lp6318
I1
aI1
aI320
aasS'4EZ3'
p6319
(lp6320
(lp6321
I1
aI1
aI298
aasS'2QG5'
p6322
(lp6323
(lp6324
I1
aI1
aI294
aasS'4B6L'
p6325
(lp6326
(lp6327
I1
aI2
aI643
aasS'2KUL'
p6328
(lp6329
(lp6330
I1
aI2
aI388
aasS'4GT3'
p6331
(lp6332
(lp6333
I1
aI12
aI357
aasS'1JWH'
p6334
(lp6335
(lp6336
I1
aI1
aI389
aasS'2A2A'
p6337
(lp6338
(lp6339
I1
aI1
aI369
aasS'4TW9'
p6340
(lp6341
(lp6342
I1
aI1
aI339
aasS'2XKE'
p6343
(lp6344
(lp6345
I1
aI1
aI370
aasS'2XKD'
p6346
(lp6347
(lp6348
I1
aI1
aI370
aasS'2XKC'
p6349
(lp6350
(lp6351
I1
aI1
aI370
aasS'1Q8Y'
p6352
(lp6353
(lp6354
I1
aI125
aI341
aa(lp6355
I1
aI496
aI742
aasS'3R83'
p6356
(lp6357
(lp6358
I1
aI1
aI298
aasS'3DDQ'
p6359
(lp6360
(lp6361
I1
aI1
aI298
aasS'3DDP'
p6362
(lp6363
(lp6364
I1
aI1
aI298
aasS'3FPM'
p6365
(lp6366
(lp6367
I1
aI8
aI397
aasS'3FPQ'
p6368
(lp6369
(lp6370
I24
aI784
aI2126
aa(lp6371
I25
aI1
aI819
aasS'4F6U'
p6372
(lp6373
(lp6374
I1
aI14
aI395
aasS'1Z9X'
p6375
(lp6376
(lp6377
I1
aI1
aI369
aasS'4F6W'
p6378
(lp6379
(lp6380
I1
aI14
aI395
aasS'3LFE'
p6381
(lp6382
(lp6383
I1
aI2
aI354
aasS'4F6S'
p6384
(lp6385
(lp6386
I1
aI14
aI395
aasS'3R04'
p6387
(lp6388
(lp6389
I1
aI71
aI402
aasS'3R02'
p6390
(lp6391
(lp6392
I1
aI71
aI402
aasS'1PJK'
p6393
(lp6394
(lp6395
I1
aI1
aI389
aasS'3R00'
p6396
(lp6397
(lp6398
I1
aI71
aI402
aasS'1JKL'
p6399
(lp6400
(lp6401
I2
aI348
aI679
aa(lp6402
I1
aI1
aI383
aasS'4IMY'
p6403
(lp6404
(lp6405
I1
aI1
aI367
aasS'3NRM'
p6406
(lp6407
(lp6408
I1
aI43
aI403
aasS'1JKK'
p6409
(lp6410
(lp6411
I2
aI348
aI679
aa(lp6412
I1
aI1
aI383
aasS'2C30'
p6413
(lp6414
(lp6415
I5
aI1
aI112
aa(lp6416
I1
aI365
aI681
aasS'4G17'
p6417
(lp6418
(lp6419
I1
aI1
aI374
aasS'3LFA'
p6420
(lp6421
(lp6422
I1
aI2
aI354
aasS'3GBZ'
p6423
(lp6424
(lp6425
I1
aI19
aI329
aasS'1JKS'
p6426
(lp6427
(lp6428
I2
aI348
aI679
aa(lp6429
I1
aI1
aI383
aasS'4EHV'
p6430
(lp6431
(lp6432
I1
aI2
aI354
aasS'4AE9'
p6433
(lp6434
(lp6435
I1
aI2
aI350
aasS'2AC5'
p6436
(lp6437
(lp6438
I1
aI34
aI456
aasS'2AC3'
p6439
(lp6440
(lp6441
I1
aI34
aI456
aasS'2UW9'
p6442
(lp6443
(lp6444
I1
aI17
aI385
aasS'3PY3'
p6445
(lp6446
(lp6447
I1
aI2
aI354
aasS'3PY0'
p6448
(lp6449
(lp6450
I1
aI1
aI298
aasS'3PY1'
p6451
(lp6452
(lp6453
I1
aI1
aI298
aasS'2OK1'
p6454
(lp6455
(lp6456
I1
aI1
aI418
aasS'4OAU'
p6457
(lp6458
(lp6459
I2
aI18
aI309
aa(lp6460
I1
aI357
aI726
aasS'4OAV'
p6461
(lp6462
(lp6463
I2
aI18
aI309
aa(lp6464
I1
aI357
aI726
aasS'3TZM'
p6465
(lp6466
(lp6467
I1
aI100
aI501
aasS'4KRC'
p6468
(lp6469
(lp6470
I1
aI1
aI304
aasS'4KRD'
p6471
(lp6472
(lp6473
I1
aI1
aI304
aasS'2ACX'
p6474
(lp6475
(lp6476
I1
aI2
aI526
aasS'4F9Y'
p6477
(lp6478
(lp6479
I1
aI2
aI354
aasS'2OKR'
p6480
(lp6481
(lp6482
I1
aI2
aI354
aasS'3UNZ'
p6483
(lp6484
(lp6485
I1
aI43
aI403
aasS'4IM3'
p6486
(lp6487
(lp6488
I1
aI1
aI367
aasS'4IM0'
p6489
(lp6490
(lp6491
I1
aI1
aI367
aasS'3R0T'
p6492
(lp6493
(lp6494
I1
aI1
aI389
aasS'4AN3'
p6495
(lp6496
(lp6497
I1
aI8
aI388
aasS'2C3J'
p6498
(lp6499
(lp6500
I1
aI1
aI466
aasS'2C3K'
p6501
(lp6502
(lp6503
I1
aI1
aI466
aasS'2C3L'
p6504
(lp6505
(lp6506
I1
aI1
aI466
aasS'4UTD'
p6507
(lp6508
(lp6509
I1
aI43
aI403
aasS'3EJ1'
p6510
(lp6511
(lp6512
I1
aI1
aI298
aasS'3Q9W'
p6513
(lp6514
(lp6515
I1
aI1
aI389
aasS'3UNK'
p6516
(lp6517
(lp6518
I1
aI1
aI298
aasS'2GHG'
p6519
(lp6520
(lp6521
I1
aI1
aI466
aasS'4EH9'
p6522
(lp6523
(lp6524
I1
aI2
aI354
aasS'4EH8'
p6525
(lp6526
(lp6527
I1
aI2
aI354
aasS'2GHM'
p6528
(lp6529
(lp6530
I1
aI2
aI354
aasS'2GHL'
p6531
(lp6532
(lp6533
I1
aI2
aI354
aasS'4EH7'
p6534
(lp6535
(lp6536
I1
aI2
aI354
aasS'4EH6'
p6537
(lp6538
(lp6539
I1
aI2
aI354
aasS'3Q9Z'
p6540
(lp6541
(lp6542
I1
aI1
aI389
aasS'3GB2'
p6543
(lp6544
(lp6545
I1
aI17
aI385
aasS'4EH2'
p6546
(lp6547
(lp6548
I1
aI2
aI354
aasS'3THB'
p6549
(lp6550
(lp6551
I1
aI2
aI587
aasS'4ANM'
p6552
(lp6553
(lp6554
I1
aI1
aI327
aasS'3CXW'
p6555
(lp6556
(lp6557
I1
aI71
aI402
aasS'4QMT'
p6558
(lp6559
(lp6560
I1
aI6
aI353
aasS'3HP5'
p6561
(lp6562
(lp6563
I1
aI2
aI354
aasS'3HP2'
p6564
(lp6565
(lp6566
I1
aI2
aI354
aasS'4Y0X'
p6567
(lp6568
(lp6569
I1
aI139
aI526
aasS'1J91'
p6570
(lp6571
(lp6572
I1
aI1
aI327
aasS'2ZB0'
p6573
(lp6574
(lp6575
I1
aI2
aI354
aasS'3GP0'
p6576
(lp6577
(lp6578
I1
aI2
aI353
aasS'2ZB1'
p6579
(lp6580
(lp6581
I1
aI2
aI354
aasS'5AWM'
p6582
(lp6583
(lp6584
I1
aI2
aI372
aasS'2WU6'
p6585
(lp6586
(lp6587
I1
aI149
aI638
aasS'2WU7'
p6588
(lp6589
(lp6590
I1
aI149
aI638
aasS'2G9X'
p6591
(lp6592
(lp6593
I1
aI1
aI298
aasS'4UZD'
p6594
(lp6595
(lp6596
I1
aI43
aI403
aasS'2YIW'
p6597
(lp6598
(lp6599
I1
aI2
aI354
aasS'2X0G'
p6600
(lp6601
(lp6602
I2
aI348
aI679
aa(lp6603
I1
aI1
aI383
aasS'4UZH'
p6604
(lp6605
(lp6606
I1
aI43
aI403
aasS'5AAE'
p6607
(lp6608
(lp6609
I1
aI43
aI403
aasS'5AAD'
p6610
(lp6611
(lp6612
I1
aI43
aI403
aasS'5AAG'
p6613
(lp6614
(lp6615
I1
aI43
aI403
aasS'5AAF'
p6616
(lp6617
(lp6618
I1
aI43
aI403
aasS'3NLB'
p6619
(lp6620
(lp6621
I1
aI1
aI466
aasS'3AT2'
p6622
(lp6623
(lp6624
I1
aI1
aI389
aasS'3AT3'
p6625
(lp6626
(lp6627
I1
aI1
aI389
aasS'3AT4'
p6628
(lp6629
(lp6630
I1
aI1
aI389
aasS'1O6K'
p6631
(lp6632
(lp6633
I1
aI17
aI385
aasS'1O6L'
p6634
(lp6635
(lp6636
I1
aI17
aI385
aasS'3A7I'
p6637
(lp6638
(lp6639
I1
aI6
aI353
aasS'3A7H'
p6640
(lp6641
(lp6642
I1
aI6
aI353
aasS'2BFX'
p6643
(lp6644
(lp6645
I1
aI41
aI361
aasS'3A7J'
p6646
(lp6647
(lp6648
I1
aI6
aI353
aasS'1O6Y'
p6649
(lp6650
(lp6651
I1
aI1
aI324
aasS'3HA8'
p6652
(lp6653
(lp6654
I1
aI2
aI354
aasS'3A7G'
p6655
(lp6656
(lp6657
I1
aI6
aI353
aasS'3A7F'
p6658
(lp6659
(lp6660
I1
aI6
aI353
aasS'3MA3'
p6661
(lp6662
(lp6663
I1
aI71
aI402
aasS'2RKU'
p6664
(lp6665
(lp6666
I1
aI2
aI587
aasS'3MA6'
p6667
(lp6668
(lp6669
I1
aI1
aI298
aasS'1G5S'
p6670
(lp6671
(lp6672
I1
aI1
aI298
aasS'4NCT'
p6673
(lp6674
(lp6675
I1
aI104
aI499
aasS'3O51'
p6676
(lp6677
(lp6678
I1
aI43
aI403
aasS'3O50'
p6679
(lp6680
(lp6681
I1
aI43
aI403
aasS'2W99'
p6682
(lp6683
(lp6684
I1
aI3
aI303
aasS'2FH9'
p6685
(lp6686
(lp6687
I1
aI2
aI585
aasS'4WUA'
p6688
(lp6689
(lp6690
I1
aI441
aI655
aa(lp6691
I1
aI48
aI287
aasS'5CQW'
p6692
(lp6693
(lp6694
I1
aI1
aI389
aasS'5CQU'
p6695
(lp6696
(lp6697
I1
aI1
aI389
aasS'3C4Z'
p6698
(lp6699
(lp6700
I1
aI3
aI529
aasS'3A99'
p6701
(lp6702
(lp6703
I1
aI71
aI402
aasS'3QTQ'
p6704
(lp6705
(lp6706
I1
aI1
aI298
aasS'3QTR'
p6707
(lp6708
(lp6709
I1
aI1
aI298
aasS'3QTS'
p6710
(lp6711
(lp6712
I1
aI1
aI298
aasS'2NP8'
p6713
(lp6714
(lp6715
I1
aI43
aI403
aasS'3QTU'
p6716
(lp6717
(lp6718
I1
aI1
aI298
aasS'3QTW'
p6719
(lp6720
(lp6721
I1
aI1
aI298
aasS'3QTX'
p6722
(lp6723
(lp6724
I1
aI1
aI298
aasS'3QTZ'
p6725
(lp6726
(lp6727
I1
aI1
aI298
aasS'4FKT'
p6728
(lp6729
(lp6730
I1
aI1
aI298
aasS'1A9U'
p6731
(lp6732
(lp6733
I1
aI19
aI373
aasS'3QBN'
p6734
(lp6735
(lp6736
I1
aI43
aI403
aasS'2BPM'
p6737
(lp6738
(lp6739
I1
aI1
aI298
aasS'2V62'
p6740
(lp6741
(lp6742
I1
aI8
aI380
aasS'4L9I'
p6743
(lp6744
(lp6745
I1
aI3
aI529
aasS'4TYH'
p6746
(lp6747
(lp6748
I1
aI2
aI354
aasS'2NPQ'
p6749
(lp6750
(lp6751
I1
aI2
aI354
aasS'4X7Q'
p6752
(lp6753
(lp6754
I1
aI3
aI304
aasS'4TTH'
p6755
(lp6756
(lp6757
I1
aI1
aI320
aasS'2W9F'
p6758
(lp6759
(lp6760
I1
aI3
aI303
aasS'3NYO'
p6761
(lp6762
(lp6763
I1
aI2
aI526
aasS'3SX9'
p6764
(lp6765
(lp6766
I1
aI1
aI483
aasS'2W9Z'
p6767
(lp6768
(lp6769
I1
aI3
aI303
aasS'2XMY'
p6770
(lp6771
(lp6772
I1
aI1
aI298
aasS'4X7L'
p6773
(lp6774
(lp6775
I1
aI830
aI1116
aa(lp6776
I1
aI579
aI681
aasS'4X7O'
p6777
(lp6778
(lp6779
I1
aI830
aI1116
aa(lp6780
I1
aI579
aI681
aasS'4X7N'
p6781
(lp6782
(lp6783
I1
aI830
aI1116
aa(lp6784
I1
aI579
aI681
aasS'4X7H'
p6785
(lp6786
(lp6787
I1
aI579
aI681
aa(lp6788
I1
aI830
aI1116
aasS'4X7K'
p6789
(lp6790
(lp6791
I1
aI830
aI1116
aa(lp6792
I1
aI579
aI681
aasS'4X7J'
p6793
(lp6794
(lp6795
I1
aI830
aI1116
aa(lp6796
I1
aI579
aI681
aasS'1Y91'
p6797
(lp6798
(lp6799
I1
aI1
aI298
aasS'4WG4'
p6800
(lp6801
(lp6802
I1
aI1
aI483
aasS'4WG5'
p6803
(lp6804
(lp6805
I1
aI1
aI483
aasS'4WG3'
p6806
(lp6807
(lp6808
I1
aI1
aI483
aasS'4EOI'
p6809
(lp6810
(lp6811
I1
aI1
aI298
aasS'2KTY'
p6812
(lp6813
(lp6814
I1
aI2
aI388
aasS'4B7T'
p6815
(lp6816
(lp6817
I1
aI17
aI385
aasS'1MRY'
p6818
(lp6819
(lp6820
I1
aI71
aI481
aasS'3OD6'
p6821
(lp6822
(lp6823
I1
aI2
aI354
aasS'4F7N'
p6824
(lp6825
(lp6826
I1
aI14
aI395
aasS'4F7L'
p6827
(lp6828
(lp6829
I1
aI14
aI395
aasS'4F7J'
p6830
(lp6831
(lp6832
I1
aI14
aI395
aasS'3KC3'
p6833
(lp6834
(lp6835
I1
aI8
aI397
aasS'3S4Q'
p6836
(lp6837
(lp6838
I1
aI2
aI354
aasS'3DCV'
p6839
(lp6840
(lp6841
I1
aI71
aI402
aasS'3UOL'
p6842
(lp6843
(lp6844
I1
aI43
aI403
aasS'4F7S'
p6845
(lp6846
(lp6847
I1
aI14
aI395
aasS'1Q99'
p6848
(lp6849
(lp6850
I1
aI496
aI742
aa(lp6851
I1
aI125
aI341
aasS'3KQ7'
p6852
(lp6853
(lp6854
I1
aI2
aI354
aasS'2XZS'
p6855
(lp6856
(lp6857
I2
aI348
aI679
aa(lp6858
I1
aI1
aI383
aasS'3ODZ'
p6859
(lp6860
(lp6861
I1
aI2
aI354
aasS'1Q97'
p6862
(lp6863
(lp6864
I1
aI125
aI341
aa(lp6865
I1
aI496
aI742
aasS'3PJ8'
p6866
(lp6867
(lp6868
I1
aI1
aI298
aasS'3FAA'
p6869
(lp6870
(lp6871
I1
aI100
aI501
aasS'4FIE'
p6872
(lp6873
(lp6874
I5
aI1
aI116
aa(lp6875
I1
aI244
aI591
aasS'4FIG'
p6876
(lp6877
(lp6878
I5
aI1
aI116
aa(lp6879
I1
aI244
aI591
aasS'4FIF'
p6880
(lp6881
(lp6882
I5
aI1
aI116
aa(lp6883
I1
aI244
aI591
aasS'4FII'
p6884
(lp6885
(lp6886
I5
aI1
aI116
aa(lp6887
I1
aI244
aI591
aasS'4FIH'
p6888
(lp6889
(lp6890
I5
aI1
aI116
aa(lp6891
I1
aI244
aI591
aasS'4FIJ'
p6892
(lp6893
(lp6894
I5
aI1
aI116
aa(lp6895
I1
aI244
aI591
aasS'3KCF'
p6896
(lp6897
(lp6898
I1
aI100
aI501
aasS'4WHZ'
p6899
(lp6900
(lp6901
I1
aI1
aI418
aasS'4DEB'
p6902
(lp6903
(lp6904
I1
aI43
aI403
aasS'4DEA'
p6905
(lp6906
(lp6907
I1
aI43
aI403
aasS'4DEE'
p6908
(lp6909
(lp6910
I1
aI43
aI403
aasS'4DED'
p6911
(lp6912
(lp6913
I1
aI43
aI403
aasS'4ACH'
p6914
(lp6915
(lp6916
I1
aI17
aI385
aasS'4ACM'
p6917
(lp6918
(lp6919
I1
aI1
aI298
aasS'3SHE'
p6920
(lp6921
(lp6922
I1
aI13
aI376
aasS'4JQE'
p6923
(lp6924
(lp6925
I1
aI1
aI372
aasS'4ACC'
p6926
(lp6927
(lp6928
I1
aI17
aI385
aasS'4ACD'
p6929
(lp6930
(lp6931
I1
aI17
aI385
aasS'4ACG'
p6932
(lp6933
(lp6934
I1
aI17
aI385
aasS'2OJG'
p6935
(lp6936
(lp6937
I1
aI14
aI359
aasS'2OJF'
p6938
(lp6939
(lp6940
I1
aI2
aI350
aasS'4D9U'
p6941
(lp6942
(lp6943
I1
aI11
aI739
aasS'4D9T'
p6944
(lp6945
(lp6946
I1
aI11
aI739
aasS'3PXF'
p6947
(lp6948
(lp6949
I1
aI1
aI298
aasS'2OJJ'
p6950
(lp6951
(lp6952
I1
aI14
aI359
aasS'2OJI'
p6953
(lp6954
(lp6955
I1
aI14
aI359
aasS'1H1W'
p6956
(lp6957
(lp6958
I1
aI3
aI423
aasS'3PXY'
p6959
(lp6960
(lp6961
I1
aI1
aI298
aasS'3PXZ'
p6962
(lp6963
(lp6964
I1
aI1
aI298
aasS'3PXQ'
p6965
(lp6966
(lp6967
I1
aI1
aI298
aasS'4EOR'
p6968
(lp6969
(lp6970
I1
aI1
aI298
aasS'3PXR'
p6971
(lp6972
(lp6973
I1
aI1
aI298
aasS'4MK0'
p6974
(lp6975
(lp6976
I1
aI1
aI531
aasS'4JG8'
p6977
(lp6978
(lp6979
I1
aI11
aI739
aasS'1PMV'
p6980
(lp6981
(lp6982
I1
aI1
aI418
aasS'4JG7'
p6983
(lp6984
(lp6985
I1
aI11
aI739
aasS'4JG6'
p6986
(lp6987
(lp6988
I1
aI11
aI739
aasS'3R30'
p6989
(lp6990
(lp6991
I1
aI8
aI397
aasS'3K2L'
p6992
(lp6993
(lp6994
I1
aI139
aI554
aasS'3WYX'
p6995
(lp6996
(lp6997
I1
aI490
aI832
aasS'4J53'
p6998
(lp6999
(lp7000
I1
aI2
aI587
aasS'4J52'
p7001
(lp7002
(lp7003
I1
aI2
aI587
aasS'4MQ2'
p7004
(lp7005
(lp7006
I1
aI104
aI499
aasS'2UV2'
p7007
(lp7008
(lp7009
I7
aI683
aI1229
aa(lp7010
I1
aI1
aI371
aasS'3H30'
p7011
(lp7012
(lp7013
I1
aI1
aI389
aasS'4EYJ'
p7014
(lp7015
(lp7016
I1
aI1
aI365
aasS'4EYM'
p7017
(lp7018
(lp7019
I1
aI1
aI365
aasS'2PVH'
p7020
(lp7021
(lp7022
I1
aI1
aI327
aasS'2WTC'
p7023
(lp7024
(lp7025
I1
aI113
aI522
aasS'2WTD'
p7026
(lp7027
(lp7028
I1
aI113
aI522
aasS'2WTI'
p7029
(lp7030
(lp7031
I1
aI113
aI522
aasS'2WTK'
p7032
(lp7033
(lp7034
I1
aI32
aI431
aasS'2WTJ'
p7035
(lp7036
(lp7037
I1
aI113
aI522
aasS'4UYN'
p7038
(lp7039
(lp7040
I1
aI43
aI403
aasS'4BIB'
p7041
(lp7042
(lp7043
I1
aI652
aI1032
aasS'2WTW'
p7044
(lp7045
(lp7046
I1
aI43
aI403
aasS'2WTV'
p7047
(lp7048
(lp7049
I1
aI43
aI403
aasS'2X1N'
p7050
(lp7051
(lp7052
I1
aI1
aI298
aasS'1OZ1'
p7053
(lp7054
(lp7055
I1
aI2
aI354
aasS'3F9N'
p7056
(lp7057
(lp7058
I1
aI1
aI466
aasS'2B55'
p7059
(lp7060
(lp7061
I1
aI1
aI298
aasS'2B54'
p7062
(lp7063
(lp7064
I1
aI1
aI298
aasS'2B53'
p7065
(lp7066
(lp7067
I1
aI1
aI298
aasS'2B52'
p7068
(lp7069
(lp7070
I1
aI1
aI298
aasS'3C4E'
p7071
(lp7072
(lp7073
I1
aI71
aI402
aasS'3UO5'
p7074
(lp7075
(lp7076
I1
aI43
aI403
aasS'3UO4'
p7077
(lp7078
(lp7079
I1
aI43
aI403
aasS'3C4X'
p7080
(lp7081
(lp7082
I1
aI3
aI529
aasS'3C4Y'
p7083
(lp7084
(lp7085
I1
aI3
aI529
aasS'3GC9'
p7086
(lp7087
(lp7088
I1
aI2
aI353
aasS'3GC8'
p7089
(lp7090
(lp7091
I1
aI2
aI353
aasS'3GC7'
p7092
(lp7093
(lp7094
I1
aI2
aI354
aasS'3C4W'
p7095
(lp7096
(lp7097
I1
aI3
aI529
aasS'3GC0'
p7098
(lp7099
(lp7100
I1
aI19
aI329
aasS'3UOD'
p7101
(lp7102
(lp7103
I1
aI43
aI403
aasS'4EOJ'
p7104
(lp7105
(lp7106
I1
aI1
aI298
aasS'4EOK'
p7107
(lp7108
(lp7109
I1
aI1
aI298
aasS'4EOL'
p7110
(lp7111
(lp7112
I1
aI1
aI298
aasS'4EOM'
p7113
(lp7114
(lp7115
I1
aI1
aI298
aasS'4EON'
p7116
(lp7117
(lp7118
I1
aI1
aI298
aasS'4EOO'
p7119
(lp7120
(lp7121
I1
aI1
aI298
aasS'3JUH'
p7122
(lp7123
(lp7124
I1
aI1
aI389
aasS'1MRU'
p7125
(lp7126
(lp7127
I1
aI1
aI324
aasS'3LM0'
p7128
(lp7129
(lp7130
I1
aI2
aI355
aasS'3UOK'
p7131
(lp7132
(lp7133
I1
aI43
aI403
aasS'3UOJ'
p7134
(lp7135
(lp7136
I1
aI43
aI403
aasS'4EOP'
p7137
(lp7138
(lp7139
I1
aI1
aI298
aasS'4EOQ'
p7140
(lp7141
(lp7142
I1
aI1
aI298
aasS'3GCU'
p7143
(lp7144
(lp7145
I1
aI2
aI354
aasS'4EOS'
p7146
(lp7147
(lp7148
I1
aI1
aI298
aasS'3GCS'
p7149
(lp7150
(lp7151
I1
aI2
aI354
aasS'1PMU'
p7152
(lp7153
(lp7154
I1
aI1
aI418
aasS'3GCQ'
p7155
(lp7156
(lp7157
I1
aI2
aI354
aasS'3GCP'
p7158
(lp7159
(lp7160
I1
aI2
aI354
aasS'3R1S'
p7161
(lp7162
(lp7163
I1
aI1
aI298
aasS'1XR1'
p7164
(lp7165
(lp7166
I1
aI71
aI402
aasS'3VUT'
p7167
(lp7168
(lp7169
I1
aI63
aI393
aasS'4UY9'
p7170
(lp7171
(lp7172
I1
aI58
aI484
aasS'2HOG'
p7173
(lp7174
(lp7175
I1
aI1
aI466
aas.