(dp1
S'4KYV'
p2
(lp3
(lp4
I885
aS'45'
p5
aS'169'
p6
aasS'4QZ9'
p7
(lp8
(lp9
I1544
aS'446'
p10
aS'509'
p11
aa(lp12
I1670
aS'165'
p13
aS'230'
p14
aa(lp15
I4372
aS'250'
p16
aS'299'
p17
aa(lp18
I6537
aS'305'
p19
aS'376'
p20
aasS'4QZ8'
p21
(lp22
(lp23
I1544
aS'446'
p24
aS'509'
p25
aa(lp26
I1670
aS'165'
p27
aS'230'
p28
aa(lp29
I4372
aS'250'
p30
aS'299'
p31
aa(lp32
I6537
aS'305'
p33
aS'376'
p34
aasS'1TVA'
p35
(lp36
(lp37
I1544
aS'269'
p38
aS'333'
p39
aa(lp40
I1670
aS'15'
p41
aS'77'
p42
aa(lp43
I4372
aS'100'
p44
aS'147'
p45
aa(lp46
I6537
aS'149'
p47
aS'262'
p48
aasS'4GXN'
p49
(lp50
(lp51
I885
aS'6'
aS'120'
p52
aasS'4GXK'
p53
(lp54
(lp55
I1544
aS'269'
p56
aS'333'
p57
aa(lp58
I1670
aS'15'
p59
aS'77'
p60
aa(lp61
I4372
aS'100'
p62
aS'147'
p63
aa(lp64
I6537
aS'149'
p65
aS'262'
p66
aasS'4GXJ'
p67
(lp68
(lp69
I1544
aS'269'
p70
aS'333'
p71
aa(lp72
I1670
aS'15'
p73
aS'77'
p74
aa(lp75
I4372
aS'100'
p76
aS'147'
p77
aa(lp78
I6537
aS'149'
p79
aS'262'
p80
aasS'4GXI'
p81
(lp82
(lp83
I1544
aS'269'
p84
aS'333'
p85
aa(lp86
I1670
aS'15'
p87
aS'77'
p88
aa(lp89
I4372
aS'100'
p90
aS'147'
p91
aa(lp92
I6537
aS'149'
p93
aS'262'
p94
aasS'3WZL'
p95
(lp96
(lp97
I885
aS'27'
p98
aS'127'
p99
aasS'3WZM'
p100
(lp101
(lp102
I885
aS'27'
p103
aS'127'
p104
aasS'3WIB'
p105
(lp106
(lp107
I885
aS'36'
p108
aS'148'
p109
aasS'3AU2'
p110
(lp111
(lp112
I1544
aS'256'
p113
aS'315'
p114
aa(lp115
I1667
aS'94'
p116
aS'148'
p117
aa(lp118
I1670
aS'3'
aS'73'
p119
aa(lp120
I6866
aS'340'
p121
aS'416'
p122
aasS'1DWP'
p123
(lp124
(lp125
I885
aS'5'
aS'242'
p126
aasS'1DWQ'
p127
(lp128
(lp129
I885
aS'5'
aS'242'
p130
aasS'3AU6'
p131
(lp132
(lp133
I1544
aS'256'
p134
aS'315'
p135
aa(lp136
I1667
aS'94'
p137
aS'148'
p138
aa(lp139
I1670
aS'3'
aS'73'
p140
aa(lp141
I6866
aS'340'
p142
aS'416'
p143
aasS'3MBY'
p144
(lp145
(lp146
I1544
aS'269'
p147
aS'333'
p148
aa(lp149
I1670
aS'15'
p150
aS'77'
p151
aa(lp152
I4372
aS'100'
p153
aS'147'
p154
aa(lp155
I6537
aS'149'
p156
aS'262'
p157
aasS'3ISD'
p158
(lp159
(lp160
I1544
aS'269'
p161
aS'333'
p162
aa(lp163
I1670
aS'15'
p164
aS'77'
p165
aa(lp166
I4372
aS'100'
p167
aS'147'
p168
aa(lp169
I6537
aS'149'
p170
aS'262'
p171
aasS'2WJ4'
p172
(lp173
(lp174
I885
aS'28'
p175
aS'150'
p176
aasS'2WJ3'
p177
(lp178
(lp179
I885
aS'28'
p180
aS'150'
p181
aasS'3ISC'
p182
(lp183
(lp184
I1544
aS'269'
p185
aS'333'
p186
aa(lp187
I1670
aS'15'
p188
aS'77'
p189
aa(lp190
I4372
aS'100'
p191
aS'147'
p192
aa(lp193
I6537
aS'149'
p194
aS'262'
p195
aasS'3ISB'
p196
(lp197
(lp198
I1544
aS'269'
p199
aS'333'
p200
aa(lp201
I1670
aS'15'
p202
aS'77'
p203
aa(lp204
I4372
aS'100'
p205
aS'147'
p206
aa(lp207
I6537
aS'149'
p208
aS'262'
p209
aasS'4TUS'
p210
(lp211
(lp212
I1544
aS'269'
p213
aS'333'
p214
aa(lp215
I1670
aS'15'
p216
aS'77'
p217
aa(lp218
I4372
aS'100'
p219
aS'147'
p220
aa(lp221
I6537
aS'149'
p222
aS'262'
p223
aasS'4TUR'
p224
(lp225
(lp226
I1544
aS'269'
p227
aS'333'
p228
aa(lp229
I1670
aS'15'
p230
aS'77'
p231
aa(lp232
I4372
aS'100'
p233
aS'147'
p234
aa(lp235
I6537
aS'149'
p236
aS'262'
p237
aasS'4TUQ'
p238
(lp239
(lp240
I1544
aS'269'
p241
aS'333'
p242
aa(lp243
I1670
aS'15'
p244
aS'77'
p245
aa(lp246
I4372
aS'100'
p247
aS'147'
p248
aa(lp249
I6537
aS'149'
p250
aS'262'
p251
aasS'4TUP'
p252
(lp253
(lp254
I1544
aS'266'
p255
aS'330'
p256
aa(lp257
I1670
aS'15'
p258
aS'77'
p259
aa(lp260
I4372
aS'100'
p261
aS'147'
p262
aa(lp263
I6537
aS'149'
p264
aS'259'
p265
aasS'4BB0'
p266
(lp267
(lp268
I885
aS'31'
p269
aS'141'
p270
aasS'1DWO'
p271
(lp272
(lp273
I885
aS'5'
aS'242'
p274
aasS'3SK0'
p275
(lp276
(lp277
I885
aS'34'
p278
aS'141'
p279
aasS'3WWP'
p280
(lp281
(lp282
I885
aS'5'
aS'240'
p283
aasS'2VAX'
p284
(lp285
(lp286
I885
aS'53'
p287
aS'366'
p288
aasS'1JQR'
p289
(lp290
(lp291
I1544
aS'112'
p292
aS'173'
p293
aasS'3AUO'
p294
(lp295
(lp296
I1544
aS'256'
p297
aS'315'
p298
aa(lp299
I1667
aS'94'
p300
aS'148'
p301
aa(lp302
I1670
aS'3'
aS'73'
p303
aa(lp304
I6866
aS'340'
p305
aS'416'
p306
aasS'2YKR'
p307
(lp308
(lp309
I143
aS'8'
aS'223'
p310
aa(lp311
I145
aS'2'
aS'94'
p312
aa(lp313
I147
aS'10'
p314
aS'73'
p315
aa(lp316
I148
aS'3'
aS'91'
p317
aa(lp318
I632
aS'100'
p319
aS'276'
p320
aa(lp321
I2446
aS'119'
p322
aS'201'
p323
aa(lp324
I2835
aS'96'
p325
aS'142'
p326
aa(lp327
I3544
aS'2'
aS'107'
p328
aa(lp329
I3545
aS'7'
aS'100'
p330
aa(lp331
I3547
aS'8'
aS'68'
p332
aa(lp333
I3548
aS'9'
aS'75'
p334
aa(lp335
I3549
aS'46'
p336
aS'99'
p337
aa(lp338
I3550
aS'8'
aS'87'
p339
aa(lp340
I3553
aS'19'
p341
aS'67'
p342
aa(lp343
I3809
aS'86'
p344
aS'156'
p345
aa(lp346
I5041
aS'4'
aS'128'
p347
aa(lp348
I5042
aS'9'
aS'129'
p349
aa(lp350
I5050
aS'1'
aS'148'
p351
aa(lp352
I5532
aS'5'
aS'122'
p353
aa(lp354
I6345
aS'37'
p355
aS'110'
p356
aa(lp357
I6403
aS'18'
p358
aS'127'
p359
aa(lp360
I6412
aS'2'
aS'79'
p361
aa(lp362
I7148
aS'2'
aS'83'
p363
aa(lp364
I7507
aS'3'
aS'52'
p365
aasS'4M47'
p366
(lp367
(lp368
I1544
aS'269'
p369
aS'333'
p370
aa(lp371
I1670
aS'15'
p372
aS'77'
p373
aa(lp374
I4372
aS'100'
p375
aS'147'
p376
aa(lp377
I6537
aS'149'
p378
aS'262'
p379
aasS'1KDH'
p380
(lp381
(lp382
I1544
aS'446'
p383
aS'509'
p384
aa(lp385
I1670
aS'165'
p386
aS'230'
p387
aa(lp388
I4372
aS'250'
p389
aS'299'
p390
aa(lp391
I6537
aS'305'
p392
aS'376'
p393
aasS'4B9A'
p394
(lp395
(lp396
I885
aS'31'
p397
aS'141'
p398
aasS'4QZC'
p399
(lp400
(lp401
I1544
aS'446'
p402
aS'509'
p403
aa(lp404
I1670
aS'165'
p405
aS'230'
p406
aa(lp407
I4372
aS'250'
p408
aS'299'
p409
aa(lp410
I6537
aS'305'
p411
aS'376'
p412
aasS'4QZB'
p413
(lp414
(lp415
I1544
aS'446'
p416
aS'509'
p417
aa(lp418
I1670
aS'165'
p419
aS'230'
p420
aa(lp421
I4372
aS'250'
p422
aS'299'
p423
aa(lp424
I6537
aS'305'
p425
aS'376'
p426
aasS'4QZA'
p427
(lp428
(lp429
I1544
aS'446'
p430
aS'509'
p431
aa(lp432
I1670
aS'165'
p433
aS'230'
p434
aa(lp435
I4372
aS'250'
p436
aS'299'
p437
aa(lp438
I6537
aS'305'
p439
aS'376'
p440
aasS'1TV9'
p441
(lp442
(lp443
I1544
aS'269'
p444
aS'333'
p445
aa(lp446
I1670
aS'15'
p447
aS'77'
p448
aa(lp449
I4372
aS'100'
p450
aS'147'
p451
aa(lp452
I6537
aS'149'
p453
aS'262'
p454
aasS'4QZF'
p455
(lp456
(lp457
I1544
aS'446'
p458
aS'509'
p459
aa(lp460
I1670
aS'165'
p461
aS'230'
p462
aa(lp463
I4372
aS'250'
p464
aS'299'
p465
aa(lp466
I6537
aS'305'
p467
aS'376'
p468
aasS'4QZE'
p469
(lp470
(lp471
I1544
aS'446'
p472
aS'509'
p473
aa(lp474
I1670
aS'165'
p475
aS'230'
p476
aa(lp477
I4372
aS'250'
p478
aS'299'
p479
aa(lp480
I6537
aS'305'
p481
aS'376'
p482
aasS'4QZD'
p483
(lp484
(lp485
I1544
aS'446'
p486
aS'509'
p487
aa(lp488
I1670
aS'165'
p489
aS'230'
p490
aa(lp491
I4372
aS'250'
p492
aS'299'
p493
aa(lp494
I6537
aS'305'
p495
aS'376'
p496
aasS'1X2E'
p497
(lp498
(lp499
I885
aS'41'
p500
aS'296'
p501
aasS'4QZI'
p502
(lp503
(lp504
I1544
aS'446'
p505
aS'509'
p506
aa(lp507
I1670
aS'165'
p508
aS'230'
p509
aa(lp510
I4372
aS'250'
p511
aS'299'
p512
aa(lp513
I6537
aS'305'
p514
aS'376'
p515
aasS'5AKH'
p516
(lp517
(lp518
I885
aS'259'
p519
aS'531'
p520
aa(lp521
I2190
aS'7'
aS'203'
p522
aasS'1X2B'
p523
(lp524
(lp525
I885
aS'41'
p526
aS'296'
p527
aasS'4OD0'
p528
(lp529
(lp530
I885
aS'259'
p531
aS'531'
p532
aa(lp533
I2190
aS'7'
aS'203'
p534
aasS'1NOM'
p535
(lp536
(lp537
I1544
aS'269'
p538
aS'333'
p539
aa(lp540
I4372
aS'100'
p541
aS'147'
p542
aa(lp543
I6537
aS'149'
p544
aS'262'
p545
aasS'1AZW'
p546
(lp547
(lp548
I885
aS'35'
p549
aS'298'
p550
aasS'1SCI'
p551
(lp552
(lp553
I885
aS'5'
aS'241'
p554
aasS'4I2C'
p555
(lp556
(lp557
I1544
aS'446'
p558
aS'509'
p559
aa(lp560
I1670
aS'165'
p561
aS'230'
p562
aa(lp563
I4372
aS'250'
p564
aS'299'
p565
aa(lp566
I6537
aS'305'
p567
aS'376'
p568
aasS'4I2B'
p569
(lp570
(lp571
I1544
aS'446'
p572
aS'509'
p573
aa(lp574
I1670
aS'165'
p575
aS'230'
p576
aa(lp577
I4372
aS'250'
p578
aS'299'
p579
aa(lp580
I6537
aS'305'
p581
aS'376'
p582
aasS'4I2A'
p583
(lp584
(lp585
I1544
aS'446'
p586
aS'509'
p587
aa(lp588
I1670
aS'165'
p589
aS'230'
p590
aa(lp591
I4372
aS'250'
p592
aS'299'
p593
aa(lp594
I6537
aS'305'
p595
aS'376'
p596
aasS'4I2G'
p597
(lp598
(lp599
I1544
aS'446'
p600
aS'509'
p601
aa(lp602
I1670
aS'165'
p603
aS'230'
p604
aa(lp605
I4372
aS'250'
p606
aS'299'
p607
aa(lp608
I6537
aS'305'
p609
aS'376'
p610
aasS'4I2F'
p611
(lp612
(lp613
I1544
aS'446'
p614
aS'509'
p615
aa(lp616
I1670
aS'165'
p617
aS'230'
p618
aa(lp619
I4372
aS'250'
p620
aS'299'
p621
aa(lp622
I6537
aS'305'
p623
aS'376'
p624
aasS'4I2E'
p625
(lp626
(lp627
I1544
aS'446'
p628
aS'509'
p629
aa(lp630
I1670
aS'165'
p631
aS'230'
p632
aa(lp633
I4372
aS'250'
p634
aS'299'
p635
aa(lp636
I6537
aS'305'
p637
aS'376'
p638
aasS'4I2D'
p639
(lp640
(lp641
I1544
aS'446'
p642
aS'509'
p643
aa(lp644
I1670
aS'165'
p645
aS'230'
p646
aa(lp647
I4372
aS'250'
p648
aS'299'
p649
aa(lp650
I6537
aS'305'
p651
aS'376'
p652
aasS'2BCQ'
p653
(lp654
(lp655
I1544
aS'502'
p656
aS'574'
p657
aa(lp658
I1670
aS'253'
p659
aS'318'
p660
aa(lp661
I4372
aS'337'
p662
aS'383'
p663
aa(lp664
I6537
aS'386'
p665
aS'495'
p666
aasS'4I2J'
p667
(lp668
(lp669
I1544
aS'446'
p670
aS'509'
p671
aa(lp672
I1670
aS'165'
p673
aS'230'
p674
aa(lp675
I4372
aS'250'
p676
aS'299'
p677
aa(lp678
I6537
aS'305'
p679
aS'376'
p680
aasS'2BCS'
p681
(lp682
(lp683
I1544
aS'502'
p684
aS'574'
p685
aa(lp686
I1544
aS'502'
p687
aS'574'
p688
aa(lp689
I1670
aS'253'
p690
aS'318'
p691
aa(lp692
I1670
aS'253'
p693
aS'318'
p694
aa(lp695
I4372
aS'337'
p696
aS'383'
p697
aa(lp698
I4372
aS'337'
p699
aS'383'
p700
aa(lp701
I6537
aS'386'
p702
aS'495'
p703
aa(lp704
I6537
aS'386'
p705
aS'495'
p706
aasS'2BCR'
p707
(lp708
(lp709
I1544
aS'502'
p710
aS'574'
p711
aa(lp712
I1670
aS'253'
p713
aS'318'
p714
aa(lp715
I4372
aS'337'
p716
aS'383'
p717
aa(lp718
I6537
aS'386'
p719
aS'495'
p720
aasS'2BCU'
p721
(lp722
(lp723
I1544
aS'502'
p724
aS'574'
p725
aa(lp726
I1670
aS'253'
p727
aS'318'
p728
aa(lp729
I4372
aS'337'
p730
aS'383'
p731
aa(lp732
I6537
aS'386'
p733
aS'495'
p734
aasS'2BCV'
p735
(lp736
(lp737
I1544
aS'502'
p738
aS'574'
p739
aa(lp740
I1670
aS'253'
p741
aS'318'
p742
aa(lp743
I4372
aS'337'
p744
aS'383'
p745
aa(lp746
I6537
aS'386'
p747
aS'495'
p748
aasS'4IVJ'
p749
(lp750
(lp751
I885
aS'25'
p752
aS'263'
p753
aa(lp754
I1245
aS'286'
p755
aS'440'
p756
aasS'1JN3'
p757
(lp758
(lp759
I1544
aS'269'
p760
aS'333'
p761
aa(lp762
I4372
aS'100'
p763
aS'147'
p764
aa(lp765
I6537
aS'149'
p766
aS'262'
p767
aasS'4PGY'
p768
(lp769
(lp770
I1544
aS'269'
p771
aS'333'
p772
aa(lp773
I1670
aS'15'
p774
aS'77'
p775
aa(lp776
I4372
aS'100'
p777
aS'147'
p778
aa(lp779
I6537
aS'149'
p780
aS'262'
p781
aasS'4PGX'
p782
(lp783
(lp784
I1544
aS'269'
p785
aS'333'
p786
aa(lp787
I1670
aS'15'
p788
aS'77'
p789
aa(lp790
I4372
aS'100'
p791
aS'147'
p792
aa(lp793
I6537
aS'149'
p794
aS'262'
p795
aasS'4RQ5'
p796
(lp797
(lp798
I1544
aS'269'
p799
aS'333'
p800
aa(lp801
I1670
aS'15'
p802
aS'77'
p803
aa(lp804
I4372
aS'100'
p805
aS'147'
p806
aa(lp807
I6537
aS'149'
p808
aS'262'
p809
aasS'4RQ4'
p810
(lp811
(lp812
I1544
aS'269'
p813
aS'333'
p814
aa(lp815
I1670
aS'15'
p816
aS'77'
p817
aa(lp818
I4372
aS'100'
p819
aS'147'
p820
aa(lp821
I6537
aS'149'
p822
aS'262'
p823
aasS'4RQ7'
p824
(lp825
(lp826
I1544
aS'269'
p827
aS'333'
p828
aa(lp829
I1670
aS'15'
p830
aS'77'
p831
aa(lp832
I4372
aS'100'
p833
aS'147'
p834
aa(lp835
I6537
aS'149'
p836
aS'262'
p837
aasS'4RQ6'
p838
(lp839
(lp840
I1544
aS'269'
p841
aS'333'
p842
aa(lp843
I1670
aS'15'
p844
aS'77'
p845
aa(lp846
I4372
aS'100'
p847
aS'147'
p848
aa(lp849
I6537
aS'149'
p850
aS'262'
p851
aasS'4RQ1'
p852
(lp853
(lp854
I1544
aS'269'
p855
aS'333'
p856
aa(lp857
I1670
aS'15'
p858
aS'77'
p859
aa(lp860
I4372
aS'100'
p861
aS'147'
p862
aa(lp863
I6537
aS'149'
p864
aS'262'
p865
aasS'4RQ0'
p866
(lp867
(lp868
I1544
aS'269'
p869
aS'333'
p870
aa(lp871
I1670
aS'15'
p872
aS'77'
p873
aa(lp874
I4372
aS'100'
p875
aS'147'
p876
aa(lp877
I6537
aS'149'
p878
aS'262'
p879
aasS'4RQ3'
p880
(lp881
(lp882
I1544
aS'269'
p883
aS'333'
p884
aa(lp885
I1670
aS'15'
p886
aS'77'
p887
aa(lp888
I4372
aS'100'
p889
aS'147'
p890
aa(lp891
I6537
aS'149'
p892
aS'262'
p893
aasS'4RQ2'
p894
(lp895
(lp896
I1544
aS'269'
p897
aS'333'
p898
aa(lp899
I1670
aS'15'
p900
aS'77'
p901
aa(lp902
I4372
aS'100'
p903
aS'147'
p904
aa(lp905
I6537
aS'149'
p906
aS'262'
p907
aasS'4RQ8'
p908
(lp909
(lp910
I1544
aS'269'
p911
aS'333'
p912
aa(lp913
I1670
aS'15'
p914
aS'77'
p915
aa(lp916
I4372
aS'100'
p917
aS'147'
p918
aa(lp919
I6537
aS'149'
p920
aS'262'
p921
aasS'4P2H'
p922
(lp923
(lp924
I1544
aS'269'
p925
aS'333'
p926
aa(lp927
I1670
aS'15'
p928
aS'77'
p929
aa(lp930
I4372
aS'100'
p931
aS'147'
p932
aa(lp933
I6537
aS'149'
p934
aS'262'
p935
aasS'4K4G'
p936
(lp937
(lp938
I1544
aS'502'
p939
aS'574'
p940
aa(lp941
I1670
aS'253'
p942
aS'318'
p943
aa(lp944
I4372
aS'337'
p945
aS'383'
p946
aa(lp947
I6537
aS'386'
p948
aS'495'
p949
aasS'4I27'
p950
(lp951
(lp952
I1544
aS'446'
p953
aS'509'
p954
aa(lp955
I1670
aS'165'
p956
aS'230'
p957
aa(lp958
I4372
aS'250'
p959
aS'299'
p960
aa(lp961
I6537
aS'305'
p962
aS'376'
p963
aasS'4QF0'
p964
(lp965
(lp966
I885
aS'25'
p967
aS'263'
p968
aa(lp969
I1245
aS'286'
p970
aS'440'
p971
aasS'4I29'
p972
(lp973
(lp974
I1544
aS'446'
p975
aS'509'
p976
aa(lp977
I1670
aS'165'
p978
aS'230'
p979
aa(lp980
I4372
aS'250'
p981
aS'299'
p982
aa(lp983
I6537
aS'305'
p984
aS'376'
p985
aasS'4I28'
p986
(lp987
(lp988
I1544
aS'446'
p989
aS'509'
p990
aa(lp991
I1670
aS'165'
p992
aS'230'
p993
aa(lp994
I4372
aS'250'
p995
aS'299'
p996
aa(lp997
I6537
aS'305'
p998
aS'376'
p999
aasS'4K4I'
p1000
(lp1001
(lp1002
I1544
aS'502'
p1003
aS'574'
p1004
aa(lp1005
I1670
aS'253'
p1006
aS'318'
p1007
aa(lp1008
I4372
aS'337'
p1009
aS'383'
p1010
aa(lp1011
I6537
aS'386'
p1012
aS'495'
p1013
aasS'3IA2'
p1014
(lp1015
(lp1016
I885
aS'20'
p1017
aS'252'
p1018
aasS'2DHE'
p1019
(lp1020
(lp1021
I885
aS'49'
p1022
aS'295'
p1023
aasS'4IO0'
p1024
(lp1025
(lp1026
I885
aS'23'
p1027
aS'274'
p1028
aasS'1CIJ'
p1029
(lp1030
(lp1031
I885
aS'49'
p1032
aS'295'
p1033
aasS'3HEA'
p1034
(lp1035
(lp1036
I885
aS'20'
p1037
aS'252'
p1038
aasS'3JPT'
p1039
(lp1040
(lp1041
I1544
aS'269'
p1042
aS'333'
p1043
aa(lp1044
I1670
aS'15'
p1045
aS'77'
p1046
aa(lp1047
I4372
aS'100'
p1048
aS'147'
p1049
aa(lp1050
I6537
aS'149'
p1051
aS'262'
p1052
aasS'3JPS'
p1053
(lp1054
(lp1055
I1544
aS'269'
p1056
aS'333'
p1057
aa(lp1058
I1670
aS'15'
p1059
aS'77'
p1060
aa(lp1061
I4372
aS'100'
p1062
aS'147'
p1063
aa(lp1064
I6537
aS'149'
p1065
aS'262'
p1066
aasS'3JPR'
p1067
(lp1068
(lp1069
I1544
aS'269'
p1070
aS'333'
p1071
aa(lp1072
I1670
aS'15'
p1073
aS'77'
p1074
aa(lp1075
I4372
aS'100'
p1076
aS'147'
p1077
aa(lp1078
I6537
aS'149'
p1079
aS'262'
p1080
aasS'3JPQ'
p1081
(lp1082
(lp1083
I1544
aS'269'
p1084
aS'333'
p1085
aa(lp1086
I1670
aS'15'
p1087
aS'77'
p1088
aa(lp1089
I4372
aS'100'
p1090
aS'147'
p1091
aa(lp1092
I6537
aS'149'
p1093
aS'262'
p1094
aasS'3JPP'
p1095
(lp1096
(lp1097
I1544
aS'269'
p1098
aS'333'
p1099
aa(lp1100
I1670
aS'15'
p1101
aS'77'
p1102
aa(lp1103
I4372
aS'100'
p1104
aS'147'
p1105
aa(lp1106
I6537
aS'149'
p1107
aS'262'
p1108
aasS'3JPO'
p1109
(lp1110
(lp1111
I1544
aS'269'
p1112
aS'333'
p1113
aa(lp1114
I1670
aS'15'
p1115
aS'77'
p1116
aa(lp1117
I4372
aS'100'
p1118
aS'147'
p1119
aa(lp1120
I6537
aS'149'
p1121
aS'262'
p1122
aasS'3JPN'
p1123
(lp1124
(lp1125
I1544
aS'269'
p1126
aS'333'
p1127
aa(lp1128
I1670
aS'15'
p1129
aS'77'
p1130
aa(lp1131
I4372
aS'100'
p1132
aS'147'
p1133
aa(lp1134
I6537
aS'149'
p1135
aS'262'
p1136
aasS'2WJ6'
p1137
(lp1138
(lp1139
I885
aS'28'
p1140
aS'150'
p1141
aasS'4M0A'
p1142
(lp1143
(lp1144
I1544
aS'430'
p1145
aS'493'
p1146
aa(lp1147
I1670
aS'156'
p1148
aS'218'
p1149
aa(lp1150
I4372
aS'238'
p1151
aS'286'
p1152
aa(lp1153
I6537
aS'292'
p1154
aS'423'
p1155
aasS'4YD1'
p1156
(lp1157
(lp1158
I1544
aS'430'
p1159
aS'493'
p1160
aa(lp1161
I1670
aS'156'
p1162
aS'218'
p1163
aa(lp1164
I4372
aS'238'
p1165
aS'286'
p1166
aa(lp1167
I6537
aS'292'
p1168
aS'423'
p1169
aasS'4YD2'
p1170
(lp1171
(lp1172
I1544
aS'430'
p1173
aS'493'
p1174
aa(lp1175
I1670
aS'156'
p1176
aS'218'
p1177
aa(lp1178
I4372
aS'238'
p1179
aS'286'
p1180
aa(lp1181
I6537
aS'292'
p1182
aS'423'
p1183
aasS'7ICK'
p1184
(lp1185
(lp1186
I1544
aS'269'
p1187
aS'333'
p1188
aa(lp1189
I1670
aS'15'
p1190
aS'77'
p1191
aa(lp1192
I4372
aS'100'
p1193
aS'147'
p1194
aa(lp1195
I6537
aS'149'
p1196
aS'262'
p1197
aasS'2FMS'
p1198
(lp1199
(lp1200
I1544
aS'269'
p1201
aS'333'
p1202
aa(lp1203
I1670
aS'15'
p1204
aS'77'
p1205
aa(lp1206
I4372
aS'100'
p1207
aS'147'
p1208
aa(lp1209
I6537
aS'149'
p1210
aS'262'
p1211
aasS'4Y2R'
p1212
(lp1213
(lp1214
I885
aS'259'
p1215
aS'531'
p1216
aa(lp1217
I2190
aS'7'
aS'203'
p1218
aasS'2FMQ'
p1219
(lp1220
(lp1221
I1544
aS'269'
p1222
aS'333'
p1223
aa(lp1224
I1670
aS'15'
p1225
aS'77'
p1226
aa(lp1227
I4372
aS'100'
p1228
aS'147'
p1229
aa(lp1230
I6537
aS'149'
p1231
aS'262'
p1232
aasS'4Y2P'
p1233
(lp1234
(lp1235
I885
aS'259'
p1236
aS'531'
p1237
aa(lp1238
I2190
aS'7'
aS'203'
p1239
aasS'4Y2U'
p1240
(lp1241
(lp1242
I885
aS'259'
p1243
aS'531'
p1244
aa(lp1245
I2190
aS'7'
aS'203'
p1246
aasS'4Y2T'
p1247
(lp1248
(lp1249
I885
aS'259'
p1250
aS'531'
p1251
aa(lp1252
I2190
aS'7'
aS'203'
p1253
aasS'4DO9'
p1254
(lp1255
(lp1256
I1544
aS'269'
p1257
aS'333'
p1258
aa(lp1259
I1670
aS'15'
p1260
aS'77'
p1261
aa(lp1262
I4372
aS'100'
p1263
aS'147'
p1264
aa(lp1265
I6537
aS'149'
p1266
aS'262'
p1267
aasS'1SCQ'
p1268
(lp1269
(lp1270
I885
aS'5'
aS'241'
p1271
aasS'4Y2Y'
p1272
(lp1273
(lp1274
I885
aS'259'
p1275
aS'531'
p1276
aa(lp1277
I2190
aS'7'
aS'203'
p1278
aasS'4Y2X'
p1279
(lp1280
(lp1281
I885
aS'259'
p1282
aS'531'
p1283
aa(lp1284
I2190
aS'7'
aS'203'
p1285
aasS'4FO6'
p1286
(lp1287
(lp1288
I1544
aS'502'
p1289
aS'574'
p1290
aa(lp1291
I1670
aS'253'
p1292
aS'318'
p1293
aa(lp1294
I4372
aS'337'
p1295
aS'383'
p1296
aa(lp1297
I6537
aS'386'
p1298
aS'495'
p1299
aasS'1WM1'
p1300
(lp1301
(lp1302
I885
aS'41'
p1303
aS'296'
p1304
aasS'4Y2J'
p1305
(lp1306
(lp1307
I885
aS'259'
p1308
aS'531'
p1309
aa(lp1310
I2190
aS'7'
aS'203'
p1311
aasS'4G8C'
p1312
(lp1313
(lp1314
I885
aS'26'
p1315
aS'142'
p1316
aa(lp1317
I885
aS'26'
p1318
aS'142'
p1319
aasS'1XQV'
p1320
(lp1321
(lp1322
I885
aS'34'
p1323
aS'277'
p1324
aasS'1XQW'
p1325
(lp1326
(lp1327
I885
aS'34'
p1328
aS'277'
p1329
aasS'1XQX'
p1330
(lp1331
(lp1332
I885
aS'34'
p1333
aS'277'
p1334
aasS'1XQY'
p1335
(lp1336
(lp1337
I885
aS'34'
p1338
aS'277'
p1339
aasS'4DOA'
p1340
(lp1341
(lp1342
I1544
aS'269'
p1343
aS'333'
p1344
aa(lp1345
I1670
aS'15'
p1346
aS'77'
p1347
aa(lp1348
I4372
aS'100'
p1349
aS'147'
p1350
aa(lp1351
I6537
aS'149'
p1352
aS'262'
p1353
aasS'4DOC'
p1354
(lp1355
(lp1356
I1544
aS'269'
p1357
aS'333'
p1358
aa(lp1359
I1670
aS'15'
p1360
aS'77'
p1361
aa(lp1362
I4372
aS'100'
p1363
aS'147'
p1364
aa(lp1365
I6537
aS'149'
p1366
aS'262'
p1367
aasS'4DOB'
p1368
(lp1369
(lp1370
I1544
aS'269'
p1371
aS'333'
p1372
aa(lp1373
I1670
aS'15'
p1374
aS'77'
p1375
aa(lp1376
I4372
aS'100'
p1377
aS'147'
p1378
aa(lp1379
I6537
aS'149'
p1380
aS'262'
p1381
aasS'4MFC'
p1382
(lp1383
(lp1384
I1544
aS'269'
p1385
aS'333'
p1386
aa(lp1387
I1670
aS'15'
p1388
aS'77'
p1389
aa(lp1390
I4372
aS'100'
p1391
aS'147'
p1392
aa(lp1393
I6537
aS'149'
p1394
aS'262'
p1395
aasS'4MFA'
p1396
(lp1397
(lp1398
I1544
aS'269'
p1399
aS'333'
p1400
aa(lp1401
I1670
aS'15'
p1402
aS'77'
p1403
aa(lp1404
I4372
aS'100'
p1405
aS'147'
p1406
aa(lp1407
I6537
aS'149'
p1408
aS'262'
p1409
aasS'4MFF'
p1410
(lp1411
(lp1412
I1544
aS'269'
p1413
aS'333'
p1414
aa(lp1415
I1670
aS'15'
p1416
aS'77'
p1417
aa(lp1418
I4372
aS'100'
p1419
aS'147'
p1420
aa(lp1421
I6537
aS'149'
p1422
aS'262'
p1423
aasS'4O5C'
p1424
(lp1425
(lp1426
I1544
aS'269'
p1427
aS'333'
p1428
aa(lp1429
I1670
aS'15'
p1430
aS'77'
p1431
aa(lp1432
I4372
aS'100'
p1433
aS'147'
p1434
aa(lp1435
I6537
aS'149'
p1436
aS'262'
p1437
aasS'4O5E'
p1438
(lp1439
(lp1440
I1544
aS'269'
p1441
aS'333'
p1442
aa(lp1443
I1670
aS'15'
p1444
aS'77'
p1445
aa(lp1446
I4372
aS'100'
p1447
aS'147'
p1448
aa(lp1449
I6537
aS'149'
p1450
aS'262'
p1451
aasS'2PFP'
p1452
(lp1453
(lp1454
I1544
aS'502'
p1455
aS'574'
p1456
aa(lp1457
I1670
aS'253'
p1458
aS'318'
p1459
aa(lp1460
I4372
aS'337'
p1461
aS'383'
p1462
aa(lp1463
I6537
aS'386'
p1464
aS'495'
p1465
aasS'2PFQ'
p1466
(lp1467
(lp1468
I1544
aS'502'
p1469
aS'574'
p1470
aa(lp1471
I1670
aS'253'
p1472
aS'318'
p1473
aa(lp1474
I4372
aS'337'
p1475
aS'383'
p1476
aa(lp1477
I6537
aS'386'
p1478
aS'495'
p1479
aasS'5AHX'
p1480
(lp1481
(lp1482
I885
aS'259'
p1483
aS'531'
p1484
aa(lp1485
I2190
aS'7'
aS'203'
p1486
aasS'4O5K'
p1487
(lp1488
(lp1489
I1544
aS'269'
p1490
aS'333'
p1491
aa(lp1492
I1670
aS'15'
p1493
aS'77'
p1494
aa(lp1495
I4372
aS'100'
p1496
aS'147'
p1497
aa(lp1498
I6537
aS'149'
p1499
aS'262'
p1500
aasS'4PW0'
p1501
(lp1502
(lp1503
I885
aS'35'
p1504
aS'264'
p1505
aasS'4UAZ'
p1506
(lp1507
(lp1508
I1544
aS'269'
p1509
aS'333'
p1510
aa(lp1511
I1670
aS'15'
p1512
aS'77'
p1513
aa(lp1514
I4372
aS'100'
p1515
aS'147'
p1516
aa(lp1517
I6537
aS'149'
p1518
aS'262'
p1519
aasS'3C2M'
p1520
(lp1521
(lp1522
I1544
aS'269'
p1523
aS'333'
p1524
aa(lp1525
I1670
aS'15'
p1526
aS'77'
p1527
aa(lp1528
I4372
aS'100'
p1529
aS'147'
p1530
aa(lp1531
I6537
aS'149'
p1532
aS'262'
p1533
aasS'2YAS'
p1534
(lp1535
(lp1536
I885
aS'5'
aS'241'
p1537
aasS'2PFN'
p1538
(lp1539
(lp1540
I1544
aS'502'
p1541
aS'574'
p1542
aa(lp1543
I1670
aS'253'
p1544
aS'318'
p1545
aa(lp1546
I4372
aS'337'
p1547
aS'383'
p1548
aa(lp1549
I6537
aS'386'
p1550
aS'495'
p1551
aasS'2PFO'
p1552
(lp1553
(lp1554
I1544
aS'502'
p1555
aS'574'
p1556
aa(lp1557
I1670
aS'253'
p1558
aS'318'
p1559
aa(lp1560
I4372
aS'337'
p1561
aS'383'
p1562
aa(lp1563
I6537
aS'386'
p1564
aS'495'
p1565
aasS'2DHD'
p1566
(lp1567
(lp1568
I885
aS'49'
p1569
aS'295'
p1570
aasS'2GWS'
p1571
(lp1572
(lp1573
I1544
aS'502'
p1574
aS'574'
p1575
aa(lp1576
I1670
aS'253'
p1577
aS'318'
p1578
aa(lp1579
I4372
aS'337'
p1580
aS'383'
p1581
aa(lp1582
I6537
aS'386'
p1583
aS'495'
p1584
aasS'2DHC'
p1585
(lp1586
(lp1587
I885
aS'49'
p1588
aS'295'
p1589
aasS'1MJ5'
p1590
(lp1591
(lp1592
I885
aS'31'
p1593
aS'155'
p1594
aasS'3HI4'
p1595
(lp1596
(lp1597
I885
aS'20'
p1598
aS'252'
p1599
aasS'1QTR'
p1600
(lp1601
(lp1602
I885
aS'41'
p1603
aS'296'
p1604
aasS'3AFI'
p1605
(lp1606
(lp1607
I885
aS'30'
p1608
aS'140'
p1609
aasS'4GW3'
p1610
(lp1611
(lp1612
I885
aS'6'
aS'120'
p1613
aasS'4OCZ'
p1614
(lp1615
(lp1616
I885
aS'259'
p1617
aS'531'
p1618
aa(lp1619
I2190
aS'7'
aS'203'
p1620
aasS'4HZG'
p1621
(lp1622
(lp1623
I885
aS'34'
p1624
aS'158'
p1625
aasS'4PH5'
p1626
(lp1627
(lp1628
I1544
aS'269'
p1629
aS'333'
p1630
aa(lp1631
I1670
aS'15'
p1632
aS'77'
p1633
aa(lp1634
I4372
aS'100'
p1635
aS'147'
p1636
aa(lp1637
I6537
aS'149'
p1638
aS'262'
p1639
aasS'4Q3L'
p1640
(lp1641
(lp1642
I885
aS'25'
p1643
aS'146'
p1644
aa(lp1645
I885
aS'200'
p1646
aS'253'
p1647
aasS'1K6E'
p1648
(lp1649
(lp1650
I885
aS'31'
p1651
aS'155'
p1652
aasS'3NWO'
p1653
(lp1654
(lp1655
I885
aS'35'
p1656
aS'287'
p1657
aasS'4LIP'
p1658
(lp1659
(lp1660
I885
aS'10'
p1661
aS'252'
p1662
aasS'5BOL'
p1663
(lp1664
(lp1665
I1544
aS'278'
p1666
aS'342'
p1667
aa(lp1668
I1670
aS'24'
p1669
aS'86'
p1670
aa(lp1671
I4372
aS'109'
p1672
aS'156'
p1673
aa(lp1674
I6537
aS'158'
p1675
aS'271'
p1676
aasS'5BOM'
p1677
(lp1678
(lp1679
I1544
aS'279'
p1680
aS'343'
p1681
aa(lp1682
I1670
aS'25'
p1683
aS'87'
p1684
aa(lp1685
I4372
aS'110'
p1686
aS'157'
p1687
aa(lp1688
I6537
aS'159'
p1689
aS'272'
p1690
aasS'4PHD'
p1691
(lp1692
(lp1693
I1544
aS'269'
p1694
aS'333'
p1695
aa(lp1696
I1670
aS'15'
p1697
aS'77'
p1698
aa(lp1699
I4372
aS'100'
p1700
aS'147'
p1701
aa(lp1702
I6537
aS'149'
p1703
aS'262'
p1704
aasS'4PHE'
p1705
(lp1706
(lp1707
I1544
aS'269'
p1708
aS'333'
p1709
aa(lp1710
I1670
aS'15'
p1711
aS'77'
p1712
aa(lp1713
I4372
aS'100'
p1714
aS'147'
p1715
aa(lp1716
I6537
aS'149'
p1717
aS'262'
p1718
aasS'1K63'
p1719
(lp1720
(lp1721
I885
aS'31'
p1722
aS'155'
p1723
aasS'4PHP'
p1724
(lp1725
(lp1726
I1544
aS'269'
p1727
aS'333'
p1728
aa(lp1729
I1670
aS'15'
p1730
aS'77'
p1731
aa(lp1732
I4372
aS'100'
p1733
aS'147'
p1734
aa(lp1735
I6537
aS'149'
p1736
aS'262'
p1737
aasS'1RZT'
p1738
(lp1739
(lp1740
I1544
aS'502'
p1741
aS'574'
p1742
aa(lp1743
I1670
aS'253'
p1744
aS'318'
p1745
aa(lp1746
I4372
aS'337'
p1747
aS'383'
p1748
aa(lp1749
I6537
aS'386'
p1750
aS'495'
p1751
aasS'1OIL'
p1752
(lp1753
(lp1754
I885
aS'10'
p1755
aS'252'
p1756
aasS'4NLK'
p1757
(lp1758
(lp1759
I1544
aS'269'
p1760
aS'333'
p1761
aa(lp1762
I1670
aS'15'
p1763
aS'77'
p1764
aa(lp1765
I4372
aS'100'
p1766
aS'147'
p1767
aa(lp1768
I6537
aS'149'
p1769
aS'262'
p1770
aasS'3QIT'
p1771
(lp1772
(lp1773
I885
aS'24'
p1774
aS'272'
p1775
aasS'4NLN'
p1776
(lp1777
(lp1778
I1544
aS'269'
p1779
aS'333'
p1780
aa(lp1781
I1670
aS'15'
p1782
aS'77'
p1783
aa(lp1784
I4372
aS'100'
p1785
aS'147'
p1786
aa(lp1787
I6537
aS'149'
p1788
aS'262'
p1789
aasS'1Q0Z'
p1790
(lp1791
(lp1792
I885
aS'24'
p1793
aS'277'
p1794
aasS'2B61'
p1795
(lp1796
(lp1797
I885
aS'41'
p1798
aS'343'
p1799
aasS'4NLZ'
p1800
(lp1801
(lp1802
I1544
aS'269'
p1803
aS'333'
p1804
aa(lp1805
I1670
aS'15'
p1806
aS'77'
p1807
aa(lp1808
I4372
aS'100'
p1809
aS'147'
p1810
aa(lp1811
I6537
aS'149'
p1812
aS'262'
p1813
aasS'4UJE'
p1814
(lp1815
(lp1816
I62
aS'19'
p1817
aS'100'
p1818
aa(lp1819
I86
aS'2'
aS'69'
p1820
aa(lp1821
I125
aS'24'
p1822
aS'101'
p1823
aa(lp1824
I143
aS'19'
p1825
aS'112'
p1826
aa(lp1827
I143
aS'114'
p1828
aS'182'
p1829
aa(lp1830
I145
aS'10'
p1831
aS'63'
p1832
aa(lp1833
I147
aS'102'
p1834
aS'166'
p1835
aa(lp1836
I341
aS'6'
aS'99'
p1837
aa(lp1838
I472
aS'275'
p1839
aS'348'
p1840
aa(lp1841
I481
aS'4'
aS'145'
p1842
aa(lp1843
I512
aS'2'
aS'60'
p1844
aa(lp1845
I587
aS'2'
aS'96'
p1846
aa(lp1847
I625
aS'8'
aS'68'
p1848
aa(lp1849
I672
aS'2'
aS'190'
p1850
aa(lp1851
I905
aS'17'
p1852
aS'124'
p1853
aa(lp1854
I1127
aS'212'
p1855
aS'258'
p1856
aa(lp1857
I1431
aS'38'
p1858
aS'67'
p1859
aa(lp1860
I1484
aS'3'
aS'88'
p1861
aa(lp1862
I1732
aS'12'
p1863
aS'165'
p1864
aa(lp1865
I1735
aS'16'
p1866
aS'116'
p1867
aa(lp1868
I1787
aS'67'
p1869
aS'165'
p1870
aa(lp1871
I1801
aS'9'
aS'184'
p1872
aa(lp1873
I2021
aS'90'
p1874
aS'140'
p1875
aa(lp1876
I2074
aS'2'
aS'190'
p1877
aa(lp1878
I2075
aS'78'
p1879
aS'127'
p1880
aa(lp1881
I2266
aS'3'
aS'99'
p1882
aa(lp1883
I2417
aS'51'
p1884
aS'83'
p1885
aa(lp1886
I2417
aS'7'
aS'35'
p1887
aa(lp1888
I2417
aS'178'
p1889
aS'211'
p1890
aa(lp1891
I2446
aS'106'
p1892
aS'188'
p1893
aa(lp1894
I2502
aS'3'
aS'39'
p1895
aa(lp1896
I2772
aS'12'
p1897
aS'85'
p1898
aa(lp1899
I2772
aS'99'
p1900
aS'178'
p1901
aa(lp1902
I2835
aS'108'
p1903
aS'151'
p1904
aa(lp1905
I3026
aS'52'
p1906
aS'136'
p1907
aa(lp1908
I3055
aS'7'
aS'130'
p1909
aa(lp1910
I3071
aS'22'
p1911
aS'139'
p1912
aa(lp1913
I3282
aS'7'
aS'191'
p1914
aa(lp1915
I3544
aS'14'
p1916
aS'142'
p1917
aa(lp1918
I3545
aS'21'
p1919
aS'115'
p1920
aa(lp1921
I3548
aS'75'
p1922
aS'144'
p1923
aa(lp1924
I3549
aS'9'
aS'54'
p1925
aa(lp1926
I3550
aS'74'
p1927
aS'147'
p1928
aa(lp1929
I3651
aS'17'
p1930
aS'87'
p1931
aa(lp1932
I3767
aS'21'
p1933
aS'221'
p1934
aa(lp1935
I3809
aS'185'
p1936
aS'256'
p1937
aa(lp1938
I3813
aS'6'
aS'56'
p1939
aa(lp1940
I4048
aS'202'
p1941
aS'219'
p1942
aa(lp1943
I4161
aS'27'
p1944
aS'173'
p1945
aa(lp1946
I4162
aS'28'
p1947
aS'146'
p1948
aa(lp1949
I4222
aS'2'
aS'54'
p1950
aa(lp1951
I4304
aS'5'
aS'73'
p1952
aa(lp1953
I4410
aS'47'
p1954
aS'120'
p1955
aa(lp1956
I4667
aS'5'
aS'139'
p1957
aa(lp1958
I4691
aS'9'
aS'49'
p1959
aa(lp1960
I4935
aS'2'
aS'119'
p1961
aa(lp1962
I4980
aS'3'
aS'42'
p1963
aa(lp1964
I5041
aS'6'
aS'130'
p1965
aa(lp1966
I5042
aS'14'
p1967
aS'146'
p1968
aa(lp1969
I5050
aS'62'
p1970
aS'204'
p1971
aa(lp1972
I5273
aS'97'
p1973
aS'230'
p1974
aa(lp1975
I5516
aS'10'
p1976
aS'63'
p1977
aa(lp1978
I5517
aS'22'
p1979
aS'262'
p1980
aa(lp1981
I5519
aS'12'
p1982
aS'207'
p1983
aa(lp1984
I5520
aS'2'
aS'375'
p1985
aa(lp1986
I5521
aS'13'
p1987
aS'90'
p1988
aa(lp1989
I5532
aS'9'
aS'140'
p1990
aa(lp1991
I5807
aS'1'
aS'79'
p1992
aa(lp1993
I5992
aS'8'
aS'63'
p1994
aa(lp1995
I5993
aS'8'
aS'122'
p1996
aa(lp1997
I5996
aS'18'
p1998
aS'151'
p1999
aa(lp2000
I5997
aS'76'
p2001
aS'140'
p2002
aa(lp2003
I6062
aS'192'
p2004
aS'283'
p2005
aa(lp2006
I6235
aS'1'
aS'25'
p2007
aa(lp2008
I6236
aS'17'
p2009
aS'94'
p2010
aa(lp2011
I6345
aS'20'
p2012
aS'92'
p2013
aa(lp2014
I6388
aS'3'
aS'95'
p2015
aa(lp2016
I6403
aS'29'
p2017
aS'147'
p2018
aa(lp2019
I6412
aS'47'
p2020
aS'128'
p2021
aa(lp2022
I6453
aS'16'
p2023
aS'117'
p2024
aa(lp2025
I6484
aS'181'
p2026
aS'288'
p2027
aa(lp2028
I6625
aS'17'
p2029
aS'110'
p2030
aa(lp2031
I6625
aS'131'
p2032
aS'212'
p2033
aa(lp2034
I6625
aS'13'
p2035
aS'105'
p2036
aa(lp2037
I6680
aS'95'
p2038
aS'169'
p2039
aa(lp2040
I6703
aS'1'
aS'64'
p2041
aa(lp2042
I6753
aS'5'
aS'104'
p2043
aa(lp2044
I6925
aS'1'
aS'126'
p2045
aa(lp2046
I7161
aS'40'
p2047
aS'112'
p2048
aa(lp2049
I7213
aS'9'
aS'44'
p2050
aa(lp2051
I7213
aS'55'
p2052
aS'91'
p2053
aa(lp2054
I7213
aS'96'
p2055
aS'133'
p2056
aa(lp2057
I7213
aS'145'
p2058
aS'178'
p2059
aa(lp2060
I7213
aS'188'
p2061
aS'220'
p2062
aa(lp2063
I7213
aS'225'
p2064
aS'260'
p2065
aa(lp2066
I7223
aS'5'
aS'120'
p2067
aa(lp2068
I7397
aS'28'
p2069
aS'82'
p2070
aa(lp2071
I7432
aS'2'
aS'97'
p2072
aa(lp2073
I7504
aS'102'
p2074
aS'147'
p2075
aasS'4UJD'
p2076
(lp2077
(lp2078
I62
aS'19'
p2079
aS'100'
p2080
aa(lp2081
I86
aS'2'
aS'69'
p2082
aa(lp2083
I125
aS'24'
p2084
aS'101'
p2085
aa(lp2086
I143
aS'19'
p2087
aS'112'
p2088
aa(lp2089
I143
aS'114'
p2090
aS'182'
p2091
aa(lp2092
I145
aS'10'
p2093
aS'63'
p2094
aa(lp2095
I147
aS'102'
p2096
aS'166'
p2097
aa(lp2098
I341
aS'6'
aS'99'
p2099
aa(lp2100
I472
aS'275'
p2101
aS'348'
p2102
aa(lp2103
I481
aS'4'
aS'145'
p2104
aa(lp2105
I512
aS'2'
aS'60'
p2106
aa(lp2107
I587
aS'2'
aS'96'
p2108
aa(lp2109
I625
aS'8'
aS'68'
p2110
aa(lp2111
I672
aS'2'
aS'190'
p2112
aa(lp2113
I905
aS'17'
p2114
aS'124'
p2115
aa(lp2116
I1127
aS'212'
p2117
aS'258'
p2118
aa(lp2119
I1431
aS'38'
p2120
aS'67'
p2121
aa(lp2122
I1484
aS'3'
aS'88'
p2123
aa(lp2124
I1732
aS'12'
p2125
aS'165'
p2126
aa(lp2127
I1735
aS'16'
p2128
aS'116'
p2129
aa(lp2130
I1787
aS'67'
p2131
aS'165'
p2132
aa(lp2133
I1801
aS'9'
aS'184'
p2134
aa(lp2135
I2021
aS'90'
p2136
aS'140'
p2137
aa(lp2138
I2074
aS'2'
aS'190'
p2139
aa(lp2140
I2075
aS'78'
p2141
aS'127'
p2142
aa(lp2143
I2266
aS'3'
aS'99'
p2144
aa(lp2145
I2417
aS'51'
p2146
aS'83'
p2147
aa(lp2148
I2417
aS'7'
aS'35'
p2149
aa(lp2150
I2417
aS'178'
p2151
aS'211'
p2152
aa(lp2153
I2446
aS'106'
p2154
aS'188'
p2155
aa(lp2156
I2502
aS'3'
aS'39'
p2157
aa(lp2158
I2772
aS'12'
p2159
aS'85'
p2160
aa(lp2161
I2772
aS'99'
p2162
aS'178'
p2163
aa(lp2164
I2835
aS'108'
p2165
aS'151'
p2166
aa(lp2167
I3026
aS'52'
p2168
aS'136'
p2169
aa(lp2170
I3055
aS'7'
aS'130'
p2171
aa(lp2172
I3071
aS'22'
p2173
aS'139'
p2174
aa(lp2175
I3282
aS'7'
aS'191'
p2176
aa(lp2177
I3544
aS'14'
p2178
aS'142'
p2179
aa(lp2180
I3545
aS'21'
p2181
aS'115'
p2182
aa(lp2183
I3548
aS'75'
p2184
aS'144'
p2185
aa(lp2186
I3549
aS'9'
aS'54'
p2187
aa(lp2188
I3550
aS'74'
p2189
aS'147'
p2190
aa(lp2191
I3651
aS'17'
p2192
aS'87'
p2193
aa(lp2194
I3767
aS'21'
p2195
aS'221'
p2196
aa(lp2197
I3809
aS'185'
p2198
aS'256'
p2199
aa(lp2200
I3813
aS'6'
aS'56'
p2201
aa(lp2202
I4048
aS'202'
p2203
aS'219'
p2204
aa(lp2205
I4161
aS'27'
p2206
aS'173'
p2207
aa(lp2208
I4162
aS'28'
p2209
aS'146'
p2210
aa(lp2211
I4222
aS'2'
aS'54'
p2212
aa(lp2213
I4304
aS'5'
aS'73'
p2214
aa(lp2215
I4410
aS'47'
p2216
aS'120'
p2217
aa(lp2218
I4654
aS'1084'
p2219
aS'1160'
p2220
aa(lp2221
I4667
aS'5'
aS'139'
p2222
aa(lp2223
I4691
aS'9'
aS'49'
p2224
aa(lp2225
I4935
aS'2'
aS'119'
p2226
aa(lp2227
I4980
aS'3'
aS'42'
p2228
aa(lp2229
I5041
aS'6'
aS'130'
p2230
aa(lp2231
I5042
aS'14'
p2232
aS'146'
p2233
aa(lp2234
I5050
aS'62'
p2235
aS'204'
p2236
aa(lp2237
I5273
aS'97'
p2238
aS'230'
p2239
aa(lp2240
I5516
aS'10'
p2241
aS'63'
p2242
aa(lp2243
I5517
aS'22'
p2244
aS'262'
p2245
aa(lp2246
I5519
aS'12'
p2247
aS'207'
p2248
aa(lp2249
I5520
aS'2'
aS'375'
p2250
aa(lp2251
I5521
aS'13'
p2252
aS'90'
p2253
aa(lp2254
I5532
aS'9'
aS'140'
p2255
aa(lp2256
I5807
aS'1'
aS'79'
p2257
aa(lp2258
I5903
aS'1189'
p2259
aS'1283'
p2260
aa(lp2261
I5992
aS'8'
aS'63'
p2262
aa(lp2263
I5993
aS'8'
aS'122'
p2264
aa(lp2265
I5996
aS'18'
p2266
aS'151'
p2267
aa(lp2268
I5997
aS'76'
p2269
aS'140'
p2270
aa(lp2271
I6062
aS'192'
p2272
aS'283'
p2273
aa(lp2274
I6226
aS'847'
p2275
aS'1057'
p2276
aa(lp2277
I6235
aS'1'
aS'25'
p2278
aa(lp2279
I6236
aS'17'
p2280
aS'94'
p2281
aa(lp2282
I6345
aS'20'
p2283
aS'92'
p2284
aa(lp2285
I6388
aS'3'
aS'95'
p2286
aa(lp2287
I6403
aS'29'
p2288
aS'147'
p2289
aa(lp2290
I6412
aS'47'
p2291
aS'128'
p2292
aa(lp2293
I6453
aS'16'
p2294
aS'117'
p2295
aa(lp2296
I6484
aS'181'
p2297
aS'288'
p2298
aa(lp2299
I6625
aS'131'
p2300
aS'212'
p2301
aa(lp2302
I6625
aS'13'
p2303
aS'105'
p2304
aa(lp2305
I6625
aS'17'
p2306
aS'110'
p2307
aa(lp2308
I6680
aS'95'
p2309
aS'169'
p2310
aa(lp2311
I6703
aS'1'
aS'64'
p2312
aa(lp2313
I6753
aS'5'
aS'104'
p2314
aa(lp2315
I6925
aS'1'
aS'126'
p2316
aa(lp2317
I7161
aS'40'
p2318
aS'112'
p2319
aa(lp2320
I7213
aS'9'
aS'44'
p2321
aa(lp2322
I7213
aS'55'
p2323
aS'91'
p2324
aa(lp2325
I7213
aS'96'
p2326
aS'133'
p2327
aa(lp2328
I7213
aS'145'
p2329
aS'178'
p2330
aa(lp2331
I7213
aS'188'
p2332
aS'220'
p2333
aa(lp2334
I7213
aS'225'
p2335
aS'260'
p2336
aa(lp2337
I7223
aS'5'
aS'120'
p2338
aa(lp2339
I7397
aS'28'
p2340
aS'82'
p2341
aa(lp2342
I7432
aS'2'
aS'97'
p2343
aa(lp2344
I7504
aS'102'
p2345
aS'147'
p2346
aasS'4UJC'
p2347
(lp2348
(lp2349
I62
aS'19'
p2350
aS'100'
p2351
aa(lp2352
I86
aS'2'
aS'69'
p2353
aa(lp2354
I125
aS'24'
p2355
aS'101'
p2356
aa(lp2357
I143
aS'19'
p2358
aS'112'
p2359
aa(lp2360
I143
aS'114'
p2361
aS'182'
p2362
aa(lp2363
I145
aS'10'
p2364
aS'63'
p2365
aa(lp2366
I147
aS'102'
p2367
aS'166'
p2368
aa(lp2369
I341
aS'6'
aS'99'
p2370
aa(lp2371
I472
aS'275'
p2372
aS'348'
p2373
aa(lp2374
I481
aS'4'
aS'145'
p2375
aa(lp2376
I512
aS'2'
aS'60'
p2377
aa(lp2378
I587
aS'2'
aS'96'
p2379
aa(lp2380
I625
aS'8'
aS'68'
p2381
aa(lp2382
I672
aS'2'
aS'190'
p2383
aa(lp2384
I905
aS'17'
p2385
aS'124'
p2386
aa(lp2387
I1127
aS'212'
p2388
aS'258'
p2389
aa(lp2390
I1431
aS'38'
p2391
aS'67'
p2392
aa(lp2393
I1484
aS'3'
aS'88'
p2394
aa(lp2395
I1732
aS'12'
p2396
aS'165'
p2397
aa(lp2398
I1735
aS'16'
p2399
aS'116'
p2400
aa(lp2401
I1787
aS'67'
p2402
aS'165'
p2403
aa(lp2404
I1801
aS'9'
aS'184'
p2405
aa(lp2406
I2021
aS'90'
p2407
aS'140'
p2408
aa(lp2409
I2074
aS'2'
aS'190'
p2410
aa(lp2411
I2075
aS'78'
p2412
aS'127'
p2413
aa(lp2414
I2266
aS'3'
aS'99'
p2415
aa(lp2416
I2417
aS'51'
p2417
aS'83'
p2418
aa(lp2419
I2417
aS'7'
aS'35'
p2420
aa(lp2421
I2417
aS'178'
p2422
aS'211'
p2423
aa(lp2424
I2446
aS'106'
p2425
aS'188'
p2426
aa(lp2427
I2502
aS'3'
aS'39'
p2428
aa(lp2429
I2772
aS'12'
p2430
aS'85'
p2431
aa(lp2432
I2772
aS'99'
p2433
aS'178'
p2434
aa(lp2435
I2835
aS'108'
p2436
aS'151'
p2437
aa(lp2438
I3026
aS'52'
p2439
aS'136'
p2440
aa(lp2441
I3055
aS'7'
aS'130'
p2442
aa(lp2443
I3071
aS'22'
p2444
aS'139'
p2445
aa(lp2446
I3282
aS'7'
aS'191'
p2447
aa(lp2448
I3544
aS'14'
p2449
aS'142'
p2450
aa(lp2451
I3545
aS'21'
p2452
aS'115'
p2453
aa(lp2454
I3548
aS'75'
p2455
aS'144'
p2456
aa(lp2457
I3549
aS'9'
aS'54'
p2458
aa(lp2459
I3550
aS'74'
p2460
aS'147'
p2461
aa(lp2462
I3651
aS'17'
p2463
aS'87'
p2464
aa(lp2465
I3767
aS'21'
p2466
aS'221'
p2467
aa(lp2468
I3809
aS'185'
p2469
aS'256'
p2470
aa(lp2471
I3813
aS'6'
aS'56'
p2472
aa(lp2473
I4048
aS'202'
p2474
aS'219'
p2475
aa(lp2476
I4161
aS'27'
p2477
aS'173'
p2478
aa(lp2479
I4162
aS'28'
p2480
aS'146'
p2481
aa(lp2482
I4222
aS'2'
aS'54'
p2483
aa(lp2484
I4304
aS'5'
aS'73'
p2485
aa(lp2486
I4410
aS'47'
p2487
aS'120'
p2488
aa(lp2489
I4654
aS'1084'
p2490
aS'1160'
p2491
aa(lp2492
I4667
aS'5'
aS'139'
p2493
aa(lp2494
I4691
aS'9'
aS'49'
p2495
aa(lp2496
I4935
aS'2'
aS'119'
p2497
aa(lp2498
I4980
aS'3'
aS'42'
p2499
aa(lp2500
I5041
aS'6'
aS'130'
p2501
aa(lp2502
I5042
aS'14'
p2503
aS'146'
p2504
aa(lp2505
I5050
aS'62'
p2506
aS'204'
p2507
aa(lp2508
I5273
aS'97'
p2509
aS'230'
p2510
aa(lp2511
I5516
aS'10'
p2512
aS'63'
p2513
aa(lp2514
I5517
aS'22'
p2515
aS'262'
p2516
aa(lp2517
I5519
aS'12'
p2518
aS'207'
p2519
aa(lp2520
I5520
aS'2'
aS'375'
p2521
aa(lp2522
I5521
aS'13'
p2523
aS'90'
p2524
aa(lp2525
I5532
aS'9'
aS'140'
p2526
aa(lp2527
I5807
aS'1'
aS'79'
p2528
aa(lp2529
I5903
aS'1189'
p2530
aS'1283'
p2531
aa(lp2532
I5992
aS'8'
aS'63'
p2533
aa(lp2534
I5993
aS'8'
aS'122'
p2535
aa(lp2536
I5996
aS'18'
p2537
aS'151'
p2538
aa(lp2539
I5997
aS'76'
p2540
aS'140'
p2541
aa(lp2542
I6062
aS'192'
p2543
aS'283'
p2544
aa(lp2545
I6226
aS'847'
p2546
aS'1057'
p2547
aa(lp2548
I6235
aS'1'
aS'25'
p2549
aa(lp2550
I6236
aS'17'
p2551
aS'94'
p2552
aa(lp2553
I6345
aS'20'
p2554
aS'92'
p2555
aa(lp2556
I6388
aS'3'
aS'95'
p2557
aa(lp2558
I6403
aS'29'
p2559
aS'147'
p2560
aa(lp2561
I6412
aS'47'
p2562
aS'128'
p2563
aa(lp2564
I6453
aS'16'
p2565
aS'117'
p2566
aa(lp2567
I6484
aS'181'
p2568
aS'288'
p2569
aa(lp2570
I6625
aS'131'
p2571
aS'212'
p2572
aa(lp2573
I6625
aS'13'
p2574
aS'105'
p2575
aa(lp2576
I6625
aS'17'
p2577
aS'110'
p2578
aa(lp2579
I6680
aS'95'
p2580
aS'169'
p2581
aa(lp2582
I6703
aS'1'
aS'64'
p2583
aa(lp2584
I6753
aS'5'
aS'104'
p2585
aa(lp2586
I6925
aS'1'
aS'126'
p2587
aa(lp2588
I7161
aS'40'
p2589
aS'112'
p2590
aa(lp2591
I7213
aS'9'
aS'44'
p2592
aa(lp2593
I7213
aS'55'
p2594
aS'91'
p2595
aa(lp2596
I7213
aS'96'
p2597
aS'133'
p2598
aa(lp2599
I7213
aS'145'
p2600
aS'178'
p2601
aa(lp2602
I7213
aS'188'
p2603
aS'220'
p2604
aa(lp2605
I7213
aS'225'
p2606
aS'260'
p2607
aa(lp2608
I7223
aS'5'
aS'120'
p2609
aa(lp2610
I7397
aS'28'
p2611
aS'82'
p2612
aa(lp2613
I7432
aS'2'
aS'97'
p2614
aa(lp2615
I7504
aS'102'
p2616
aS'147'
p2617
aasS'4Y9S'
p2618
(lp2619
(lp2620
I885
aS'25'
p2621
aS'133'
p2622
aasS'4X5V'
p2623
(lp2624
(lp2625
I1544
aS'502'
p2626
aS'574'
p2627
aa(lp2628
I1670
aS'253'
p2629
aS'318'
p2630
aa(lp2631
I4372
aS'337'
p2632
aS'383'
p2633
aa(lp2634
I6537
aS'386'
p2635
aS'495'
p2636
aasS'3MGI'
p2637
(lp2638
(lp2639
I1544
aS'502'
p2640
aS'574'
p2641
aa(lp2642
I1670
aS'253'
p2643
aS'318'
p2644
aa(lp2645
I4372
aS'337'
p2646
aS'383'
p2647
aa(lp2648
I6537
aS'386'
p2649
aS'495'
p2650
aasS'3MGH'
p2651
(lp2652
(lp2653
I1544
aS'502'
p2654
aS'574'
p2655
aa(lp2656
I1670
aS'253'
p2657
aS'318'
p2658
aa(lp2659
I4372
aS'337'
p2660
aS'383'
p2661
aa(lp2662
I6537
aS'386'
p2663
aS'495'
p2664
aasS'5ALF'
p2665
(lp2666
(lp2667
I885
aS'259'
p2668
aS'531'
p2669
aa(lp2670
I2190
aS'7'
aS'203'
p2671
aasS'5ALG'
p2672
(lp2673
(lp2674
I885
aS'259'
p2675
aS'531'
p2676
aa(lp2677
I2190
aS'7'
aS'203'
p2678
aasS'5ALD'
p2679
(lp2680
(lp2681
I885
aS'259'
p2682
aS'531'
p2683
aa(lp2684
I2190
aS'7'
aS'203'
p2685
aasS'5ALE'
p2686
(lp2687
(lp2688
I885
aS'259'
p2689
aS'531'
p2690
aa(lp2691
I2190
aS'7'
aS'203'
p2692
aasS'3PMN'
p2693
(lp2694
(lp2695
I1544
aS'502'
p2696
aS'574'
p2697
aa(lp2698
I1670
aS'253'
p2699
aS'318'
p2700
aa(lp2701
I4372
aS'337'
p2702
aS'383'
p2703
aa(lp2704
I6537
aS'386'
p2705
aS'495'
p2706
aasS'5ALO'
p2707
(lp2708
(lp2709
I885
aS'259'
p2710
aS'531'
p2711
aa(lp2712
I2190
aS'7'
aS'203'
p2713
aasS'3PML'
p2714
(lp2715
(lp2716
I1544
aS'502'
p2717
aS'574'
p2718
aa(lp2719
I1670
aS'253'
p2720
aS'318'
p2721
aa(lp2722
I4372
aS'337'
p2723
aS'383'
p2724
aa(lp2725
I6537
aS'386'
p2726
aS'495'
p2727
aasS'5ALM'
p2728
(lp2729
(lp2730
I885
aS'259'
p2731
aS'531'
p2732
aa(lp2733
I2190
aS'7'
aS'203'
p2734
aasS'5ALJ'
p2735
(lp2736
(lp2737
I885
aS'259'
p2738
aS'531'
p2739
aa(lp2740
I2190
aS'7'
aS'203'
p2741
aasS'5ALK'
p2742
(lp2743
(lp2744
I885
aS'259'
p2745
aS'531'
p2746
aa(lp2747
I2190
aS'7'
aS'203'
p2748
aasS'5ALH'
p2749
(lp2750
(lp2751
I885
aS'259'
p2752
aS'531'
p2753
aa(lp2754
I2190
aS'7'
aS'203'
p2755
aasS'5ALI'
p2756
(lp2757
(lp2758
I885
aS'259'
p2759
aS'531'
p2760
aa(lp2761
I2190
aS'7'
aS'203'
p2762
aasS'5ALV'
p2763
(lp2764
(lp2765
I885
aS'259'
p2766
aS'531'
p2767
aa(lp2768
I2190
aS'7'
aS'203'
p2769
aasS'5ALW'
p2770
(lp2771
(lp2772
I885
aS'259'
p2773
aS'531'
p2774
aa(lp2775
I2190
aS'7'
aS'203'
p2776
aasS'5ALT'
p2777
(lp2778
(lp2779
I885
aS'259'
p2780
aS'531'
p2781
aa(lp2782
I2190
aS'7'
aS'203'
p2783
aasS'5ALU'
p2784
(lp2785
(lp2786
I885
aS'259'
p2787
aS'531'
p2788
aa(lp2789
I2190
aS'7'
aS'203'
p2790
aasS'5ALR'
p2791
(lp2792
(lp2793
I885
aS'259'
p2794
aS'531'
p2795
aa(lp2796
I2190
aS'7'
aS'203'
p2797
aasS'5ALS'
p2798
(lp2799
(lp2800
I885
aS'259'
p2801
aS'531'
p2802
aa(lp2803
I2190
aS'7'
aS'203'
p2804
aasS'5ALP'
p2805
(lp2806
(lp2807
I885
aS'259'
p2808
aS'531'
p2809
aa(lp2810
I2190
aS'7'
aS'203'
p2811
aasS'5ALZ'
p2812
(lp2813
(lp2814
I885
aS'259'
p2815
aS'531'
p2816
aa(lp2817
I2190
aS'7'
aS'203'
p2818
aasS'5ALX'
p2819
(lp2820
(lp2821
I885
aS'259'
p2822
aS'531'
p2823
aa(lp2824
I2190
aS'7'
aS'203'
p2825
aasS'4NS4'
p2826
(lp2827
(lp2828
I885
aS'43'
p2829
aS'271'
p2830
aasS'3A2N'
p2831
(lp2832
(lp2833
I885
aS'30'
p2834
aS'140'
p2835
aasS'3A2L'
p2836
(lp2837
(lp2838
I885
aS'30'
p2839
aS'181'
p2840
aasS'3A2M'
p2841
(lp2842
(lp2843
I885
aS'30'
p2844
aS'140'
p2845
aasS'1KEJ'
p2846
(lp2847
(lp2848
I1544
aS'446'
p2849
aS'509'
p2850
aa(lp2851
I1670
aS'165'
p2852
aS'230'
p2853
aa(lp2854
I4372
aS'250'
p2855
aS'299'
p2856
aa(lp2857
I6537
aS'305'
p2858
aS'376'
p2859
aasS'1CQW'
p2860
(lp2861
(lp2862
I885
aS'45'
p2863
aS'169'
p2864
aasS'2M2U'
p2865
(lp2866
(lp2867
I1544
aS'112'
p2868
aS'173'
p2869
aasS'2M2T'
p2870
(lp2871
(lp2872
I1544
aS'112'
p2873
aS'173'
p2874
aasS'2M2W'
p2875
(lp2876
(lp2877
I1544
aS'112'
p2878
aS'173'
p2879
aasS'2M2V'
p2880
(lp2881
(lp2882
I1544
aS'112'
p2883
aS'173'
p2884
aasS'1CQZ'
p2885
(lp2886
(lp2887
I885
aS'257'
p2888
aS'530'
p2889
aa(lp2890
I2190
aS'90'
p2891
aS'203'
p2892
aasS'4D5L'
p2893
(lp2894
(lp2895
I125
aS'24'
p2896
aS'101'
p2897
aa(lp2898
I143
aS'19'
p2899
aS'112'
p2900
aa(lp2901
I143
aS'114'
p2902
aS'182'
p2903
aa(lp2904
I145
aS'10'
p2905
aS'63'
p2906
aa(lp2907
I147
aS'102'
p2908
aS'166'
p2909
aa(lp2910
I512
aS'2'
aS'60'
p2911
aa(lp2912
I625
aS'8'
aS'68'
p2913
aa(lp2914
I672
aS'2'
aS'190'
p2915
aa(lp2916
I1127
aS'212'
p2917
aS'258'
p2918
aa(lp2919
I2417
aS'178'
p2920
aS'211'
p2921
aa(lp2922
I2446
aS'106'
p2923
aS'188'
p2924
aa(lp2925
I2502
aS'3'
aS'39'
p2926
aa(lp2927
I2835
aS'108'
p2928
aS'151'
p2929
aa(lp2930
I3282
aS'7'
aS'191'
p2931
aa(lp2932
I3544
aS'14'
p2933
aS'142'
p2934
aa(lp2935
I3545
aS'21'
p2936
aS'115'
p2937
aa(lp2938
I3548
aS'75'
p2939
aS'144'
p2940
aa(lp2941
I3549
aS'9'
aS'54'
p2942
aa(lp2943
I3550
aS'74'
p2944
aS'147'
p2945
aa(lp2946
I3767
aS'21'
p2947
aS'221'
p2948
aa(lp2949
I3809
aS'185'
p2950
aS'256'
p2951
aa(lp2952
I3813
aS'6'
aS'56'
p2953
aa(lp2954
I4048
aS'202'
p2955
aS'219'
p2956
aa(lp2957
I4304
aS'5'
aS'73'
p2958
aa(lp2959
I4667
aS'5'
aS'139'
p2960
aa(lp2961
I4935
aS'2'
aS'119'
p2962
aa(lp2963
I5041
aS'6'
aS'130'
p2964
aa(lp2965
I5042
aS'14'
p2966
aS'146'
p2967
aa(lp2968
I5050
aS'62'
p2969
aS'204'
p2970
aa(lp2971
I5532
aS'9'
aS'140'
p2972
aa(lp2973
I5807
aS'1'
aS'79'
p2974
aa(lp2975
I6345
aS'20'
p2976
aS'92'
p2977
aa(lp2978
I6388
aS'3'
aS'95'
p2979
aa(lp2980
I6403
aS'29'
p2981
aS'147'
p2982
aa(lp2983
I6412
aS'47'
p2984
aS'128'
p2985
aa(lp2986
I6625
aS'17'
p2987
aS'110'
p2988
aa(lp2989
I6680
aS'95'
p2990
aS'169'
p2991
aa(lp2992
I6925
aS'1'
aS'126'
p2993
aa(lp2994
I7161
aS'40'
p2995
aS'112'
p2996
aa(lp2997
I7213
aS'9'
aS'44'
p2998
aa(lp2999
I7213
aS'55'
p3000
aS'91'
p3001
aa(lp3002
I7213
aS'96'
p3003
aS'133'
p3004
aa(lp3005
I7213
aS'145'
p3006
aS'178'
p3007
aa(lp3008
I7213
aS'188'
p3009
aS'220'
p3010
aa(lp3011
I7213
aS'225'
p3012
aS'260'
p3013
aa(lp3014
I7397
aS'28'
p3015
aS'82'
p3016
aa(lp3017
I7432
aS'2'
aS'97'
p3018
aa(lp3019
I7504
aS'102'
p3020
aS'147'
p3021
aasS'4KAJ'
p3022
(lp3023
(lp3024
I885
aS'34'
p3025
aS'160'
p3026
aasS'5LIP'
p3027
(lp3028
(lp3029
I885
aS'10'
p3030
aS'252'
p3031
aasS'4KAA'
p3032
(lp3033
(lp3034
I885
aS'45'
p3035
aS'169'
p3036
aasS'2YXP'
p3037
(lp3038
(lp3039
I885
aS'49'
p3040
aS'295'
p3041
aasS'4KAF'
p3042
(lp3043
(lp3044
I885
aS'44'
p3045
aS'170'
p3046
aasS'3RJH'
p3047
(lp3048
(lp3049
I1544
aS'269'
p3050
aS'333'
p3051
aa(lp3052
I1670
aS'15'
p3053
aS'77'
p3054
aa(lp3055
I4372
aS'100'
p3056
aS'147'
p3057
aa(lp3058
I6537
aS'149'
p3059
aS'262'
p3060
aasS'4NZZ'
p3061
(lp3062
(lp3063
I885
aS'23'
p3064
aS'274'
p3065
aasS'4V89'
p3066
(lp3067
(lp3068
I143
aS'8'
aS'223'
p3069
aa(lp3070
I145
aS'2'
aS'94'
p3071
aa(lp3072
I147
aS'10'
p3073
aS'73'
p3074
aa(lp3075
I148
aS'3'
aS'91'
p3076
aa(lp3077
I1339
aS'3'
aS'30'
p3078
aa(lp3079
I1731
aS'20'
p3080
aS'116'
p3081
aa(lp3082
I1732
aS'4'
aS'131'
p3083
aa(lp3084
I1733
aS'71'
p3085
aS'139'
p3086
aa(lp3087
I1734
aS'5'
aS'101'
p3088
aa(lp3089
I1735
aS'15'
p3090
aS'138'
p3091
aa(lp3092
I1739
aS'2'
aS'112'
p3093
aa(lp3094
I1787
aS'83'
p3095
aS'176'
p3096
aa(lp3097
I2019
aS'6'
aS'52'
p3098
aa(lp3099
I2021
aS'4'
aS'53'
p3100
aa(lp3101
I2023
aS'1'
aS'38'
p3102
aa(lp3103
I2024
aS'1'
aS'44'
p3104
aa(lp3105
I2417
aS'7'
aS'36'
p3106
aa(lp3107
I2446
aS'119'
p3108
aS'201'
p3109
aa(lp3110
I2767
aS'4'
aS'91'
p3111
aa(lp3112
I2772
aS'10'
p3113
aS'81'
p3114
aa(lp3115
I2772
aS'89'
p3116
aS'163'
p3117
aa(lp3118
I2835
aS'96'
p3119
aS'142'
p3120
aa(lp3121
I3071
aS'1'
aS'122'
p3122
aa(lp3123
I3544
aS'2'
aS'107'
p3124
aa(lp3125
I3545
aS'7'
aS'100'
p3126
aa(lp3127
I3547
aS'8'
aS'68'
p3128
aa(lp3129
I3548
aS'9'
aS'75'
p3130
aa(lp3131
I3549
aS'46'
p3132
aS'99'
p3133
aa(lp3134
I3550
aS'8'
aS'87'
p3135
aa(lp3136
I3553
aS'19'
p3137
aS'67'
p3138
aa(lp3139
I3809
aS'86'
p3140
aS'156'
p3141
aa(lp3142
I4161
aS'2'
aS'117'
p3143
aa(lp3144
I4162
aS'28'
p3145
aS'143'
p3146
aa(lp3147
I4492
aS'1'
aS'59'
p3148
aa(lp3149
I4654
aS'314'
p3150
aS'380'
p3151
aa(lp3152
I5041
aS'4'
aS'128'
p3153
aa(lp3154
I5042
aS'9'
aS'129'
p3155
aa(lp3156
I5050
aS'1'
aS'148'
p3157
aa(lp3158
I5273
aS'124'
p3159
aS'248'
p3160
aa(lp3161
I5434
aS'1'
aS'56'
p3162
aa(lp3163
I5516
aS'23'
p3164
aS'79'
p3165
aa(lp3166
I5517
aS'13'
p3167
aS'198'
p3168
aa(lp3169
I5520
aS'27'
p3170
aS'182'
p3171
aa(lp3172
I5521
aS'41'
p3173
aS'116'
p3174
aa(lp3175
I5532
aS'5'
aS'122'
p3176
aa(lp3177
I5533
aS'6'
aS'81'
p3178
aa(lp3179
I5683
aS'8'
aS'66'
p3180
aa(lp3181
I5991
aS'2'
aS'61'
p3182
aa(lp3183
I5992
aS'4'
aS'60'
p3184
aa(lp3185
I5995
aS'2'
aS'108'
p3186
aa(lp3187
I5996
aS'5'
aS'108'
p3188
aa(lp3189
I5997
aS'9'
aS'93'
p3190
aa(lp3191
I6226
aS'13'
p3192
aS'277'
p3193
aa(lp3194
I6228
aS'1'
aS'96'
p3195
aa(lp3196
I6345
aS'37'
p3197
aS'110'
p3198
aa(lp3199
I6403
aS'18'
p3200
aS'127'
p3201
aa(lp3202
I6412
aS'2'
aS'80'
p3203
aa(lp3204
I6965
aS'387'
p3205
aS'514'
p3206
aa(lp3207
I7148
aS'2'
aS'83'
p3208
aa(lp3209
I7507
aS'3'
aS'53'
p3210
aasS'9ICK'
p3211
(lp3212
(lp3213
I1544
aS'269'
p3214
aS'333'
p3215
aa(lp3216
I1670
aS'15'
p3217
aS'77'
p3218
aa(lp3219
I4372
aS'100'
p3220
aS'147'
p3221
aa(lp3222
I6537
aS'149'
p3223
aS'262'
p3224
aasS'9ICJ'
p3225
(lp3226
(lp3227
I1544
aS'269'
p3228
aS'333'
p3229
aa(lp3230
I1670
aS'15'
p3231
aS'77'
p3232
aa(lp3233
I4372
aS'100'
p3234
aS'147'
p3235
aa(lp3236
I6537
aS'149'
p3237
aS'262'
p3238
aasS'9ICI'
p3239
(lp3240
(lp3241
I1544
aS'269'
p3242
aS'333'
p3243
aa(lp3244
I1670
aS'15'
p3245
aS'77'
p3246
aa(lp3247
I4372
aS'100'
p3248
aS'147'
p3249
aa(lp3250
I6537
aS'149'
p3251
aS'262'
p3252
aasS'9ICH'
p3253
(lp3254
(lp3255
I1544
aS'269'
p3256
aS'333'
p3257
aa(lp3258
I1670
aS'15'
p3259
aS'77'
p3260
aa(lp3261
I4372
aS'100'
p3262
aS'147'
p3263
aa(lp3264
I6537
aS'149'
p3265
aS'262'
p3266
aasS'9ICO'
p3267
(lp3268
(lp3269
I1544
aS'269'
p3270
aS'333'
p3271
aa(lp3272
I1670
aS'15'
p3273
aS'77'
p3274
aa(lp3275
I4372
aS'100'
p3276
aS'147'
p3277
aa(lp3278
I6537
aS'149'
p3279
aS'262'
p3280
aasS'9ICN'
p3281
(lp3282
(lp3283
I1544
aS'269'
p3284
aS'333'
p3285
aa(lp3286
I1670
aS'15'
p3287
aS'77'
p3288
aa(lp3289
I4372
aS'100'
p3290
aS'147'
p3291
aa(lp3292
I6537
aS'149'
p3293
aS'262'
p3294
aasS'9ICM'
p3295
(lp3296
(lp3297
I1544
aS'269'
p3298
aS'333'
p3299
aa(lp3300
I1670
aS'15'
p3301
aS'77'
p3302
aa(lp3303
I4372
aS'100'
p3304
aS'147'
p3305
aa(lp3306
I6537
aS'149'
p3307
aS'262'
p3308
aasS'4O08'
p3309
(lp3310
(lp3311
I885
aS'23'
p3312
aS'274'
p3313
aasS'9ICC'
p3314
(lp3315
(lp3316
I1544
aS'269'
p3317
aS'333'
p3318
aa(lp3319
I1670
aS'15'
p3320
aS'77'
p3321
aa(lp3322
I4372
aS'100'
p3323
aS'147'
p3324
aa(lp3325
I6537
aS'149'
p3326
aS'262'
p3327
aasS'9ICB'
p3328
(lp3329
(lp3330
I1544
aS'269'
p3331
aS'333'
p3332
aa(lp3333
I1670
aS'15'
p3334
aS'77'
p3335
aa(lp3336
I4372
aS'100'
p3337
aS'147'
p3338
aa(lp3339
I6537
aS'149'
p3340
aS'262'
p3341
aasS'9ICA'
p3342
(lp3343
(lp3344
I1544
aS'269'
p3345
aS'333'
p3346
aa(lp3347
I1670
aS'15'
p3348
aS'77'
p3349
aa(lp3350
I4372
aS'100'
p3351
aS'147'
p3352
aa(lp3353
I6537
aS'149'
p3354
aS'262'
p3355
aasS'9ICG'
p3356
(lp3357
(lp3358
I1544
aS'269'
p3359
aS'333'
p3360
aa(lp3361
I1670
aS'15'
p3362
aS'77'
p3363
aa(lp3364
I4372
aS'100'
p3365
aS'147'
p3366
aa(lp3367
I6537
aS'149'
p3368
aS'262'
p3369
aasS'9ICF'
p3370
(lp3371
(lp3372
I1544
aS'269'
p3373
aS'333'
p3374
aa(lp3375
I1670
aS'15'
p3376
aS'77'
p3377
aa(lp3378
I4372
aS'100'
p3379
aS'147'
p3380
aa(lp3381
I6537
aS'149'
p3382
aS'262'
p3383
aasS'5YAS'
p3384
(lp3385
(lp3386
I885
aS'5'
aS'241'
p3387
aasS'1ZQX'
p3388
(lp3389
(lp3390
I1544
aS'269'
p3391
aS'333'
p3392
aa(lp3393
I4372
aS'100'
p3394
aS'147'
p3395
aa(lp3396
I6537
aS'149'
p3397
aS'262'
p3398
aasS'4B9E'
p3399
(lp3400
(lp3401
I885
aS'31'
p3402
aS'141'
p3403
aasS'9ICY'
p3404
(lp3405
(lp3406
I1544
aS'269'
p3407
aS'333'
p3408
aa(lp3409
I1670
aS'15'
p3410
aS'77'
p3411
aa(lp3412
I4372
aS'100'
p3413
aS'147'
p3414
aa(lp3415
I6537
aS'149'
p3416
aS'262'
p3417
aasS'1EX9'
p3418
(lp3419
(lp3420
I885
aS'9'
aS'254'
p3421
aasS'4F0J'
p3422
(lp3423
(lp3424
I885
aS'68'
p3425
aS'319'
p3426
aasS'9ICS'
p3427
(lp3428
(lp3429
I1544
aS'269'
p3430
aS'333'
p3431
aa(lp3432
I1670
aS'15'
p3433
aS'77'
p3434
aa(lp3435
I4372
aS'100'
p3436
aS'147'
p3437
aa(lp3438
I6537
aS'149'
p3439
aS'262'
p3440
aasS'9ICR'
p3441
(lp3442
(lp3443
I1544
aS'269'
p3444
aS'333'
p3445
aa(lp3446
I1670
aS'15'
p3447
aS'77'
p3448
aa(lp3449
I4372
aS'100'
p3450
aS'147'
p3451
aa(lp3452
I6537
aS'149'
p3453
aS'262'
p3454
aasS'9ICQ'
p3455
(lp3456
(lp3457
I1544
aS'269'
p3458
aS'333'
p3459
aa(lp3460
I1670
aS'15'
p3461
aS'77'
p3462
aa(lp3463
I4372
aS'100'
p3464
aS'147'
p3465
aa(lp3466
I6537
aS'149'
p3467
aS'262'
p3468
aasS'9ICP'
p3469
(lp3470
(lp3471
I1544
aS'269'
p3472
aS'333'
p3473
aa(lp3474
I1670
aS'15'
p3475
aS'77'
p3476
aa(lp3477
I4372
aS'100'
p3478
aS'147'
p3479
aa(lp3480
I6537
aS'149'
p3481
aS'262'
p3482
aasS'9ICW'
p3483
(lp3484
(lp3485
I1544
aS'269'
p3486
aS'333'
p3487
aa(lp3488
I1670
aS'15'
p3489
aS'77'
p3490
aa(lp3491
I4372
aS'100'
p3492
aS'147'
p3493
aa(lp3494
I6537
aS'149'
p3495
aS'262'
p3496
aasS'9ICV'
p3497
(lp3498
(lp3499
I1544
aS'269'
p3500
aS'333'
p3501
aa(lp3502
I1670
aS'15'
p3503
aS'77'
p3504
aa(lp3505
I4372
aS'100'
p3506
aS'147'
p3507
aa(lp3508
I6537
aS'149'
p3509
aS'262'
p3510
aasS'9ICU'
p3511
(lp3512
(lp3513
I1544
aS'269'
p3514
aS'333'
p3515
aa(lp3516
I1670
aS'15'
p3517
aS'77'
p3518
aa(lp3519
I4372
aS'100'
p3520
aS'147'
p3521
aa(lp3522
I6537
aS'149'
p3523
aS'262'
p3524
aasS'9ICT'
p3525
(lp3526
(lp3527
I1544
aS'269'
p3528
aS'333'
p3529
aa(lp3530
I1670
aS'15'
p3531
aS'77'
p3532
aa(lp3533
I4372
aS'100'
p3534
aS'147'
p3535
aa(lp3536
I6537
aS'149'
p3537
aS'262'
p3538
aasS'1HQD'
p3539
(lp3540
(lp3541
I885
aS'10'
p3542
aS'252'
p3543
aasS'1JMS'
p3544
(lp3545
(lp3546
I1544
aS'446'
p3547
aS'509'
p3548
aa(lp3549
I1670
aS'165'
p3550
aS'230'
p3551
aa(lp3552
I4372
aS'250'
p3553
aS'299'
p3554
aa(lp3555
I6537
aS'305'
p3556
aS'376'
p3557
aasS'3GDX'
p3558
(lp3559
(lp3560
I1544
aS'269'
p3561
aS'333'
p3562
aa(lp3563
I1670
aS'15'
p3564
aS'77'
p3565
aa(lp3566
I4372
aS'100'
p3567
aS'147'
p3568
aa(lp3569
I6537
aS'149'
p3570
aS'262'
p3571
aasS'4PHA'
p3572
(lp3573
(lp3574
I1544
aS'269'
p3575
aS'333'
p3576
aa(lp3577
I1670
aS'15'
p3578
aS'77'
p3579
aa(lp3580
I4372
aS'100'
p3581
aS'147'
p3582
aa(lp3583
I6537
aS'149'
p3584
aS'262'
p3585
aasS'3RH6'
p3586
(lp3587
(lp3588
I1544
aS'269'
p3589
aS'333'
p3590
aa(lp3591
I1670
aS'15'
p3592
aS'77'
p3593
aa(lp3594
I4372
aS'100'
p3595
aS'147'
p3596
aa(lp3597
I6537
aS'149'
p3598
aS'262'
p3599
aasS'3RH5'
p3600
(lp3601
(lp3602
I1544
aS'269'
p3603
aS'333'
p3604
aa(lp3605
I1670
aS'15'
p3606
aS'77'
p3607
aa(lp3608
I4372
aS'100'
p3609
aS'147'
p3610
aa(lp3611
I6537
aS'149'
p3612
aS'262'
p3613
aasS'3RH4'
p3614
(lp3615
(lp3616
I1544
aS'269'
p3617
aS'333'
p3618
aa(lp3619
I1670
aS'15'
p3620
aS'77'
p3621
aa(lp3622
I4372
aS'100'
p3623
aS'147'
p3624
aa(lp3625
I6537
aS'149'
p3626
aS'262'
p3627
aasS'1HKH'
p3628
(lp3629
(lp3630
I885
aS'25'
p3631
aS'265'
p3632
aasS'3I1I'
p3633
(lp3634
(lp3635
I885
aS'40'
p3636
aS'331'
p3637
aasS'3OTQ'
p3638
(lp3639
(lp3640
I885
aS'259'
p3641
aS'531'
p3642
aa(lp3643
I2190
aS'7'
aS'203'
p3644
aasS'4M2Y'
p3645
(lp3646
(lp3647
I1544
aS'269'
p3648
aS'333'
p3649
aa(lp3650
I1670
aS'15'
p3651
aS'77'
p3652
aa(lp3653
I4372
aS'100'
p3654
aS'147'
p3655
aa(lp3656
I6537
aS'149'
p3657
aS'262'
p3658
aasS'3QVM'
p3659
(lp3660
(lp3661
I885
aS'29'
p3662
aS'262'
p3663
aasS'4P4P'
p3664
(lp3665
(lp3666
I1544
aS'283'
p3667
aS'375'
p3668
aa(lp3669
I1670
aS'32'
p3670
aS'35'
p3671
aa(lp3672
I4372
aS'97'
p3673
aS'150'
p3674
aa(lp3675
I6537
aS'152'
p3676
aS'276'
p3677
aasS'3MDA'
p3678
(lp3679
(lp3680
I1544
aS'502'
p3681
aS'574'
p3682
aa(lp3683
I1670
aS'253'
p3684
aS'318'
p3685
aa(lp3686
I4372
aS'337'
p3687
aS'383'
p3688
aa(lp3689
I6537
aS'386'
p3690
aS'495'
p3691
aasS'3MDC'
p3692
(lp3693
(lp3694
I1544
aS'502'
p3695
aS'574'
p3696
aa(lp3697
I1670
aS'254'
p3698
aS'318'
p3699
aa(lp3700
I4372
aS'337'
p3701
aS'383'
p3702
aa(lp3703
I6537
aS'386'
p3704
aS'495'
p3705
aasS'1SC9'
p3706
(lp3707
(lp3708
I885
aS'5'
aS'241'
p3709
aasS'4W2E'
p3710
(lp3711
(lp3712
I143
aS'10'
p3713
aS'223'
p3714
aa(lp3715
I145
aS'3'
aS'98'
p3716
aa(lp3717
I147
aS'6'
aS'70'
p3718
aa(lp3719
I148
aS'3'
aS'92'
p3720
aa(lp3721
I1731
aS'20'
p3722
aS'117'
p3723
aa(lp3724
I1732
aS'4'
aS'132'
p3725
aa(lp3726
I1733
aS'70'
p3727
aS'138'
p3728
aa(lp3729
I1734
aS'4'
aS'98'
p3730
aa(lp3731
I1735
aS'12'
p3732
aS'136'
p3733
aa(lp3734
I1739
aS'6'
aS'113'
p3735
aa(lp3736
I1787
aS'87'
p3737
aS'180'
p3738
aa(lp3739
I2019
aS'8'
aS'53'
p3740
aa(lp3741
I2020
aS'1'
aS'64'
p3742
aa(lp3743
I2021
aS'4'
aS'54'
p3744
aa(lp3745
I2023
aS'1'
aS'37'
p3746
aa(lp3747
I2024
aS'1'
aS'43'
p3748
aa(lp3749
I2417
aS'9'
aS'40'
p3750
aa(lp3751
I2446
aS'120'
p3752
aS'202'
p3753
aa(lp3754
I2585
aS'-68'
p3755
aS'-22'
p3756
aa(lp3757
I2767
aS'5'
aS'88'
p3758
aa(lp3759
I2772
aS'11'
p3760
aS'82'
p3761
aa(lp3762
I2772
aS'91'
p3763
aS'164'
p3764
aa(lp3765
I2835
aS'100'
p3766
aS'146'
p3767
aa(lp3768
I2994
aS'2'
aS'24'
p3769
aa(lp3770
I3071
aS'1'
aS'122'
p3771
aa(lp3772
I3544
aS'3'
aS'109'
p3773
aa(lp3774
I3545
aS'5'
aS'99'
p3775
aa(lp3776
I3547
aS'8'
aS'67'
p3777
aa(lp3778
I3548
aS'8'
aS'74'
p3779
aa(lp3780
I3549
aS'9'
aS'60'
p3781
aa(lp3782
I3550
aS'8'
aS'88'
p3783
aa(lp3784
I3553
aS'33'
p3785
aS'79'
p3786
aa(lp3787
I3809
aS'82'
p3788
aS'152'
p3789
aa(lp3790
I4161
aS'6'
aS'112'
p3791
aa(lp3792
I4162
aS'27'
p3793
aS'145'
p3794
aa(lp3795
I4492
aS'2'
aS'62'
p3796
aa(lp3797
I4654
aS'210'
p3798
aS'281'
p3799
aa(lp3800
I4724
aS'496'
p3801
aS'602'
p3802
aa(lp3803
I4903
aS'95'
p3804
aS'177'
p3805
aa(lp3806
I5041
aS'4'
aS'138'
p3807
aa(lp3808
I5042
aS'8'
aS'128'
p3809
aa(lp3810
I5050
aS'2'
aS'149'
p3811
aa(lp3812
I5273
aS'126'
p3813
aS'251'
p3814
aa(lp3815
I5434
aS'5'
aS'59'
p3816
aa(lp3817
I5516
aS'27'
p3818
aS'83'
p3819
aa(lp3820
I5517
aS'26'
p3821
aS'204'
p3822
aa(lp3823
I5520
aS'93'
p3824
aS'175'
p3825
aa(lp3826
I5521
aS'42'
p3827
aS'118'
p3828
aa(lp3829
I5532
aS'6'
aS'126'
p3830
aa(lp3831
I5533
aS'11'
p3832
aS'81'
p3833
aa(lp3834
I5589
aS'404'
p3835
aS'492'
p3836
aa(lp3837
I5683
aS'8'
aS'65'
p3838
aa(lp3839
I5991
aS'3'
aS'65'
p3840
aa(lp3841
I5992
aS'12'
p3842
aS'67'
p3843
aa(lp3844
I5995
aS'3'
aS'109'
p3845
aa(lp3846
I5996
aS'5'
aS'107'
p3847
aa(lp3848
I5997
aS'6'
aS'90'
p3849
aa(lp3850
I6226
aS'8'
aS'186'
p3851
aa(lp3852
I6228
aS'1'
aS'94'
p3853
aa(lp3854
I6345
aS'39'
p3855
aS'110'
p3856
aa(lp3857
I6403
aS'17'
p3858
aS'126'
p3859
aa(lp3860
I6412
aS'3'
aS'83'
p3861
aa(lp3862
I7148
aS'11'
p3863
aS'88'
p3864
aasS'4P4M'
p3865
(lp3866
(lp3867
I1544
aS'283'
p3868
aS'375'
p3869
aa(lp3870
I4372
aS'97'
p3871
aS'150'
p3872
aa(lp3873
I6537
aS'152'
p3874
aS'276'
p3875
aasS'4P4O'
p3876
(lp3877
(lp3878
I1544
aS'283'
p3879
aS'375'
p3880
aa(lp3881
I1670
aS'20'
p3882
aS'73'
p3883
aa(lp3884
I4372
aS'97'
p3885
aS'150'
p3886
aa(lp3887
I6537
aS'152'
p3888
aS'276'
p3889
aasS'7ICQ'
p3890
(lp3891
(lp3892
I1544
aS'269'
p3893
aS'333'
p3894
aa(lp3895
I1670
aS'15'
p3896
aS'77'
p3897
aa(lp3898
I4372
aS'100'
p3899
aS'147'
p3900
aa(lp3901
I6537
aS'149'
p3902
aS'262'
p3903
aasS'7ICP'
p3904
(lp3905
(lp3906
I1544
aS'269'
p3907
aS'333'
p3908
aa(lp3909
I1670
aS'15'
p3910
aS'77'
p3911
aa(lp3912
I4372
aS'100'
p3913
aS'147'
p3914
aa(lp3915
I6537
aS'149'
p3916
aS'262'
p3917
aasS'7ICS'
p3918
(lp3919
(lp3920
I1544
aS'269'
p3921
aS'333'
p3922
aa(lp3923
I1670
aS'15'
p3924
aS'77'
p3925
aa(lp3926
I4372
aS'100'
p3927
aS'147'
p3928
aa(lp3929
I6537
aS'149'
p3930
aS'262'
p3931
aasS'7ICR'
p3932
(lp3933
(lp3934
I1544
aS'269'
p3935
aS'333'
p3936
aa(lp3937
I1670
aS'15'
p3938
aS'77'
p3939
aa(lp3940
I4372
aS'100'
p3941
aS'147'
p3942
aa(lp3943
I6537
aS'149'
p3944
aS'262'
p3945
aasS'7ICU'
p3946
(lp3947
(lp3948
I1544
aS'269'
p3949
aS'333'
p3950
aa(lp3951
I1670
aS'15'
p3952
aS'77'
p3953
aa(lp3954
I4372
aS'100'
p3955
aS'147'
p3956
aa(lp3957
I6537
aS'149'
p3958
aS'262'
p3959
aasS'7ICT'
p3960
(lp3961
(lp3962
I1544
aS'269'
p3963
aS'333'
p3964
aa(lp3965
I1670
aS'15'
p3966
aS'77'
p3967
aa(lp3968
I4372
aS'100'
p3969
aS'147'
p3970
aa(lp3971
I6537
aS'149'
p3972
aS'262'
p3973
aasS'1SCK'
p3974
(lp3975
(lp3976
I885
aS'5'
aS'241'
p3977
aasS'7ICV'
p3978
(lp3979
(lp3980
I1544
aS'269'
p3981
aS'333'
p3982
aa(lp3983
I1670
aS'15'
p3984
aS'77'
p3985
aa(lp3986
I4372
aS'100'
p3987
aS'147'
p3988
aa(lp3989
I6537
aS'149'
p3990
aS'262'
p3991
aasS'1M33'
p3992
(lp3993
(lp3994
I885
aS'15'
p3995
aS'242'
p3996
aasS'1ZQW'
p3997
(lp3998
(lp3999
I1544
aS'269'
p4000
aS'333'
p4001
aa(lp4002
I4372
aS'100'
p4003
aS'147'
p4004
aa(lp4005
I6537
aS'149'
p4006
aS'262'
p4007
aasS'3OM8'
p4008
(lp4009
(lp4010
I885
aS'35'
p4011
aS'143'
p4012
aasS'2PXI'
p4013
(lp4014
(lp4015
I1544
aS'269'
p4016
aS'333'
p4017
aa(lp4018
I1670
aS'15'
p4019
aS'77'
p4020
aa(lp4021
I4372
aS'100'
p4022
aS'147'
p4023
aa(lp4024
I6537
aS'149'
p4025
aS'262'
p4026
aasS'7ICE'
p4027
(lp4028
(lp4029
I1544
aS'269'
p4030
aS'333'
p4031
aa(lp4032
I1670
aS'15'
p4033
aS'77'
p4034
aa(lp4035
I4372
aS'100'
p4036
aS'147'
p4037
aa(lp4038
I6537
aS'149'
p4039
aS'262'
p4040
aasS'7ICG'
p4041
(lp4042
(lp4043
I1544
aS'269'
p4044
aS'333'
p4045
aa(lp4046
I1670
aS'15'
p4047
aS'77'
p4048
aa(lp4049
I4372
aS'100'
p4050
aS'147'
p4051
aa(lp4052
I6537
aS'149'
p4053
aS'262'
p4054
aasS'7ICF'
p4055
(lp4056
(lp4057
I1544
aS'269'
p4058
aS'333'
p4059
aa(lp4060
I1670
aS'15'
p4061
aS'77'
p4062
aa(lp4063
I4372
aS'100'
p4064
aS'147'
p4065
aa(lp4066
I6537
aS'149'
p4067
aS'262'
p4068
aasS'7ICI'
p4069
(lp4070
(lp4071
I1544
aS'269'
p4072
aS'333'
p4073
aa(lp4074
I1670
aS'15'
p4075
aS'77'
p4076
aa(lp4077
I4372
aS'100'
p4078
aS'147'
p4079
aa(lp4080
I6537
aS'149'
p4081
aS'262'
p4082
aasS'7ICH'
p4083
(lp4084
(lp4085
I1544
aS'269'
p4086
aS'333'
p4087
aa(lp4088
I1670
aS'15'
p4089
aS'77'
p4090
aa(lp4091
I4372
aS'100'
p4092
aS'147'
p4093
aa(lp4094
I6537
aS'149'
p4095
aS'262'
p4096
aasS'3WI7'
p4097
(lp4098
(lp4099
I885
aS'36'
p4100
aS'148'
p4101
aasS'7ICJ'
p4102
(lp4103
(lp4104
I1544
aS'269'
p4105
aS'333'
p4106
aa(lp4107
I1670
aS'15'
p4108
aS'77'
p4109
aa(lp4110
I4372
aS'100'
p4111
aS'147'
p4112
aa(lp4113
I6537
aS'149'
p4114
aS'262'
p4115
aasS'7ICM'
p4116
(lp4117
(lp4118
I1544
aS'269'
p4119
aS'333'
p4120
aa(lp4121
I1670
aS'15'
p4122
aS'77'
p4123
aa(lp4124
I4372
aS'100'
p4125
aS'147'
p4126
aa(lp4127
I6537
aS'149'
p4128
aS'262'
p4129
aasS'7ICL'
p4130
(lp4131
(lp4132
I1544
aS'269'
p4133
aS'333'
p4134
aa(lp4135
I1670
aS'15'
p4136
aS'77'
p4137
aa(lp4138
I4372
aS'100'
p4139
aS'147'
p4140
aa(lp4141
I6537
aS'149'
p4142
aS'262'
p4143
aasS'7ICO'
p4144
(lp4145
(lp4146
I1544
aS'269'
p4147
aS'333'
p4148
aa(lp4149
I1670
aS'15'
p4150
aS'77'
p4151
aa(lp4152
I4372
aS'100'
p4153
aS'147'
p4154
aa(lp4155
I6537
aS'149'
p4156
aS'262'
p4157
aasS'7ICN'
p4158
(lp4159
(lp4160
I1544
aS'269'
p4161
aS'333'
p4162
aa(lp4163
I1670
aS'15'
p4164
aS'77'
p4165
aa(lp4166
I4372
aS'100'
p4167
aS'147'
p4168
aa(lp4169
I6537
aS'149'
p4170
aS'262'
p4171
aasS'1ZQI'
p4172
(lp4173
(lp4174
I1544
aS'269'
p4175
aS'333'
p4176
aa(lp4177
I1670
aS'15'
p4178
aS'77'
p4179
aa(lp4180
I4372
aS'100'
p4181
aS'147'
p4182
aa(lp4183
I6537
aS'149'
p4184
aS'262'
p4185
aasS'1Q0R'
p4186
(lp4187
(lp4188
I885
aS'24'
p4189
aS'277'
p4190
aasS'1EG0'
p4191
(lp4192
(lp4193
I145
aS'2'
aS'50'
p4194
aa(lp4195
I147
aS'8'
aS'72'
p4196
aa(lp4197
I148
aS'3'
aS'92'
p4198
aa(lp4199
I2835
aS'52'
p4200
aS'98'
p4201
aa(lp4202
I3809
aS'84'
p4203
aS'145'
p4204
aa(lp4205
I5041
aS'2'
aS'136'
p4206
aa(lp4207
I5050
aS'1'
aS'135'
p4208
aasS'3JAP'
p4209
(lp4210
(lp4211
I82
aS'32'
p4212
aS'94'
p4213
aa(lp4214
I125
aS'24'
p4215
aS'102'
p4216
aa(lp4217
I143
aS'17'
p4218
aS'112'
p4219
aa(lp4220
I143
aS'116'
p4221
aS'181'
p4222
aa(lp4223
I145
aS'8'
aS'61'
p4224
aa(lp4225
I147
aS'81'
p4226
aS'145'
p4227
aa(lp4228
I423
aS'45'
p4229
aS'91'
p4230
aa(lp4231
I512
aS'2'
aS'60'
p4232
aa(lp4233
I625
aS'6'
aS'66'
p4234
aa(lp4235
I672
aS'2'
aS'185'
p4236
aa(lp4237
I842
aS'218'
p4238
aS'639'
p4239
aa(lp4240
I1127
aS'212'
p4241
aS'258'
p4242
aa(lp4243
I2355
aS'393'
p4244
aS'492'
p4245
aa(lp4246
I2355
aS'651'
p4247
aS'780'
p4248
aa(lp4249
I2417
aS'178'
p4250
aS'211'
p4251
aa(lp4252
I2446
aS'107'
p4253
aS'188'
p4254
aa(lp4255
I2502
aS'3'
aS'39'
p4256
aa(lp4257
I2828
aS'429'
p4258
aS'517'
p4259
aa(lp4260
I2833
aS'14'
p4261
aS'88'
p4262
aa(lp4263
I2835
aS'107'
p4264
aS'151'
p4265
aa(lp4266
I2835
aS'43'
p4267
aS'90'
p4268
aa(lp4269
I3282
aS'10'
p4270
aS'186'
p4271
aa(lp4272
I3544
aS'16'
p4273
aS'144'
p4274
aa(lp4275
I3545
aS'23'
p4276
aS'116'
p4277
aa(lp4278
I3548
aS'73'
p4279
aS'141'
p4280
aa(lp4281
I3549
aS'7'
aS'56'
p4282
aa(lp4283
I3550
aS'74'
p4284
aS'147'
p4285
aa(lp4286
I3767
aS'19'
p4287
aS'221'
p4288
aa(lp4289
I3809
aS'165'
p4290
aS'235'
p4291
aa(lp4292
I3813
aS'8'
aS'60'
p4293
aa(lp4294
I4254
aS'157'
p4295
aS'264'
p4296
aa(lp4297
I4304
aS'8'
aS'71'
p4298
aa(lp4299
I4654
aS'335'
p4300
aS'417'
p4301
aa(lp4302
I4667
aS'5'
aS'140'
p4303
aa(lp4304
I4935
aS'2'
aS'116'
p4305
aa(lp4306
I5041
aS'6'
aS'130'
p4307
aa(lp4308
I5042
aS'11'
p4309
aS'143'
p4310
aa(lp4311
I5050
aS'85'
p4312
aS'227'
p4313
aa(lp4314
I5532
aS'11'
p4315
aS'144'
p4316
aa(lp4317
I5807
aS'1'
aS'80'
p4318
aa(lp4319
I6226
aS'100'
p4320
aS'303'
p4321
aa(lp4322
I6235
aS'1'
aS'25'
p4323
aa(lp4324
I6345
aS'20'
p4325
aS'92'
p4326
aa(lp4327
I6388
aS'3'
aS'92'
p4328
aa(lp4329
I6403
aS'15'
p4330
aS'133'
p4331
aa(lp4332
I6412
aS'47'
p4333
aS'128'
p4334
aa(lp4335
I6625
aS'20'
p4336
aS'113'
p4337
aa(lp4338
I6680
aS'95'
p4339
aS'169'
p4340
aa(lp4341
I6742
aS'23'
p4342
aS'98'
p4343
aa(lp4344
I6925
aS'1'
aS'126'
p4345
aa(lp4346
I7161
aS'36'
p4347
aS'104'
p4348
aa(lp4349
I7213
aS'12'
p4350
aS'46'
p4351
aa(lp4352
I7213
aS'57'
p4353
aS'94'
p4354
aa(lp4355
I7213
aS'104'
p4356
aS'136'
p4357
aa(lp4358
I7213
aS'139'
p4359
aS'187'
p4360
aa(lp4361
I7213
aS'198'
p4362
aS'231'
p4363
aa(lp4364
I7213
aS'5'
aS'37'
p4365
aa(lp4366
I7213
aS'43'
p4367
aS'80'
p4368
aa(lp4369
I7397
aS'28'
p4370
aS'82'
p4371
aa(lp4372
I7432
aS'2'
aS'99'
p4373
aa(lp4374
I7504
aS'102'
p4375
aS'145'
p4376
aa(lp4377
I7551
aS'126'
p4378
aS'237'
p4379
aasS'3JAQ'
p4380
(lp4381
(lp4382
I82
aS'32'
p4383
aS'94'
p4384
aa(lp4385
I125
aS'24'
p4386
aS'102'
p4387
aa(lp4388
I145
aS'8'
aS'61'
p4389
aa(lp4390
I147
aS'81'
p4391
aS'145'
p4392
aa(lp4393
I423
aS'45'
p4394
aS'91'
p4395
aa(lp4396
I512
aS'2'
aS'60'
p4397
aa(lp4398
I625
aS'6'
aS'66'
p4399
aa(lp4400
I672
aS'2'
aS'185'
p4401
aa(lp4402
I1127
aS'212'
p4403
aS'258'
p4404
aa(lp4405
I2417
aS'178'
p4406
aS'211'
p4407
aa(lp4408
I2446
aS'107'
p4409
aS'188'
p4410
aa(lp4411
I2502
aS'3'
aS'39'
p4412
aa(lp4413
I2828
aS'429'
p4414
aS'517'
p4415
aa(lp4416
I2833
aS'14'
p4417
aS'88'
p4418
aa(lp4419
I2835
aS'107'
p4420
aS'151'
p4421
aa(lp4422
I2835
aS'43'
p4423
aS'90'
p4424
aa(lp4425
I3282
aS'10'
p4426
aS'186'
p4427
aa(lp4428
I3544
aS'16'
p4429
aS'144'
p4430
aa(lp4431
I3545
aS'23'
p4432
aS'116'
p4433
aa(lp4434
I3548
aS'73'
p4435
aS'141'
p4436
aa(lp4437
I3549
aS'7'
aS'56'
p4438
aa(lp4439
I3550
aS'74'
p4440
aS'147'
p4441
aa(lp4442
I3767
aS'19'
p4443
aS'221'
p4444
aa(lp4445
I3809
aS'165'
p4446
aS'235'
p4447
aa(lp4448
I3813
aS'8'
aS'60'
p4449
aa(lp4450
I4254
aS'157'
p4451
aS'264'
p4452
aa(lp4453
I4304
aS'8'
aS'71'
p4454
aa(lp4455
I4654
aS'335'
p4456
aS'417'
p4457
aa(lp4458
I4667
aS'5'
aS'140'
p4459
aa(lp4460
I4935
aS'2'
aS'116'
p4461
aa(lp4462
I5041
aS'6'
aS'130'
p4463
aa(lp4464
I5042
aS'11'
p4465
aS'143'
p4466
aa(lp4467
I5050
aS'85'
p4468
aS'227'
p4469
aa(lp4470
I5532
aS'11'
p4471
aS'144'
p4472
aa(lp4473
I5807
aS'1'
aS'80'
p4474
aa(lp4475
I6226
aS'100'
p4476
aS'303'
p4477
aa(lp4478
I6235
aS'1'
aS'25'
p4479
aa(lp4480
I6345
aS'20'
p4481
aS'92'
p4482
aa(lp4483
I6388
aS'3'
aS'92'
p4484
aa(lp4485
I6403
aS'15'
p4486
aS'133'
p4487
aa(lp4488
I6412
aS'47'
p4489
aS'128'
p4490
aa(lp4491
I6625
aS'20'
p4492
aS'113'
p4493
aa(lp4494
I6680
aS'95'
p4495
aS'169'
p4496
aa(lp4497
I6742
aS'23'
p4498
aS'98'
p4499
aa(lp4500
I6925
aS'1'
aS'126'
p4501
aa(lp4502
I7161
aS'36'
p4503
aS'104'
p4504
aa(lp4505
I7213
aS'12'
p4506
aS'46'
p4507
aa(lp4508
I7213
aS'57'
p4509
aS'94'
p4510
aa(lp4511
I7213
aS'104'
p4512
aS'136'
p4513
aa(lp4514
I7213
aS'139'
p4515
aS'187'
p4516
aa(lp4517
I7213
aS'198'
p4518
aS'231'
p4519
aa(lp4520
I7432
aS'2'
aS'99'
p4521
aa(lp4522
I7504
aS'102'
p4523
aS'145'
p4524
aa(lp4525
I7551
aS'126'
p4526
aS'237'
p4527
aasS'2D0D'
p4528
(lp4529
(lp4530
I885
aS'27'
p4531
aS'257'
p4532
aasS'4F5Q'
p4533
(lp4534
(lp4535
I1544
aS'269'
p4536
aS'333'
p4537
aa(lp4538
I1670
aS'15'
p4539
aS'77'
p4540
aa(lp4541
I4372
aS'100'
p4542
aS'147'
p4543
aa(lp4544
I6537
aS'149'
p4545
aS'262'
p4546
aasS'4F5P'
p4547
(lp4548
(lp4549
I1544
aS'269'
p4550
aS'333'
p4551
aa(lp4552
I1670
aS'15'
p4553
aS'77'
p4554
aa(lp4555
I4372
aS'100'
p4556
aS'147'
p4557
aa(lp4558
I6537
aS'149'
p4559
aS'262'
p4560
aasS'4F5R'
p4561
(lp4562
(lp4563
I1544
aS'269'
p4564
aS'333'
p4565
aa(lp4566
I1670
aS'15'
p4567
aS'77'
p4568
aa(lp4569
I4372
aS'100'
p4570
aS'147'
p4571
aa(lp4572
I6537
aS'149'
p4573
aS'262'
p4574
aasS'1XSN'
p4575
(lp4576
(lp4577
I1544
aS'502'
p4578
aS'574'
p4579
aa(lp4580
I1670
aS'253'
p4581
aS'318'
p4582
aa(lp4583
I4372
aS'337'
p4584
aS'383'
p4585
aa(lp4586
I6537
aS'386'
p4587
aS'495'
p4588
aasS'1E8D'
p4589
(lp4590
(lp4591
I885
aS'5'
aS'242'
p4592
aasS'4F5Z'
p4593
(lp4594
(lp4595
I885
aS'34'
p4596
aS'158'
p4597
aasS'3C6X'
p4598
(lp4599
(lp4600
I885
aS'5'
aS'241'
p4601
aasS'3C6Y'
p4602
(lp4603
(lp4604
I885
aS'5'
aS'241'
p4605
aasS'3C6Z'
p4606
(lp4607
(lp4608
I885
aS'5'
aS'241'
p4609
aasS'4YCX'
p4610
(lp4611
(lp4612
I1544
aS'430'
p4613
aS'493'
p4614
aa(lp4615
I1670
aS'156'
p4616
aS'218'
p4617
aa(lp4618
I4372
aS'238'
p4619
aS'286'
p4620
aa(lp4621
I6537
aS'292'
p4622
aS'423'
p4623
aasS'4F5O'
p4624
(lp4625
(lp4626
I1544
aS'269'
p4627
aS'333'
p4628
aa(lp4629
I1670
aS'15'
p4630
aS'77'
p4631
aa(lp4632
I4372
aS'100'
p4633
aS'147'
p4634
aa(lp4635
I6537
aS'149'
p4636
aS'262'
p4637
aasS'4F5N'
p4638
(lp4639
(lp4640
I1544
aS'269'
p4641
aS'333'
p4642
aa(lp4643
I1670
aS'15'
p4644
aS'77'
p4645
aa(lp4646
I4372
aS'100'
p4647
aS'147'
p4648
aa(lp4649
I6537
aS'149'
p4650
aS'262'
p4651
aasS'5AIA'
p4652
(lp4653
(lp4654
I885
aS'259'
p4655
aS'531'
p4656
aa(lp4657
I2190
aS'7'
aS'203'
p4658
aasS'5AIC'
p4659
(lp4660
(lp4661
I885
aS'259'
p4662
aS'531'
p4663
aa(lp4664
I2190
aS'7'
aS'203'
p4665
aasS'5AIB'
p4666
(lp4667
(lp4668
I885
aS'259'
p4669
aS'531'
p4670
aa(lp4671
I2190
aS'7'
aS'203'
p4672
aasS'5AI9'
p4673
(lp4674
(lp4675
I885
aS'259'
p4676
aS'531'
p4677
aa(lp4678
I2190
aS'7'
aS'203'
p4679
aasS'5AI8'
p4680
(lp4681
(lp4682
I885
aS'259'
p4683
aS'531'
p4684
aa(lp4685
I2190
aS'7'
aS'203'
p4686
aasS'5AI5'
p4687
(lp4688
(lp4689
I885
aS'259'
p4690
aS'531'
p4691
aa(lp4692
I2190
aS'7'
aS'203'
p4693
aasS'5AI4'
p4694
(lp4695
(lp4696
I885
aS'259'
p4697
aS'531'
p4698
aa(lp4699
I2190
aS'7'
aS'203'
p4700
aasS'5AI6'
p4701
(lp4702
(lp4703
I885
aS'259'
p4704
aS'531'
p4705
aa(lp4706
I2190
aS'7'
aS'203'
p4707
aasS'4INZ'
p4708
(lp4709
(lp4710
I885
aS'23'
p4711
aS'274'
p4712
aasS'2QVB'
p4713
(lp4714
(lp4715
I885
aS'32'
p4716
aS'155'
p4717
aasS'2E3J'
p4718
(lp4719
(lp4720
I885
aS'28'
p4721
aS'129'
p4722
aasS'5BPC'
p4723
(lp4724
(lp4725
I1544
aS'278'
p4726
aS'342'
p4727
aa(lp4728
I1544
aS'278'
p4729
aS'342'
p4730
aa(lp4731
I1670
aS'24'
p4732
aS'86'
p4733
aa(lp4734
I1670
aS'24'
p4735
aS'86'
p4736
aa(lp4737
I4372
aS'109'
p4738
aS'156'
p4739
aa(lp4740
I4372
aS'109'
p4741
aS'156'
p4742
aa(lp4743
I6537
aS'158'
p4744
aS'271'
p4745
aa(lp4746
I6537
aS'158'
p4747
aS'271'
p4748
aasS'1E89'
p4749
(lp4750
(lp4751
I885
aS'5'
aS'242'
p4752
aasS'2WM2'
p4753
(lp4754
(lp4755
I885
aS'28'
p4756
aS'150'
p4757
aasS'4QES'
p4758
(lp4759
(lp4760
I885
aS'25'
p4761
aS'263'
p4762
aa(lp4763
I1245
aS'286'
p4764
aS'440'
p4765
aasS'4JWN'
p4766
(lp4767
(lp4768
I1544
aS'269'
p4769
aS'333'
p4770
aa(lp4771
I1670
aS'15'
p4772
aS'77'
p4773
aa(lp4774
I4372
aS'100'
p4775
aS'147'
p4776
aa(lp4777
I6537
aS'149'
p4778
aS'262'
p4779
aasS'4JWM'
p4780
(lp4781
(lp4782
I1544
aS'269'
p4783
aS'333'
p4784
aa(lp4785
I1670
aS'15'
p4786
aS'77'
p4787
aa(lp4788
I4372
aS'100'
p4789
aS'147'
p4790
aa(lp4791
I6537
aS'149'
p4792
aS'262'
p4793
aasS'4DGQ'
p4794
(lp4795
(lp4796
I885
aS'24'
p4797
aS'256'
p4798
aasS'4V69'
p4799
(lp4800
(lp4801
I143
aS'8'
aS'223'
p4802
aa(lp4803
I145
aS'2'
aS'94'
p4804
aa(lp4805
I147
aS'10'
p4806
aS'73'
p4807
aa(lp4808
I148
aS'3'
aS'91'
p4809
aa(lp4810
I1731
aS'20'
p4811
aS'116'
p4812
aa(lp4813
I1732
aS'4'
aS'131'
p4814
aa(lp4815
I1733
aS'71'
p4816
aS'139'
p4817
aa(lp4818
I1735
aS'15'
p4819
aS'138'
p4820
aa(lp4821
I1739
aS'2'
aS'112'
p4822
aa(lp4823
I1787
aS'83'
p4824
aS'176'
p4825
aa(lp4826
I2019
aS'6'
aS'52'
p4827
aa(lp4828
I2021
aS'4'
aS'53'
p4829
aa(lp4830
I2023
aS'1'
aS'38'
p4831
aa(lp4832
I2024
aS'1'
aS'44'
p4833
aa(lp4834
I2417
aS'7'
aS'36'
p4835
aa(lp4836
I2446
aS'119'
p4837
aS'201'
p4838
aa(lp4839
I2577
aS'64'
p4840
aS'148'
p4841
aa(lp4842
I2585
aS'1'
aS'45'
p4843
aa(lp4844
I2767
aS'4'
aS'91'
p4845
aa(lp4846
I2772
aS'10'
p4847
aS'81'
p4848
aa(lp4849
I2772
aS'89'
p4850
aS'163'
p4851
aa(lp4852
I2835
aS'96'
p4853
aS'142'
p4854
aa(lp4855
I3071
aS'1'
aS'121'
p4856
aa(lp4857
I3544
aS'2'
aS'107'
p4858
aa(lp4859
I3545
aS'7'
aS'100'
p4860
aa(lp4861
I3547
aS'8'
aS'68'
p4862
aa(lp4863
I3548
aS'9'
aS'75'
p4864
aa(lp4865
I3549
aS'46'
p4866
aS'99'
p4867
aa(lp4868
I3550
aS'8'
aS'87'
p4869
aa(lp4870
I3553
aS'19'
p4871
aS'67'
p4872
aa(lp4873
I3809
aS'86'
p4874
aS'156'
p4875
aa(lp4876
I4161
aS'3'
aS'117'
p4877
aa(lp4878
I4162
aS'28'
p4879
aS'143'
p4880
aa(lp4881
I4492
aS'1'
aS'59'
p4882
aa(lp4883
I4654
aS'224'
p4884
aS'292'
p4885
aa(lp4886
I4655
aS'297'
p4887
aS'391'
p4888
aa(lp4889
I5041
aS'4'
aS'128'
p4890
aa(lp4891
I5042
aS'9'
aS'129'
p4892
aa(lp4893
I5050
aS'2'
aS'148'
p4894
aa(lp4895
I5273
aS'124'
p4896
aS'248'
p4897
aa(lp4898
I5434
aS'1'
aS'56'
p4899
aa(lp4900
I5516
aS'23'
p4901
aS'79'
p4902
aa(lp4903
I5517
aS'13'
p4904
aS'198'
p4905
aa(lp4906
I5519
aS'28'
p4907
aS'220'
p4908
aa(lp4909
I5520
aS'27'
p4910
aS'182'
p4911
aa(lp4912
I5521
aS'41'
p4913
aS'116'
p4914
aa(lp4915
I5532
aS'5'
aS'122'
p4916
aa(lp4917
I5533
aS'6'
aS'81'
p4918
aa(lp4919
I5683
aS'8'
aS'66'
p4920
aa(lp4921
I5991
aS'2'
aS'61'
p4922
aa(lp4923
I5992
aS'4'
aS'60'
p4924
aa(lp4925
I5995
aS'2'
aS'108'
p4926
aa(lp4927
I5996
aS'5'
aS'108'
p4928
aa(lp4929
I5997
aS'9'
aS'92'
p4930
aa(lp4931
I6226
aS'9'
aS'200'
p4932
aa(lp4933
I6228
aS'1'
aS'96'
p4934
aa(lp4935
I6345
aS'37'
p4936
aS'110'
p4937
aa(lp4938
I6403
aS'18'
p4939
aS'127'
p4940
aa(lp4941
I6412
aS'2'
aS'79'
p4942
aa(lp4943
I7148
aS'2'
aS'83'
p4944
aa(lp4945
I7507
aS'3'
aS'52'
p4946
aasS'4BRZ'
p4947
(lp4948
(lp4949
I885
aS'29'
p4950
aS'277'
p4951
aasS'1HUO'
p4952
(lp4953
(lp4954
I1544
aS'269'
p4955
aS'333'
p4956
aa(lp4957
I1670
aS'15'
p4958
aS'77'
p4959
aa(lp4960
I4372
aS'100'
p4961
aS'147'
p4962
aa(lp4963
I6537
aS'149'
p4964
aS'262'
p4965
aasS'3UPQ'
p4966
(lp4967
(lp4968
I1544
aS'502'
p4969
aS'574'
p4970
aa(lp4971
I1670
aS'253'
p4972
aS'318'
p4973
aa(lp4974
I4372
aS'337'
p4975
aS'383'
p4976
aa(lp4977
I6537
aS'386'
p4978
aS'495'
p4979
aasS'4UBC'
p4980
(lp4981
(lp4982
I1544
aS'269'
p4983
aS'333'
p4984
aa(lp4985
I1670
aS'15'
p4986
aS'77'
p4987
aa(lp4988
I4372
aS'100'
p4989
aS'147'
p4990
aa(lp4991
I6537
aS'149'
p4992
aS'262'
p4993
aasS'4UBB'
p4994
(lp4995
(lp4996
I1544
aS'269'
p4997
aS'333'
p4998
aa(lp4999
I1670
aS'15'
p5000
aS'77'
p5001
aa(lp5002
I4372
aS'100'
p5003
aS'147'
p5004
aa(lp5005
I6537
aS'149'
p5006
aS'262'
p5007
aasS'1JAJ'
p5008
(lp5009
(lp5010
I1544
aS'112'
p5011
aS'173'
p5012
aasS'1HUZ'
p5013
(lp5014
(lp5015
I1544
aS'269'
p5016
aS'333'
p5017
aa(lp5018
I1670
aS'15'
p5019
aS'77'
p5020
aa(lp5021
I4372
aS'100'
p5022
aS'147'
p5023
aa(lp5024
I6537
aS'149'
p5025
aS'262'
p5026
aasS'1VA4'
p5027
(lp5028
(lp5029
I885
aS'20'
p5030
aS'252'
p5031
aasS'2PUJ'
p5032
(lp5033
(lp5034
I885
aS'36'
p5035
aS'142'
p5036
aa(lp5037
I885
aS'174'
p5038
aS'271'
p5039
aasS'4NMW'
p5040
(lp5041
(lp5042
I885
aS'15'
p5043
aS'242'
p5044
aasS'4R63'
p5045
(lp5046
(lp5047
I1544
aS'269'
p5048
aS'333'
p5049
aa(lp5050
I1670
aS'15'
p5051
aS'77'
p5052
aa(lp5053
I4372
aS'100'
p5054
aS'147'
p5055
aa(lp5056
I6537
aS'149'
p5057
aS'262'
p5058
aasS'4R64'
p5059
(lp5060
(lp5061
I1544
aS'269'
p5062
aS'333'
p5063
aa(lp5064
I1670
aS'15'
p5065
aS'77'
p5066
aa(lp5067
I4372
aS'100'
p5068
aS'147'
p5069
aa(lp5070
I6537
aS'149'
p5071
aS'262'
p5072
aasS'4R65'
p5073
(lp5074
(lp5075
I1544
aS'269'
p5076
aS'333'
p5077
aa(lp5078
I1670
aS'15'
p5079
aS'77'
p5080
aa(lp5081
I4372
aS'100'
p5082
aS'147'
p5083
aa(lp5084
I6537
aS'149'
p5085
aS'262'
p5086
aasS'4R66'
p5087
(lp5088
(lp5089
I1544
aS'269'
p5090
aS'333'
p5091
aa(lp5092
I1670
aS'15'
p5093
aS'77'
p5094
aa(lp5095
I4372
aS'100'
p5096
aS'147'
p5097
aa(lp5098
I6537
aS'149'
p5099
aS'262'
p5100
aasS'1RPL'
p5101
(lp5102
(lp5103
I1544
aS'269'
p5104
aS'333'
p5105
aa(lp5106
I4372
aS'100'
p5107
aS'147'
p5108
aa(lp5109
I6537
aS'149'
p5110
aS'262'
p5111
aasS'4X6X'
p5112
(lp5113
(lp5114
I885
aS'259'
p5115
aS'531'
p5116
aasS'4X6Y'
p5117
(lp5118
(lp5119
I885
aS'259'
p5120
aS'531'
p5121
aasS'4KVB'
p5122
(lp5123
(lp5124
I143
aS'10'
p5125
aS'223'
p5126
aa(lp5127
I145
aS'3'
aS'98'
p5128
aa(lp5129
I147
aS'6'
aS'70'
p5130
aa(lp5131
I148
aS'3'
aS'92'
p5132
aa(lp5133
I2446
aS'120'
p5134
aS'202'
p5135
aa(lp5136
I2835
aS'100'
p5137
aS'146'
p5138
aa(lp5139
I2994
aS'2'
aS'25'
p5140
aa(lp5141
I3544
aS'3'
aS'109'
p5142
aa(lp5143
I3545
aS'5'
aS'99'
p5144
aa(lp5145
I3547
aS'8'
aS'67'
p5146
aa(lp5147
I3549
aS'9'
aS'60'
p5148
aa(lp5149
I3550
aS'8'
aS'88'
p5150
aa(lp5151
I3553
aS'33'
p5152
aS'79'
p5153
aa(lp5154
I3809
aS'82'
p5155
aS'152'
p5156
aa(lp5157
I5041
aS'4'
aS'138'
p5158
aa(lp5159
I5042
aS'8'
aS'128'
p5160
aa(lp5161
I5050
aS'2'
aS'149'
p5162
aa(lp5163
I5532
aS'6'
aS'126'
p5164
aa(lp5165
I6345
aS'39'
p5166
aS'110'
p5167
aa(lp5168
I6403
aS'17'
p5169
aS'126'
p5170
aa(lp5171
I6412
aS'3'
aS'81'
p5172
aa(lp5173
I7148
aS'11'
p5174
aS'88'
p5175
aasS'4PPX'
p5176
(lp5177
(lp5178
I1544
aS'269'
p5179
aS'333'
p5180
aa(lp5181
I1670
aS'15'
p5182
aS'77'
p5183
aa(lp5184
I4372
aS'100'
p5185
aS'147'
p5186
aa(lp5187
I6537
aS'149'
p5188
aS'262'
p5189
aasS'1QGE'
p5190
(lp5191
(lp5192
I885
aS'9'
aS'216'
p5193
aasS'4NM1'
p5194
(lp5195
(lp5196
I1544
aS'269'
p5197
aS'333'
p5198
aa(lp5199
I1670
aS'15'
p5200
aS'77'
p5201
aa(lp5202
I4372
aS'100'
p5203
aS'147'
p5204
aa(lp5205
I6537
aS'149'
p5206
aS'262'
p5207
aasS'4QFF'
p5208
(lp5209
(lp5210
I885
aS'25'
p5211
aS'263'
p5212
aa(lp5213
I1245
aS'286'
p5214
aS'440'
p5215
aasS'3FWH'
p5216
(lp5217
(lp5218
I885
aS'34'
p5219
aS'158'
p5220
aasS'5AI0'
p5221
(lp5222
(lp5223
I885
aS'259'
p5224
aS'531'
p5225
aa(lp5226
I2190
aS'7'
aS'203'
p5227
aasS'4M9J'
p5228
(lp5229
(lp5230
I1544
aS'269'
p5231
aS'333'
p5232
aa(lp5233
I1670
aS'15'
p5234
aS'77'
p5235
aa(lp5236
I4372
aS'100'
p5237
aS'147'
p5238
aa(lp5239
I6537
aS'149'
p5240
aS'262'
p5241
aasS'2PU7'
p5242
(lp5243
(lp5244
I885
aS'36'
p5245
aS'142'
p5246
aa(lp5247
I885
aS'174'
p5248
aS'271'
p5249
aasS'4V6V'
p5250
(lp5251
(lp5252
I143
aS'8'
aS'223'
p5253
aa(lp5254
I145
aS'2'
aS'94'
p5255
aa(lp5256
I147
aS'10'
p5257
aS'73'
p5258
aa(lp5259
I148
aS'3'
aS'91'
p5260
aa(lp5261
I1731
aS'20'
p5262
aS'116'
p5263
aa(lp5264
I1732
aS'4'
aS'131'
p5265
aa(lp5266
I1733
aS'71'
p5267
aS'139'
p5268
aa(lp5269
I1734
aS'4'
aS'100'
p5270
aa(lp5271
I1735
aS'15'
p5272
aS'138'
p5273
aa(lp5274
I1739
aS'2'
aS'112'
p5275
aa(lp5276
I1787
aS'83'
p5277
aS'176'
p5278
aa(lp5279
I2019
aS'6'
aS'52'
p5280
aa(lp5281
I2020
aS'1'
aS'65'
p5282
aa(lp5283
I2021
aS'4'
aS'53'
p5284
aa(lp5285
I2023
aS'1'
aS'38'
p5286
aa(lp5287
I2024
aS'1'
aS'44'
p5288
aa(lp5289
I2417
aS'7'
aS'36'
p5290
aa(lp5291
I2446
aS'119'
p5292
aS'201'
p5293
aa(lp5294
I2577
aS'64'
p5295
aS'148'
p5296
aa(lp5297
I2585
aS'1'
aS'45'
p5298
aa(lp5299
I2767
aS'4'
aS'91'
p5300
aa(lp5301
I2772
aS'10'
p5302
aS'81'
p5303
aa(lp5304
I2772
aS'89'
p5305
aS'163'
p5306
aa(lp5307
I2835
aS'96'
p5308
aS'142'
p5309
aa(lp5310
I3071
aS'1'
aS'123'
p5311
aa(lp5312
I3544
aS'2'
aS'107'
p5313
aa(lp5314
I3545
aS'7'
aS'100'
p5315
aa(lp5316
I3547
aS'8'
aS'68'
p5317
aa(lp5318
I3548
aS'9'
aS'75'
p5319
aa(lp5320
I3549
aS'46'
p5321
aS'99'
p5322
aa(lp5323
I3550
aS'8'
aS'87'
p5324
aa(lp5325
I3553
aS'18'
p5326
aS'67'
p5327
aa(lp5328
I3809
aS'86'
p5329
aS'156'
p5330
aa(lp5331
I4161
aS'2'
aS'117'
p5332
aa(lp5333
I4162
aS'28'
p5334
aS'143'
p5335
aa(lp5336
I4492
aS'1'
aS'59'
p5337
aa(lp5338
I5041
aS'4'
aS'128'
p5339
aa(lp5340
I5042
aS'9'
aS'129'
p5341
aa(lp5342
I5050
aS'1'
aS'148'
p5343
aa(lp5344
I5265
aS'416'
p5345
aS'531'
p5346
aa(lp5347
I5271
aS'342'
p5348
aS'414'
p5349
aa(lp5350
I5273
aS'124'
p5351
aS'248'
p5352
aa(lp5353
I5434
aS'1'
aS'56'
p5354
aa(lp5355
I5516
aS'23'
p5356
aS'79'
p5357
aa(lp5358
I5517
aS'13'
p5359
aS'198'
p5360
aa(lp5361
I5519
aS'28'
p5362
aS'220'
p5363
aa(lp5364
I5520
aS'27'
p5365
aS'182'
p5366
aa(lp5367
I5521
aS'41'
p5368
aS'116'
p5369
aa(lp5370
I5532
aS'5'
aS'122'
p5371
aa(lp5372
I5533
aS'1'
aS'81'
p5373
aa(lp5374
I5589
aS'534'
p5375
aS'615'
p5376
aa(lp5377
I5683
aS'8'
aS'66'
p5378
aa(lp5379
I5991
aS'2'
aS'61'
p5380
aa(lp5381
I5992
aS'4'
aS'60'
p5382
aa(lp5383
I5995
aS'2'
aS'108'
p5384
aa(lp5385
I5996
aS'5'
aS'108'
p5386
aa(lp5387
I5997
aS'9'
aS'95'
p5388
aa(lp5389
I6226
aS'2'
aS'237'
p5390
aa(lp5391
I6228
aS'1'
aS'96'
p5392
aa(lp5393
I6345
aS'37'
p5394
aS'110'
p5395
aa(lp5396
I6403
aS'18'
p5397
aS'127'
p5398
aa(lp5399
I6412
aS'2'
aS'82'
p5400
aa(lp5401
I7148
aS'1'
aS'83'
p5402
aa(lp5403
I7507
aS'3'
aS'55'
p5404
aasS'1EK2'
p5405
(lp5406
(lp5407
I885
aS'257'
p5408
aS'530'
p5409
aa(lp5410
I2190
aS'90'
p5411
aS'203'
p5412
aasS'1EK1'
p5413
(lp5414
(lp5415
I885
aS'257'
p5416
aS'530'
p5417
aa(lp5418
I2190
aS'90'
p5419
aS'203'
p5420
aasS'4V6L'
p5421
(lp5422
(lp5423
I143
aS'8'
aS'223'
p5424
aa(lp5425
I145
aS'2'
aS'94'
p5426
aa(lp5427
I147
aS'10'
p5428
aS'73'
p5429
aa(lp5430
I148
aS'3'
aS'91'
p5431
aa(lp5432
I1731
aS'20'
p5433
aS'116'
p5434
aa(lp5435
I1732
aS'4'
aS'131'
p5436
aa(lp5437
I1733
aS'71'
p5438
aS'139'
p5439
aa(lp5440
I1735
aS'15'
p5441
aS'138'
p5442
aa(lp5443
I1739
aS'2'
aS'112'
p5444
aa(lp5445
I1787
aS'83'
p5446
aS'176'
p5447
aa(lp5448
I2019
aS'6'
aS'52'
p5449
aa(lp5450
I2020
aS'1'
aS'65'
p5451
aa(lp5452
I2021
aS'4'
aS'53'
p5453
aa(lp5454
I2023
aS'1'
aS'38'
p5455
aa(lp5456
I2024
aS'1'
aS'44'
p5457
aa(lp5458
I2417
aS'7'
aS'36'
p5459
aa(lp5460
I2446
aS'119'
p5461
aS'201'
p5462
aa(lp5463
I2577
aS'64'
p5464
aS'148'
p5465
aa(lp5466
I2585
aS'1'
aS'45'
p5467
aa(lp5468
I2767
aS'4'
aS'91'
p5469
aa(lp5470
I2772
aS'10'
p5471
aS'81'
p5472
aa(lp5473
I2772
aS'89'
p5474
aS'163'
p5475
aa(lp5476
I2835
aS'96'
p5477
aS'142'
p5478
aa(lp5479
I3071
aS'1'
aS'123'
p5480
aa(lp5481
I3544
aS'2'
aS'107'
p5482
aa(lp5483
I3545
aS'7'
aS'100'
p5484
aa(lp5485
I3547
aS'8'
aS'68'
p5486
aa(lp5487
I3548
aS'9'
aS'75'
p5488
aa(lp5489
I3549
aS'46'
p5490
aS'99'
p5491
aa(lp5492
I3550
aS'8'
aS'87'
p5493
aa(lp5494
I3553
aS'18'
p5495
aS'67'
p5496
aa(lp5497
I3809
aS'86'
p5498
aS'156'
p5499
aa(lp5500
I4161
aS'2'
aS'117'
p5501
aa(lp5502
I4162
aS'28'
p5503
aS'143'
p5504
aa(lp5505
I4492
aS'1'
aS'59'
p5506
aa(lp5507
I4654
aS'224'
p5508
aS'292'
p5509
aa(lp5510
I4655
aS'297'
p5511
aS'391'
p5512
aa(lp5513
I5041
aS'4'
aS'128'
p5514
aa(lp5515
I5042
aS'9'
aS'129'
p5516
aa(lp5517
I5050
aS'1'
aS'148'
p5518
aa(lp5519
I5273
aS'124'
p5520
aS'248'
p5521
aa(lp5522
I5434
aS'1'
aS'56'
p5523
aa(lp5524
I5516
aS'23'
p5525
aS'79'
p5526
aa(lp5527
I5517
aS'13'
p5528
aS'198'
p5529
aa(lp5530
I5519
aS'28'
p5531
aS'220'
p5532
aa(lp5533
I5520
aS'27'
p5534
aS'182'
p5535
aa(lp5536
I5521
aS'41'
p5537
aS'116'
p5538
aa(lp5539
I5532
aS'5'
aS'122'
p5540
aa(lp5541
I5533
aS'1'
aS'81'
p5542
aa(lp5543
I5683
aS'8'
aS'66'
p5544
aa(lp5545
I5991
aS'2'
aS'61'
p5546
aa(lp5547
I5992
aS'4'
aS'60'
p5548
aa(lp5549
I5995
aS'2'
aS'108'
p5550
aa(lp5551
I5996
aS'5'
aS'108'
p5552
aa(lp5553
I5997
aS'9'
aS'95'
p5554
aa(lp5555
I6226
aS'9'
aS'200'
p5556
aa(lp5557
I6228
aS'1'
aS'96'
p5558
aa(lp5559
I6345
aS'37'
p5560
aS'110'
p5561
aa(lp5562
I6403
aS'18'
p5563
aS'127'
p5564
aa(lp5565
I6412
aS'2'
aS'82'
p5566
aa(lp5567
I7148
aS'1'
aS'83'
p5568
aa(lp5569
I7507
aS'3'
aS'55'
p5570
aasS'3LIP'
p5571
(lp5572
(lp5573
I885
aS'10'
p5574
aS'252'
p5575
aasS'4V6K'
p5576
(lp5577
(lp5578
I143
aS'8'
aS'223'
p5579
aa(lp5580
I145
aS'2'
aS'94'
p5581
aa(lp5582
I147
aS'10'
p5583
aS'73'
p5584
aa(lp5585
I148
aS'3'
aS'91'
p5586
aa(lp5587
I1731
aS'20'
p5588
aS'116'
p5589
aa(lp5590
I1732
aS'4'
aS'131'
p5591
aa(lp5592
I1733
aS'71'
p5593
aS'139'
p5594
aa(lp5595
I1735
aS'15'
p5596
aS'138'
p5597
aa(lp5598
I1739
aS'2'
aS'112'
p5599
aa(lp5600
I1787
aS'83'
p5601
aS'176'
p5602
aa(lp5603
I2019
aS'6'
aS'52'
p5604
aa(lp5605
I2020
aS'1'
aS'65'
p5606
aa(lp5607
I2021
aS'4'
aS'53'
p5608
aa(lp5609
I2023
aS'1'
aS'38'
p5610
aa(lp5611
I2024
aS'1'
aS'44'
p5612
aa(lp5613
I2417
aS'7'
aS'36'
p5614
aa(lp5615
I2446
aS'119'
p5616
aS'201'
p5617
aa(lp5618
I2577
aS'64'
p5619
aS'148'
p5620
aa(lp5621
I2585
aS'1'
aS'45'
p5622
aa(lp5623
I2767
aS'4'
aS'91'
p5624
aa(lp5625
I2772
aS'10'
p5626
aS'81'
p5627
aa(lp5628
I2772
aS'89'
p5629
aS'163'
p5630
aa(lp5631
I2835
aS'96'
p5632
aS'142'
p5633
aa(lp5634
I3071
aS'1'
aS'123'
p5635
aa(lp5636
I3544
aS'2'
aS'107'
p5637
aa(lp5638
I3545
aS'7'
aS'100'
p5639
aa(lp5640
I3547
aS'8'
aS'68'
p5641
aa(lp5642
I3548
aS'9'
aS'75'
p5643
aa(lp5644
I3549
aS'46'
p5645
aS'99'
p5646
aa(lp5647
I3550
aS'8'
aS'87'
p5648
aa(lp5649
I3553
aS'18'
p5650
aS'67'
p5651
aa(lp5652
I3809
aS'86'
p5653
aS'156'
p5654
aa(lp5655
I4161
aS'2'
aS'117'
p5656
aa(lp5657
I4162
aS'28'
p5658
aS'143'
p5659
aa(lp5660
I4492
aS'1'
aS'59'
p5661
aa(lp5662
I4654
aS'224'
p5663
aS'292'
p5664
aa(lp5665
I4655
aS'297'
p5666
aS'391'
p5667
aa(lp5668
I5041
aS'4'
aS'128'
p5669
aa(lp5670
I5042
aS'9'
aS'129'
p5671
aa(lp5672
I5050
aS'1'
aS'148'
p5673
aa(lp5674
I5273
aS'124'
p5675
aS'248'
p5676
aa(lp5677
I5434
aS'1'
aS'56'
p5678
aa(lp5679
I5516
aS'23'
p5680
aS'79'
p5681
aa(lp5682
I5517
aS'13'
p5683
aS'198'
p5684
aa(lp5685
I5519
aS'28'
p5686
aS'220'
p5687
aa(lp5688
I5520
aS'27'
p5689
aS'182'
p5690
aa(lp5691
I5521
aS'41'
p5692
aS'116'
p5693
aa(lp5694
I5532
aS'5'
aS'122'
p5695
aa(lp5696
I5533
aS'1'
aS'81'
p5697
aa(lp5698
I5683
aS'8'
aS'66'
p5699
aa(lp5700
I5991
aS'2'
aS'61'
p5701
aa(lp5702
I5992
aS'4'
aS'60'
p5703
aa(lp5704
I5995
aS'2'
aS'108'
p5705
aa(lp5706
I5996
aS'5'
aS'108'
p5707
aa(lp5708
I5997
aS'9'
aS'95'
p5709
aa(lp5710
I6226
aS'9'
aS'200'
p5711
aa(lp5712
I6228
aS'1'
aS'96'
p5713
aa(lp5714
I6345
aS'37'
p5715
aS'110'
p5716
aa(lp5717
I6403
aS'18'
p5718
aS'127'
p5719
aa(lp5720
I6412
aS'2'
aS'82'
p5721
aa(lp5722
I7148
aS'1'
aS'83'
p5723
aa(lp5724
I7507
aS'3'
aS'55'
p5725
aasS'4UB5'
p5726
(lp5727
(lp5728
I1544
aS'269'
p5729
aS'333'
p5730
aa(lp5731
I1670
aS'15'
p5732
aS'77'
p5733
aa(lp5734
I4372
aS'100'
p5735
aS'147'
p5736
aa(lp5737
I6537
aS'149'
p5738
aS'262'
p5739
aasS'4UB4'
p5740
(lp5741
(lp5742
I1544
aS'269'
p5743
aS'333'
p5744
aa(lp5745
I1670
aS'15'
p5746
aS'77'
p5747
aa(lp5748
I4372
aS'100'
p5749
aS'147'
p5750
aa(lp5751
I6537
aS'149'
p5752
aS'262'
p5753
aasS'4UB3'
p5754
(lp5755
(lp5756
I1544
aS'269'
p5757
aS'333'
p5758
aa(lp5759
I1670
aS'15'
p5760
aS'77'
p5761
aa(lp5762
I4372
aS'100'
p5763
aS'147'
p5764
aa(lp5765
I6537
aS'149'
p5766
aS'262'
p5767
aasS'4I2I'
p5768
(lp5769
(lp5770
I1544
aS'446'
p5771
aS'509'
p5772
aa(lp5773
I1670
aS'165'
p5774
aS'230'
p5775
aa(lp5776
I4372
aS'250'
p5777
aS'299'
p5778
aa(lp5779
I6537
aS'305'
p5780
aS'376'
p5781
aasS'4UB1'
p5782
(lp5783
(lp5784
I1544
aS'269'
p5785
aS'332'
p5786
aa(lp5787
I1670
aS'15'
p5788
aS'77'
p5789
aa(lp5790
I4372
aS'100'
p5791
aS'147'
p5792
aa(lp5793
I6537
aS'149'
p5794
aS'262'
p5795
aasS'4I2H'
p5796
(lp5797
(lp5798
I1544
aS'446'
p5799
aS'509'
p5800
aa(lp5801
I1670
aS'165'
p5802
aS'230'
p5803
aa(lp5804
I4372
aS'250'
p5805
aS'299'
p5806
aa(lp5807
I6537
aS'305'
p5808
aS'376'
p5809
aasS'6YAS'
p5810
(lp5811
(lp5812
I885
aS'5'
aS'241'
p5813
aasS'1A88'
p5814
(lp5815
(lp5816
I885
aS'23'
p5817
aS'253'
p5818
aasS'4IQV'
p5819
(lp5820
(lp5821
I1544
aS'446'
p5822
aS'509'
p5823
aa(lp5824
I1670
aS'165'
p5825
aS'230'
p5826
aa(lp5827
I4372
aS'250'
p5828
aS'299'
p5829
aa(lp5830
I6537
aS'305'
p5831
aS'376'
p5832
aasS'4IQW'
p5833
(lp5834
(lp5835
I1544
aS'446'
p5836
aS'509'
p5837
aa(lp5838
I1670
aS'165'
p5839
aS'230'
p5840
aa(lp5841
I4372
aS'250'
p5842
aS'299'
p5843
aa(lp5844
I6537
aS'305'
p5845
aS'376'
p5846
aasS'4IQT'
p5847
(lp5848
(lp5849
I1544
aS'446'
p5850
aS'509'
p5851
aa(lp5852
I1670
aS'165'
p5853
aS'230'
p5854
aa(lp5855
I4372
aS'250'
p5856
aS'299'
p5857
aa(lp5858
I6537
aS'305'
p5859
aS'376'
p5860
aasS'4IQU'
p5861
(lp5862
(lp5863
I1544
aS'446'
p5864
aS'509'
p5865
aa(lp5866
I1670
aS'165'
p5867
aS'230'
p5868
aa(lp5869
I4372
aS'250'
p5870
aS'299'
p5871
aa(lp5872
I6537
aS'305'
p5873
aS'376'
p5874
aasS'3OGU'
p5875
(lp5876
(lp5877
I1544
aS'269'
p5878
aS'333'
p5879
aa(lp5880
I1670
aS'15'
p5881
aS'77'
p5882
aa(lp5883
I4372
aS'98'
p5884
aS'147'
p5885
aa(lp5886
I6537
aS'149'
p5887
aS'262'
p5888
aasS'4J03'
p5889
(lp5890
(lp5891
I885
aS'259'
p5892
aS'531'
p5893
aa(lp5894
I2190
aS'7'
aS'203'
p5895
aasS'4C4Z'
p5896
(lp5897
(lp5898
I885
aS'259'
p5899
aS'531'
p5900
aasS'4C4Y'
p5901
(lp5902
(lp5903
I885
aS'259'
p5904
aS'531'
p5905
aasS'4C4X'
p5906
(lp5907
(lp5908
I885
aS'259'
p5909
aS'531'
p5910
aasS'4ADV'
p5911
(lp5912
(lp5913
I143
aS'8'
aS'223'
p5914
aa(lp5915
I145
aS'2'
aS'94'
p5916
aa(lp5917
I147
aS'10'
p5918
aS'73'
p5919
aa(lp5920
I148
aS'3'
aS'91'
p5921
aa(lp5922
I310
aS'17'
p5923
aS'265'
p5924
aa(lp5925
I2446
aS'119'
p5926
aS'201'
p5927
aa(lp5928
I2835
aS'96'
p5929
aS'142'
p5930
aa(lp5931
I3544
aS'2'
aS'107'
p5932
aa(lp5933
I3545
aS'7'
aS'100'
p5934
aa(lp5935
I3547
aS'8'
aS'68'
p5936
aa(lp5937
I3548
aS'9'
aS'75'
p5938
aa(lp5939
I3549
aS'46'
p5940
aS'99'
p5941
aa(lp5942
I3550
aS'8'
aS'87'
p5943
aa(lp5944
I3553
aS'19'
p5945
aS'67'
p5946
aa(lp5947
I3809
aS'86'
p5948
aS'156'
p5949
aa(lp5950
I5041
aS'4'
aS'128'
p5951
aa(lp5952
I5042
aS'9'
aS'129'
p5953
aa(lp5954
I5050
aS'2'
aS'148'
p5955
aa(lp5956
I5532
aS'5'
aS'122'
p5957
aa(lp5958
I6345
aS'37'
p5959
aS'110'
p5960
aa(lp5961
I6403
aS'18'
p5962
aS'127'
p5963
aa(lp5964
I6412
aS'2'
aS'80'
p5965
aa(lp5966
I7148
aS'2'
aS'83'
p5967
aa(lp5968
I7507
aS'3'
aS'53'
p5969
aasS'1G42'
p5970
(lp5971
(lp5972
I885
aS'31'
p5973
aS'155'
p5974
aasS'4M9G'
p5975
(lp5976
(lp5977
I1544
aS'269'
p5978
aS'333'
p5979
aa(lp5980
I1670
aS'15'
p5981
aS'77'
p5982
aa(lp5983
I4372
aS'100'
p5984
aS'147'
p5985
aa(lp5986
I6537
aS'149'
p5987
aS'262'
p5988
aasS'5ALN'
p5989
(lp5990
(lp5991
I885
aS'259'
p5992
aS'531'
p5993
aa(lp5994
I2190
aS'7'
aS'203'
p5995
aasS'3C2K'
p5996
(lp5997
(lp5998
I1544
aS'269'
p5999
aS'333'
p6000
aa(lp6001
I1670
aS'15'
p6002
aS'77'
p6003
aa(lp6004
I4372
aS'100'
p6005
aS'147'
p6006
aa(lp6007
I6537
aS'149'
p6008
aS'262'
p6009
aasS'3C2L'
p6010
(lp6011
(lp6012
I1544
aS'269'
p6013
aS'333'
p6014
aa(lp6015
I1670
aS'15'
p6016
aS'77'
p6017
aa(lp6018
I4372
aS'100'
p6019
aS'147'
p6020
aa(lp6021
I6537
aS'149'
p6022
aS'262'
p6023
aasS'5ALL'
p6024
(lp6025
(lp6026
I885
aS'259'
p6027
aS'531'
p6028
aa(lp6029
I2190
aS'7'
aS'203'
p6030
aasS'3ANT'
p6031
(lp6032
(lp6033
I885
aS'259'
p6034
aS'531'
p6035
aasS'3ANS'
p6036
(lp6037
(lp6038
I885
aS'259'
p6039
aS'531'
p6040
aasS'4CFS'
p6041
(lp6042
(lp6043
I885
aS'28'
p6044
aS'150'
p6045
aasS'1QJ4'
p6046
(lp6047
(lp6048
I885
aS'5'
aS'241'
p6049
aasS'1BPE'
p6050
(lp6051
(lp6052
I1544
aS'269'
p6053
aS'333'
p6054
aa(lp6055
I1670
aS'15'
p6056
aS'77'
p6057
aa(lp6058
I4372
aS'100'
p6059
aS'147'
p6060
aa(lp6061
I6537
aS'149'
p6062
aS'262'
p6063
aasS'1BPD'
p6064
(lp6065
(lp6066
I1544
aS'269'
p6067
aS'333'
p6068
aa(lp6069
I1670
aS'15'
p6070
aS'77'
p6071
aa(lp6072
I4372
aS'100'
p6073
aS'147'
p6074
aa(lp6075
I6537
aS'149'
p6076
aS'262'
p6077
aasS'1BPB'
p6078
(lp6079
(lp6080
I1544
aS'269'
p6081
aS'333'
p6082
aa(lp6083
I4372
aS'100'
p6084
aS'147'
p6085
aa(lp6086
I6537
aS'149'
p6087
aS'262'
p6088
aasS'1ZOI'
p6089
(lp6090
(lp6091
I885
aS'23'
p6092
aS'256'
p6093
aasS'1BPY'
p6094
(lp6095
(lp6096
I1544
aS'269'
p6097
aS'333'
p6098
aa(lp6099
I1670
aS'15'
p6100
aS'77'
p6101
aa(lp6102
I4372
aS'100'
p6103
aS'147'
p6104
aa(lp6105
I6537
aS'149'
p6106
aS'262'
p6107
aasS'1BPX'
p6108
(lp6109
(lp6110
I1544
aS'269'
p6111
aS'333'
p6112
aa(lp6113
I1670
aS'15'
p6114
aS'77'
p6115
aa(lp6116
I4372
aS'100'
p6117
aS'147'
p6118
aa(lp6119
I6537
aS'149'
p6120
aS'262'
p6121
aasS'1BPZ'
p6122
(lp6123
(lp6124
I1544
aS'269'
p6125
aS'333'
p6126
aa(lp6127
I1670
aS'15'
p6128
aS'77'
p6129
aa(lp6130
I4372
aS'100'
p6131
aS'147'
p6132
aa(lp6133
I6537
aS'149'
p6134
aS'262'
p6135
aasS'4IQ4'
p6136
(lp6137
(lp6138
I885
aS'25'
p6139
aS'263'
p6140
aa(lp6141
I1245
aS'286'
p6142
aS'440'
p6143
aasS'1A8U'
p6144
(lp6145
(lp6146
I885
aS'25'
p6147
aS'263'
p6148
aasS'1A8S'
p6149
(lp6150
(lp6151
I885
aS'21'
p6152
aS'253'
p6153
aasS'1A8Q'
p6154
(lp6155
(lp6156
I885
aS'21'
p6157
aS'254'
p6158
aasS'3V7J'
p6159
(lp6160
(lp6161
I1544
aS'269'
p6162
aS'333'
p6163
aa(lp6164
I1670
aS'15'
p6165
aS'77'
p6166
aa(lp6167
I4372
aS'100'
p6168
aS'147'
p6169
aa(lp6170
I6537
aS'149'
p6171
aS'262'
p6172
aasS'1UKB'
p6173
(lp6174
(lp6175
I885
aS'27'
p6176
aS'257'
p6177
aa(lp6178
I885
aS'27'
p6179
aS'257'
p6180
aasS'1UKA'
p6181
(lp6182
(lp6183
I885
aS'27'
p6184
aS'257'
p6185
aasS'1YS2'
p6186
(lp6187
(lp6188
I885
aS'10'
p6189
aS'222'
p6190
aasS'1YS1'
p6191
(lp6192
(lp6193
I885
aS'10'
p6194
aS'222'
p6195
aasS'1CR6'
p6196
(lp6197
(lp6198
I885
aS'257'
p6199
aS'530'
p6200
aa(lp6201
I2190
aS'90'
p6202
aS'203'
p6203
aasS'4F60'
p6204
(lp6205
(lp6206
I885
aS'34'
p6207
aS'158'
p6208
aasS'3J9Y'
p6209
(lp6210
(lp6211
I143
aS'8'
aS'223'
p6212
aa(lp6213
I143
aS'8'
aS'223'
p6214
aa(lp6215
I145
aS'2'
aS'94'
p6216
aa(lp6217
I145
aS'2'
aS'94'
p6218
aa(lp6219
I147
aS'10'
p6220
aS'73'
p6221
aa(lp6222
I147
aS'10'
p6223
aS'73'
p6224
aa(lp6225
I148
aS'3'
aS'91'
p6226
aa(lp6227
I148
aS'3'
aS'91'
p6228
aa(lp6229
I1731
aS'20'
p6230
aS'116'
p6231
aa(lp6232
I1731
aS'20'
p6233
aS'116'
p6234
aa(lp6235
I1732
aS'4'
aS'131'
p6236
aa(lp6237
I1732
aS'4'
aS'131'
p6238
aa(lp6239
I1733
aS'71'
p6240
aS'139'
p6241
aa(lp6242
I1733
aS'71'
p6243
aS'139'
p6244
aa(lp6245
I1734
aS'5'
aS'101'
p6246
aa(lp6247
I1734
aS'5'
aS'101'
p6248
aa(lp6249
I1735
aS'15'
p6250
aS'138'
p6251
aa(lp6252
I1735
aS'15'
p6253
aS'138'
p6254
aa(lp6255
I1736
aS'54'
p6256
aS'120'
p6257
aa(lp6258
I1736
aS'54'
p6259
aS'120'
p6260
aa(lp6261
I1739
aS'2'
aS'112'
p6262
aa(lp6263
I1739
aS'2'
aS'112'
p6264
aa(lp6265
I1787
aS'83'
p6266
aS'176'
p6267
aa(lp6268
I1787
aS'83'
p6269
aS'176'
p6270
aa(lp6271
I2019
aS'6'
aS'52'
p6272
aa(lp6273
I2019
aS'6'
aS'52'
p6274
aa(lp6275
I2020
aS'1'
aS'65'
p6276
aa(lp6277
I2020
aS'1'
aS'65'
p6278
aa(lp6279
I2021
aS'4'
aS'53'
p6280
aa(lp6281
I2021
aS'4'
aS'53'
p6282
aa(lp6283
I2023
aS'1'
aS'38'
p6284
aa(lp6285
I2023
aS'1'
aS'38'
p6286
aa(lp6287
I2024
aS'1'
aS'44'
p6288
aa(lp6289
I2024
aS'1'
aS'44'
p6290
aa(lp6291
I2417
aS'7'
aS'36'
p6292
aa(lp6293
I2417
aS'7'
aS'36'
p6294
aa(lp6295
I2446
aS'119'
p6296
aS'201'
p6297
aa(lp6298
I2446
aS'119'
p6299
aS'201'
p6300
aa(lp6301
I2577
aS'64'
p6302
aS'148'
p6303
aa(lp6304
I2577
aS'64'
p6305
aS'148'
p6306
aa(lp6307
I2585
aS'1'
aS'45'
p6308
aa(lp6309
I2585
aS'1'
aS'45'
p6310
aa(lp6311
I2767
aS'4'
aS'91'
p6312
aa(lp6313
I2767
aS'4'
aS'91'
p6314
aa(lp6315
I2772
aS'10'
p6316
aS'81'
p6317
aa(lp6318
I2772
aS'89'
p6319
aS'163'
p6320
aa(lp6321
I2772
aS'10'
p6322
aS'81'
p6323
aa(lp6324
I2772
aS'89'
p6325
aS'163'
p6326
aa(lp6327
I2835
aS'96'
p6328
aS'142'
p6329
aa(lp6330
I2835
aS'96'
p6331
aS'142'
p6332
aa(lp6333
I3071
aS'1'
aS'122'
p6334
aa(lp6335
I3071
aS'1'
aS'122'
p6336
aa(lp6337
I3544
aS'2'
aS'107'
p6338
aa(lp6339
I3544
aS'2'
aS'107'
p6340
aa(lp6341
I3545
aS'7'
aS'100'
p6342
aa(lp6343
I3545
aS'7'
aS'100'
p6344
aa(lp6345
I3547
aS'8'
aS'68'
p6346
aa(lp6347
I3547
aS'8'
aS'68'
p6348
aa(lp6349
I3548
aS'9'
aS'75'
p6350
aa(lp6351
I3548
aS'9'
aS'75'
p6352
aa(lp6353
I3549
aS'47'
p6354
aS'100'
p6355
aa(lp6356
I3549
aS'47'
p6357
aS'100'
p6358
aa(lp6359
I3550
aS'8'
aS'87'
p6360
aa(lp6361
I3550
aS'8'
aS'87'
p6362
aa(lp6363
I3553
aS'18'
p6364
aS'67'
p6365
aa(lp6366
I3553
aS'18'
p6367
aS'67'
p6368
aa(lp6369
I3809
aS'86'
p6370
aS'156'
p6371
aa(lp6372
I3809
aS'86'
p6373
aS'156'
p6374
aa(lp6375
I4161
aS'2'
aS'117'
p6376
aa(lp6377
I4161
aS'2'
aS'117'
p6378
aa(lp6379
I4162
aS'28'
p6380
aS'143'
p6381
aa(lp6382
I4162
aS'28'
p6383
aS'143'
p6384
aa(lp6385
I4492
aS'1'
aS'59'
p6386
aa(lp6387
I4492
aS'1'
aS'59'
p6388
aa(lp6389
I5041
aS'4'
aS'128'
p6390
aa(lp6391
I5041
aS'4'
aS'128'
p6392
aa(lp6393
I5042
aS'9'
aS'129'
p6394
aa(lp6395
I5042
aS'9'
aS'129'
p6396
aa(lp6397
I5050
aS'1'
aS'148'
p6398
aa(lp6399
I5050
aS'1'
aS'148'
p6400
aa(lp6401
I5265
aS'416'
p6402
aS'531'
p6403
aa(lp6404
I5265
aS'416'
p6405
aS'531'
p6406
aa(lp6407
I5271
aS'342'
p6408
aS'414'
p6409
aa(lp6410
I5271
aS'342'
p6411
aS'414'
p6412
aa(lp6413
I5273
aS'124'
p6414
aS'248'
p6415
aa(lp6416
I5273
aS'124'
p6417
aS'248'
p6418
aa(lp6419
I5434
aS'1'
aS'56'
p6420
aa(lp6421
I5434
aS'1'
aS'56'
p6422
aa(lp6423
I5516
aS'23'
p6424
aS'79'
p6425
aa(lp6426
I5516
aS'23'
p6427
aS'79'
p6428
aa(lp6429
I5517
aS'13'
p6430
aS'198'
p6431
aa(lp6432
I5517
aS'13'
p6433
aS'198'
p6434
aa(lp6435
I5520
aS'27'
p6436
aS'182'
p6437
aa(lp6438
I5520
aS'27'
p6439
aS'182'
p6440
aa(lp6441
I5521
aS'41'
p6442
aS'116'
p6443
aa(lp6444
I5521
aS'41'
p6445
aS'116'
p6446
aa(lp6447
I5532
aS'5'
aS'122'
p6448
aa(lp6449
I5532
aS'5'
aS'122'
p6450
aa(lp6451
I5533
aS'7'
aS'78'
p6452
aa(lp6453
I5533
aS'7'
aS'78'
p6454
aa(lp6455
I5589
aS'534'
p6456
aS'617'
p6457
aa(lp6458
I5589
aS'534'
p6459
aS'617'
p6460
aa(lp6461
I5683
aS'8'
aS'66'
p6462
aa(lp6463
I5683
aS'8'
aS'66'
p6464
aa(lp6465
I5991
aS'2'
aS'61'
p6466
aa(lp6467
I5991
aS'2'
aS'61'
p6468
aa(lp6469
I5992
aS'4'
aS'60'
p6470
aa(lp6471
I5992
aS'4'
aS'60'
p6472
aa(lp6473
I5995
aS'2'
aS'108'
p6474
aa(lp6475
I5995
aS'2'
aS'108'
p6476
aa(lp6477
I5996
aS'5'
aS'108'
p6478
aa(lp6479
I5996
aS'5'
aS'108'
p6480
aa(lp6481
I5997
aS'9'
aS'93'
p6482
aa(lp6483
I5997
aS'9'
aS'93'
p6484
aa(lp6485
I6226
aS'2'
aS'237'
p6486
aa(lp6487
I6226
aS'2'
aS'237'
p6488
aa(lp6489
I6228
aS'1'
aS'96'
p6490
aa(lp6491
I6228
aS'1'
aS'96'
p6492
aa(lp6493
I6345
aS'37'
p6494
aS'110'
p6495
aa(lp6496
I6345
aS'37'
p6497
aS'110'
p6498
aa(lp6499
I6403
aS'18'
p6500
aS'127'
p6501
aa(lp6502
I6403
aS'18'
p6503
aS'127'
p6504
aa(lp6505
I6412
aS'2'
aS'80'
p6506
aa(lp6507
I6412
aS'2'
aS'80'
p6508
aa(lp6509
I7148
aS'2'
aS'83'
p6510
aa(lp6511
I7148
aS'2'
aS'83'
p6512
aa(lp6513
I7507
aS'3'
aS'55'
p6514
aa(lp6515
I7507
aS'3'
aS'55'
p6516
aasS'4MJ3'
p6517
(lp6518
(lp6519
I885
aS'48'
p6520
aS'286'
p6521
aasS'3U1T'
p6522
(lp6523
(lp6524
I885
aS'71'
p6525
aS'320'
p6526
aasS'5AM1'
p6527
(lp6528
(lp6529
I885
aS'259'
p6530
aS'531'
p6531
aa(lp6532
I2190
aS'7'
aS'203'
p6533
aasS'5AM0'
p6534
(lp6535
(lp6536
I885
aS'259'
p6537
aS'531'
p6538
aa(lp6539
I2190
aS'7'
aS'203'
p6540
aasS'5AM3'
p6541
(lp6542
(lp6543
I885
aS'259'
p6544
aS'531'
p6545
aa(lp6546
I2190
aS'7'
aS'203'
p6547
aasS'5AM2'
p6548
(lp6549
(lp6550
I885
aS'259'
p6551
aS'531'
p6552
aa(lp6553
I2190
aS'7'
aS'203'
p6554
aasS'5AM5'
p6555
(lp6556
(lp6557
I885
aS'259'
p6558
aS'531'
p6559
aa(lp6560
I2190
aS'7'
aS'203'
p6561
aasS'5AM4'
p6562
(lp6563
(lp6564
I885
aS'259'
p6565
aS'531'
p6566
aa(lp6567
I2190
aS'7'
aS'203'
p6568
aasS'2IHM'
p6569
(lp6570
(lp6571
I1544
aS'432'
p6572
aS'495'
p6573
aa(lp6574
I1544
aS'432'
p6575
aS'495'
p6576
aa(lp6577
I1670
aS'154'
p6578
aS'218'
p6579
aa(lp6580
I1670
aS'154'
p6581
aS'218'
p6582
aa(lp6583
I4372
aS'238'
p6584
aS'286'
p6585
aa(lp6586
I4372
aS'238'
p6587
aS'286'
p6588
aa(lp6589
I6537
aS'292'
p6590
aS'361'
p6591
aa(lp6592
I6537
aS'292'
p6593
aS'361'
p6594
aasS'3V72'
p6595
(lp6596
(lp6597
I1544
aS'269'
p6598
aS'333'
p6599
aa(lp6600
I1670
aS'15'
p6601
aS'77'
p6602
aa(lp6603
I4372
aS'100'
p6604
aS'147'
p6605
aa(lp6606
I6537
aS'149'
p6607
aS'262'
p6608
aasS'3T52'
p6609
(lp6610
(lp6611
I885
aS'20'
p6612
aS'252'
p6613
aasS'3V7K'
p6614
(lp6615
(lp6616
I1544
aS'269'
p6617
aS'333'
p6618
aa(lp6619
I1670
aS'15'
p6620
aS'77'
p6621
aa(lp6622
I4372
aS'100'
p6623
aS'147'
p6624
aa(lp6625
I6537
aS'149'
p6626
aS'262'
p6627
aasS'3V7L'
p6628
(lp6629
(lp6630
I1544
aS'269'
p6631
aS'333'
p6632
aa(lp6633
I1670
aS'15'
p6634
aS'77'
p6635
aa(lp6636
I4372
aS'100'
p6637
aS'147'
p6638
aa(lp6639
I6537
aS'149'
p6640
aS'262'
p6641
aasS'2ZJF'
p6642
(lp6643
(lp6644
I885
aS'28'
p6645
aS'129'
p6646
aasS'3RK4'
p6647
(lp6648
(lp6649
I885
aS'34'
p6650
aS'158'
p6651
aasS'4ETW'
p6652
(lp6653
(lp6654
I361
aS'504'
p6655
aS'571'
p6656
aa(lp6657
I885
aS'15'
p6658
aS'242'
p6659
aasS'2PKY'
p6660
(lp6661
(lp6662
I885
aS'49'
p6663
aS'295'
p6664
aasS'4M04'
p6665
(lp6666
(lp6667
I1544
aS'430'
p6668
aS'493'
p6669
aa(lp6670
I1670
aS'156'
p6671
aS'218'
p6672
aa(lp6673
I4372
aS'238'
p6674
aS'286'
p6675
aa(lp6676
I6537
aS'292'
p6677
aS'423'
p6678
aasS'4V8M'
p6679
(lp6680
(lp6681
I62
aS'85'
p6682
aS'162'
p6683
aa(lp6684
I86
aS'2'
aS'68'
p6685
aa(lp6686
I125
aS'29'
p6687
aS'107'
p6688
aa(lp6689
I143
aS'54'
p6690
aS'150'
p6691
aa(lp6692
I143
aS'148'
p6693
aS'218'
p6694
aa(lp6695
I145
aS'10'
p6696
aS'61'
p6697
aa(lp6698
I147
aS'86'
p6699
aS'150'
p6700
aa(lp6701
I341
aS'12'
p6702
aS'107'
p6703
aa(lp6704
I472
aS'273'
p6705
aS'349'
p6706
aa(lp6707
I481
aS'4'
aS'145'
p6708
aa(lp6709
I512
aS'2'
aS'60'
p6710
aa(lp6711
I587
aS'4'
aS'97'
p6712
aa(lp6713
I625
aS'37'
p6714
aS'102'
p6715
aa(lp6716
I672
aS'2'
aS'203'
p6717
aa(lp6718
I905
aS'15'
p6719
aS'122'
p6720
aa(lp6721
I1127
aS'209'
p6722
aS'256'
p6723
aa(lp6724
I1484
aS'3'
aS'88'
p6725
aa(lp6726
I1732
aS'12'
p6727
aS'166'
p6728
aa(lp6729
I1733
aS'74'
p6730
aS'143'
p6731
aa(lp6732
I1735
aS'42'
p6733
aS'125'
p6734
aa(lp6735
I1787
aS'71'
p6736
aS'169'
p6737
aa(lp6738
I1801
aS'8'
aS'191'
p6739
aa(lp6740
I2021
aS'100'
p6741
aS'149'
p6742
aa(lp6743
I2074
aS'20'
p6744
aS'207'
p6745
aa(lp6746
I2075
aS'2'
aS'51'
p6747
aa(lp6748
I2266
aS'3'
aS'99'
p6749
aa(lp6750
I2417
aS'175'
p6751
aS'199'
p6752
aa(lp6753
I2417
aS'49'
p6754
aS'80'
p6755
aa(lp6756
I2417
aS'6'
aS'31'
p6757
aa(lp6758
I2446
aS'106'
p6759
aS'187'
p6760
aa(lp6761
I2502
aS'9'
aS'36'
p6762
aa(lp6763
I2772
aS'11'
p6764
aS'85'
p6765
aa(lp6766
I2772
aS'97'
p6767
aS'176'
p6768
aa(lp6769
I2835
aS'44'
p6770
aS'87'
p6771
aa(lp6772
I2835
aS'106'
p6773
aS'150'
p6774
aa(lp6775
I3026
aS'51'
p6776
aS'133'
p6777
aa(lp6778
I3055
aS'6'
aS'128'
p6779
aa(lp6780
I3071
aS'21'
p6781
aS'139'
p6782
aa(lp6783
I3282
aS'9'
aS'191'
p6784
aa(lp6785
I3544
aS'15'
p6786
aS'143'
p6787
aa(lp6788
I3545
aS'19'
p6789
aS'111'
p6790
aa(lp6791
I3548
aS'89'
p6792
aS'156'
p6793
aa(lp6794
I3549
aS'16'
p6795
aS'55'
p6796
aa(lp6797
I3550
aS'74'
p6798
aS'142'
p6799
aa(lp6800
I3651
aS'27'
p6801
aS'96'
p6802
aa(lp6803
I3767
aS'20'
p6804
aS'223'
p6805
aa(lp6806
I3809
aS'169'
p6807
aS'240'
p6808
aa(lp6809
I3813
aS'3'
aS'60'
p6810
aa(lp6811
I4161
aS'27'
p6812
aS'179'
p6813
aa(lp6814
I4162
aS'48'
p6815
aS'128'
p6816
aa(lp6817
I4162
aS'28'
p6818
aS'143'
p6819
aa(lp6820
I4222
aS'2'
aS'53'
p6821
aa(lp6822
I4304
aS'19'
p6823
aS'87'
p6824
aa(lp6825
I4410
aS'48'
p6826
aS'120'
p6827
aa(lp6828
I4667
aS'22'
p6829
aS'156'
p6830
aa(lp6831
I4691
aS'9'
aS'49'
p6832
aa(lp6833
I4935
aS'2'
aS'118'
p6834
aa(lp6835
I4980
aS'3'
aS'39'
p6836
aa(lp6837
I5041
aS'6'
aS'130'
p6838
aa(lp6839
I5042
aS'16'
p6840
aS'149'
p6841
aa(lp6842
I5050
aS'48'
p6843
aS'190'
p6844
aa(lp6845
I5273
aS'98'
p6846
aS'229'
p6847
aa(lp6848
I5516
aS'14'
p6849
aS'67'
p6850
aa(lp6851
I5517
aS'22'
p6852
aS'260'
p6853
aa(lp6854
I5519
aS'17'
p6855
aS'210'
p6856
aa(lp6857
I5520
aS'53'
p6858
aS'424'
p6859
aa(lp6860
I5521
aS'69'
p6861
aS'88'
p6862
aa(lp6863
I5532
aS'9'
aS'142'
p6864
aa(lp6865
I5683
aS'15'
p6866
aS'67'
p6867
aa(lp6868
I5807
aS'8'
aS'83'
p6869
aa(lp6870
I5992
aS'44'
p6871
aS'64'
p6872
aa(lp6873
I5993
aS'8'
aS'119'
p6874
aa(lp6875
I5996
aS'17'
p6876
aS'149'
p6877
aa(lp6878
I5997
aS'84'
p6879
aS'143'
p6880
aa(lp6881
I6062
aS'198'
p6882
aS'295'
p6883
aa(lp6884
I6236
aS'20'
p6885
aS'93'
p6886
aa(lp6887
I6345
aS'21'
p6888
aS'90'
p6889
aa(lp6890
I6388
aS'5'
aS'100'
p6891
aa(lp6892
I6403
aS'22'
p6893
aS'132'
p6894
aa(lp6895
I6412
aS'62'
p6896
aS'135'
p6897
aa(lp6898
I6453
aS'22'
p6899
aS'124'
p6900
aa(lp6901
I6484
aS'69'
p6902
aS'192'
p6903
aa(lp6904
I6625
aS'32'
p6905
aS'125'
p6906
aa(lp6907
I6625
aS'20'
p6908
aS'111'
p6909
aa(lp6910
I6625
aS'145'
p6911
aS'218'
p6912
aa(lp6913
I6680
aS'92'
p6914
aS'166'
p6915
aa(lp6916
I6703
aS'1'
aS'69'
p6917
aa(lp6918
I6753
aS'38'
p6919
aS'142'
p6920
aa(lp6921
I6925
aS'1'
aS'129'
p6922
aa(lp6923
I7161
aS'27'
p6924
aS'110'
p6925
aa(lp6926
I7213
aS'9'
aS'43'
p6927
aa(lp6928
I7213
aS'62'
p6929
aS'95'
p6930
aa(lp6931
I7213
aS'99'
p6932
aS'137'
p6933
aa(lp6934
I7213
aS'140'
p6935
aS'182'
p6936
aa(lp6937
I7213
aS'187'
p6938
aS'224'
p6939
aa(lp6940
I7223
aS'7'
aS'113'
p6941
aa(lp6942
I7397
aS'29'
p6943
aS'82'
p6944
aa(lp6945
I7432
aS'2'
aS'102'
p6946
aa(lp6947
I7504
aS'101'
p6948
aS'149'
p6949
aasS'3C5G'
p6950
(lp6951
(lp6952
I1544
aS'502'
p6953
aS'574'
p6954
aa(lp6955
I1670
aS'253'
p6956
aS'318'
p6957
aa(lp6958
I4372
aS'337'
p6959
aS'383'
p6960
aa(lp6961
I6537
aS'386'
p6962
aS'495'
p6963
aasS'1UK9'
p6964
(lp6965
(lp6966
I885
aS'27'
p6967
aS'257'
p6968
aasS'1UK8'
p6969
(lp6970
(lp6971
I885
aS'27'
p6972
aS'257'
p6973
aasS'1UK7'
p6974
(lp6975
(lp6976
I885
aS'27'
p6977
aS'257'
p6978
aasS'1UK6'
p6979
(lp6980
(lp6981
I885
aS'27'
p6982
aS'257'
p6983
aasS'1G4H'
p6984
(lp6985
(lp6986
I885
aS'31'
p6987
aS'155'
p6988
aasS'4WQU'
p6989
(lp6990
(lp6991
I143
aS'10'
p6992
aS'223'
p6993
aa(lp6994
I145
aS'3'
aS'98'
p6995
aa(lp6996
I147
aS'6'
aS'70'
p6997
aa(lp6998
I148
aS'3'
aS'92'
p6999
aa(lp7000
I1731
aS'20'
p7001
aS'117'
p7002
aa(lp7003
I1732
aS'4'
aS'132'
p7004
aa(lp7005
I1733
aS'75'
p7006
aS'138'
p7007
aa(lp7008
I1734
aS'4'
aS'98'
p7009
aa(lp7010
I1735
aS'12'
p7011
aS'136'
p7012
aa(lp7013
I1739
aS'6'
aS'113'
p7014
aa(lp7015
I1787
aS'87'
p7016
aS'180'
p7017
aa(lp7018
I2019
aS'8'
aS'53'
p7019
aa(lp7020
I2020
aS'1'
aS'64'
p7021
aa(lp7022
I2021
aS'4'
aS'54'
p7023
aa(lp7024
I2023
aS'1'
aS'37'
p7025
aa(lp7026
I2024
aS'1'
aS'43'
p7027
aa(lp7028
I2417
aS'9'
aS'40'
p7029
aa(lp7030
I2446
aS'120'
p7031
aS'202'
p7032
aa(lp7033
I2585
aS'-66'
p7034
aS'-20'
p7035
aa(lp7036
I2767
aS'5'
aS'88'
p7037
aa(lp7038
I2772
aS'11'
p7039
aS'82'
p7040
aa(lp7041
I2772
aS'91'
p7042
aS'164'
p7043
aa(lp7044
I2835
aS'100'
p7045
aS'146'
p7046
aa(lp7047
I2994
aS'2'
aS'24'
p7048
aa(lp7049
I3071
aS'1'
aS'122'
p7050
aa(lp7051
I3544
aS'3'
aS'109'
p7052
aa(lp7053
I3545
aS'5'
aS'99'
p7054
aa(lp7055
I3547
aS'8'
aS'67'
p7056
aa(lp7057
I3548
aS'8'
aS'74'
p7058
aa(lp7059
I3549
aS'9'
aS'60'
p7060
aa(lp7061
I3550
aS'8'
aS'88'
p7062
aa(lp7063
I3553
aS'33'
p7064
aS'79'
p7065
aa(lp7066
I3809
aS'82'
p7067
aS'152'
p7068
aa(lp7069
I4161
aS'6'
aS'112'
p7070
aa(lp7071
I4162
aS'27'
p7072
aS'145'
p7073
aa(lp7074
I4492
aS'2'
aS'62'
p7075
aa(lp7076
I4654
aS'323'
p7077
aS'389'
p7078
aa(lp7079
I4903
aS'95'
p7080
aS'177'
p7081
aa(lp7082
I5041
aS'4'
aS'138'
p7083
aa(lp7084
I5042
aS'8'
aS'128'
p7085
aa(lp7086
I5050
aS'2'
aS'149'
p7087
aa(lp7088
I5265
aS'479'
p7089
aS'597'
p7090
aa(lp7091
I5271
aS'404'
p7092
aS'478'
p7093
aa(lp7094
I5273
aS'126'
p7095
aS'251'
p7096
aa(lp7097
I5434
aS'5'
aS'59'
p7098
aa(lp7099
I5516
aS'27'
p7100
aS'83'
p7101
aa(lp7102
I5517
aS'26'
p7103
aS'204'
p7104
aa(lp7105
I5519
aS'29'
p7106
aS'222'
p7107
aa(lp7108
I5520
aS'93'
p7109
aS'175'
p7110
aa(lp7111
I5521
aS'42'
p7112
aS'118'
p7113
aa(lp7114
I5532
aS'6'
aS'126'
p7115
aa(lp7116
I5533
aS'8'
aS'81'
p7117
aa(lp7118
I5589
aS'600'
p7119
aS'686'
p7120
aa(lp7121
I5991
aS'3'
aS'65'
p7122
aa(lp7123
I5992
aS'12'
p7124
aS'67'
p7125
aa(lp7126
I5995
aS'3'
aS'109'
p7127
aa(lp7128
I5996
aS'5'
aS'107'
p7129
aa(lp7130
I5997
aS'6'
aS'90'
p7131
aa(lp7132
I6226
aS'10'
p7133
aS'282'
p7134
aa(lp7135
I6228
aS'1'
aS'94'
p7136
aa(lp7137
I6345
aS'39'
p7138
aS'110'
p7139
aa(lp7140
I6403
aS'17'
p7141
aS'126'
p7142
aa(lp7143
I6412
aS'3'
aS'83'
p7144
aa(lp7145
I7148
aS'11'
p7146
aS'88'
p7147
aasS'1YAS'
p7148
(lp7149
(lp7150
I885
aS'5'
aS'241'
p7151
aasS'4KLT'
p7152
(lp7153
(lp7154
I1544
aS'269'
p7155
aS'333'
p7156
aa(lp7157
I1670
aS'15'
p7158
aS'77'
p7159
aa(lp7160
I4372
aS'100'
p7161
aS'147'
p7162
aa(lp7163
I6537
aS'149'
p7164
aS'262'
p7165
aasS'4KLS'
p7166
(lp7167
(lp7168
I1544
aS'269'
p7169
aS'333'
p7170
aa(lp7171
I1670
aS'15'
p7172
aS'77'
p7173
aa(lp7174
I4372
aS'100'
p7175
aS'147'
p7176
aa(lp7177
I6537
aS'149'
p7178
aS'262'
p7179
aasS'4WQY'
p7180
(lp7181
(lp7182
I143
aS'10'
p7183
aS'223'
p7184
aa(lp7185
I145
aS'3'
aS'98'
p7186
aa(lp7187
I147
aS'6'
aS'70'
p7188
aa(lp7189
I148
aS'3'
aS'92'
p7190
aa(lp7191
I1731
aS'20'
p7192
aS'117'
p7193
aa(lp7194
I1732
aS'4'
aS'132'
p7195
aa(lp7196
I1733
aS'70'
p7197
aS'138'
p7198
aa(lp7199
I1734
aS'4'
aS'98'
p7200
aa(lp7201
I1735
aS'12'
p7202
aS'136'
p7203
aa(lp7204
I1739
aS'6'
aS'113'
p7205
aa(lp7206
I1787
aS'87'
p7207
aS'180'
p7208
aa(lp7209
I2019
aS'8'
aS'53'
p7210
aa(lp7211
I2020
aS'1'
aS'64'
p7212
aa(lp7213
I2021
aS'4'
aS'54'
p7214
aa(lp7215
I2023
aS'1'
aS'37'
p7216
aa(lp7217
I2024
aS'1'
aS'43'
p7218
aa(lp7219
I2417
aS'9'
aS'40'
p7220
aa(lp7221
I2446
aS'120'
p7222
aS'202'
p7223
aa(lp7224
I2585
aS'-66'
p7225
aS'-20'
p7226
aa(lp7227
I2767
aS'5'
aS'88'
p7228
aa(lp7229
I2772
aS'11'
p7230
aS'82'
p7231
aa(lp7232
I2772
aS'91'
p7233
aS'164'
p7234
aa(lp7235
I2835
aS'100'
p7236
aS'146'
p7237
aa(lp7238
I2994
aS'2'
aS'24'
p7239
aa(lp7240
I3071
aS'1'
aS'122'
p7241
aa(lp7242
I3544
aS'3'
aS'109'
p7243
aa(lp7244
I3545
aS'5'
aS'99'
p7245
aa(lp7246
I3547
aS'8'
aS'67'
p7247
aa(lp7248
I3548
aS'8'
aS'74'
p7249
aa(lp7250
I3549
aS'9'
aS'60'
p7251
aa(lp7252
I3550
aS'8'
aS'88'
p7253
aa(lp7254
I3553
aS'33'
p7255
aS'79'
p7256
aa(lp7257
I3809
aS'82'
p7258
aS'152'
p7259
aa(lp7260
I4161
aS'6'
aS'112'
p7261
aa(lp7262
I4162
aS'27'
p7263
aS'145'
p7264
aa(lp7265
I4492
aS'2'
aS'62'
p7266
aa(lp7267
I4654
aS'323'
p7268
aS'389'
p7269
aa(lp7270
I4903
aS'95'
p7271
aS'177'
p7272
aa(lp7273
I5041
aS'4'
aS'138'
p7274
aa(lp7275
I5042
aS'8'
aS'128'
p7276
aa(lp7277
I5050
aS'2'
aS'149'
p7278
aa(lp7279
I5265
aS'479'
p7280
aS'597'
p7281
aa(lp7282
I5271
aS'404'
p7283
aS'478'
p7284
aa(lp7285
I5273
aS'126'
p7286
aS'251'
p7287
aa(lp7288
I5434
aS'5'
aS'59'
p7289
aa(lp7290
I5516
aS'27'
p7291
aS'83'
p7292
aa(lp7293
I5517
aS'26'
p7294
aS'204'
p7295
aa(lp7296
I5519
aS'29'
p7297
aS'222'
p7298
aa(lp7299
I5520
aS'93'
p7300
aS'175'
p7301
aa(lp7302
I5521
aS'42'
p7303
aS'118'
p7304
aa(lp7305
I5532
aS'6'
aS'126'
p7306
aa(lp7307
I5533
aS'2'
aS'81'
p7308
aa(lp7309
I5589
aS'600'
p7310
aS'686'
p7311
aa(lp7312
I5683
aS'8'
aS'65'
p7313
aa(lp7314
I5991
aS'3'
aS'65'
p7315
aa(lp7316
I5992
aS'12'
p7317
aS'67'
p7318
aa(lp7319
I5995
aS'3'
aS'109'
p7320
aa(lp7321
I5996
aS'5'
aS'107'
p7322
aa(lp7323
I5997
aS'6'
aS'90'
p7324
aa(lp7325
I6226
aS'10'
p7326
aS'282'
p7327
aa(lp7328
I6228
aS'1'
aS'94'
p7329
aa(lp7330
I6345
aS'39'
p7331
aS'110'
p7332
aa(lp7333
I6403
aS'17'
p7334
aS'126'
p7335
aa(lp7336
I6412
aS'3'
aS'83'
p7337
aa(lp7338
I7148
aS'11'
p7339
aS'88'
p7340
aasS'4KLQ'
p7341
(lp7342
(lp7343
I1544
aS'269'
p7344
aS'333'
p7345
aa(lp7346
I1670
aS'15'
p7347
aS'77'
p7348
aa(lp7349
I4372
aS'100'
p7350
aS'147'
p7351
aa(lp7352
I6537
aS'149'
p7353
aS'262'
p7354
aasS'4KLO'
p7355
(lp7356
(lp7357
I1544
aS'269'
p7358
aS'333'
p7359
aa(lp7360
I1670
aS'15'
p7361
aS'77'
p7362
aa(lp7363
I4372
aS'100'
p7364
aS'147'
p7365
aa(lp7366
I6537
aS'149'
p7367
aS'262'
p7368
aasS'2HAD'
p7369
(lp7370
(lp7371
I885
aS'49'
p7372
aS'295'
p7373
aasS'4WQF'
p7374
(lp7375
(lp7376
I143
aS'10'
p7377
aS'223'
p7378
aa(lp7379
I145
aS'3'
aS'98'
p7380
aa(lp7381
I147
aS'6'
aS'70'
p7382
aa(lp7383
I148
aS'3'
aS'92'
p7384
aa(lp7385
I1731
aS'20'
p7386
aS'117'
p7387
aa(lp7388
I1732
aS'4'
aS'132'
p7389
aa(lp7390
I1733
aS'70'
p7391
aS'138'
p7392
aa(lp7393
I1734
aS'4'
aS'98'
p7394
aa(lp7395
I1735
aS'12'
p7396
aS'136'
p7397
aa(lp7398
I1739
aS'6'
aS'113'
p7399
aa(lp7400
I1787
aS'87'
p7401
aS'180'
p7402
aa(lp7403
I2019
aS'8'
aS'53'
p7404
aa(lp7405
I2020
aS'1'
aS'64'
p7406
aa(lp7407
I2021
aS'4'
aS'54'
p7408
aa(lp7409
I2023
aS'1'
aS'37'
p7410
aa(lp7411
I2024
aS'1'
aS'43'
p7412
aa(lp7413
I2417
aS'9'
aS'40'
p7414
aa(lp7415
I2446
aS'120'
p7416
aS'202'
p7417
aa(lp7418
I2585
aS'-66'
p7419
aS'-20'
p7420
aa(lp7421
I2767
aS'5'
aS'88'
p7422
aa(lp7423
I2772
aS'11'
p7424
aS'82'
p7425
aa(lp7426
I2772
aS'91'
p7427
aS'164'
p7428
aa(lp7429
I2835
aS'100'
p7430
aS'146'
p7431
aa(lp7432
I2994
aS'2'
aS'24'
p7433
aa(lp7434
I3071
aS'1'
aS'122'
p7435
aa(lp7436
I3544
aS'3'
aS'109'
p7437
aa(lp7438
I3545
aS'5'
aS'99'
p7439
aa(lp7440
I3547
aS'8'
aS'67'
p7441
aa(lp7442
I3548
aS'8'
aS'74'
p7443
aa(lp7444
I3549
aS'9'
aS'60'
p7445
aa(lp7446
I3550
aS'8'
aS'88'
p7447
aa(lp7448
I3553
aS'33'
p7449
aS'79'
p7450
aa(lp7451
I3809
aS'82'
p7452
aS'152'
p7453
aa(lp7454
I4161
aS'6'
aS'112'
p7455
aa(lp7456
I4162
aS'27'
p7457
aS'145'
p7458
aa(lp7459
I4492
aS'2'
aS'62'
p7460
aa(lp7461
I4654
aS'323'
p7462
aS'389'
p7463
aa(lp7464
I4903
aS'95'
p7465
aS'177'
p7466
aa(lp7467
I5041
aS'4'
aS'138'
p7468
aa(lp7469
I5042
aS'8'
aS'128'
p7470
aa(lp7471
I5050
aS'2'
aS'149'
p7472
aa(lp7473
I5265
aS'479'
p7474
aS'597'
p7475
aa(lp7476
I5271
aS'404'
p7477
aS'478'
p7478
aa(lp7479
I5273
aS'126'
p7480
aS'251'
p7481
aa(lp7482
I5434
aS'5'
aS'59'
p7483
aa(lp7484
I5516
aS'27'
p7485
aS'83'
p7486
aa(lp7487
I5517
aS'26'
p7488
aS'204'
p7489
aa(lp7490
I5519
aS'29'
p7491
aS'222'
p7492
aa(lp7493
I5520
aS'93'
p7494
aS'175'
p7495
aa(lp7496
I5521
aS'42'
p7497
aS'118'
p7498
aa(lp7499
I5532
aS'6'
aS'126'
p7500
aa(lp7501
I5533
aS'2'
aS'81'
p7502
aa(lp7503
I5589
aS'600'
p7504
aS'686'
p7505
aa(lp7506
I5683
aS'8'
aS'65'
p7507
aa(lp7508
I5991
aS'3'
aS'65'
p7509
aa(lp7510
I5992
aS'12'
p7511
aS'67'
p7512
aa(lp7513
I5995
aS'3'
aS'109'
p7514
aa(lp7515
I5996
aS'5'
aS'107'
p7516
aa(lp7517
I5997
aS'6'
aS'90'
p7518
aa(lp7519
I6226
aS'10'
p7520
aS'282'
p7521
aa(lp7522
I6228
aS'1'
aS'94'
p7523
aa(lp7524
I6345
aS'39'
p7525
aS'110'
p7526
aa(lp7527
I6403
aS'17'
p7528
aS'126'
p7529
aa(lp7530
I6412
aS'3'
aS'83'
p7531
aa(lp7532
I7148
aS'11'
p7533
aS'88'
p7534
aasS'4KLL'
p7535
(lp7536
(lp7537
I1544
aS'269'
p7538
aS'333'
p7539
aa(lp7540
I1670
aS'15'
p7541
aS'77'
p7542
aa(lp7543
I4372
aS'100'
p7544
aS'147'
p7545
aa(lp7546
I6537
aS'149'
p7547
aS'262'
p7548
aasS'4KLJ'
p7549
(lp7550
(lp7551
I1544
aS'269'
p7552
aS'333'
p7553
aa(lp7554
I1670
aS'15'
p7555
aS'77'
p7556
aa(lp7557
I4372
aS'100'
p7558
aS'147'
p7559
aa(lp7560
I6537
aS'149'
p7561
aS'262'
p7562
aasS'4KLI'
p7563
(lp7564
(lp7565
I1544
aS'269'
p7566
aS'333'
p7567
aa(lp7568
I1670
aS'15'
p7569
aS'77'
p7570
aa(lp7571
I4372
aS'100'
p7572
aS'147'
p7573
aa(lp7574
I6537
aS'149'
p7575
aS'262'
p7576
aasS'4KLH'
p7577
(lp7578
(lp7579
I1544
aS'269'
p7580
aS'333'
p7581
aa(lp7582
I1670
aS'15'
p7583
aS'77'
p7584
aa(lp7585
I4372
aS'100'
p7586
aS'147'
p7587
aa(lp7588
I6537
aS'149'
p7589
aS'262'
p7590
aasS'4KLG'
p7591
(lp7592
(lp7593
I1544
aS'269'
p7594
aS'333'
p7595
aa(lp7596
I1670
aS'15'
p7597
aS'77'
p7598
aa(lp7599
I4372
aS'100'
p7600
aS'147'
p7601
aa(lp7602
I6537
aS'149'
p7603
aS'262'
p7604
aasS'4KLF'
p7605
(lp7606
(lp7607
I1544
aS'269'
p7608
aS'333'
p7609
aa(lp7610
I1670
aS'15'
p7611
aS'77'
p7612
aa(lp7613
I4372
aS'100'
p7614
aS'147'
p7615
aa(lp7616
I6537
aS'149'
p7617
aS'262'
p7618
aasS'4KLE'
p7619
(lp7620
(lp7621
I1544
aS'269'
p7622
aS'333'
p7623
aa(lp7624
I1670
aS'15'
p7625
aS'77'
p7626
aa(lp7627
I4372
aS'100'
p7628
aS'147'
p7629
aa(lp7630
I6537
aS'149'
p7631
aS'262'
p7632
aasS'4KLD'
p7633
(lp7634
(lp7635
I1544
aS'269'
p7636
aS'333'
p7637
aa(lp7638
I1670
aS'15'
p7639
aS'77'
p7640
aa(lp7641
I4372
aS'100'
p7642
aS'147'
p7643
aa(lp7644
I6537
aS'149'
p7645
aS'262'
p7646
aasS'1MT3'
p7647
(lp7648
(lp7649
I885
aS'34'
p7650
aS'277'
p7651
aasS'8ICZ'
p7652
(lp7653
(lp7654
I1544
aS'269'
p7655
aS'333'
p7656
aa(lp7657
I1670
aS'15'
p7658
aS'77'
p7659
aa(lp7660
I4372
aS'100'
p7661
aS'147'
p7662
aa(lp7663
I6537
aS'149'
p7664
aS'262'
p7665
aasS'1ZD3'
p7666
(lp7667
(lp7668
I885
aS'257'
p7669
aS'530'
p7670
aa(lp7671
I2190
aS'7'
aS'203'
p7672
aasS'1ZD2'
p7673
(lp7674
(lp7675
I885
aS'257'
p7676
aS'530'
p7677
aa(lp7678
I2190
aS'7'
aS'203'
p7679
aasS'1ZD5'
p7680
(lp7681
(lp7682
I885
aS'257'
p7683
aS'530'
p7684
aa(lp7685
I2190
aS'7'
aS'203'
p7686
aasS'1ZD4'
p7687
(lp7688
(lp7689
I885
aS'257'
p7690
aS'530'
p7691
aa(lp7692
I2190
aS'7'
aS'203'
p7693
aasS'1ZJN'
p7694
(lp7695
(lp7696
I1544
aS'269'
p7697
aS'333'
p7698
aa(lp7699
I1670
aS'15'
p7700
aS'77'
p7701
aa(lp7702
I4372
aS'100'
p7703
aS'147'
p7704
aa(lp7705
I6537
aS'149'
p7706
aS'262'
p7707
aasS'1ZJM'
p7708
(lp7709
(lp7710
I1544
aS'269'
p7711
aS'333'
p7712
aa(lp7713
I1670
aS'15'
p7714
aS'77'
p7715
aa(lp7716
I4372
aS'100'
p7717
aS'147'
p7718
aa(lp7719
I6537
aS'149'
p7720
aS'262'
p7721
aasS'4K4H'
p7722
(lp7723
(lp7724
I1544
aS'502'
p7725
aS'574'
p7726
aa(lp7727
I1670
aS'253'
p7728
aS'318'
p7729
aa(lp7730
I4372
aS'337'
p7731
aS'383'
p7732
aa(lp7733
I6537
aS'386'
p7734
aS'495'
p7735
aasS'2LIP'
p7736
(lp7737
(lp7738
I885
aS'10'
p7739
aS'252'
p7740
aasS'1XRQ'
p7741
(lp7742
(lp7743
I885
aS'34'
p7744
aS'277'
p7745
aasS'4D9J'
p7746
(lp7747
(lp7748
I885
aS'25'
p7749
aS'263'
p7750
aa(lp7751
I1245
aS'286'
p7752
aS'438'
p7753
aasS'3C5F'
p7754
(lp7755
(lp7756
I1544
aS'502'
p7757
aS'574'
p7758
aa(lp7759
I1670
aS'253'
p7760
aS'318'
p7761
aa(lp7762
I4372
aS'337'
p7763
aS'383'
p7764
aa(lp7765
I6537
aS'386'
p7766
aS'495'
p7767
aasS'1EDD'
p7768
(lp7769
(lp7770
I885
aS'49'
p7771
aS'295'
p7772
aasS'1EDE'
p7773
(lp7774
(lp7775
I885
aS'49'
p7776
aS'295'
p7777
aasS'1EDB'
p7778
(lp7779
(lp7780
I885
aS'49'
p7781
aS'295'
p7782
aasS'1XRR'
p7783
(lp7784
(lp7785
I885
aS'34'
p7786
aS'277'
p7787
aasS'2ISO'
p7788
(lp7789
(lp7790
I1544
aS'269'
p7791
aS'333'
p7792
aa(lp7793
I1670
aS'15'
p7794
aS'77'
p7795
aa(lp7796
I4372
aS'100'
p7797
aS'147'
p7798
aa(lp7799
I6537
aS'149'
p7800
aS'262'
p7801
aasS'1MTZ'
p7802
(lp7803
(lp7804
I885
aS'34'
p7805
aS'277'
p7806
aasS'2V9Z'
p7807
(lp7808
(lp7809
I885
aS'34'
p7810
aS'141'
p7811
aasS'4PGQ'
p7812
(lp7813
(lp7814
I1544
aS'269'
p7815
aS'333'
p7816
aa(lp7817
I1670
aS'15'
p7818
aS'77'
p7819
aa(lp7820
I4372
aS'100'
p7821
aS'147'
p7822
aa(lp7823
I6537
aS'149'
p7824
aS'262'
p7825
aasS'2ISP'
p7826
(lp7827
(lp7828
I1544
aS'269'
p7829
aS'333'
p7830
aa(lp7831
I1670
aS'15'
p7832
aS'77'
p7833
aa(lp7834
I4372
aS'100'
p7835
aS'147'
p7836
aa(lp7837
I6537
aS'149'
p7838
aS'262'
p7839
aasS'1CV2'
p7840
(lp7841
(lp7842
I885
aS'31'
p7843
aS'155'
p7844
aasS'2VAN'
p7845
(lp7846
(lp7847
I1544
aS'269'
p7848
aS'333'
p7849
aa(lp7850
I1544
aS'269'
p7851
aS'333'
p7852
aa(lp7853
I4372
aS'100'
p7854
aS'147'
p7855
aa(lp7856
I4372
aS'100'
p7857
aS'147'
p7858
aa(lp7859
I6537
aS'149'
p7860
aS'261'
p7861
aa(lp7862
I6537
aS'149'
p7863
aS'261'
p7864
aasS'4E46'
p7865
(lp7866
(lp7867
I885
aS'34'
p7868
aS'158'
p7869
aasS'2VAV'
p7870
(lp7871
(lp7872
I885
aS'53'
p7873
aS'366'
p7874
aasS'4H77'
p7875
(lp7876
(lp7877
I885
aS'31'
p7878
aS'155'
p7879
aasS'3CXU'
p7880
(lp7881
(lp7882
I885
aS'25'
p7883
aS'303'
p7884
aasS'3C70'
p7885
(lp7886
(lp7887
I885
aS'5'
aS'241'
p7888
aasS'3UXP'
p7889
(lp7890
(lp7891
I1544
aS'269'
p7892
aS'333'
p7893
aa(lp7894
I1670
aS'15'
p7895
aS'77'
p7896
aa(lp7897
I4372
aS'100'
p7898
aS'147'
p7899
aa(lp7900
I6537
aS'149'
p7901
aS'261'
p7902
aasS'4A2I'
p7903
(lp7904
(lp7905
I143
aS'8'
aS'223'
p7906
aa(lp7907
I145
aS'2'
aS'94'
p7908
aa(lp7909
I147
aS'10'
p7910
aS'73'
p7911
aa(lp7912
I148
aS'3'
aS'91'
p7913
aa(lp7914
I632
aS'110'
p7915
aS'284'
p7916
aa(lp7917
I2446
aS'119'
p7918
aS'201'
p7919
aa(lp7920
I2835
aS'96'
p7921
aS'142'
p7922
aa(lp7923
I3544
aS'2'
aS'107'
p7924
aa(lp7925
I3545
aS'7'
aS'100'
p7926
aa(lp7927
I3547
aS'8'
aS'68'
p7928
aa(lp7929
I3548
aS'9'
aS'75'
p7930
aa(lp7931
I3549
aS'46'
p7932
aS'99'
p7933
aa(lp7934
I3550
aS'8'
aS'87'
p7935
aa(lp7936
I3553
aS'19'
p7937
aS'67'
p7938
aa(lp7939
I3809
aS'86'
p7940
aS'156'
p7941
aa(lp7942
I5041
aS'4'
aS'128'
p7943
aa(lp7944
I5042
aS'9'
aS'129'
p7945
aa(lp7946
I5050
aS'2'
aS'148'
p7947
aa(lp7948
I5532
aS'5'
aS'122'
p7949
aa(lp7950
I6345
aS'37'
p7951
aS'110'
p7952
aa(lp7953
I6403
aS'18'
p7954
aS'127'
p7955
aa(lp7956
I6412
aS'2'
aS'79'
p7957
aa(lp7958
I7148
aS'2'
aS'83'
p7959
aa(lp7960
I7507
aS'3'
aS'52'
p7961
aasS'4NY8'
p7962
(lp7963
(lp7964
I1544
aS'269'
p7965
aS'333'
p7966
aa(lp7967
I1670
aS'15'
p7968
aS'77'
p7969
aa(lp7970
I4372
aS'100'
p7971
aS'147'
p7972
aa(lp7973
I6537
aS'149'
p7974
aS'262'
p7975
aasS'3W9U'
p7976
(lp7977
(lp7978
I885
aS'6'
aS'120'
p7979
aasS'1S8O'
p7980
(lp7981
(lp7982
I885
aS'259'
p7983
aS'531'
p7984
aa(lp7985
I2190
aS'7'
aS'203'
p7986
aasS'4V7K'
p7987
(lp7988
(lp7989
I143
aS'10'
p7990
aS'223'
p7991
aa(lp7992
I145
aS'3'
aS'98'
p7993
aa(lp7994
I147
aS'6'
aS'70'
p7995
aa(lp7996
I148
aS'3'
aS'92'
p7997
aa(lp7998
I1731
aS'20'
p7999
aS'117'
p8000
aa(lp8001
I1732
aS'4'
aS'132'
p8002
aa(lp8003
I1734
aS'4'
aS'98'
p8004
aa(lp8005
I1735
aS'12'
p8006
aS'136'
p8007
aa(lp8008
I1739
aS'6'
aS'113'
p8009
aa(lp8010
I1787
aS'87'
p8011
aS'180'
p8012
aa(lp8013
I2019
aS'8'
aS'53'
p8014
aa(lp8015
I2020
aS'1'
aS'57'
p8016
aa(lp8017
I2021
aS'4'
aS'54'
p8018
aa(lp8019
I2023
aS'1'
aS'37'
p8020
aa(lp8021
I2024
aS'1'
aS'43'
p8022
aa(lp8023
I2417
aS'9'
aS'40'
p8024
aa(lp8025
I2446
aS'120'
p8026
aS'202'
p8027
aa(lp8028
I2577
aS'63'
p8029
aS'145'
p8030
aa(lp8031
I2585
aS'1'
aS'47'
p8032
aa(lp8033
I2767
aS'5'
aS'88'
p8034
aa(lp8035
I2772
aS'11'
p8036
aS'82'
p8037
aa(lp8038
I2772
aS'91'
p8039
aS'164'
p8040
aa(lp8041
I2835
aS'100'
p8042
aS'146'
p8043
aa(lp8044
I2994
aS'2'
aS'25'
p8045
aa(lp8046
I3071
aS'1'
aS'122'
p8047
aa(lp8048
I3544
aS'3'
aS'109'
p8049
aa(lp8050
I3545
aS'5'
aS'99'
p8051
aa(lp8052
I3547
aS'8'
aS'67'
p8053
aa(lp8054
I3548
aS'8'
aS'74'
p8055
aa(lp8056
I3549
aS'9'
aS'60'
p8057
aa(lp8058
I3550
aS'8'
aS'88'
p8059
aa(lp8060
I3553
aS'33'
p8061
aS'79'
p8062
aa(lp8063
I3809
aS'82'
p8064
aS'152'
p8065
aa(lp8066
I4161
aS'11'
p8067
aS'108'
p8068
aa(lp8069
I4162
aS'27'
p8070
aS'145'
p8071
aa(lp8072
I4492
aS'2'
aS'62'
p8073
aa(lp8074
I4903
aS'95'
p8075
aS'177'
p8076
aa(lp8077
I5041
aS'4'
aS'138'
p8078
aa(lp8079
I5042
aS'8'
aS'128'
p8080
aa(lp8081
I5050
aS'2'
aS'149'
p8082
aa(lp8083
I5273
aS'126'
p8084
aS'251'
p8085
aa(lp8086
I5434
aS'5'
aS'56'
p8087
aa(lp8088
I5516
aS'27'
p8089
aS'83'
p8090
aa(lp8091
I5517
aS'26'
p8092
aS'204'
p8093
aa(lp8094
I5519
aS'29'
p8095
aS'222'
p8096
aa(lp8097
I5520
aS'93'
p8098
aS'175'
p8099
aa(lp8100
I5521
aS'42'
p8101
aS'118'
p8102
aa(lp8103
I5532
aS'6'
aS'126'
p8104
aa(lp8105
I5533
aS'2'
aS'81'
p8106
aa(lp8107
I5991
aS'3'
aS'65'
p8108
aa(lp8109
I5992
aS'12'
p8110
aS'67'
p8111
aa(lp8112
I5995
aS'3'
aS'109'
p8113
aa(lp8114
I5996
aS'5'
aS'107'
p8115
aa(lp8116
I5997
aS'6'
aS'90'
p8117
aa(lp8118
I6003
aS'6'
aS'83'
p8119
aa(lp8120
I6228
aS'1'
aS'94'
p8121
aa(lp8122
I6345
aS'39'
p8123
aS'110'
p8124
aa(lp8125
I6403
aS'17'
p8126
aS'126'
p8127
aa(lp8128
I6412
aS'4'
aS'81'
p8129
aa(lp8130
I7148
aS'11'
p8131
aS'88'
p8132
aasS'4HAI'
p8133
(lp8134
(lp8135
I885
aS'259'
p8136
aS'531'
p8137
aa(lp8138
I2190
aS'7'
aS'203'
p8139
aasS'1TAH'
p8140
(lp8141
(lp8142
I885
aS'9'
aS'288'
p8143
aasS'3UXN'
p8144
(lp8145
(lp8146
I1544
aS'269'
p8147
aS'333'
p8148
aa(lp8149
I1670
aS'15'
p8150
aS'77'
p8151
aa(lp8152
I4372
aS'100'
p8153
aS'147'
p8154
aa(lp8155
I6537
aS'149'
p8156
aS'262'
p8157
aasS'3UXO'
p8158
(lp8159
(lp8160
I1544
aS'269'
p8161
aS'333'
p8162
aa(lp8163
I1670
aS'15'
p8164
aS'77'
p8165
aa(lp8166
I4372
aS'100'
p8167
aS'147'
p8168
aa(lp8169
I6537
aS'149'
p8170
aS'261'
p8171
aasS'1ZQZ'
p8172
(lp8173
(lp8174
I1544
aS'269'
p8175
aS'333'
p8176
aa(lp8177
I4372
aS'100'
p8178
aS'147'
p8179
aa(lp8180
I6537
aS'149'
p8181
aS'262'
p8182
aasS'1XSP'
p8183
(lp8184
(lp8185
I1544
aS'502'
p8186
aS'574'
p8187
aa(lp8188
I1670
aS'253'
p8189
aS'318'
p8190
aa(lp8191
I4372
aS'337'
p8192
aS'383'
p8193
aa(lp8194
I6537
aS'386'
p8195
aS'495'
p8196
aasS'1ZQY'
p8197
(lp8198
(lp8199
I1544
aS'269'
p8200
aS'333'
p8201
aa(lp8202
I4372
aS'100'
p8203
aS'147'
p8204
aa(lp8205
I6537
aS'149'
p8206
aS'262'
p8207
aasS'8ICE'
p8208
(lp8209
(lp8210
I1544
aS'269'
p8211
aS'333'
p8212
aa(lp8213
I1670
aS'15'
p8214
aS'77'
p8215
aa(lp8216
I4372
aS'100'
p8217
aS'147'
p8218
aa(lp8219
I6537
aS'149'
p8220
aS'262'
p8221
aasS'1ZQR'
p8222
(lp8223
(lp8224
I1544
aS'269'
p8225
aS'333'
p8226
aa(lp8227
I1670
aS'15'
p8228
aS'77'
p8229
aa(lp8230
I4372
aS'100'
p8231
aS'147'
p8232
aa(lp8233
I6537
aS'149'
p8234
aS'262'
p8235
aasS'1ZQS'
p8236
(lp8237
(lp8238
I1544
aS'269'
p8239
aS'333'
p8240
aa(lp8241
I1670
aS'15'
p8242
aS'77'
p8243
aa(lp8244
I4372
aS'100'
p8245
aS'147'
p8246
aa(lp8247
I6537
aS'149'
p8248
aS'262'
p8249
aasS'1ZQP'
p8250
(lp8251
(lp8252
I1544
aS'269'
p8253
aS'333'
p8254
aa(lp8255
I1670
aS'15'
p8256
aS'77'
p8257
aa(lp8258
I4372
aS'100'
p8259
aS'147'
p8260
aa(lp8261
I6537
aS'149'
p8262
aS'262'
p8263
aasS'1ZQQ'
p8264
(lp8265
(lp8266
I1544
aS'269'
p8267
aS'333'
p8268
aa(lp8269
I1670
aS'15'
p8270
aS'77'
p8271
aa(lp8272
I4372
aS'100'
p8273
aS'147'
p8274
aa(lp8275
I6537
aS'149'
p8276
aS'262'
p8277
aasS'1ZQV'
p8278
(lp8279
(lp8280
I1544
aS'269'
p8281
aS'333'
p8282
aa(lp8283
I4372
aS'100'
p8284
aS'147'
p8285
aa(lp8286
I6537
aS'149'
p8287
aS'262'
p8288
aasS'3QYJ'
p8289
(lp8290
(lp8291
I885
aS'27'
p8292
aS'253'
p8293
aasS'1ZQT'
p8294
(lp8295
(lp8296
I1544
aS'269'
p8297
aS'333'
p8298
aa(lp8299
I1670
aS'15'
p8300
aS'77'
p8301
aa(lp8302
I4372
aS'100'
p8303
aS'147'
p8304
aa(lp8305
I6537
aS'149'
p8306
aS'262'
p8307
aasS'1ZQU'
p8308
(lp8309
(lp8310
I1544
aS'269'
p8311
aS'333'
p8312
aa(lp8313
I4372
aS'100'
p8314
aS'147'
p8315
aa(lp8316
I6537
aS'149'
p8317
aS'262'
p8318
aasS'1ZQJ'
p8319
(lp8320
(lp8321
I1544
aS'269'
p8322
aS'333'
p8323
aa(lp8324
I1670
aS'15'
p8325
aS'77'
p8326
aa(lp8327
I4372
aS'100'
p8328
aS'147'
p8329
aa(lp8330
I6537
aS'149'
p8331
aS'262'
p8332
aasS'1ZQK'
p8333
(lp8334
(lp8335
I1544
aS'269'
p8336
aS'333'
p8337
aa(lp8338
I1670
aS'15'
p8339
aS'77'
p8340
aa(lp8341
I4372
aS'100'
p8342
aS'147'
p8343
aa(lp8344
I6537
aS'149'
p8345
aS'262'
p8346
aasS'1ZQH'
p8347
(lp8348
(lp8349
I1544
aS'269'
p8350
aS'333'
p8351
aa(lp8352
I1670
aS'15'
p8353
aS'77'
p8354
aa(lp8355
I4372
aS'100'
p8356
aS'147'
p8357
aa(lp8358
I6537
aS'149'
p8359
aS'262'
p8360
aasS'4ITV'
p8361
(lp8362
(lp8363
I885
aS'25'
p8364
aS'263'
p8365
aa(lp8366
I1245
aS'286'
p8367
aS'440'
p8368
aasS'1ZQN'
p8369
(lp8370
(lp8371
I1544
aS'269'
p8372
aS'333'
p8373
aa(lp8374
I1670
aS'15'
p8375
aS'77'
p8376
aa(lp8377
I4372
aS'100'
p8378
aS'147'
p8379
aa(lp8380
I6537
aS'149'
p8381
aS'262'
p8382
aasS'1ZQO'
p8383
(lp8384
(lp8385
I1544
aS'269'
p8386
aS'333'
p8387
aa(lp8388
I1670
aS'15'
p8389
aS'77'
p8390
aa(lp8391
I4372
aS'100'
p8392
aS'147'
p8393
aa(lp8394
I6537
aS'149'
p8395
aS'262'
p8396
aasS'1ZQL'
p8397
(lp8398
(lp8399
I1544
aS'269'
p8400
aS'333'
p8401
aa(lp8402
I1670
aS'15'
p8403
aS'77'
p8404
aa(lp8405
I4372
aS'100'
p8406
aS'147'
p8407
aa(lp8408
I6537
aS'149'
p8409
aS'262'
p8410
aasS'1ZQM'
p8411
(lp8412
(lp8413
I1544
aS'269'
p8414
aS'333'
p8415
aa(lp8416
I1670
aS'15'
p8417
aS'77'
p8418
aa(lp8419
I4372
aS'100'
p8420
aS'147'
p8421
aa(lp8422
I6537
aS'149'
p8423
aS'262'
p8424
aasS'1ZQB'
p8425
(lp8426
(lp8427
I1544
aS'269'
p8428
aS'333'
p8429
aa(lp8430
I1670
aS'15'
p8431
aS'77'
p8432
aa(lp8433
I4372
aS'100'
p8434
aS'147'
p8435
aa(lp8436
I6537
aS'149'
p8437
aS'262'
p8438
aasS'1ZQC'
p8439
(lp8440
(lp8441
I1544
aS'269'
p8442
aS'333'
p8443
aa(lp8444
I1544
aS'269'
p8445
aS'333'
p8446
aa(lp8447
I1670
aS'15'
p8448
aS'77'
p8449
aa(lp8450
I1670
aS'15'
p8451
aS'77'
p8452
aa(lp8453
I4372
aS'100'
p8454
aS'147'
p8455
aa(lp8456
I4372
aS'100'
p8457
aS'147'
p8458
aa(lp8459
I6537
aS'149'
p8460
aS'262'
p8461
aa(lp8462
I6537
aS'149'
p8463
aS'262'
p8464
aasS'1ZQA'
p8465
(lp8466
(lp8467
I1544
aS'269'
p8468
aS'333'
p8469
aa(lp8470
I1670
aS'15'
p8471
aS'77'
p8472
aa(lp8473
I4372
aS'100'
p8474
aS'147'
p8475
aa(lp8476
I6537
aS'149'
p8477
aS'262'
p8478
aasS'1ZQF'
p8479
(lp8480
(lp8481
I1544
aS'269'
p8482
aS'333'
p8483
aa(lp8484
I1670
aS'15'
p8485
aS'77'
p8486
aa(lp8487
I4372
aS'100'
p8488
aS'147'
p8489
aa(lp8490
I6537
aS'149'
p8491
aS'262'
p8492
aasS'1ZQG'
p8493
(lp8494
(lp8495
I1544
aS'269'
p8496
aS'333'
p8497
aa(lp8498
I1670
aS'15'
p8499
aS'77'
p8500
aa(lp8501
I4372
aS'100'
p8502
aS'147'
p8503
aa(lp8504
I6537
aS'149'
p8505
aS'262'
p8506
aasS'1ZQD'
p8507
(lp8508
(lp8509
I1544
aS'269'
p8510
aS'333'
p8511
aa(lp8512
I1670
aS'15'
p8513
aS'77'
p8514
aa(lp8515
I4372
aS'100'
p8516
aS'147'
p8517
aa(lp8518
I6537
aS'149'
p8519
aS'262'
p8520
aasS'1ZQE'
p8521
(lp8522
(lp8523
I1544
aS'269'
p8524
aS'333'
p8525
aa(lp8526
I1670
aS'15'
p8527
aS'77'
p8528
aa(lp8529
I4372
aS'100'
p8530
aS'147'
p8531
aa(lp8532
I6537
aS'149'
p8533
aS'262'
p8534
aasS'4H7E'
p8535
(lp8536
(lp8537
I885
aS'31'
p8538
aS'155'
p8539
aasS'4H7D'
p8540
(lp8541
(lp8542
I885
aS'31'
p8543
aS'155'
p8544
aasS'4H7F'
p8545
(lp8546
(lp8547
I885
aS'31'
p8548
aS'155'
p8549
aasS'2BFN'
p8550
(lp8551
(lp8552
I885
aS'31'
p8553
aS'155'
p8554
aasS'3VDX'
p8555
(lp8556
(lp8557
I885
aS'25'
p8558
aS'263'
p8559
aa(lp8560
I1245
aS'286'
p8561
aS'438'
p8562
aasS'4LZG'
p8563
(lp8564
(lp8565
I1544
aS'430'
p8566
aS'493'
p8567
aa(lp8568
I1670
aS'156'
p8569
aS'218'
p8570
aa(lp8571
I4372
aS'238'
p8572
aS'286'
p8573
aa(lp8574
I6537
aS'292'
p8575
aS'423'
p8576
aasS'4H7I'
p8577
(lp8578
(lp8579
I885
aS'31'
p8580
aS'156'
p8581
aasS'4H7H'
p8582
(lp8583
(lp8584
I885
aS'31'
p8585
aS'156'
p8586
aasS'4H7K'
p8587
(lp8588
(lp8589
I885
aS'31'
p8590
aS'167'
p8591
aasS'2NW6'
p8592
(lp8593
(lp8594
I885
aS'10'
p8595
aS'252'
p8596
aasS'4UAY'
p8597
(lp8598
(lp8599
I1544
aS'269'
p8600
aS'333'
p8601
aa(lp8602
I1670
aS'15'
p8603
aS'77'
p8604
aa(lp8605
I4372
aS'100'
p8606
aS'147'
p8607
aa(lp8608
I6537
aS'149'
p8609
aS'262'
p8610
aasS'4WCV'
p8611
(lp8612
(lp8613
I885
aS'34'
p8614
aS'158'
p8615
aasS'1XSL'
p8616
(lp8617
(lp8618
I1544
aS'502'
p8619
aS'574'
p8620
aa(lp8621
I1670
aS'253'
p8622
aS'318'
p8623
aa(lp8624
I4372
aS'337'
p8625
aS'383'
p8626
aa(lp8627
I6537
aS'386'
p8628
aS'495'
p8629
aasS'1CVL'
p8630
(lp8631
(lp8632
I885
aS'9'
aS'288'
p8633
aasS'3WWO'
p8634
(lp8635
(lp8636
I885
aS'5'
aS'240'
p8637
aasS'4OSE'
p8638
(lp8639
(lp8640
I885
aS'37'
p8641
aS'137'
p8642
aasS'2PSF'
p8643
(lp8644
(lp8645
I885
aS'45'
p8646
aS'291'
p8647
aasS'2PSE'
p8648
(lp8649
(lp8650
I885
aS'45'
p8651
aS'291'
p8652
aasS'2PSD'
p8653
(lp8654
(lp8655
I885
aS'45'
p8656
aS'291'
p8657
aasS'3R41'
p8658
(lp8659
(lp8660
I885
aS'32'
p8661
aS'266'
p8662
aasS'3R40'
p8663
(lp8664
(lp8665
I885
aS'32'
p8666
aS'270'
p8667
aasS'2PSJ'
p8668
(lp8669
(lp8670
I885
aS'45'
p8671
aS'291'
p8672
aasS'2XT0'
p8673
(lp8674
(lp8675
I885
aS'49'
p8676
aS'171'
p8677
aasS'2PSH'
p8678
(lp8679
(lp8680
I885
aS'45'
p8681
aS'291'
p8682
aasS'1G5F'
p8683
(lp8684
(lp8685
I885
aS'31'
p8686
aS'155'
p8687
aasS'2P66'
p8688
(lp8689
(lp8690
I1544
aS'269'
p8691
aS'333'
p8692
aa(lp8693
I1670
aS'15'
p8694
aS'77'
p8695
aa(lp8696
I4372
aS'100'
p8697
aS'147'
p8698
aa(lp8699
I6537
aS'149'
p8700
aS'262'
p8701
aasS'8ICT'
p8702
(lp8703
(lp8704
I1544
aS'269'
p8705
aS'333'
p8706
aa(lp8707
I1670
aS'15'
p8708
aS'77'
p8709
aa(lp8710
I4372
aS'100'
p8711
aS'147'
p8712
aa(lp8713
I6537
aS'149'
p8714
aS'262'
p8715
aasS'3WKE'
p8716
(lp8717
(lp8718
I885
aS'259'
p8719
aS'531'
p8720
aa(lp8721
I885
aS'259'
p8722
aS'531'
p8723
aa(lp8724
I2190
aS'7'
aS'203'
p8725
aa(lp8726
I2190
aS'7'
aS'203'
p8727
aasS'3WKD'
p8728
(lp8729
(lp8730
I885
aS'259'
p8731
aS'531'
p8732
aa(lp8733
I2190
aS'7'
aS'203'
p8734
aasS'3WKC'
p8735
(lp8736
(lp8737
I885
aS'259'
p8738
aS'531'
p8739
aa(lp8740
I2190
aS'7'
aS'203'
p8741
aasS'3WKB'
p8742
(lp8743
(lp8744
I885
aS'259'
p8745
aS'531'
p8746
aa(lp8747
I2190
aS'7'
aS'203'
p8748
aasS'3WKA'
p8749
(lp8750
(lp8751
I885
aS'259'
p8752
aS'531'
p8753
aa(lp8754
I2190
aS'7'
aS'203'
p8755
aasS'3UQ2'
p8756
(lp8757
(lp8758
I1544
aS'502'
p8759
aS'574'
p8760
aa(lp8761
I1670
aS'253'
p8762
aS'318'
p8763
aa(lp8764
I4372
aS'337'
p8765
aS'383'
p8766
aa(lp8767
I6537
aS'386'
p8768
aS'495'
p8769
aasS'3UQ0'
p8770
(lp8771
(lp8772
I1544
aS'502'
p8773
aS'574'
p8774
aa(lp8775
I1670
aS'253'
p8776
aS'318'
p8777
aa(lp8778
I4372
aS'337'
p8779
aS'383'
p8780
aa(lp8781
I6537
aS'386'
p8782
aS'495'
p8783
aasS'3OOS'
p8784
(lp8785
(lp8786
I885
aS'41'
p8787
aS'265'
p8788
aasS'3VVM'
p8789
(lp8790
(lp8791
I885
aS'45'
p8792
aS'357'
p8793
aasS'3VVL'
p8794
(lp8795
(lp8796
I885
aS'46'
p8797
aS'357'
p8798
aasS'4KLU'
p8799
(lp8800
(lp8801
I1544
aS'269'
p8802
aS'333'
p8803
aa(lp8804
I1670
aS'15'
p8805
aS'77'
p8806
aa(lp8807
I4372
aS'100'
p8808
aS'147'
p8809
aa(lp8810
I6537
aS'149'
p8811
aS'262'
p8812
aasS'2BPC'
p8813
(lp8814
(lp8815
I1544
aS'269'
p8816
aS'333'
p8817
aa(lp8818
I4372
aS'100'
p8819
aS'147'
p8820
aa(lp8821
I6537
aS'149'
p8822
aS'262'
p8823
aasS'2BPF'
p8824
(lp8825
(lp8826
I1544
aS'269'
p8827
aS'333'
p8828
aa(lp8829
I1670
aS'15'
p8830
aS'77'
p8831
aa(lp8832
I4372
aS'100'
p8833
aS'147'
p8834
aa(lp8835
I6537
aS'149'
p8836
aS'262'
p8837
aasS'2BPG'
p8838
(lp8839
(lp8840
I1544
aS'269'
p8841
aS'333'
p8842
aa(lp8843
I1670
aS'15'
p8844
aS'77'
p8845
aa(lp8846
I4372
aS'100'
p8847
aS'147'
p8848
aa(lp8849
I6537
aS'149'
p8850
aS'262'
p8851
aasS'4O9M'
p8852
(lp8853
(lp8854
I1544
aS'269'
p8855
aS'333'
p8856
aa(lp8857
I1670
aS'15'
p8858
aS'77'
p8859
aa(lp8860
I4372
aS'100'
p8861
aS'147'
p8862
aa(lp8863
I6537
aS'149'
p8864
aS'262'
p8865
aasS'3WK7'
p8866
(lp8867
(lp8868
I885
aS'259'
p8869
aS'531'
p8870
aa(lp8871
I2190
aS'7'
aS'203'
p8872
aasS'3WK6'
p8873
(lp8874
(lp8875
I885
aS'259'
p8876
aS'531'
p8877
aa(lp8878
I2190
aS'7'
aS'203'
p8879
aasS'3WK5'
p8880
(lp8881
(lp8882
I885
aS'259'
p8883
aS'531'
p8884
aa(lp8885
I2190
aS'7'
aS'203'
p8886
aasS'3WK4'
p8887
(lp8888
(lp8889
I885
aS'259'
p8890
aS'531'
p8891
aa(lp8892
I2190
aS'7'
aS'203'
p8893
aasS'3FBW'
p8894
(lp8895
(lp8896
I885
aS'34'
p8897
aS'158'
p8898
aasS'1MQ3'
p8899
(lp8900
(lp8901
I1544
aS'269'
p8902
aS'333'
p8903
aa(lp8904
I1544
aS'269'
p8905
aS'333'
p8906
aa(lp8907
I1670
aS'15'
p8908
aS'77'
p8909
aa(lp8910
I1670
aS'15'
p8911
aS'77'
p8912
aa(lp8913
I4372
aS'100'
p8914
aS'147'
p8915
aa(lp8916
I4372
aS'100'
p8917
aS'147'
p8918
aa(lp8919
I6537
aS'149'
p8920
aS'262'
p8921
aa(lp8922
I6537
aS'149'
p8923
aS'262'
p8924
aasS'1MQ2'
p8925
(lp8926
(lp8927
I1544
aS'269'
p8928
aS'333'
p8929
aa(lp8930
I1670
aS'15'
p8931
aS'77'
p8932
aa(lp8933
I4372
aS'100'
p8934
aS'147'
p8935
aa(lp8936
I6537
aS'149'
p8937
aS'262'
p8938
aasS'4UAW'
p8939
(lp8940
(lp8941
I1544
aS'269'
p8942
aS'333'
p8943
aa(lp8944
I1670
aS'15'
p8945
aS'77'
p8946
aa(lp8947
I4372
aS'100'
p8948
aS'147'
p8949
aa(lp8950
I6537
aS'149'
p8951
aS'262'
p8952
aasS'3WK9'
p8953
(lp8954
(lp8955
I885
aS'259'
p8956
aS'531'
p8957
aa(lp8958
I2190
aS'7'
aS'203'
p8959
aasS'3WK8'
p8960
(lp8961
(lp8962
I885
aS'259'
p8963
aS'531'
p8964
aa(lp8965
I2190
aS'7'
aS'203'
p8966
aasS'4K2A'
p8967
(lp8968
(lp8969
I885
aS'30'
p8970
aS'141'
p8971
aasS'2W9M'
p8972
(lp8973
(lp8974
I1544
aS'253'
p8975
aS'305'
p8976
aa(lp8977
I1667
aS'98'
p8978
aS'149'
p8979
aa(lp8980
I1670
aS'11'
p8981
aS'76'
p8982
aasS'4Y7D'
p8983
(lp8984
(lp8985
I885
aS'31'
p8986
aS'282'
p8987
aasS'8ICX'
p8988
(lp8989
(lp8990
I1544
aS'269'
p8991
aS'333'
p8992
aa(lp8993
I1670
aS'15'
p8994
aS'77'
p8995
aa(lp8996
I4372
aS'100'
p8997
aS'147'
p8998
aa(lp8999
I6537
aS'149'
p9000
aS'262'
p9001
aasS'9ICL'
p9002
(lp9003
(lp9004
I1544
aS'269'
p9005
aS'333'
p9006
aa(lp9007
I1670
aS'15'
p9008
aS'77'
p9009
aa(lp9010
I4372
aS'100'
p9011
aS'147'
p9012
aa(lp9013
I6537
aS'149'
p9014
aS'262'
p9015
aasS'4KLM'
p9016
(lp9017
(lp9018
I1544
aS'269'
p9019
aS'333'
p9020
aa(lp9021
I1670
aS'15'
p9022
aS'77'
p9023
aa(lp9024
I4372
aS'100'
p9025
aS'147'
p9026
aa(lp9027
I6537
aS'149'
p9028
aS'262'
p9029
aasS'1EB9'
p9030
(lp9031
(lp9032
I885
aS'5'
aS'242'
p9033
aasS'4HS9'
p9034
(lp9035
(lp9036
I885
aS'6'
aS'152'
p9037
aasS'3TFS'
p9038
(lp9039
(lp9040
I1544
aS'269'
p9041
aS'333'
p9042
aa(lp9043
I1670
aS'15'
p9044
aS'77'
p9045
aa(lp9046
I4372
aS'100'
p9047
aS'147'
p9048
aa(lp9049
I6537
aS'149'
p9050
aS'262'
p9051
aasS'4UHH'
p9052
(lp9053
(lp9054
I885
aS'28'
p9055
aS'255'
p9056
aasS'3B0Y'
p9057
(lp9058
(lp9059
I1544
aS'256'
p9060
aS'315'
p9061
aa(lp9062
I1667
aS'94'
p9063
aS'148'
p9064
aa(lp9065
I1670
aS'3'
aS'73'
p9066
aa(lp9067
I6866
aS'340'
p9068
aS'416'
p9069
aasS'3B0X'
p9070
(lp9071
(lp9072
I1544
aS'256'
p9073
aS'315'
p9074
aa(lp9075
I1667
aS'94'
p9076
aS'148'
p9077
aa(lp9078
I1670
aS'3'
aS'73'
p9079
aa(lp9080
I6866
aS'340'
p9081
aS'416'
p9082
aasS'4BAU'
p9083
(lp9084
(lp9085
I885
aS'31'
p9086
aS'142'
p9087
aasS'4BAZ'
p9088
(lp9089
(lp9090
I885
aS'31'
p9091
aS'141'
p9092
aasS'1A7U'
p9093
(lp9094
(lp9095
I885
aS'25'
p9096
aS'263'
p9097
aasS'9ICE'
p9098
(lp9099
(lp9100
I1544
aS'269'
p9101
aS'333'
p9102
aa(lp9103
I1670
aS'15'
p9104
aS'77'
p9105
aa(lp9106
I4372
aS'100'
p9107
aS'147'
p9108
aa(lp9109
I6537
aS'149'
p9110
aS'262'
p9111
aasS'2G4L'
p9112
(lp9113
(lp9114
I885
aS'5'
aS'241'
p9115
aa(lp9116
I885
aS'5'
aS'241'
p9117
aasS'4JNC'
p9118
(lp9119
(lp9120
I885
aS'259'
p9121
aS'531'
p9122
aasS'4LVS'
p9123
(lp9124
(lp9125
I1544
aS'269'
p9126
aS'333'
p9127
aa(lp9128
I1670
aS'15'
p9129
aS'77'
p9130
aa(lp9131
I4372
aS'100'
p9132
aS'147'
p9133
aa(lp9134
I6537
aS'149'
p9135
aS'262'
p9136
aasS'1YB6'
p9137
(lp9138
(lp9139
I885
aS'5'
aS'241'
p9140
aasS'1YB7'
p9141
(lp9142
(lp9143
I885
aS'5'
aS'241'
p9144
aasS'4NM2'
p9145
(lp9146
(lp9147
I1544
aS'269'
p9148
aS'333'
p9149
aa(lp9150
I1670
aS'15'
p9151
aS'77'
p9152
aa(lp9153
I4372
aS'100'
p9154
aS'147'
p9155
aa(lp9156
I6537
aS'149'
p9157
aS'262'
p9158
aasS'5AKZ'
p9159
(lp9160
(lp9161
I885
aS'259'
p9162
aS'531'
p9163
aa(lp9164
I2190
aS'7'
aS'203'
p9165
aasS'5AKY'
p9166
(lp9167
(lp9168
I885
aS'259'
p9169
aS'531'
p9170
aa(lp9171
I2190
aS'7'
aS'203'
p9172
aasS'5AKX'
p9173
(lp9174
(lp9175
I885
aS'259'
p9176
aS'531'
p9177
aa(lp9178
I2190
aS'7'
aS'203'
p9179
aasS'5AKG'
p9180
(lp9181
(lp9182
I885
aS'259'
p9183
aS'531'
p9184
aa(lp9185
I2190
aS'7'
aS'203'
p9186
aasS'5AKE'
p9187
(lp9188
(lp9189
I885
aS'259'
p9190
aS'531'
p9191
aa(lp9192
I2190
aS'7'
aS'203'
p9193
aasS'9ICX'
p9194
(lp9195
(lp9196
I1544
aS'269'
p9197
aS'333'
p9198
aa(lp9199
I1670
aS'15'
p9200
aS'77'
p9201
aa(lp9202
I4372
aS'100'
p9203
aS'147'
p9204
aa(lp9205
I6537
aS'149'
p9206
aS'262'
p9207
aasS'3G9X'
p9208
(lp9209
(lp9210
I885
aS'34'
p9211
aS'158'
p9212
aasS'4NVR'
p9213
(lp9214
(lp9215
I885
aS'39'
p9216
aS'165'
p9217
aasS'5AKL'
p9218
(lp9219
(lp9220
I885
aS'259'
p9221
aS'531'
p9222
aa(lp9223
I2190
aS'7'
aS'203'
p9224
aasS'5AKK'
p9225
(lp9226
(lp9227
I885
aS'259'
p9228
aS'531'
p9229
aa(lp9230
I2190
aS'7'
aS'203'
p9231
aasS'5AKJ'
p9232
(lp9233
(lp9234
I885
aS'259'
p9235
aS'531'
p9236
aa(lp9237
I2190
aS'7'
aS'203'
p9238
aasS'5AKI'
p9239
(lp9240
(lp9241
I885
aS'259'
p9242
aS'531'
p9243
aa(lp9244
I2190
aS'7'
aS'203'
p9245
aasS'3TFR'
p9246
(lp9247
(lp9248
I1544
aS'269'
p9249
aS'333'
p9250
aa(lp9251
I1670
aS'15'
p9252
aS'77'
p9253
aa(lp9254
I4372
aS'100'
p9255
aS'147'
p9256
aa(lp9257
I6537
aS'149'
p9258
aS'262'
p9259
aasS'5AK6'
p9260
(lp9261
(lp9262
I885
aS'259'
p9263
aS'531'
p9264
aa(lp9265
I2190
aS'7'
aS'203'
p9266
aasS'5AK5'
p9267
(lp9268
(lp9269
I885
aS'259'
p9270
aS'531'
p9271
aa(lp9272
I2190
aS'7'
aS'203'
p9273
aasS'5AK4'
p9274
(lp9275
(lp9276
I885
aS'259'
p9277
aS'531'
p9278
aa(lp9279
I2190
aS'7'
aS'203'
p9280
aasS'5AK3'
p9281
(lp9282
(lp9283
I885
aS'259'
p9284
aS'531'
p9285
aa(lp9286
I2190
aS'7'
aS'203'
p9287
aasS'1BN6'
p9288
(lp9289
(lp9290
I885
aS'45'
p9291
aS'169'
p9292
aasS'7YAS'
p9293
(lp9294
(lp9295
I885
aS'5'
aS'241'
p9296
aasS'4Y2Q'
p9297
(lp9298
(lp9299
I885
aS'259'
p9300
aS'531'
p9301
aa(lp9302
I2190
aS'7'
aS'203'
p9303
aasS'4MF8'
p9304
(lp9305
(lp9306
I1544
aS'269'
p9307
aS'333'
p9308
aa(lp9309
I1670
aS'15'
p9310
aS'77'
p9311
aa(lp9312
I4372
aS'100'
p9313
aS'147'
p9314
aa(lp9315
I6537
aS'149'
p9316
aS'262'
p9317
aasS'4NXZ'
p9318
(lp9319
(lp9320
I1544
aS'269'
p9321
aS'333'
p9322
aa(lp9323
I1670
aS'15'
p9324
aS'77'
p9325
aa(lp9326
I4372
aS'100'
p9327
aS'147'
p9328
aa(lp9329
I6537
aS'149'
p9330
aS'262'
p9331
aasS'3PDC'
p9332
(lp9333
(lp9334
I885
aS'257'
p9335
aS'530'
p9336
aasS'4YAS'
p9337
(lp9338
(lp9339
I885
aS'5'
aS'241'
p9340
aasS'2O2I'
p9341
(lp9342
(lp9343
I885
aS'32'
p9344
aS'155'
p9345
aasS'2O2H'
p9346
(lp9347
(lp9348
I885
aS'32'
p9349
aS'155'
p9350
aasS'1D07'
p9351
(lp9352
(lp9353
I885
aS'31'
p9354
aS'155'
p9355
aasS'4RPZ'
p9356
(lp9357
(lp9358
I1544
aS'269'
p9359
aS'333'
p9360
aa(lp9361
I1670
aS'15'
p9362
aS'77'
p9363
aa(lp9364
I4372
aS'100'
p9365
aS'147'
p9366
aa(lp9367
I6537
aS'149'
p9368
aS'262'
p9369
aasS'4RPX'
p9370
(lp9371
(lp9372
I1544
aS'269'
p9373
aS'333'
p9374
aa(lp9375
I1670
aS'15'
p9376
aS'77'
p9377
aa(lp9378
I4372
aS'100'
p9379
aS'147'
p9380
aa(lp9381
I6537
aS'149'
p9382
aS'262'
p9383
aasS'4RPY'
p9384
(lp9385
(lp9386
I1544
aS'269'
p9387
aS'333'
p9388
aa(lp9389
I1670
aS'15'
p9390
aS'77'
p9391
aa(lp9392
I4372
aS'100'
p9393
aS'147'
p9394
aa(lp9395
I6537
aS'149'
p9396
aS'262'
p9397
aasS'1HDE'
p9398
(lp9399
(lp9400
I885
aS'49'
p9401
aS'295'
p9402
aasS'4H7J'
p9403
(lp9404
(lp9405
I885
aS'31'
p9406
aS'155'
p9407
aasS'3RKS'
p9408
(lp9409
(lp9410
I885
aS'5'
aS'242'
p9411
aasS'3RJE'
p9412
(lp9413
(lp9414
I1544
aS'269'
p9415
aS'333'
p9416
aa(lp9417
I1670
aS'15'
p9418
aS'77'
p9419
aa(lp9420
I4372
aS'100'
p9421
aS'147'
p9422
aa(lp9423
I6537
aS'149'
p9424
aS'262'
p9425
aasS'1Y37'
p9426
(lp9427
(lp9428
I885
aS'26'
p9429
aS'151'
p9430
aasS'3RJG'
p9431
(lp9432
(lp9433
I1544
aS'269'
p9434
aS'333'
p9435
aa(lp9436
I1670
aS'15'
p9437
aS'77'
p9438
aa(lp9439
I4372
aS'100'
p9440
aS'147'
p9441
aa(lp9442
I6537
aS'149'
p9443
aS'262'
p9444
aasS'3RJF'
p9445
(lp9446
(lp9447
I1544
aS'269'
p9448
aS'333'
p9449
aa(lp9450
I1670
aS'15'
p9451
aS'77'
p9452
aa(lp9453
I4372
aS'100'
p9454
aS'147'
p9455
aa(lp9456
I6537
aS'149'
p9457
aS'262'
p9458
aasS'3HWT'
p9459
(lp9460
(lp9461
I1544
aS'502'
p9462
aS'574'
p9463
aa(lp9464
I1670
aS'257'
p9465
aS'318'
p9466
aa(lp9467
I4372
aS'337'
p9468
aS'383'
p9469
aa(lp9470
I6537
aS'386'
p9471
aS'495'
p9472
aasS'3RJI'
p9473
(lp9474
(lp9475
I1544
aS'269'
p9476
aS'333'
p9477
aa(lp9478
I1670
aS'15'
p9479
aS'77'
p9480
aa(lp9481
I4372
aS'100'
p9482
aS'147'
p9483
aa(lp9484
I6537
aS'149'
p9485
aS'262'
p9486
aasS'4FWB'
p9487
(lp9488
(lp9489
I885
aS'34'
p9490
aS'158'
p9491
aasS'3RJK'
p9492
(lp9493
(lp9494
I1544
aS'269'
p9495
aS'333'
p9496
aa(lp9497
I1670
aS'15'
p9498
aS'77'
p9499
aa(lp9500
I4372
aS'100'
p9501
aS'147'
p9502
aa(lp9503
I6537
aS'149'
p9504
aS'262'
p9505
aasS'3RJJ'
p9506
(lp9507
(lp9508
I1544
aS'269'
p9509
aS'333'
p9510
aa(lp9511
I1670
aS'15'
p9512
aS'77'
p9513
aa(lp9514
I4372
aS'100'
p9515
aS'147'
p9516
aa(lp9517
I6537
aS'149'
p9518
aS'262'
p9519
aasS'1BE0'
p9520
(lp9521
(lp9522
I885
aS'49'
p9523
aS'295'
p9524
aasS'4MF2'
p9525
(lp9526
(lp9527
I1544
aS'269'
p9528
aS'333'
p9529
aa(lp9530
I1670
aS'15'
p9531
aS'77'
p9532
aa(lp9533
I4372
aS'100'
p9534
aS'147'
p9535
aa(lp9536
I6537
aS'149'
p9537
aS'262'
p9538
aasS'3LK9'
p9539
(lp9540
(lp9541
I1544
aS'269'
p9542
aS'333'
p9543
aa(lp9544
I1670
aS'15'
p9545
aS'77'
p9546
aa(lp9547
I4372
aS'100'
p9548
aS'147'
p9549
aa(lp9550
I6537
aS'149'
p9551
aS'262'
p9552
aasS'3R3V'
p9553
(lp9554
(lp9555
I885
aS'32'
p9556
aS'270'
p9557
aasS'3R3W'
p9558
(lp9559
(lp9560
I885
aS'32'
p9561
aS'270'
p9562
aasS'3R3U'
p9563
(lp9564
(lp9565
I885
aS'32'
p9566
aS'270'
p9567
aasS'3R3Z'
p9568
(lp9569
(lp9570
I885
aS'32'
p9571
aS'270'
p9572
aasS'3R3X'
p9573
(lp9574
(lp9575
I885
aS'32'
p9576
aS'270'
p9577
aasS'3R3Y'
p9578
(lp9579
(lp9580
I885
aS'32'
p9581
aS'266'
p9582
aasS'1C05'
p9583
(lp9584
(lp9585
I145
aS'2'
aS'50'
p9586
aa(lp9587
I145
aS'2'
aS'50'
p9588
aa(lp9589
I2835
aS'52'
p9590
aS'98'
p9591
aa(lp9592
I2835
aS'52'
p9593
aS'98'
p9594
aasS'1C06'
p9595
(lp9596
(lp9597
I145
aS'2'
aS'50'
p9598
aa(lp9599
I2835
aS'52'
p9600
aS'98'
p9601
aasS'3J81'
p9602
(lp9603
(lp9604
I82
aS'32'
p9605
aS'94'
p9606
aa(lp9607
I125
aS'24'
p9608
aS'102'
p9609
aa(lp9610
I143
aS'17'
p9611
aS'112'
p9612
aa(lp9613
I143
aS'116'
p9614
aS'181'
p9615
aa(lp9616
I145
aS'8'
aS'61'
p9617
aa(lp9618
I147
aS'81'
p9619
aS'145'
p9620
aa(lp9621
I512
aS'2'
aS'60'
p9622
aa(lp9623
I625
aS'6'
aS'66'
p9624
aa(lp9625
I672
aS'2'
aS'185'
p9626
aa(lp9627
I1127
aS'212'
p9628
aS'258'
p9629
aa(lp9630
I2417
aS'178'
p9631
aS'211'
p9632
aa(lp9633
I2446
aS'107'
p9634
aS'188'
p9635
aa(lp9636
I2502
aS'3'
aS'39'
p9637
aa(lp9638
I2828
aS'429'
p9639
aS'517'
p9640
aa(lp9641
I2833
aS'14'
p9642
aS'88'
p9643
aa(lp9644
I2835
aS'107'
p9645
aS'151'
p9646
aa(lp9647
I2835
aS'43'
p9648
aS'90'
p9649
aa(lp9650
I3282
aS'10'
p9651
aS'186'
p9652
aa(lp9653
I3544
aS'16'
p9654
aS'144'
p9655
aa(lp9656
I3545
aS'23'
p9657
aS'116'
p9658
aa(lp9659
I3548
aS'73'
p9660
aS'141'
p9661
aa(lp9662
I3549
aS'7'
aS'56'
p9663
aa(lp9664
I3550
aS'74'
p9665
aS'147'
p9666
aa(lp9667
I3767
aS'19'
p9668
aS'221'
p9669
aa(lp9670
I3809
aS'165'
p9671
aS'235'
p9672
aa(lp9673
I3813
aS'8'
aS'60'
p9674
aa(lp9675
I4304
aS'8'
aS'71'
p9676
aa(lp9677
I4654
aS'339'
p9678
aS'417'
p9679
aa(lp9680
I4667
aS'5'
aS'140'
p9681
aa(lp9682
I4935
aS'2'
aS'116'
p9683
aa(lp9684
I5041
aS'6'
aS'130'
p9685
aa(lp9686
I5042
aS'11'
p9687
aS'143'
p9688
aa(lp9689
I5050
aS'85'
p9690
aS'227'
p9691
aa(lp9692
I5532
aS'11'
p9693
aS'144'
p9694
aa(lp9695
I5807
aS'1'
aS'80'
p9696
aa(lp9697
I6226
aS'100'
p9698
aS'303'
p9699
aa(lp9700
I6235
aS'1'
aS'25'
p9701
aa(lp9702
I6345
aS'20'
p9703
aS'92'
p9704
aa(lp9705
I6388
aS'3'
aS'92'
p9706
aa(lp9707
I6403
aS'15'
p9708
aS'133'
p9709
aa(lp9710
I6412
aS'47'
p9711
aS'128'
p9712
aa(lp9713
I6625
aS'20'
p9714
aS'113'
p9715
aa(lp9716
I6680
aS'95'
p9717
aS'169'
p9718
aa(lp9719
I6742
aS'23'
p9720
aS'98'
p9721
aa(lp9722
I6925
aS'1'
aS'126'
p9723
aa(lp9724
I7161
aS'36'
p9725
aS'104'
p9726
aa(lp9727
I7213
aS'12'
p9728
aS'46'
p9729
aa(lp9730
I7213
aS'57'
p9731
aS'94'
p9732
aa(lp9733
I7213
aS'104'
p9734
aS'136'
p9735
aa(lp9736
I7213
aS'139'
p9737
aS'187'
p9738
aa(lp9739
I7213
aS'198'
p9740
aS'231'
p9741
aa(lp9742
I7397
aS'28'
p9743
aS'82'
p9744
aa(lp9745
I7432
aS'2'
aS'98'
p9746
aa(lp9747
I7504
aS'102'
p9748
aS'145'
p9749
aa(lp9750
I7551
aS'126'
p9751
aS'237'
p9752
aasS'3WMR'
p9753
(lp9754
(lp9755
I885
aS'31'
p9756
aS'284'
p9757
aasS'2WFM'
p9758
(lp9759
(lp9760
I885
aS'12'
p9761
aS'122'
p9762
aasS'3GZJ'
p9763
(lp9764
(lp9765
I885
aS'12'
p9766
aS'122'
p9767
aasS'2OCL'
p9768
(lp9769
(lp9770
I885
aS'45'
p9771
aS'165'
p9772
aasS'4M9H'
p9773
(lp9774
(lp9775
I1544
aS'269'
p9776
aS'333'
p9777
aa(lp9778
I1670
aS'15'
p9779
aS'77'
p9780
aa(lp9781
I4372
aS'100'
p9782
aS'147'
p9783
aa(lp9784
I6537
aS'149'
p9785
aS'262'
p9786
aasS'4M9N'
p9787
(lp9788
(lp9789
I1544
aS'269'
p9790
aS'333'
p9791
aa(lp9792
I1670
aS'15'
p9793
aS'77'
p9794
aa(lp9795
I4372
aS'100'
p9796
aS'147'
p9797
aa(lp9798
I6537
aS'149'
p9799
aS'262'
p9800
aasS'2OCI'
p9801
(lp9802
(lp9803
I885
aS'45'
p9804
aS'165'
p9805
aasS'4M9L'
p9806
(lp9807
(lp9808
I1544
aS'269'
p9809
aS'333'
p9810
aa(lp9811
I1670
aS'15'
p9812
aS'77'
p9813
aa(lp9814
I4372
aS'100'
p9815
aS'147'
p9816
aa(lp9817
I6537
aS'149'
p9818
aS'262'
p9819
aasS'2OCK'
p9820
(lp9821
(lp9822
I885
aS'45'
p9823
aS'165'
p9824
aasS'1MU0'
p9825
(lp9826
(lp9827
I885
aS'34'
p9828
aS'277'
p9829
aasS'2OCG'
p9830
(lp9831
(lp9832
I885
aS'45'
p9833
aS'165'
p9834
aasS'3I28'
p9835
(lp9836
(lp9837
I885
aS'259'
p9838
aS'531'
p9839
aa(lp9840
I2190
aS'7'
aS'203'
p9841
aasS'4KAC'
p9842
(lp9843
(lp9844
I885
aS'45'
p9845
aS'169'
p9846
aasS'1BEE'
p9847
(lp9848
(lp9849
I885
aS'49'
p9850
aS'295'
p9851
aasS'3T4U'
p9852
(lp9853
(lp9854
I885
aS'20'
p9855
aS'252'
p9856
aasS'2EDC'
p9857
(lp9858
(lp9859
I885
aS'49'
p9860
aS'295'
p9861
aasS'2EDA'
p9862
(lp9863
(lp9864
I885
aS'49'
p9865
aS'295'
p9866
aasS'4V8O'
p9867
(lp9868
(lp9869
I143
aS'10'
p9870
aS'223'
p9871
aa(lp9872
I145
aS'3'
aS'98'
p9873
aa(lp9874
I147
aS'6'
aS'70'
p9875
aa(lp9876
I148
aS'3'
aS'92'
p9877
aa(lp9878
I1731
aS'20'
p9879
aS'117'
p9880
aa(lp9881
I1732
aS'4'
aS'132'
p9882
aa(lp9883
I1735
aS'12'
p9884
aS'136'
p9885
aa(lp9886
I1739
aS'6'
aS'113'
p9887
aa(lp9888
I1787
aS'87'
p9889
aS'180'
p9890
aa(lp9891
I2019
aS'8'
aS'53'
p9892
aa(lp9893
I2020
aS'4'
aS'48'
p9894
aa(lp9895
I2021
aS'4'
aS'54'
p9896
aa(lp9897
I2023
aS'1'
aS'37'
p9898
aa(lp9899
I2024
aS'1'
aS'43'
p9900
aa(lp9901
I2417
aS'9'
aS'40'
p9902
aa(lp9903
I2446
aS'120'
p9904
aS'202'
p9905
aa(lp9906
I2767
aS'5'
aS'88'
p9907
aa(lp9908
I2772
aS'12'
p9909
aS'82'
p9910
aa(lp9911
I2772
aS'91'
p9912
aS'164'
p9913
aa(lp9914
I2835
aS'100'
p9915
aS'146'
p9916
aa(lp9917
I2994
aS'2'
aS'26'
p9918
aa(lp9919
I3071
aS'1'
aS'122'
p9920
aa(lp9921
I3544
aS'3'
aS'109'
p9922
aa(lp9923
I3545
aS'5'
aS'99'
p9924
aa(lp9925
I3547
aS'8'
aS'67'
p9926
aa(lp9927
I3548
aS'8'
aS'74'
p9928
aa(lp9929
I3549
aS'9'
aS'60'
p9930
aa(lp9931
I3550
aS'8'
aS'88'
p9932
aa(lp9933
I3553
aS'33'
p9934
aS'79'
p9935
aa(lp9936
I3809
aS'82'
p9937
aS'152'
p9938
aa(lp9939
I4161
aS'11'
p9940
aS'109'
p9941
aa(lp9942
I4162
aS'27'
p9943
aS'145'
p9944
aa(lp9945
I4492
aS'2'
aS'62'
p9946
aa(lp9947
I4654
aS'314'
p9948
aS'380'
p9949
aa(lp9950
I4903
aS'95'
p9951
aS'177'
p9952
aa(lp9953
I5041
aS'4'
aS'138'
p9954
aa(lp9955
I5042
aS'8'
aS'128'
p9956
aa(lp9957
I5050
aS'2'
aS'149'
p9958
aa(lp9959
I5273
aS'126'
p9960
aS'251'
p9961
aa(lp9962
I5434
aS'5'
aS'59'
p9963
aa(lp9964
I5516
aS'27'
p9965
aS'83'
p9966
aa(lp9967
I5517
aS'26'
p9968
aS'204'
p9969
aa(lp9970
I5519
aS'29'
p9971
aS'221'
p9972
aa(lp9973
I5520
aS'93'
p9974
aS'175'
p9975
aa(lp9976
I5521
aS'42'
p9977
aS'118'
p9978
aa(lp9979
I5532
aS'6'
aS'126'
p9980
aa(lp9981
I5533
aS'2'
aS'81'
p9982
aa(lp9983
I5991
aS'3'
aS'65'
p9984
aa(lp9985
I5992
aS'12'
p9986
aS'67'
p9987
aa(lp9988
I5995
aS'3'
aS'109'
p9989
aa(lp9990
I5996
aS'5'
aS'107'
p9991
aa(lp9992
I5997
aS'6'
aS'90'
p9993
aa(lp9994
I6226
aS'13'
p9995
aS'277'
p9996
aa(lp9997
I6228
aS'1'
aS'94'
p9998
aa(lp9999
I6345
aS'39'
p10000
aS'110'
p10001
aa(lp10002
I6403
aS'17'
p10003
aS'126'
p10004
aa(lp10005
I6412
aS'4'
aS'82'
p10006
aa(lp10007
I6965
aS'387'
p10008
aS'514'
p10009
aa(lp10010
I7148
aS'11'
p10011
aS'88'
p10012
aasS'4G9G'
p10013
(lp10014
(lp10015
I885
aS'26'
p10016
aS'142'
p10017
aasS'1BEZ'
p10018
(lp10019
(lp10020
I885
aS'49'
p10021
aS'295'
p10022
aasS'1VJ5'
p10023
(lp10024
(lp10025
I885
aS'257'
p10026
aS'530'
p10027
aa(lp10028
I2190
aS'7'
aS'203'
p10029
aasS'1IZ8'
p10030
(lp10031
(lp10032
I885
aS'31'
p10033
aS'155'
p10034
aasS'2FMP'
p10035
(lp10036
(lp10037
I1544
aS'269'
p10038
aS'333'
p10039
aa(lp10040
I1670
aS'15'
p10041
aS'77'
p10042
aa(lp10043
I4372
aS'100'
p10044
aS'147'
p10045
aa(lp10046
I6537
aS'149'
p10047
aS'262'
p10048
aasS'4RT2'
p10049
(lp10050
(lp10051
I1544
aS'269'
p10052
aS'333'
p10053
aa(lp10054
I1670
aS'15'
p10055
aS'77'
p10056
aa(lp10057
I4372
aS'100'
p10058
aS'147'
p10059
aa(lp10060
I6537
aS'149'
p10061
aS'262'
p10062
aasS'4RT3'
p10063
(lp10064
(lp10065
I1544
aS'269'
p10066
aS'333'
p10067
aa(lp10068
I1670
aS'15'
p10069
aS'77'
p10070
aa(lp10071
I4372
aS'100'
p10072
aS'147'
p10073
aa(lp10074
I6537
aS'149'
p10075
aS'262'
p10076
aasS'1IZ7'
p10077
(lp10078
(lp10079
I885
aS'31'
p10080
aS'155'
p10081
aasS'5AFI'
p10082
(lp10083
(lp10084
I143
aS'8'
aS'223'
p10085
aa(lp10086
I145
aS'2'
aS'94'
p10087
aa(lp10088
I147
aS'10'
p10089
aS'73'
p10090
aa(lp10091
I148
aS'3'
aS'91'
p10092
aa(lp10093
I1731
aS'20'
p10094
aS'116'
p10095
aa(lp10096
I1732
aS'4'
aS'131'
p10097
aa(lp10098
I1733
aS'71'
p10099
aS'139'
p10100
aa(lp10101
I1734
aS'5'
aS'101'
p10102
aa(lp10103
I1735
aS'15'
p10104
aS'138'
p10105
aa(lp10106
I1739
aS'2'
aS'112'
p10107
aa(lp10108
I1787
aS'83'
p10109
aS'176'
p10110
aa(lp10111
I2019
aS'6'
aS'52'
p10112
aa(lp10113
I2020
aS'1'
aS'65'
p10114
aa(lp10115
I2021
aS'4'
aS'53'
p10116
aa(lp10117
I2023
aS'1'
aS'38'
p10118
aa(lp10119
I2024
aS'1'
aS'44'
p10120
aa(lp10121
I2417
aS'7'
aS'36'
p10122
aa(lp10123
I2446
aS'119'
p10124
aS'201'
p10125
aa(lp10126
I2577
aS'64'
p10127
aS'148'
p10128
aa(lp10129
I2585
aS'1'
aS'45'
p10130
aa(lp10131
I2767
aS'4'
aS'91'
p10132
aa(lp10133
I2772
aS'10'
p10134
aS'81'
p10135
aa(lp10136
I2772
aS'89'
p10137
aS'163'
p10138
aa(lp10139
I2835
aS'96'
p10140
aS'142'
p10141
aa(lp10142
I3071
aS'1'
aS'122'
p10143
aa(lp10144
I3544
aS'2'
aS'107'
p10145
aa(lp10146
I3545
aS'7'
aS'100'
p10147
aa(lp10148
I3547
aS'8'
aS'68'
p10149
aa(lp10150
I3548
aS'9'
aS'75'
p10151
aa(lp10152
I3549
aS'47'
p10153
aS'100'
p10154
aa(lp10155
I3550
aS'8'
aS'87'
p10156
aa(lp10157
I3553
aS'18'
p10158
aS'67'
p10159
aa(lp10160
I3809
aS'86'
p10161
aS'156'
p10162
aa(lp10163
I4161
aS'2'
aS'117'
p10164
aa(lp10165
I4162
aS'28'
p10166
aS'143'
p10167
aa(lp10168
I4492
aS'1'
aS'59'
p10169
aa(lp10170
I4654
aS'224'
p10171
aS'292'
p10172
aa(lp10173
I4655
aS'297'
p10174
aS'391'
p10175
aa(lp10176
I5041
aS'4'
aS'128'
p10177
aa(lp10178
I5042
aS'9'
aS'129'
p10179
aa(lp10180
I5050
aS'1'
aS'148'
p10181
aa(lp10182
I5273
aS'124'
p10183
aS'248'
p10184
aa(lp10185
I5434
aS'1'
aS'56'
p10186
aa(lp10187
I5516
aS'23'
p10188
aS'79'
p10189
aa(lp10190
I5517
aS'13'
p10191
aS'198'
p10192
aa(lp10193
I5520
aS'27'
p10194
aS'182'
p10195
aa(lp10196
I5521
aS'41'
p10197
aS'116'
p10198
aa(lp10199
I5532
aS'5'
aS'122'
p10200
aa(lp10201
I5533
aS'7'
aS'78'
p10202
aa(lp10203
I5683
aS'8'
aS'66'
p10204
aa(lp10205
I5991
aS'2'
aS'61'
p10206
aa(lp10207
I5992
aS'4'
aS'60'
p10208
aa(lp10209
I5995
aS'2'
aS'108'
p10210
aa(lp10211
I5996
aS'5'
aS'108'
p10212
aa(lp10213
I5997
aS'9'
aS'93'
p10214
aa(lp10215
I6226
aS'9'
aS'200'
p10216
aa(lp10217
I6228
aS'1'
aS'96'
p10218
aa(lp10219
I6345
aS'37'
p10220
aS'110'
p10221
aa(lp10222
I6403
aS'18'
p10223
aS'127'
p10224
aa(lp10225
I6412
aS'2'
aS'80'
p10226
aa(lp10227
I7148
aS'2'
aS'83'
p10228
aa(lp10229
I7507
aS'3'
aS'55'
p10230
aasS'2I9G'
p10231
(lp10232
(lp10233
I1544
aS'269'
p10234
aS'333'
p10235
aa(lp10236
I1670
aS'15'
p10237
aS'77'
p10238
aa(lp10239
I4372
aS'100'
p10240
aS'147'
p10241
aa(lp10242
I6537
aS'149'
p10243
aS'262'
p10244
aasS'4QZG'
p10245
(lp10246
(lp10247
I1544
aS'446'
p10248
aS'509'
p10249
aa(lp10250
I1670
aS'165'
p10251
aS'230'
p10252
aa(lp10253
I4372
aS'250'
p10254
aS'299'
p10255
aa(lp10256
I6537
aS'305'
p10257
aS'376'
p10258
aasS'8ICF'
p10259
(lp10260
(lp10261
I1544
aS'269'
p10262
aS'333'
p10263
aa(lp10264
I1670
aS'15'
p10265
aS'77'
p10266
aa(lp10267
I4372
aS'100'
p10268
aS'147'
p10269
aa(lp10270
I6537
aS'149'
p10271
aS'262'
p10272
aasS'8ICG'
p10273
(lp10274
(lp10275
I1544
aS'269'
p10276
aS'333'
p10277
aa(lp10278
I1670
aS'15'
p10279
aS'77'
p10280
aa(lp10281
I4372
aS'100'
p10282
aS'147'
p10283
aa(lp10284
I6537
aS'149'
p10285
aS'262'
p10286
aasS'8ICA'
p10287
(lp10288
(lp10289
I1544
aS'269'
p10290
aS'333'
p10291
aa(lp10292
I1670
aS'15'
p10293
aS'77'
p10294
aa(lp10295
I4372
aS'100'
p10296
aS'147'
p10297
aa(lp10298
I6537
aS'149'
p10299
aS'262'
p10300
aasS'8ICB'
p10301
(lp10302
(lp10303
I1544
aS'269'
p10304
aS'333'
p10305
aa(lp10306
I1670
aS'15'
p10307
aS'77'
p10308
aa(lp10309
I4372
aS'100'
p10310
aS'147'
p10311
aa(lp10312
I6537
aS'149'
p10313
aS'262'
p10314
aasS'8ICC'
p10315
(lp10316
(lp10317
I1544
aS'269'
p10318
aS'333'
p10319
aa(lp10320
I1670
aS'15'
p10321
aS'77'
p10322
aa(lp10323
I4372
aS'100'
p10324
aS'147'
p10325
aa(lp10326
I6537
aS'149'
p10327
aS'262'
p10328
aasS'8ICL'
p10329
(lp10330
(lp10331
I1544
aS'269'
p10332
aS'333'
p10333
aa(lp10334
I1670
aS'15'
p10335
aS'77'
p10336
aa(lp10337
I4372
aS'100'
p10338
aS'147'
p10339
aa(lp10340
I6537
aS'149'
p10341
aS'262'
p10342
aasS'8ICM'
p10343
(lp10344
(lp10345
I1544
aS'269'
p10346
aS'333'
p10347
aa(lp10348
I1670
aS'15'
p10349
aS'77'
p10350
aa(lp10351
I4372
aS'100'
p10352
aS'147'
p10353
aa(lp10354
I6537
aS'149'
p10355
aS'262'
p10356
aasS'8ICN'
p10357
(lp10358
(lp10359
I1544
aS'269'
p10360
aS'333'
p10361
aa(lp10362
I1670
aS'15'
p10363
aS'77'
p10364
aa(lp10365
I4372
aS'100'
p10366
aS'147'
p10367
aa(lp10368
I6537
aS'149'
p10369
aS'262'
p10370
aasS'8ICO'
p10371
(lp10372
(lp10373
I1544
aS'269'
p10374
aS'333'
p10375
aa(lp10376
I1670
aS'15'
p10377
aS'77'
p10378
aa(lp10379
I4372
aS'100'
p10380
aS'147'
p10381
aa(lp10382
I6537
aS'149'
p10383
aS'262'
p10384
aasS'8ICH'
p10385
(lp10386
(lp10387
I1544
aS'269'
p10388
aS'333'
p10389
aa(lp10390
I1670
aS'15'
p10391
aS'77'
p10392
aa(lp10393
I4372
aS'100'
p10394
aS'147'
p10395
aa(lp10396
I6537
aS'149'
p10397
aS'262'
p10398
aasS'8ICI'
p10399
(lp10400
(lp10401
I1544
aS'269'
p10402
aS'333'
p10403
aa(lp10404
I1670
aS'15'
p10405
aS'77'
p10406
aa(lp10407
I4372
aS'100'
p10408
aS'147'
p10409
aa(lp10410
I6537
aS'149'
p10411
aS'262'
p10412
aasS'8ICJ'
p10413
(lp10414
(lp10415
I1544
aS'269'
p10416
aS'333'
p10417
aa(lp10418
I1670
aS'15'
p10419
aS'77'
p10420
aa(lp10421
I4372
aS'100'
p10422
aS'147'
p10423
aa(lp10424
I6537
aS'149'
p10425
aS'262'
p10426
aasS'8ICK'
p10427
(lp10428
(lp10429
I1544
aS'269'
p10430
aS'333'
p10431
aa(lp10432
I1670
aS'15'
p10433
aS'77'
p10434
aa(lp10435
I4372
aS'100'
p10436
aS'147'
p10437
aa(lp10438
I6537
aS'149'
p10439
aS'262'
p10440
aasS'3FOB'
p10441
(lp10442
(lp10443
I885
aS'25'
p10444
aS'258'
p10445
aasS'8ICU'
p10446
(lp10447
(lp10448
I1544
aS'269'
p10449
aS'333'
p10450
aa(lp10451
I1670
aS'15'
p10452
aS'77'
p10453
aa(lp10454
I4372
aS'100'
p10455
aS'147'
p10456
aa(lp10457
I6537
aS'149'
p10458
aS'262'
p10459
aasS'8ICV'
p10460
(lp10461
(lp10462
I1544
aS'269'
p10463
aS'333'
p10464
aa(lp10465
I1670
aS'15'
p10466
aS'77'
p10467
aa(lp10468
I4372
aS'100'
p10469
aS'147'
p10470
aa(lp10471
I6537
aS'149'
p10472
aS'262'
p10473
aasS'8ICW'
p10474
(lp10475
(lp10476
I1544
aS'269'
p10477
aS'333'
p10478
aa(lp10479
I1670
aS'15'
p10480
aS'77'
p10481
aa(lp10482
I4372
aS'100'
p10483
aS'147'
p10484
aa(lp10485
I6537
aS'149'
p10486
aS'262'
p10487
aasS'8ICP'
p10488
(lp10489
(lp10490
I1544
aS'269'
p10491
aS'333'
p10492
aa(lp10493
I1670
aS'15'
p10494
aS'77'
p10495
aa(lp10496
I4372
aS'100'
p10497
aS'147'
p10498
aa(lp10499
I6537
aS'149'
p10500
aS'262'
p10501
aasS'8ICQ'
p10502
(lp10503
(lp10504
I1544
aS'269'
p10505
aS'333'
p10506
aa(lp10507
I1670
aS'15'
p10508
aS'77'
p10509
aa(lp10510
I4372
aS'100'
p10511
aS'147'
p10512
aa(lp10513
I6537
aS'149'
p10514
aS'262'
p10515
aasS'8ICR'
p10516
(lp10517
(lp10518
I1544
aS'269'
p10519
aS'333'
p10520
aa(lp10521
I1670
aS'15'
p10522
aS'77'
p10523
aa(lp10524
I4372
aS'100'
p10525
aS'147'
p10526
aa(lp10527
I6537
aS'149'
p10528
aS'262'
p10529
aasS'8ICS'
p10530
(lp10531
(lp10532
I1544
aS'269'
p10533
aS'333'
p10534
aa(lp10535
I1670
aS'15'
p10536
aS'77'
p10537
aa(lp10538
I4372
aS'100'
p10539
aS'147'
p10540
aa(lp10541
I6537
aS'149'
p10542
aS'262'
p10543
aasS'3PNC'
p10544
(lp10545
(lp10546
I1544
aS'502'
p10547
aS'574'
p10548
aa(lp10549
I1670
aS'253'
p10550
aS'318'
p10551
aa(lp10552
I4372
aS'337'
p10553
aS'383'
p10554
aa(lp10555
I6537
aS'386'
p10556
aS'495'
p10557
aasS'3I1Y'
p10558
(lp10559
(lp10560
I885
aS'259'
p10561
aS'531'
p10562
aa(lp10563
I885
aS'259'
p10564
aS'531'
p10565
aa(lp10566
I2190
aS'7'
aS'203'
p10567
aa(lp10568
I2190
aS'7'
aS'203'
p10569
aasS'1EB8'
p10570
(lp10571
(lp10572
I885
aS'5'
aS'242'
p10573
aasS'8ICY'
p10574
(lp10575
(lp10576
I1544
aS'269'
p10577
aS'333'
p10578
aa(lp10579
I1670
aS'15'
p10580
aS'77'
p10581
aa(lp10582
I4372
aS'100'
p10583
aS'147'
p10584
aa(lp10585
I6537
aS'149'
p10586
aS'262'
p10587
aasS'4LZD'
p10588
(lp10589
(lp10590
I1544
aS'430'
p10591
aS'493'
p10592
aa(lp10593
I1670
aS'156'
p10594
aS'218'
p10595
aa(lp10596
I4372
aS'238'
p10597
aS'286'
p10598
aa(lp10599
I6537
aS'292'
p10600
aS'423'
p10601
aasS'1IUP'
p10602
(lp10603
(lp10604
I885
aS'27'
p10605
aS'257'
p10606
aasS'4V85'
p10607
(lp10608
(lp10609
I143
aS'8'
aS'223'
p10610
aa(lp10611
I145
aS'2'
aS'94'
p10612
aa(lp10613
I147
aS'10'
p10614
aS'73'
p10615
aa(lp10616
I148
aS'3'
aS'91'
p10617
aa(lp10618
I1339
aS'3'
aS'30'
p10619
aa(lp10620
I1731
aS'20'
p10621
aS'116'
p10622
aa(lp10623
I1732
aS'4'
aS'131'
p10624
aa(lp10625
I1733
aS'71'
p10626
aS'139'
p10627
aa(lp10628
I1734
aS'5'
aS'101'
p10629
aa(lp10630
I1735
aS'15'
p10631
aS'138'
p10632
aa(lp10633
I1739
aS'2'
aS'112'
p10634
aa(lp10635
I1787
aS'83'
p10636
aS'176'
p10637
aa(lp10638
I2019
aS'6'
aS'52'
p10639
aa(lp10640
I2021
aS'4'
aS'53'
p10641
aa(lp10642
I2023
aS'1'
aS'38'
p10643
aa(lp10644
I2024
aS'1'
aS'44'
p10645
aa(lp10646
I2417
aS'7'
aS'36'
p10647
aa(lp10648
I2446
aS'119'
p10649
aS'201'
p10650
aa(lp10651
I2767
aS'4'
aS'91'
p10652
aa(lp10653
I2772
aS'10'
p10654
aS'81'
p10655
aa(lp10656
I2772
aS'89'
p10657
aS'163'
p10658
aa(lp10659
I2835
aS'96'
p10660
aS'142'
p10661
aa(lp10662
I3071
aS'1'
aS'122'
p10663
aa(lp10664
I3544
aS'2'
aS'107'
p10665
aa(lp10666
I3545
aS'7'
aS'100'
p10667
aa(lp10668
I3547
aS'8'
aS'68'
p10669
aa(lp10670
I3548
aS'9'
aS'75'
p10671
aa(lp10672
I3549
aS'46'
p10673
aS'99'
p10674
aa(lp10675
I3550
aS'8'
aS'87'
p10676
aa(lp10677
I3553
aS'19'
p10678
aS'67'
p10679
aa(lp10680
I3809
aS'86'
p10681
aS'156'
p10682
aa(lp10683
I4161
aS'2'
aS'117'
p10684
aa(lp10685
I4162
aS'28'
p10686
aS'143'
p10687
aa(lp10688
I4492
aS'1'
aS'59'
p10689
aa(lp10690
I4654
aS'314'
p10691
aS'380'
p10692
aa(lp10693
I5041
aS'4'
aS'128'
p10694
aa(lp10695
I5042
aS'9'
aS'129'
p10696
aa(lp10697
I5050
aS'1'
aS'148'
p10698
aa(lp10699
I5273
aS'124'
p10700
aS'248'
p10701
aa(lp10702
I5434
aS'1'
aS'56'
p10703
aa(lp10704
I5516
aS'23'
p10705
aS'79'
p10706
aa(lp10707
I5517
aS'13'
p10708
aS'198'
p10709
aa(lp10710
I5520
aS'27'
p10711
aS'182'
p10712
aa(lp10713
I5521
aS'41'
p10714
aS'116'
p10715
aa(lp10716
I5532
aS'5'
aS'122'
p10717
aa(lp10718
I5533
aS'6'
aS'81'
p10719
aa(lp10720
I5683
aS'8'
aS'66'
p10721
aa(lp10722
I5991
aS'2'
aS'61'
p10723
aa(lp10724
I5992
aS'4'
aS'60'
p10725
aa(lp10726
I5995
aS'2'
aS'108'
p10727
aa(lp10728
I5996
aS'5'
aS'108'
p10729
aa(lp10730
I5997
aS'9'
aS'93'
p10731
aa(lp10732
I6226
aS'13'
p10733
aS'277'
p10734
aa(lp10735
I6228
aS'1'
aS'96'
p10736
aa(lp10737
I6345
aS'37'
p10738
aS'110'
p10739
aa(lp10740
I6403
aS'18'
p10741
aS'127'
p10742
aa(lp10743
I6412
aS'2'
aS'80'
p10744
aa(lp10745
I6965
aS'387'
p10746
aS'514'
p10747
aa(lp10748
I7148
aS'2'
aS'83'
p10749
aa(lp10750
I7507
aS'3'
aS'53'
p10751
aasS'1B6G'
p10752
(lp10753
(lp10754
I885
aS'49'
p10755
aS'295'
p10756
aasS'4QLO'
p10757
(lp10758
(lp10759
I885
aS'38'
p10760
aS'302'
p10761
aasS'4C6H'
p10762
(lp10763
(lp10764
I885
aS'29'
p10765
aS'277'
p10766
aasS'3HW8'
p10767
(lp10768
(lp10769
I1544
aS'502'
p10770
aS'574'
p10771
aa(lp10772
I1670
aS'253'
p10773
aS'318'
p10774
aa(lp10775
I4372
aS'337'
p10776
aS'383'
p10777
aa(lp10778
I6537
aS'386'
p10779
aS'495'
p10780
aasS'3YAS'
p10781
(lp10782
(lp10783
I885
aS'5'
aS'241'
p10784
aasS'4WPO'
p10785
(lp10786
(lp10787
I143
aS'10'
p10788
aS'223'
p10789
aa(lp10790
I145
aS'3'
aS'98'
p10791
aa(lp10792
I147
aS'6'
aS'70'
p10793
aa(lp10794
I148
aS'3'
aS'92'
p10795
aa(lp10796
I1731
aS'20'
p10797
aS'117'
p10798
aa(lp10799
I1732
aS'4'
aS'132'
p10800
aa(lp10801
I1733
aS'75'
p10802
aS'138'
p10803
aa(lp10804
I1734
aS'4'
aS'98'
p10805
aa(lp10806
I1735
aS'12'
p10807
aS'136'
p10808
aa(lp10809
I1739
aS'6'
aS'113'
p10810
aa(lp10811
I1787
aS'87'
p10812
aS'180'
p10813
aa(lp10814
I2019
aS'8'
aS'53'
p10815
aa(lp10816
I2020
aS'1'
aS'64'
p10817
aa(lp10818
I2021
aS'4'
aS'54'
p10819
aa(lp10820
I2023
aS'1'
aS'37'
p10821
aa(lp10822
I2024
aS'1'
aS'43'
p10823
aa(lp10824
I2417
aS'9'
aS'40'
p10825
aa(lp10826
I2446
aS'120'
p10827
aS'202'
p10828
aa(lp10829
I2585
aS'-66'
p10830
aS'-20'
p10831
aa(lp10832
I2767
aS'5'
aS'88'
p10833
aa(lp10834
I2772
aS'11'
p10835
aS'82'
p10836
aa(lp10837
I2772
aS'91'
p10838
aS'164'
p10839
aa(lp10840
I2835
aS'100'
p10841
aS'146'
p10842
aa(lp10843
I2994
aS'2'
aS'24'
p10844
aa(lp10845
I3071
aS'1'
aS'122'
p10846
aa(lp10847
I3544
aS'3'
aS'109'
p10848
aa(lp10849
I3545
aS'5'
aS'99'
p10850
aa(lp10851
I3547
aS'8'
aS'67'
p10852
aa(lp10853
I3548
aS'8'
aS'74'
p10854
aa(lp10855
I3549
aS'9'
aS'60'
p10856
aa(lp10857
I3550
aS'8'
aS'88'
p10858
aa(lp10859
I3553
aS'33'
p10860
aS'79'
p10861
aa(lp10862
I3809
aS'82'
p10863
aS'152'
p10864
aa(lp10865
I4161
aS'6'
aS'112'
p10866
aa(lp10867
I4162
aS'27'
p10868
aS'145'
p10869
aa(lp10870
I4492
aS'2'
aS'62'
p10871
aa(lp10872
I4654
aS'323'
p10873
aS'389'
p10874
aa(lp10875
I4903
aS'95'
p10876
aS'171'
p10877
aa(lp10878
I5041
aS'4'
aS'138'
p10879
aa(lp10880
I5042
aS'8'
aS'128'
p10881
aa(lp10882
I5050
aS'2'
aS'149'
p10883
aa(lp10884
I5265
aS'479'
p10885
aS'597'
p10886
aa(lp10887
I5271
aS'404'
p10888
aS'478'
p10889
aa(lp10890
I5273
aS'126'
p10891
aS'251'
p10892
aa(lp10893
I5434
aS'5'
aS'59'
p10894
aa(lp10895
I5516
aS'27'
p10896
aS'83'
p10897
aa(lp10898
I5517
aS'26'
p10899
aS'204'
p10900
aa(lp10901
I5519
aS'29'
p10902
aS'222'
p10903
aa(lp10904
I5520
aS'93'
p10905
aS'175'
p10906
aa(lp10907
I5521
aS'42'
p10908
aS'118'
p10909
aa(lp10910
I5532
aS'6'
aS'126'
p10911
aa(lp10912
I5533
aS'2'
aS'81'
p10913
aa(lp10914
I5589
aS'600'
p10915
aS'686'
p10916
aa(lp10917
I5991
aS'3'
aS'65'
p10918
aa(lp10919
I5992
aS'12'
p10920
aS'67'
p10921
aa(lp10922
I5995
aS'3'
aS'109'
p10923
aa(lp10924
I5996
aS'5'
aS'107'
p10925
aa(lp10926
I5997
aS'6'
aS'90'
p10927
aa(lp10928
I6226
aS'10'
p10929
aS'282'
p10930
aa(lp10931
I6228
aS'1'
aS'94'
p10932
aa(lp10933
I6345
aS'39'
p10934
aS'110'
p10935
aa(lp10936
I6403
aS'17'
p10937
aS'126'
p10938
aa(lp10939
I6412
aS'3'
aS'83'
p10940
aa(lp10941
I7148
aS'11'
p10942
aS'88'
p10943
aasS'1IUO'
p10944
(lp10945
(lp10946
I885
aS'27'
p10947
aS'257'
p10948
aasS'1IUN'
p10949
(lp10950
(lp10951
I885
aS'27'
p10952
aS'257'
p10953
aasS'3KOO'
p10954
(lp10955
(lp10956
I885
aS'259'
p10957
aS'531'
p10958
aa(lp10959
I2190
aS'7'
aS'203'
p10960
aasS'1K5P'
p10961
(lp10962
(lp10963
I885
aS'31'
p10964
aS'155'
p10965
aasS'1EHY'
p10966
(lp10967
(lp10968
I885
aS'30'
p10969
aS'130'
p10970
aasS'1BRO'
p10971
(lp10972
(lp10973
I885
aS'25'
p10974
aS'263'
p10975
aasS'2PL5'
p10976
(lp10977
(lp10978
I885
aS'47'
p10979
aS'349'
p10980
aasS'4UB2'
p10981
(lp10982
(lp10983
I1544
aS'269'
p10984
aS'333'
p10985
aa(lp10986
I1670
aS'15'
p10987
aS'77'
p10988
aa(lp10989
I4372
aS'100'
p10990
aS'147'
p10991
aa(lp10992
I6537
aS'149'
p10993
aS'262'
p10994
aasS'1BRT'
p10995
(lp10996
(lp10997
I885
aS'25'
p10998
aS'263'
p10999
aasS'1BN7'
p11000
(lp11001
(lp11002
I885
aS'45'
p11003
aS'169'
p11004
aasS'3HX0'
p11005
(lp11006
(lp11007
I1544
aS'502'
p11008
aS'574'
p11009
aa(lp11010
I1670
aS'253'
p11011
aS'318'
p11012
aa(lp11013
I4372
aS'337'
p11014
aS'383'
p11015
aa(lp11016
I6537
aS'386'
p11017
aS'495'
p11018
aas.