(dp1
S'3S95'
p2
(lp3
(lp4
I979
aS'341'
p5
aS'602'
p6
aasS'3EWH'
p7
(lp8
(lp9
I979
aS'834'
p10
aS'1160'
p11
aasS'2HZN'
p12
(lp13
(lp14
I979
aS'242'
p15
aS'492'
p16
aasS'3F3V'
p17
(lp18
(lp19
I979
aS'268'
p20
aS'515'
p21
aasS'2HZI'
p22
(lp23
(lp24
I979
aS'242'
p25
aS'492'
p26
aasS'2SRC'
p27
(lp28
(lp29
I729
aS'87'
p30
aS'134'
p31
aa(lp32
I979
aS'268'
p33
aS'515'
p34
aa(lp35
I1107
aS'148'
p36
aS'230'
p37
aasS'3WZE'
p38
(lp39
(lp40
I979
aS'834'
p41
aS'1160'
p42
aasS'2GS6'
p43
(lp44
(lp45
I979
aS'690'
p46
aS'941'
p47
aasS'2GS7'
p48
(lp49
(lp50
I979
aS'690'
p51
aS'941'
p52
aasS'2XA4'
p53
(lp54
(lp55
I979
aS'849'
p56
aS'1120'
p57
aasS'2GS2'
p58
(lp59
(lp60
I979
aS'690'
p61
aS'941'
p62
aasS'2OG8'
p63
(lp64
(lp65
I979
aS'245'
p66
aS'493'
p67
aasS'4E26'
p68
(lp69
(lp70
I979
aS'458'
p71
aS'712'
p72
aasS'2J6M'
p73
(lp74
(lp75
I979
aS'714'
p76
aS'965'
p77
aasS'3FZP'
p78
(lp79
(lp80
I979
aS'426'
p81
aS'678'
p82
aasS'4E20'
p83
(lp84
(lp85
I979
aS'894'
p86
aS'1164'
p87
aasS'4NKS'
p88
(lp89
(lp90
I979
aS'479'
p91
aS'754'
p92
aasS'4QD6'
p93
(lp94
(lp95
I979
aS'363'
p96
aS'612'
p97
aasS'4QQC'
p98
(lp99
(lp100
I979
aS'468'
p101
aS'743'
p102
aasS'3UG1'
p103
(lp104
(lp105
I979
aS'714'
p106
aS'965'
p107
aasS'3C4F'
p108
(lp109
(lp110
I979
aS'479'
p111
aS'754'
p112
aasS'4QQJ'
p113
(lp114
(lp115
I979
aS'468'
p116
aS'743'
p117
aasS'4NKA'
p118
(lp119
(lp120
I979
aS'479'
p121
aS'754'
p122
aasS'3HNG'
p123
(lp124
(lp125
I979
aS'827'
p126
aS'1154'
p127
aasS'2RFD'
p128
(lp129
(lp130
I979
aS'690'
p131
aS'941'
p132
aasS'4BB4'
p133
(lp134
(lp135
I979
aS'616'
p136
aS'874'
p137
aasS'3UG2'
p138
(lp139
(lp140
I979
aS'714'
p141
aS'965'
p142
aasS'3QLF'
p143
(lp144
(lp145
I979
aS'268'
p146
aS'515'
p147
aasS'3QLG'
p148
(lp149
(lp150
I979
aS'268'
p151
aS'515'
p152
aasS'3V5L'
p153
(lp154
(lp155
I979
aS'363'
p156
aS'612'
p157
aasS'4J97'
p158
(lp159
(lp160
I979
aS'481'
p161
aS'757'
p162
aasS'4J96'
p163
(lp164
(lp165
I979
aS'481'
p166
aS'757'
p167
aasS'3V5J'
p168
(lp169
(lp170
I979
aS'363'
p171
aS'612'
p172
aasS'3AD5'
p173
(lp174
(lp175
I979
aS'245'
p176
aS'493'
p177
aasS'4BBE'
p178
(lp179
(lp180
I979
aS'849'
p181
aS'1120'
p182
aasS'3T9T'
p183
(lp184
(lp185
I979
aS'363'
p186
aS'612'
p187
aasS'4J99'
p188
(lp189
(lp190
I979
aS'481'
p191
aS'757'
p192
aasS'4XLI'
p193
(lp194
(lp195
I979
aS'288'
p196
aS'538'
p197
aasS'4GFO'
p198
(lp199
(lp200
I979
aS'898'
p201
aS'1167'
p202
aasS'5CY3'
p203
(lp204
(lp205
I979
aS'374'
p206
aS'623'
p207
aasS'4XLV'
p208
(lp209
(lp210
I979
aS'997'
p211
aS'1263'
p212
aasS'4QQ5'
p213
(lp214
(lp215
I979
aS'473'
p216
aS'748'
p217
aasS'4YHF'
p218
(lp219
(lp220
I979
aS'402'
p221
aS'650'
p222
aasS'3P86'
p223
(lp224
(lp225
I979
aS'551'
p226
aS'804'
p227
aasS'3V5Q'
p228
(lp229
(lp230
I979
aS'539'
p231
aS'823'
p232
aasS'3WZD'
p233
(lp234
(lp235
I979
aS'834'
p236
aS'1160'
p237
aasS'3KRJ'
p238
(lp239
(lp240
I979
aS'582'
p241
aS'910'
p242
aasS'4D4S'
p243
(lp244
(lp245
I979
aS'422'
p246
aS'676'
p247
aasS'3KRL'
p248
(lp249
(lp250
I979
aS'582'
p251
aS'910'
p252
aasS'4AP7'
p253
(lp254
(lp255
I979
aS'1079'
p256
aS'1336'
p257
aasS'4D4V'
p258
(lp259
(lp260
I979
aS'422'
p261
aS'676'
p262
aasS'4D4Y'
p263
(lp264
(lp265
I979
aS'422'
p266
aS'676'
p267
aasS'3VRZ'
p268
(lp269
(lp270
I729
aS'89'
p271
aS'135'
p272
aa(lp273
I979
aS'267'
p274
aS'515'
p275
aa(lp276
I1107
aS'149'
p277
aS'231'
p278
aasS'3B8R'
p279
(lp280
(lp281
I979
aS'834'
p282
aS'1160'
p283
aasS'3B8Q'
p284
(lp285
(lp286
I979
aS'834'
p287
aS'1160'
p288
aasS'3P08'
p289
(lp290
(lp291
I979
aS'402'
p292
aS'650'
p293
aasS'2HZ4'
p294
(lp295
(lp296
I979
aS'242'
p297
aS'492'
p298
aasS'4YO6'
p299
(lp300
(lp301
I979
aS'190'
p302
aS'454'
p303
aasS'2HZ0'
p304
(lp305
(lp306
I979
aS'242'
p307
aS'492'
p308
aasS'2OGV'
p309
(lp310
(lp311
I979
aS'582'
p312
aS'910'
p313
aasS'4AT5'
p314
(lp315
(lp316
I979
aS'555'
p317
aS'822'
p318
aasS'3VNT'
p319
(lp320
(lp321
I979
aS'834'
p322
aS'1160'
p323
aasS'3KRR'
p324
(lp325
(lp326
I979
aS'849'
p327
aS'1120'
p328
aasS'3D4Q'
p329
(lp330
(lp331
I979
aS'458'
p332
aS'712'
p333
aasS'3PIX'
p334
(lp335
(lp336
I979
aS'402'
p337
aS'650'
p338
aasS'4AT3'
p339
(lp340
(lp341
I979
aS'555'
p342
aS'822'
p343
aasS'4LL0'
p344
(lp345
(lp346
I979
aS'714'
p347
aS'965'
p348
aasS'2HCK'
p349
(lp350
(lp351
I729
aS'87'
p352
aS'134'
p353
aa(lp354
I979
aS'267'
p355
aS'515'
p356
aa(lp357
I1107
aS'148'
p358
aS'230'
p359
aasS'2JKQ'
p360
(lp361
(lp362
I979
aS'422'
p363
aS'676'
p364
aasS'3OEZ'
p365
(lp366
(lp367
I979
aS'268'
p368
aS'515'
p369
aasS'4CKJ'
p370
(lp371
(lp372
I979
aS'724'
p373
aS'1005'
p374
aasS'4CKI'
p375
(lp376
(lp377
I979
aS'724'
p378
aS'1005'
p379
aasS'2JKK'
p380
(lp381
(lp382
I979
aS'422'
p383
aS'676'
p384
aasS'2FGI'
p385
(lp386
(lp387
I979
aS'479'
p388
aS'754'
p389
aasS'4CKR'
p390
(lp391
(lp392
I979
aS'610'
p393
aS'905'
p394
aasS'2JKO'
p395
(lp396
(lp397
I979
aS'422'
p398
aS'676'
p399
aasS'4DFN'
p400
(lp401
(lp402
I979
aS'374'
p403
aS'623'
p404
aasS'4DFL'
p405
(lp406
(lp407
I979
aS'374'
p408
aS'623'
p409
aasS'3ZBF'
p410
(lp411
(lp412
I979
aS'1947'
p413
aS'2215'
p414
aasS'4FOC'
p415
(lp416
(lp417
I979
aS'1117'
p418
aS'1382'
p419
aasS'2GSF'
p420
(lp421
(lp422
I213
aS'595'
p423
aS'618'
p424
aa(lp425
I979
aS'622'
p426
aS'878'
p427
aasS'4TT7'
p428
(lp429
(lp430
I979
aS'1117'
p431
aS'1382'
p432
aasS'2FB8'
p433
(lp434
(lp435
I979
aS'458'
p436
aS'712'
p437
aasS'3F5P'
p438
(lp439
(lp440
I979
aS'999'
p441
aS'1265'
p442
aasS'4Z3V'
p443
(lp444
(lp445
I979
aS'402'
p446
aS'650'
p447
aasS'1K2P'
p448
(lp449
(lp450
I979
aS'402'
p451
aS'650'
p452
aasS'4IVD'
p453
(lp454
(lp455
I979
aS'876'
p456
aS'1147'
p457
aasS'4IVC'
p458
(lp459
(lp460
I979
aS'876'
p461
aS'1147'
p462
aasS'1Y6A'
p463
(lp464
(lp465
I979
aS'832'
p466
aS'1158'
p467
aasS'1Y6B'
p468
(lp469
(lp470
I979
aS'832'
p471
aS'1158'
p472
aasS'4JVG'
p473
(lp474
(lp475
I979
aS'458'
p476
aS'713'
p477
aasS'3NYX'
p478
(lp479
(lp480
I979
aS'898'
p481
aS'1167'
p482
aasS'3R7O'
p483
(lp484
(lp485
I979
aS'1079'
p486
aS'1336'
p487
aasS'4P2K'
p488
(lp489
(lp490
I213
aS'600'
p491
aS'610'
p492
aa(lp493
I979
aS'614'
p494
aS'871'
p495
aasS'3MPM'
p496
(lp497
(lp498
I979
aS'245'
p499
aS'493'
p500
aasS'4K11'
p501
(lp502
(lp503
I729
aS'87'
p504
aS'134'
p505
aa(lp506
I979
aS'268'
p507
aS'515'
p508
aa(lp509
I1107
aS'148'
p510
aS'230'
p511
aasS'4I23'
p512
(lp513
(lp514
I979
aS'714'
p515
aS'965'
p516
aasS'4I22'
p517
(lp518
(lp519
I979
aS'714'
p520
aS'965'
p521
aasS'4I21'
p522
(lp523
(lp524
I979
aS'714'
p525
aS'965'
p526
aa(lp527
I7141
aS'335'
p528
aS'364'
p529
aasS'3UE4'
p530
(lp531
(lp532
I979
aS'242'
p533
aS'492'
p534
aasS'4M3Q'
p535
(lp536
(lp537
I979
aS'588'
p538
aS'852'
p539
aasS'4I24'
p540
(lp541
(lp542
I979
aS'714'
p543
aS'965'
p544
aasS'4F65'
p545
(lp546
(lp547
I979
aS'479'
p548
aS'754'
p549
aasS'3DTW'
p550
(lp551
(lp552
I979
aS'834'
p553
aS'1160'
p554
aasS'3CLY'
p555
(lp556
(lp557
I979
aS'1481'
p558
aS'1757'
p559
aasS'4F4P'
p560
(lp561
(lp562
I979
aS'374'
p563
aS'623'
p564
aasS'2V7A'
p565
(lp566
(lp567
I979
aS'242'
p568
aS'492'
p569
aasS'3LCK'
p570
(lp571
(lp572
I979
aS'245'
p573
aS'493'
p574
aasS'4FF8'
p575
(lp576
(lp577
I979
aS'563'
p578
aS'775'
p579
aasS'5BQ0'
p580
(lp581
(lp582
I979
aS'402'
p583
aS'650'
p584
aasS'3F6X'
p585
(lp586
(lp587
I979
aS'268'
p588
aS'515'
p589
aasS'4FIC'
p590
(lp591
(lp592
I979
aS'268'
p593
aS'515'
p594
aasS'5CEQ'
p595
(lp596
(lp597
I979
aS'136'
p598
aS'368'
p599
aasS'3BU5'
p600
(lp601
(lp602
I979
aS'997'
p603
aS'1263'
p604
aasS'3QGW'
p605
(lp606
(lp607
I979
aS'363'
p608
aS'612'
p609
aasS'3QUP'
p610
(lp611
(lp612
I979
aS'509'
p613
aS'775'
p614
aasS'2XIR'
p615
(lp616
(lp617
I979
aS'834'
p618
aS'1160'
p619
aasS'3QGY'
p620
(lp621
(lp622
I979
aS'363'
p623
aS'612'
p624
aasS'2G2F'
p625
(lp626
(lp627
I979
aS'242'
p628
aS'492'
p629
aasS'2F4J'
p630
(lp631
(lp632
I979
aS'242'
p633
aS'492'
p634
aasS'3W2O'
p635
(lp636
(lp637
I979
aS'714'
p638
aS'965'
p639
aasS'4ZLZ'
p640
(lp641
(lp642
I979
aS'402'
p643
aS'650'
p644
aasS'4ZLY'
p645
(lp646
(lp647
I979
aS'402'
p648
aS'650'
p649
aasS'2ZM4'
p650
(lp651
(lp652
I979
aS'245'
p653
aS'493'
p654
aasS'2ZM3'
p655
(lp656
(lp657
I979
aS'999'
p658
aS'1265'
p659
aasS'5A4C'
p660
(lp661
(lp662
I979
aS'479'
p663
aS'754'
p664
aasS'2ZM1'
p665
(lp666
(lp667
I979
aS'245'
p668
aS'493'
p669
aasS'2G2H'
p670
(lp671
(lp672
I979
aS'261'
p673
aS'511'
p674
aasS'1SM2'
p675
(lp676
(lp677
I979
aS'363'
p678
aS'612'
p679
aasS'1YVJ'
p680
(lp681
(lp682
I979
aS'823'
p683
aS'1094'
p684
aasS'4D0X'
p685
(lp686
(lp687
I979
aS'849'
p688
aS'1120'
p689
aasS'3W2P'
p690
(lp691
(lp692
I979
aS'714'
p693
aS'965'
p694
aasS'4WA9'
p695
(lp696
(lp697
I979
aS'242'
p698
aS'492'
p699
aasS'3W2R'
p700
(lp701
(lp702
I979
aS'714'
p703
aS'965'
p704
aasS'3W2S'
p705
(lp706
(lp707
I979
aS'714'
p708
aS'965'
p709
aasS'4I94'
p710
(lp711
(lp712
I979
aS'72'
p713
aS'308'
p714
aasS'3DK3'
p715
(lp716
(lp717
I979
aS'242'
p718
aS'492'
p719
aasS'4I92'
p720
(lp721
(lp722
I979
aS'72'
p723
aS'308'
p724
aasS'4I93'
p725
(lp726
(lp727
I979
aS'72'
p728
aS'308'
p729
aasS'3DK6'
p730
(lp731
(lp732
I979
aS'242'
p733
aS'492'
p734
aasS'5CEP'
p735
(lp736
(lp737
I979
aS'136'
p738
aS'368'
p739
aasS'4BTF'
p740
(lp741
(lp742
I979
aS'202'
p743
aS'453'
p744
aasS'4K9Y'
p745
(lp746
(lp747
I979
aS'422'
p748
aS'676'
p749
aasS'4MF1'
p750
(lp751
(lp752
I979
aS'363'
p753
aS'612'
p754
aasS'4MF0'
p755
(lp756
(lp757
I979
aS'363'
p758
aS'612'
p759
aasS'4QQT'
p760
(lp761
(lp762
I979
aS'468'
p763
aS'743'
p764
aasS'3PPK'
p765
(lp766
(lp767
I979
aS'458'
p768
aS'712'
p769
aasS'3PPJ'
p770
(lp771
(lp772
I979
aS'458'
p773
aS'712'
p774
aasS'3D7T'
p775
(lp776
(lp777
I979
aS'195'
p778
aS'440'
p779
aa(lp780
I979
aS'268'
p781
aS'515'
p782
aasS'3D7U'
p783
(lp784
(lp785
I979
aS'195'
p786
aS'440'
p787
aa(lp788
I979
aS'268'
p789
aS'515'
p790
aasS'1U4D'
p791
(lp792
(lp793
I979
aS'127'
p794
aS'385'
p795
aasS'3BEL'
p796
(lp797
(lp798
I979
aS'714'
p799
aS'965'
p800
aasS'3EL8'
p801
(lp802
(lp803
I979
aS'268'
p804
aS'515'
p805
aasS'4C62'
p806
(lp807
(lp808
I979
aS'849'
p809
aS'1120'
p810
aasS'5CEO'
p811
(lp812
(lp813
I979
aS'136'
p814
aS'368'
p815
aasS'3BEA'
p816
(lp817
(lp818
I979
aS'582'
p819
aS'910'
p820
aasS'3D94'
p821
(lp822
(lp823
I979
aS'969'
p824
aS'1235'
p825
aasS'3KY2'
p826
(lp827
(lp828
I979
aS'479'
p829
aS'754'
p830
aasS'4D1S'
p831
(lp832
(lp833
I979
aS'849'
p834
aS'1120'
p835
aasS'3F3T'
p836
(lp837
(lp838
I979
aS'268'
p839
aS'515'
p840
aasS'3PPZ'
p841
(lp842
(lp843
I979
aS'551'
p844
aS'804'
p845
aasS'2X2L'
p846
(lp847
(lp848
I979
aS'724'
p849
aS'1005'
p850
aasS'2X2M'
p851
(lp852
(lp853
I979
aS'724'
p854
aS'1005'
p855
aasS'1OPJ'
p856
(lp857
(lp858
I979
aS'261'
p859
aS'511'
p860
aasS'1OPK'
p861
(lp862
(lp863
I729
aS'86'
p864
aS'132'
p865
aa(lp866
I979
aS'261'
p867
aS'511'
p868
aa(lp869
I1107
aS'146'
p870
aS'221'
p871
aasS'1OPL'
p872
(lp873
(lp874
I729
aS'86'
p875
aS'132'
p876
aa(lp877
I979
aS'261'
p878
aS'511'
p879
aa(lp880
I1107
aS'146'
p881
aS'221'
p882
aasS'4FOB'
p883
(lp884
(lp885
I979
aS'1117'
p886
aS'1382'
p887
aasS'2X2K'
p888
(lp889
(lp890
I979
aS'724'
p891
aS'1005'
p892
aasS'3BE2'
p893
(lp894
(lp895
I979
aS'834'
p896
aS'1160'
p897
aasS'3DKC'
p898
(lp899
(lp900
I979
aS'1079'
p901
aS'1336'
p902
aasS'3PP0'
p903
(lp904
(lp905
I979
aS'722'
p906
aS'975'
p907
aasS'3DKF'
p908
(lp909
(lp910
I979
aS'1079'
p911
aS'1336'
p912
aasS'3DKG'
p913
(lp914
(lp915
I979
aS'1079'
p916
aS'1336'
p917
aasS'1FMK'
p918
(lp919
(lp920
I729
aS'87'
p921
aS'134'
p922
aa(lp923
I979
aS'268'
p924
aS'515'
p925
aa(lp926
I1107
aS'148'
p927
aS'230'
p928
aasS'3DKO'
p929
(lp930
(lp931
I213
aS'607'
p932
aS'630'
p933
aa(lp934
I979
aS'633'
p935
aS'889'
p936
aasS'2ITO'
p937
(lp938
(lp939
I979
aS'714'
p940
aS'965'
p941
aasS'4E6Q'
p942
(lp943
(lp944
I979
aS'849'
p945
aS'1120'
p946
aasS'3LCS'
p947
(lp948
(lp949
I979
aS'1117'
p950
aS'1382'
p951
aasS'3LCT'
p952
(lp953
(lp954
I979
aS'1117'
p955
aS'1382'
p956
aasS'2BDJ'
p957
(lp958
(lp959
I979
aS'268'
p960
aS'515'
p961
aasS'3QRK'
p962
(lp963
(lp964
I979
aS'242'
p965
aS'492'
p966
aasS'3PIZ'
p967
(lp968
(lp969
I979
aS'402'
p970
aS'650'
p971
aasS'2BDF'
p972
(lp973
(lp974
I979
aS'268'
p975
aS'515'
p976
aasS'3PIY'
p977
(lp978
(lp979
I979
aS'402'
p980
aS'650'
p981
aasS'3V8W'
p982
(lp983
(lp984
I979
aS'363'
p985
aS'612'
p986
aasS'3V8T'
p987
(lp988
(lp989
I979
aS'363'
p990
aS'612'
p991
aasS'4RG0'
p992
(lp993
(lp994
I979
aS'402'
p995
aS'650'
p996
aasS'3LCD'
p997
(lp998
(lp999
I979
aS'582'
p1000
aS'910'
p1001
aasS'4E6D'
p1002
(lp1003
(lp1004
I979
aS'849'
p1005
aS'1120'
p1006
aasS'5A46'
p1007
(lp1008
(lp1009
I979
aS'479'
p1010
aS'754'
p1011
aasS'4V04'
p1012
(lp1013
(lp1014
I979
aS'479'
p1015
aS'754'
p1016
aasS'4V05'
p1017
(lp1018
(lp1019
I979
aS'479'
p1020
aS'754'
p1021
aasS'1P4O'
p1022
(lp1023
(lp1024
I979
aS'969'
p1025
aS'1235'
p1026
aasS'3VJO'
p1027
(lp1028
(lp1029
I979
aS'714'
p1030
aS'965'
p1031
aasS'3LCO'
p1032
(lp1033
(lp1034
I979
aS'582'
p1035
aS'910'
p1036
aasS'5C26'
p1037
(lp1038
(lp1039
I979
aS'374'
p1040
aS'623'
p1041
aasS'5C27'
p1042
(lp1043
(lp1044
I979
aS'374'
p1045
aS'623'
p1046
aasS'4ID7'
p1047
(lp1048
(lp1049
I979
aS'127'
p1050
aS'385'
p1051
aasS'4DEH'
p1052
(lp1053
(lp1054
I979
aS'1079'
p1055
aS'1336'
p1056
aasS'2ITZ'
p1057
(lp1058
(lp1059
I979
aS'714'
p1060
aS'965'
p1061
aasS'2ITY'
p1062
(lp1063
(lp1064
I979
aS'714'
p1065
aS'965'
p1066
aasS'2ITX'
p1067
(lp1068
(lp1069
I979
aS'714'
p1070
aS'965'
p1071
aasS'2ITW'
p1072
(lp1073
(lp1074
I979
aS'714'
p1075
aS'965'
p1076
aasS'2ITV'
p1077
(lp1078
(lp1079
I979
aS'714'
p1080
aS'965'
p1081
aasS'2ITU'
p1082
(lp1083
(lp1084
I979
aS'714'
p1085
aS'965'
p1086
aasS'2ITT'
p1087
(lp1088
(lp1089
I979
aS'714'
p1090
aS'965'
p1091
aa(lp1092
I979
aS'714'
p1093
aS'965'
p1094
aasS'2I1M'
p1095
(lp1096
(lp1097
I979
aS'582'
p1098
aS'910'
p1099
aasS'2ITQ'
p1100
(lp1101
(lp1102
I979
aS'714'
p1103
aS'965'
p1104
aasS'2ITP'
p1105
(lp1106
(lp1107
I979
aS'714'
p1108
aS'965'
p1109
aasS'3QRJ'
p1110
(lp1111
(lp1112
I979
aS'242'
p1113
aS'492'
p1114
aasS'2ITN'
p1115
(lp1116
(lp1117
I979
aS'714'
p1118
aS'965'
p1119
aasS'3QRI'
p1120
(lp1121
(lp1122
I979
aS'242'
p1123
aS'492'
p1124
aasS'3AD4'
p1125
(lp1126
(lp1127
I979
aS'245'
p1128
aS'493'
p1129
aasS'4Y93'
p1130
(lp1131
(lp1132
I979
aS'402'
p1133
aS'650'
p1134
aa(lp1135
I2564
aS'5'
aS'133'
p1136
aa(lp1137
I5874
aS'141'
p1138
aS'166'
p1139
aasS'3AD6'
p1140
(lp1141
(lp1142
I979
aS'245'
p1143
aS'493'
p1144
aasS'3CC6'
p1145
(lp1146
(lp1147
I979
aS'426'
p1148
aS'678'
p1149
aasS'4XEY'
p1150
(lp1151
(lp1152
I979
aS'261'
p1153
aS'511'
p1154
aasS'1IRK'
p1155
(lp1156
(lp1157
I979
aS'997'
p1158
aS'1263'
p1159
aasS'3ZFM'
p1160
(lp1161
(lp1162
I979
aS'622'
p1163
aS'880'
p1164
aasS'4HZS'
p1165
(lp1166
(lp1167
I723
aS'395'
p1168
aS'444'
p1169
aa(lp1170
I979
aS'127'
p1171
aS'385'
p1172
aasS'4KNB'
p1173
(lp1174
(lp1175
I979
aS'1079'
p1176
aS'1336'
p1177
aasS'3KMU'
p1178
(lp1179
(lp1180
I979
aS'194'
p1181
aS'445'
p1182
aa(lp1183
I4059
aS'264'
p1184
aS'364'
p1185
aasS'4QT1'
p1186
(lp1187
(lp1188
I979
aS'823'
p1189
aS'1094'
p1190
aasS'4PMM'
p1191
(lp1192
(lp1193
I979
aS'512'
p1194
aS'781'
p1195
aasS'3ZFY'
p1196
(lp1197
(lp1198
I979
aS'634'
p1199
aS'892'
p1200
aasS'4AW5'
p1201
(lp1202
(lp1203
I979
aS'92'
p1204
aS'350'
p1205
aasS'3ET7'
p1206
(lp1207
(lp1208
I979
aS'426'
p1209
aS'678'
p1210
aasS'4CNH'
p1211
(lp1212
(lp1213
I979
aS'1117'
p1214
aS'1382'
p1215
aa(lp1216
I979
aS'1117'
p1217
aS'1382'
p1218
aasS'3LQ8'
p1219
(lp1220
(lp1221
I979
aS'1079'
p1222
aS'1336'
p1223
aasS'2QKW'
p1224
(lp1225
(lp1226
I979
aS'47'
p1227
aS'307'
p1228
aa(lp1229
I2248
aS'29'
p1230
aS'129'
p1231
aasS'4RIY'
p1232
(lp1233
(lp1234
I979
aS'692'
p1235
aS'945'
p1236
aa(lp1237
I979
aS'690'
p1238
aS'941'
p1239
aasS'4XCU'
p1240
(lp1241
(lp1242
I979
aS'468'
p1243
aS'743'
p1244
aasS'4NK9'
p1245
(lp1246
(lp1247
I979
aS'479'
p1248
aS'754'
p1249
aasS'5C9C'
p1250
(lp1251
(lp1252
I979
aS'457'
p1253
aS'711'
p1254
aasS'2OIC'
p1255
(lp1256
(lp1257
I979
aS'190'
p1258
aS'454'
p1259
aasS'4L7S'
p1260
(lp1261
(lp1262
I979
aS'363'
p1263
aS'612'
p1264
aasS'3NW6'
p1265
(lp1266
(lp1267
I979
aS'969'
p1268
aS'1235'
p1269
aasS'3NW7'
p1270
(lp1271
(lp1272
I979
aS'969'
p1273
aS'1235'
p1274
aasS'2OID'
p1275
(lp1276
(lp1277
I979
aS'190'
p1278
aS'454'
p1279
aasS'3NW5'
p1280
(lp1281
(lp1282
I979
aS'969'
p1283
aS'1235'
p1284
aasS'4J95'
p1285
(lp1286
(lp1287
I979
aS'481'
p1288
aS'757'
p1289
aasS'4GFM'
p1290
(lp1291
(lp1292
I979
aS'849'
p1293
aS'1120'
p1294
aasS'2ZV8'
p1295
(lp1296
(lp1297
I979
aS'247'
p1298
aS'496'
p1299
aasS'2IJM'
p1300
(lp1301
(lp1302
I979
aS'422'
p1303
aS'676'
p1304
aasS'3RI1'
p1305
(lp1306
(lp1307
I979
aS'481'
p1308
aS'757'
p1309
aasS'4CSV'
p1310
(lp1311
(lp1312
I979
aS'8'
aS'258'
p1313
aasS'2OIQ'
p1314
(lp1315
(lp1316
I979
aS'268'
p1317
aS'515'
p1318
aasS'4C7T'
p1319
(lp1320
(lp1321
I979
aS'422'
p1322
aS'676'
p1323
aasS'4TRL'
p1324
(lp1325
(lp1326
I213
aS'599'
p1327
aS'610'
p1328
aa(lp1329
I979
aS'614'
p1330
aS'871'
p1331
aasS'3B2T'
p1332
(lp1333
(lp1334
I979
aS'481'
p1335
aS'757'
p1336
aasS'4HZR'
p1337
(lp1338
(lp1339
I979
aS'127'
p1340
aS'385'
p1341
aasS'3DPK'
p1342
(lp1343
(lp1344
I979
aS'582'
p1345
aS'910'
p1346
aasS'2PTK'
p1347
(lp1348
(lp1349
I729
aS'87'
p1350
aS'134'
p1351
aa(lp1352
I979
aS'268'
p1353
aS'515'
p1354
aa(lp1355
I1107
aS'148'
p1356
aS'230'
p1357
aasS'2P0C'
p1358
(lp1359
(lp1360
I979
aS'588'
p1361
aS'852'
p1362
aasS'3U4W'
p1363
(lp1364
(lp1365
I979
aS'268'
p1366
aS'515'
p1367
aasS'2XVD'
p1368
(lp1369
(lp1370
I979
aS'616'
p1371
aS'874'
p1372
aasS'4L01'
p1373
(lp1374
(lp1375
I979
aS'584'
p1376
aS'844'
p1377
aasS'4P7E'
p1378
(lp1379
(lp1380
I979
aS'849'
p1381
aS'1120'
p1382
aasS'3LXK'
p1383
(lp1384
(lp1385
I979
aS'823'
p1386
aS'1094'
p1387
aasS'4H58'
p1388
(lp1389
(lp1390
I979
aS'457'
p1391
aS'711'
p1392
aasS'2VX0'
p1393
(lp1394
(lp1395
I979
aS'616'
p1396
aS'874'
p1397
aasS'3LXL'
p1398
(lp1399
(lp1400
I979
aS'823'
p1401
aS'1094'
p1402
aasS'4JOA'
p1403
(lp1404
(lp1405
I979
aS'1117'
p1406
aS'1382'
p1407
aasS'3LXN'
p1408
(lp1409
(lp1410
I979
aS'898'
p1411
aS'1167'
p1412
aasS'2ZV9'
p1413
(lp1414
(lp1415
I979
aS'247'
p1416
aS'496'
p1417
aasS'4GIH'
p1418
(lp1419
(lp1420
I979
aS'898'
p1421
aS'1167'
p1422
aasS'4GII'
p1423
(lp1424
(lp1425
I979
aS'898'
p1426
aS'1167'
p1427
aasS'4F08'
p1428
(lp1429
(lp1430
I979
aS'849'
p1431
aS'1120'
p1432
aasS'4F09'
p1433
(lp1434
(lp1435
I979
aS'849'
p1436
aS'1120'
p1437
aasS'4XMO'
p1438
(lp1439
(lp1440
I979
aS'1079'
p1441
aS'1336'
p1442
aasS'4R5S'
p1443
(lp1444
(lp1445
I979
aS'714'
p1446
aS'965'
p1447
aasS'4R1Y'
p1448
(lp1449
(lp1450
I979
aS'1079'
p1451
aS'1336'
p1452
aasS'1JPA'
p1453
(lp1454
(lp1455
I213
aS'602'
p1456
aS'626'
p1457
aa(lp1458
I979
aS'630'
p1459
aS'888'
p1460
aasS'4TKS'
p1461
(lp1462
(lp1463
I979
aS'714'
p1464
aS'965'
p1465
aasS'3F82'
p1466
(lp1467
(lp1468
I979
aS'1079'
p1469
aS'1336'
p1470
aasS'3II5'
p1471
(lp1472
(lp1473
I979
aS'457'
p1474
aS'711'
p1475
aasS'1FPU'
p1476
(lp1477
(lp1478
I979
aS'242'
p1479
aS'492'
p1480
aasS'4WRG'
p1481
(lp1482
(lp1483
I979
aS'714'
p1484
aS'965'
p1485
aasS'2YJS'
p1486
(lp1487
(lp1488
I979
aS'1117'
p1489
aS'1382'
p1490
aasS'2YJR'
p1491
(lp1492
(lp1493
I979
aS'1117'
p1494
aS'1382'
p1495
aasS'3FQE'
p1496
(lp1497
(lp1498
I979
aS'374'
p1499
aS'623'
p1500
aasS'3RVG'
p1501
(lp1502
(lp1503
I979
aS'849'
p1504
aS'1120'
p1505
aa(lp1506
I979
aS'849'
p1507
aS'1120'
p1508
aasS'3ZFX'
p1509
(lp1510
(lp1511
I979
aS'620'
p1512
aS'878'
p1513
aasS'5CAS'
p1514
(lp1515
(lp1516
I979
aS'716'
p1517
aS'984'
p1518
aasS'5CAQ'
p1519
(lp1520
(lp1521
I979
aS'717'
p1522
aS'984'
p1523
aasS'5CAP'
p1524
(lp1525
(lp1526
I979
aS'717'
p1527
aS'983'
p1528
aasS'4HCU'
p1529
(lp1530
(lp1531
I979
aS'363'
p1532
aS'612'
p1533
aasS'4HCT'
p1534
(lp1535
(lp1536
I979
aS'363'
p1537
aS'612'
p1538
aasS'5CAU'
p1539
(lp1540
(lp1541
I979
aS'716'
p1542
aS'985'
p1543
aasS'4HCV'
p1544
(lp1545
(lp1546
I979
aS'363'
p1547
aS'612'
p1548
aasS'4E1Z'
p1549
(lp1550
(lp1551
I979
aS'894'
p1552
aS'1164'
p1553
aasS'3FQS'
p1554
(lp1555
(lp1556
I979
aS'374'
p1557
aS'623'
p1558
aasS'5CAO'
p1559
(lp1560
(lp1561
I979
aS'717'
p1562
aS'987'
p1563
aasS'2OFV'
p1564
(lp1565
(lp1566
I979
aS'245'
p1567
aS'493'
p1568
aasS'2OFU'
p1569
(lp1570
(lp1571
I979
aS'245'
p1572
aS'493'
p1573
aasS'5CAL'
p1574
(lp1575
(lp1576
I979
aS'717'
p1577
aS'985'
p1578
aasS'3OF0'
p1579
(lp1580
(lp1581
I979
aS'268'
p1582
aS'515'
p1583
aasS'4D5H'
p1584
(lp1585
(lp1586
I979
aS'422'
p1587
aS'676'
p1588
aasS'4FK6'
p1589
(lp1590
(lp1591
I979
aS'876'
p1592
aS'1147'
p1593
aasS'4UXL'
p1594
(lp1595
(lp1596
I979
aS'1947'
p1597
aS'2215'
p1598
aasS'1KSW'
p1599
(lp1600
(lp1601
I729
aS'87'
p1602
aS'134'
p1603
aa(lp1604
I979
aS'268'
p1605
aS'515'
p1606
aa(lp1607
I1107
aS'148'
p1608
aS'230'
p1609
aasS'4ANL'
p1610
(lp1611
(lp1612
I979
aS'1117'
p1613
aS'1382'
p1614
aasS'3KEX'
p1615
(lp1616
(lp1617
I979
aS'692'
p1618
aS'945'
p1619
aasS'4D55'
p1620
(lp1621
(lp1622
I979
aS'422'
p1623
aS'676'
p1624
aasS'4KAO'
p1625
(lp1626
(lp1627
I979
aS'422'
p1628
aS'676'
p1629
aasS'3EMG'
p1630
(lp1631
(lp1632
I979
aS'374'
p1633
aS'623'
p1634
aasS'4KAB'
p1635
(lp1636
(lp1637
I979
aS'422'
p1638
aS'676'
p1639
aasS'4D58'
p1640
(lp1641
(lp1642
I979
aS'422'
p1643
aS'676'
p1644
aasS'3G5D'
p1645
(lp1646
(lp1647
I979
aS'268'
p1648
aS'515'
p1649
aasS'2OF2'
p1650
(lp1651
(lp1652
I979
aS'245'
p1653
aS'493'
p1654
aasS'3DQX'
p1655
(lp1656
(lp1657
I979
aS'268'
p1658
aS'515'
p1659
aasS'2OF4'
p1660
(lp1661
(lp1662
I979
aS'245'
p1663
aS'493'
p1664
aasS'4I5C'
p1665
(lp1666
(lp1667
I979
aS'876'
p1668
aS'1147'
p1669
aasS'4UXQ'
p1670
(lp1671
(lp1672
I979
aS'468'
p1673
aS'743'
p1674
aasS'4ANQ'
p1675
(lp1676
(lp1677
I979
aS'1117'
p1678
aS'1382'
p1679
aasS'4DCE'
p1680
(lp1681
(lp1682
I979
aS'1117'
p1683
aS'1382'
p1684
aasS'3TV6'
p1685
(lp1686
(lp1687
I979
aS'458'
p1688
aS'712'
p1689
aasS'3TV4'
p1690
(lp1691
(lp1692
I979
aS'458'
p1693
aS'712'
p1694
aasS'4CQE'
p1695
(lp1696
(lp1697
I979
aS'458'
p1698
aS'713'
p1699
aasS'4H1J'
p1700
(lp1701
(lp1702
I979
aS'426'
p1703
aS'678'
p1704
aasS'4H1M'
p1705
(lp1706
(lp1707
I979
aS'426'
p1708
aS'678'
p1709
aasS'3GVU'
p1710
(lp1711
(lp1712
I979
aS'288'
p1713
aS'538'
p1714
aasS'4F0I'
p1715
(lp1716
(lp1717
I979
aS'511'
p1718
aS'780'
p1719
aasS'3EFJ'
p1720
(lp1721
(lp1722
I979
aS'1079'
p1723
aS'1336'
p1724
aasS'3EFK'
p1725
(lp1726
(lp1727
I979
aS'1079'
p1728
aS'1336'
p1729
aasS'3VF9'
p1730
(lp1731
(lp1732
I979
aS'374'
p1733
aS'623'
p1734
aasS'3VF8'
p1735
(lp1736
(lp1737
I979
aS'374'
p1738
aS'623'
p1739
aasS'3EFL'
p1740
(lp1741
(lp1742
I979
aS'834'
p1743
aS'1160'
p1744
aa(lp1745
I979
aS'834'
p1746
aS'1160'
p1747
aasS'2OIB'
p1748
(lp1749
(lp1750
I979
aS'190'
p1751
aS'454'
p1752
aasS'1R1W'
p1753
(lp1754
(lp1755
I979
aS'1079'
p1756
aS'1336'
p1757
aasS'2EB3'
p1758
(lp1759
(lp1760
I979
aS'714'
p1761
aS'965'
p1762
aasS'2EB2'
p1763
(lp1764
(lp1765
I979
aS'714'
p1766
aS'965'
p1767
aasS'4EBW'
p1768
(lp1769
(lp1770
I979
aS'422'
p1771
aS'676'
p1772
aasS'4EBV'
p1773
(lp1774
(lp1775
I979
aS'422'
p1776
aS'676'
p1777
aasS'3SVV'
p1778
(lp1779
(lp1780
I979
aS'268'
p1781
aS'515'
p1782
aasS'4CCU'
p1783
(lp1784
(lp1785
I979
aS'1117'
p1786
aS'1382'
p1787
aasS'4FYO'
p1788
(lp1789
(lp1790
I979
aS'374'
p1791
aS'623'
p1792
aasS'4FYN'
p1793
(lp1794
(lp1795
I979
aS'374'
p1796
aS'623'
p1797
aasS'2REI'
p1798
(lp1799
(lp1800
I213
aS'607'
p1801
aS'630'
p1802
aa(lp1803
I979
aS'633'
p1804
aS'889'
p1805
aasS'4KSQ'
p1806
(lp1807
(lp1808
I979
aS'457'
p1809
aS'711'
p1810
aasS'3AC1'
p1811
(lp1812
(lp1813
I979
aS'245'
p1814
aS'493'
p1815
aasS'4KIO'
p1816
(lp1817
(lp1818
I979
aS'363'
p1819
aS'612'
p1820
aasS'4CCB'
p1821
(lp1822
(lp1823
I979
aS'1117'
p1824
aS'1382'
p1825
aasS'3CD8'
p1826
(lp1827
(lp1828
I979
aS'1079'
p1829
aS'1336'
p1830
aasS'5AR8'
p1831
(lp1832
(lp1833
I979
aS'22'
p1834
aS'287'
p1835
aasS'3RCD'
p1836
(lp1837
(lp1838
I979
aS'722'
p1839
aS'975'
p1840
aasS'5AR4'
p1841
(lp1842
(lp1843
I979
aS'22'
p1844
aS'287'
p1845
aasS'4HVS'
p1846
(lp1847
(lp1848
I979
aS'589'
p1849
aS'923'
p1850
aasS'3ZZW'
p1851
(lp1852
(lp1853
I979
aS'474'
p1854
aS'746'
p1855
aasS'5AR7'
p1856
(lp1857
(lp1858
I979
aS'22'
p1859
aS'287'
p1860
aasS'3I81'
p1861
(lp1862
(lp1863
I979
aS'969'
p1864
aS'1235'
p1865
aasS'5AR2'
p1866
(lp1867
(lp1868
I979
aS'22'
p1869
aS'287'
p1870
aasS'5AR3'
p1871
(lp1872
(lp1873
I979
aS'22'
p1874
aS'287'
p1875
aasS'4HVH'
p1876
(lp1877
(lp1878
I979
aS'823'
p1879
aS'1094'
p1880
aasS'4HVI'
p1881
(lp1882
(lp1883
I979
aS'823'
p1884
aS'1094'
p1885
aasS'4TYJ'
p1886
(lp1887
(lp1888
I979
aS'468'
p1889
aS'743'
p1890
aasS'4P4C'
p1891
(lp1892
(lp1893
I979
aS'622'
p1894
aS'878'
p1895
aasS'3ZZE'
p1896
(lp1897
(lp1898
I979
aS'1079'
p1899
aS'1336'
p1900
aasS'4HVG'
p1901
(lp1902
(lp1903
I979
aS'823'
p1904
aS'1094'
p1905
aasS'4HVD'
p1906
(lp1907
(lp1908
I979
aS'823'
p1909
aS'1094'
p1910
aasS'3OMV'
p1911
(lp1912
(lp1913
I979
aS'351'
p1914
aS'605'
p1915
aasS'4YNE'
p1916
(lp1917
(lp1918
I979
aS'512'
p1919
aS'781'
p1920
aasS'4U5J'
p1921
(lp1922
(lp1923
I979
aS'268'
p1924
aS'515'
p1925
aasS'4MXC'
p1926
(lp1927
(lp1928
I979
aS'1079'
p1929
aS'1336'
p1930
aasS'3JS2'
p1931
(lp1932
(lp1933
I979
aS'479'
p1934
aS'754'
p1935
aasS'4ITI'
p1936
(lp1937
(lp1938
I979
aS'21'
p1939
aS'284'
p1940
aasS'4MXO'
p1941
(lp1942
(lp1943
I979
aS'268'
p1944
aS'515'
p1945
aasS'4ASD'
p1946
(lp1947
(lp1948
I979
aS'834'
p1949
aS'1160'
p1950
aasS'4ASE'
p1951
(lp1952
(lp1953
I979
aS'834'
p1954
aS'1160'
p1955
aasS'3BBT'
p1956
(lp1957
(lp1958
I979
aS'694'
p1959
aS'948'
p1960
aasS'3SKC'
p1961
(lp1962
(lp1963
I979
aS'458'
p1964
aS'712'
p1965
aasS'4ASZ'
p1966
(lp1967
(lp1968
I979
aS'555'
p1969
aS'822'
p1970
aasS'3FXX'
p1971
(lp1972
(lp1973
I213
aS'606'
p1974
aS'618'
p1975
aa(lp1976
I979
aS'622'
p1977
aS'878'
p1978
aasS'3AC3'
p1979
(lp1980
(lp1981
I979
aS'245'
p1982
aS'493'
p1983
aasS'3LMG'
p1984
(lp1985
(lp1986
I979
aS'692'
p1987
aS'945'
p1988
aasS'4AT4'
p1989
(lp1990
(lp1991
I979
aS'555'
p1992
aS'822'
p1993
aasS'4ZIM'
p1994
(lp1995
(lp1996
I979
aS'849'
p1997
aS'1120'
p1998
aasS'3Q6W'
p1999
(lp2000
(lp2001
I979
aS'1079'
p2002
aS'1336'
p2003
aasS'3Q6U'
p2004
(lp2005
(lp2006
I979
aS'1079'
p2007
aS'1336'
p2008
aasS'4MXY'
p2009
(lp2010
(lp2011
I979
aS'268'
p2012
aS'515'
p2013
aasS'4MXX'
p2014
(lp2015
(lp2016
I979
aS'268'
p2017
aS'515'
p2018
aasS'3PSB'
p2019
(lp2020
(lp2021
I979
aS'458'
p2022
aS'712'
p2023
aasS'4MXZ'
p2024
(lp2025
(lp2026
I979
aS'268'
p2027
aS'515'
p2028
aasS'4MWI'
p2029
(lp2030
(lp2031
I979
aS'219'
p2032
aS'466'
p2033
aasS'4RIO'
p2034
(lp2035
(lp2036
I979
aS'823'
p2037
aS'1094'
p2038
aa(lp2039
I979
aS'823'
p2040
aS'1094'
p2041
aasS'4K77'
p2042
(lp2043
(lp2044
I979
aS'876'
p2045
aS'1147'
p2046
aasS'5CZH'
p2047
(lp2048
(lp2049
I979
aS'718'
p2050
aS'969'
p2051
aasS'3RHX'
p2052
(lp2053
(lp2054
I979
aS'479'
p2055
aS'754'
p2056
aasS'3EN6'
p2057
(lp2058
(lp2059
I979
aS'268'
p2060
aS'515'
p2061
aasS'4PMT'
p2062
(lp2063
(lp2064
I979
aS'512'
p2065
aS'781'
p2066
aasS'4PMS'
p2067
(lp2068
(lp2069
I979
aS'512'
p2070
aS'781'
p2071
aasS'4PMP'
p2072
(lp2073
(lp2074
I979
aS'512'
p2075
aS'781'
p2076
aasS'4QPS'
p2077
(lp2078
(lp2079
I979
aS'823'
p2080
aS'1094'
p2081
aasS'4XV9'
p2082
(lp2083
(lp2084
I979
aS'474'
p2085
aS'919'
p2086
aasS'3RHK'
p2087
(lp2088
(lp2089
I979
aS'1079'
p2090
aS'1336'
p2091
aasS'4RIX'
p2092
(lp2093
(lp2094
I979
aS'692'
p2095
aS'945'
p2096
aa(lp2097
I979
aS'690'
p2098
aS'941'
p2099
aasS'2HK5'
p2100
(lp2101
(lp2102
I979
aS'245'
p2103
aS'493'
p2104
aasS'3HMI'
p2105
(lp2106
(lp2107
I979
aS'288'
p2108
aS'538'
p2109
aasS'4XV2'
p2110
(lp2111
(lp2112
I979
aS'475'
p2113
aS'927'
p2114
aasS'4XV3'
p2115
(lp2116
(lp2117
I979
aS'474'
p2118
aS'924'
p2119
aasS'3B2W'
p2120
(lp2121
(lp2122
I979
aS'245'
p2123
aS'493'
p2124
aasS'4XV1'
p2125
(lp2126
(lp2127
I979
aS'475'
p2128
aS'924'
p2129
aasS'4NWM'
p2130
(lp2131
(lp2132
I979
aS'402'
p2133
aS'650'
p2134
aasS'2P4I'
p2135
(lp2136
(lp2137
I979
aS'838'
p2138
aS'1091'
p2139
aasS'3G6G'
p2140
(lp2141
(lp2142
I979
aS'268'
p2143
aS'515'
p2144
aasS'3G6H'
p2145
(lp2146
(lp2147
I979
aS'268'
p2148
aS'515'
p2149
aasS'4GMY'
p2150
(lp2151
(lp2152
I979
aS'849'
p2153
aS'1120'
p2154
aasS'2OSC'
p2155
(lp2156
(lp2157
I979
aS'837'
p2158
aS'1091'
p2159
aasS'2PWL'
p2160
(lp2161
(lp2162
I979
aS'481'
p2163
aS'757'
p2164
aasS'1VR2'
p2165
(lp2166
(lp2167
I979
aS'834'
p2168
aS'1160'
p2169
aasS'3OCT'
p2170
(lp2171
(lp2172
I979
aS'402'
p2173
aS'650'
p2174
aasS'3OCS'
p2175
(lp2176
(lp2177
I979
aS'402'
p2178
aS'650'
p2179
aasS'3KFA'
p2180
(lp2181
(lp2182
I979
aS'242'
p2183
aS'492'
p2184
aasS'3ACJ'
p2185
(lp2186
(lp2187
I979
aS'245'
p2188
aS'493'
p2189
aasS'4CTC'
p2190
(lp2191
(lp2192
I979
aS'1117'
p2193
aS'1382'
p2194
aasS'4CTB'
p2195
(lp2196
(lp2197
I979
aS'1117'
p2198
aS'1382'
p2199
aasS'2J0J'
p2200
(lp2201
(lp2202
I979
aS'422'
p2203
aS'676'
p2204
aa(lp2205
I5323
aS'138'
p2206
aS'251'
p2207
aasS'2J0K'
p2208
(lp2209
(lp2210
I979
aS'422'
p2211
aS'676'
p2212
aa(lp2213
I5323
aS'138'
p2214
aS'251'
p2215
aasS'2J0L'
p2216
(lp2217
(lp2218
I979
aS'422'
p2219
aS'676'
p2220
aasS'2J0M'
p2221
(lp2222
(lp2223
I979
aS'422'
p2224
aS'676'
p2225
aa(lp2226
I5323
aS'138'
p2227
aS'252'
p2228
aasS'4RIW'
p2229
(lp2230
(lp2231
I979
aS'692'
p2232
aS'945'
p2233
aa(lp2234
I979
aS'690'
p2235
aS'941'
p2236
aasS'2R2P'
p2237
(lp2238
(lp2239
I213
aS'662'
p2240
aS'672'
p2241
aa(lp2242
I979
aS'676'
p2243
aS'932'
p2244
aasS'1XKK'
p2245
(lp2246
(lp2247
I979
aS'714'
p2248
aS'965'
p2249
aasS'5CT7'
p2250
(lp2251
(lp2252
I979
aS'458'
p2253
aS'712'
p2254
aasS'1IEP'
p2255
(lp2256
(lp2257
I979
aS'242'
p2258
aS'492'
p2259
aasS'1SNX'
p2260
(lp2261
(lp2262
I979
aS'363'
p2263
aS'612'
p2264
aasS'2OZO'
p2265
(lp2266
(lp2267
I979
aS'342'
p2268
aS'591'
p2269
aa(lp2270
I1107
aS'10'
p2271
aS'87'
p2272
aa(lp2273
I1107
aS'163'
p2274
aS'238'
p2275
aasS'1SNU'
p2276
(lp2277
(lp2278
I979
aS'363'
p2279
aS'612'
p2280
aasS'1I44'
p2281
(lp2282
(lp2283
I979
aS'997'
p2284
aS'1263'
p2285
aasS'1QPD'
p2286
(lp2287
(lp2288
I979
aS'245'
p2289
aS'493'
p2290
aasS'1QPE'
p2291
(lp2292
(lp2293
I979
aS'245'
p2294
aS'493'
p2295
aasS'1PKG'
p2296
(lp2297
(lp2298
I979
aS'589'
p2299
aS'923'
p2300
aasS'3LXP'
p2301
(lp2302
(lp2303
I979
aS'898'
p2304
aS'1167'
p2305
aasS'5BPY'
p2306
(lp2307
(lp2308
I979
aS'402'
p2309
aS'650'
p2310
aasS'1QPJ'
p2311
(lp2312
(lp2313
I979
aS'245'
p2314
aS'493'
p2315
aasS'4J98'
p2316
(lp2317
(lp2318
I979
aS'481'
p2319
aS'757'
p2320
aasS'3BRB'
p2321
(lp2322
(lp2323
I979
aS'588'
p2324
aS'852'
p2325
aasS'3REP'
p2326
(lp2327
(lp2328
I979
aS'194'
p2329
aS'445'
p2330
aa(lp2331
I4059
aS'264'
p2332
aS'364'
p2333
aasS'1RQQ'
p2334
(lp2335
(lp2336
I979
aS'997'
p2337
aS'1263'
p2338
aa(lp2339
I1107
aS'409'
p2340
aS'486'
p2341
aasS'4ZTN'
p2342
(lp2343
(lp2344
I979
aS'190'
p2345
aS'454'
p2346
aasS'4ZTL'
p2347
(lp2348
(lp2349
I979
aS'190'
p2350
aS'454'
p2351
aasS'4ZTM'
p2352
(lp2353
(lp2354
I979
aS'190'
p2355
aS'454'
p2356
aasS'3KF4'
p2357
(lp2358
(lp2359
I979
aS'242'
p2360
aS'492'
p2361
aasS'4CMU'
p2362
(lp2363
(lp2364
I979
aS'1117'
p2365
aS'1382'
p2366
aasS'3EKN'
p2367
(lp2368
(lp2369
I979
aS'997'
p2370
aS'1263'
p2371
aasS'2HIW'
p2372
(lp2373
(lp2374
I979
aS'260'
p2375
aS'510'
p2376
aasS'4E5W'
p2377
(lp2378
(lp2379
I979
aS'876'
p2380
aS'1147'
p2381
aasS'4DGG'
p2382
(lp2383
(lp2384
I979
aS'268'
p2385
aS'515'
p2386
aasS'4XYF'
p2387
(lp2388
(lp2389
I979
aS'1079'
p2390
aS'1336'
p2391
aasS'4FL2'
p2392
(lp2393
(lp2394
I979
aS'374'
p2395
aS'623'
p2396
aa(lp2397
I1107
aS'15'
p2398
aS'92'
p2399
aa(lp2400
I1107
aS'168'
p2401
aS'244'
p2402
aasS'4FL3'
p2403
(lp2404
(lp2405
I979
aS'374'
p2406
aS'623'
p2407
aa(lp2408
I1107
aS'15'
p2409
aS'92'
p2410
aa(lp2411
I1107
aS'168'
p2412
aS'244'
p2413
aasS'4FL1'
p2414
(lp2415
(lp2416
I979
aS'374'
p2417
aS'623'
p2418
aasS'4I1Z'
p2419
(lp2420
(lp2421
I979
aS'714'
p2422
aS'965'
p2423
aasS'4MNF'
p2424
(lp2425
(lp2426
I979
aS'458'
p2427
aS'712'
p2428
aasS'4MNE'
p2429
(lp2430
(lp2431
I252
aS'68'
p2432
aS'361'
p2433
aa(lp2434
I979
aS'458'
p2435
aS'712'
p2436
aasS'1YI6'
p2437
(lp2438
(lp2439
I979
aS'268'
p2440
aS'515'
p2441
aasS'2JKM'
p2442
(lp2443
(lp2444
I979
aS'422'
p2445
aS'676'
p2446
aasS'4CMO'
p2447
(lp2448
(lp2449
I979
aS'1117'
p2450
aS'1382'
p2451
aasS'5CF6'
p2452
(lp2453
(lp2454
I979
aS'873'
p2455
aS'1144'
p2456
aasS'1U54'
p2457
(lp2458
(lp2459
I979
aS'127'
p2460
aS'385'
p2461
aa(lp2462
I979
aS'127'
p2463
aS'385'
p2464
aasS'5CF4'
p2465
(lp2466
(lp2467
I979
aS'874'
p2468
aS'1145'
p2469
aasS'4Y95'
p2470
(lp2471
(lp2472
I979
aS'402'
p2473
aS'650'
p2474
aasS'1U59'
p2475
(lp2476
(lp2477
I979
aS'342'
p2478
aS'591'
p2479
aasS'5CF8'
p2480
(lp2481
(lp2482
I979
aS'853'
p2483
aS'1124'
p2484
aasS'3LPB'
p2485
(lp2486
(lp2487
I979
aS'849'
p2488
aS'1120'
p2489
aasS'4U0I'
p2490
(lp2491
(lp2492
I979
aS'589'
p2493
aS'923'
p2494
aasS'2QOH'
p2495
(lp2496
(lp2497
I979
aS'242'
p2498
aS'492'
p2499
aasS'3OXZ'
p2500
(lp2501
(lp2502
I979
aS'242'
p2503
aS'492'
p2504
aasS'2QOI'
p2505
(lp2506
(lp2507
I213
aS'595'
p2508
aS'618'
p2509
aa(lp2510
I979
aS'622'
p2511
aS'878'
p2512
aasS'3EQR'
p2513
(lp2514
(lp2515
I979
aS'127'
p2516
aS'385'
p2517
aasS'4ZJV'
p2518
(lp2519
(lp2520
I979
aS'714'
p2521
aS'965'
p2522
aa(lp2523
I7141
aS'336'
p2524
aS'361'
p2525
aasS'4GVJ'
p2526
(lp2527
(lp2528
I979
aS'898'
p2529
aS'1167'
p2530
aasS'1QPC'
p2531
(lp2532
(lp2533
I979
aS'245'
p2534
aS'493'
p2535
aasS'2C0I'
p2536
(lp2537
(lp2538
I729
aS'63'
p2539
aS'109'
p2540
aa(lp2541
I979
aS'241'
p2542
aS'489'
p2543
aa(lp2544
I1107
aS'123'
p2545
aS'205'
p2546
aasS'4PP9'
p2547
(lp2548
(lp2549
I979
aS'363'
p2550
aS'612'
p2551
aasS'3FZT'
p2552
(lp2553
(lp2554
I979
aS'426'
p2555
aS'678'
p2556
aasS'3K5V'
p2557
(lp2558
(lp2559
I979
aS'261'
p2560
aS'511'
p2561
aasS'2C0O'
p2562
(lp2563
(lp2564
I729
aS'63'
p2565
aS'109'
p2566
aa(lp2567
I979
aS'241'
p2568
aS'489'
p2569
aa(lp2570
I1107
aS'123'
p2571
aS'205'
p2572
aasS'2QI8'
p2573
(lp2574
(lp2575
I979
aS'268'
p2576
aS'515'
p2577
aasS'4YFI'
p2578
(lp2579
(lp2580
I979
aS'463'
p2581
aS'719'
p2582
aasS'4G2F'
p2583
(lp2584
(lp2585
I979
aS'622'
p2586
aS'878'
p2587
aasS'4PP7'
p2588
(lp2589
(lp2590
I979
aS'458'
p2591
aS'712'
p2592
aasS'3BKB'
p2593
(lp2594
(lp2595
I979
aS'561'
p2596
aS'814'
p2597
aa(lp2598
I1107
aS'460'
p2599
aS'529'
p2600
aasS'5CAV'
p2601
(lp2602
(lp2603
I979
aS'717'
p2604
aS'968'
p2605
aasS'2HWP'
p2606
(lp2607
(lp2608
I979
aS'268'
p2609
aS'515'
p2610
aasS'3SRV'
p2611
(lp2612
(lp2613
I979
aS'374'
p2614
aS'623'
p2615
aa(lp2616
I979
aS'374'
p2617
aS'623'
p2618
aasS'2G15'
p2619
(lp2620
(lp2621
I979
aS'1079'
p2622
aS'1336'
p2623
aasS'4L00'
p2624
(lp2625
(lp2626
I979
aS'584'
p2627
aS'844'
p2628
aasS'4R3P'
p2629
(lp2630
(lp2631
I979
aS'714'
p2632
aS'965'
p2633
aasS'3W33'
p2634
(lp2635
(lp2636
I979
aS'714'
p2637
aS'965'
p2638
aasS'1BYG'
p2639
(lp2640
(lp2641
I979
aS'195'
p2642
aS'440'
p2643
aasS'4NEU'
p2644
(lp2645
(lp2646
I979
aS'21'
p2647
aS'284'
p2648
aasS'4YJO'
p2649
(lp2650
(lp2651
I979
aS'382'
p2652
aS'631'
p2653
aasS'3U51'
p2654
(lp2655
(lp2656
I979
aS'268'
p2657
aS'515'
p2658
aasS'4AGC'
p2659
(lp2660
(lp2661
I979
aS'834'
p2662
aS'1160'
p2663
aasS'3LW0'
p2664
(lp2665
(lp2666
I979
aS'999'
p2667
aS'1265'
p2668
aasS'4FZ6'
p2669
(lp2670
(lp2671
I979
aS'374'
p2672
aS'623'
p2673
aasS'4FZ7'
p2674
(lp2675
(lp2676
I979
aS'374'
p2677
aS'623'
p2678
aasS'4RJ4'
p2679
(lp2680
(lp2681
I979
aS'714'
p2682
aS'965'
p2683
aasS'1YWN'
p2684
(lp2685
(lp2686
I979
aS'832'
p2687
aS'1158'
p2688
aasS'4RJ6'
p2689
(lp2690
(lp2691
I979
aS'714'
p2692
aS'965'
p2693
aasS'4RJ7'
p2694
(lp2695
(lp2696
I979
aS'714'
p2697
aS'965'
p2698
aasS'4K33'
p2699
(lp2700
(lp2701
I979
aS'472'
p2702
aS'748'
p2703
aasS'2G1T'
p2704
(lp2705
(lp2706
I979
aS'242'
p2707
aS'492'
p2708
aasS'4YJS'
p2709
(lp2710
(lp2711
I979
aS'383'
p2712
aS'632'
p2713
aasS'4YJR'
p2714
(lp2715
(lp2716
I979
aS'383'
p2717
aS'632'
p2718
aasS'4PPB'
p2719
(lp2720
(lp2721
I979
aS'363'
p2722
aS'612'
p2723
aasS'4PPC'
p2724
(lp2725
(lp2726
I979
aS'363'
p2727
aS'612'
p2728
aasS'4RJ8'
p2729
(lp2730
(lp2731
I979
aS'714'
p2732
aS'965'
p2733
aasS'2YFX'
p2734
(lp2735
(lp2736
I979
aS'1117'
p2737
aS'1382'
p2738
aasS'4YJU'
p2739
(lp2740
(lp2741
I979
aS'383'
p2742
aS'632'
p2743
aasS'4YJT'
p2744
(lp2745
(lp2746
I979
aS'383'
p2747
aS'632'
p2748
aasS'1YOL'
p2749
(lp2750
(lp2751
I979
aS'270'
p2752
aS'517'
p2753
aasS'3IO7'
p2754
(lp2755
(lp2756
I979
aS'849'
p2757
aS'1120'
p2758
aasS'4LQM'
p2759
(lp2760
(lp2761
I979
aS'714'
p2762
aS'965'
p2763
aasS'1XBA'
p2764
(lp2765
(lp2766
I979
aS'374'
p2767
aS'623'
p2768
aasS'1XBC'
p2769
(lp2770
(lp2771
I979
aS'374'
p2772
aS'623'
p2773
aasS'1XBB'
p2774
(lp2775
(lp2776
I979
aS'374'
p2777
aS'623'
p2778
aasS'4K8A'
p2779
(lp2780
(lp2781
I979
aS'422'
p2782
aS'676'
p2783
aasS'4M68'
p2784
(lp2785
(lp2786
I979
aS'202'
p2787
aS'453'
p2788
aasS'4MH7'
p2789
(lp2790
(lp2791
I979
aS'588'
p2792
aS'852'
p2793
aasS'3Q32'
p2794
(lp2795
(lp2796
I979
aS'849'
p2797
aS'1120'
p2798
aasS'4D2R'
p2799
(lp2800
(lp2801
I979
aS'999'
p2802
aS'1265'
p2803
aasS'2OH4'
p2804
(lp2805
(lp2806
I979
aS'832'
p2807
aS'1158'
p2808
aasS'2AUH'
p2809
(lp2810
(lp2811
I979
aS'997'
p2812
aS'1263'
p2813
aa(lp2814
I6363
aS'373'
p2815
aS'409'
p2816
aasS'4AQC'
p2817
(lp2818
(lp2819
I979
aS'849'
p2820
aS'1120'
p2821
aasS'2JIV'
p2822
(lp2823
(lp2824
I979
aS'714'
p2825
aS'965'
p2826
aasS'2JIU'
p2827
(lp2828
(lp2829
I979
aS'714'
p2830
aS'965'
p2831
aasS'2JIT'
p2832
(lp2833
(lp2834
I979
aS'714'
p2835
aS'965'
p2836
aasS'3AC2'
p2837
(lp2838
(lp2839
I979
aS'245'
p2840
aS'493'
p2841
aasS'4GK2'
p2842
(lp2843
(lp2844
I979
aS'622'
p2845
aS'878'
p2846
aasS'4YJP'
p2847
(lp2848
(lp2849
I979
aS'383'
p2850
aS'632'
p2851
aasS'3VW8'
p2852
(lp2853
(lp2854
I979
aS'1079'
p2855
aS'1336'
p2856
aasS'4FC0'
p2857
(lp2858
(lp2859
I979
aS'457'
p2860
aS'711'
p2861
aasS'2XYU'
p2862
(lp2863
(lp2864
I979
aS'621'
p2865
aS'878'
p2866
aasS'4I4E'
p2867
(lp2868
(lp2869
I979
aS'422'
p2870
aS'676'
p2871
aasS'1MP8'
p2872
(lp2873
(lp2874
I979
aS'422'
p2875
aS'676'
p2876
aasS'4I4F'
p2877
(lp2878
(lp2879
I979
aS'422'
p2880
aS'676'
p2881
aasS'2H8H'
p2882
(lp2883
(lp2884
I729
aS'87'
p2885
aS'134'
p2886
aa(lp2887
I979
aS'268'
p2888
aS'515'
p2889
aa(lp2890
I1107
aS'148'
p2891
aS'230'
p2892
aasS'4F1T'
p2893
(lp2894
(lp2895
I979
aS'1027'
p2896
aS'1289'
p2897
aasS'4BKJ'
p2898
(lp2899
(lp2900
I979
aS'610'
p2901
aS'905'
p2902
aasS'2WQB'
p2903
(lp2904
(lp2905
I979
aS'824'
p2906
aS'1091'
p2907
aasS'4EI4'
p2908
(lp2909
(lp2910
I979
aS'876'
p2911
aS'1147'
p2912
aasS'4F1M'
p2913
(lp2914
(lp2915
I979
aS'1027'
p2916
aS'1289'
p2917
aasS'4F1O'
p2918
(lp2919
(lp2920
I979
aS'1027'
p2921
aS'1289'
p2922
aasS'3BYU'
p2923
(lp2924
(lp2925
I979
aS'245'
p2926
aS'493'
p2927
aa(lp2928
I979
aS'245'
p2929
aS'493'
p2930
aasS'4RSS'
p2931
(lp2932
(lp2933
I979
aS'374'
p2934
aS'623'
p2935
aasS'2XBA'
p2936
(lp2937
(lp2938
I979
aS'1117'
p2939
aS'1382'
p2940
aasS'1AGW'
p2941
(lp2942
(lp2943
I979
aS'479'
p2944
aS'754'
p2945
aasS'4CMT'
p2946
(lp2947
(lp2948
I979
aS'1117'
p2949
aS'1382'
p2950
aasS'3MIY'
p2951
(lp2952
(lp2953
I979
aS'363'
p2954
aS'612'
p2955
aasS'4OT5'
p2956
(lp2957
(lp2958
I979
aS'402'
p2959
aS'650'
p2960
aasS'3C1X'
p2961
(lp2962
(lp2963
I979
aS'1079'
p2964
aS'1336'
p2965
aasS'2Y6O'
p2966
(lp2967
(lp2968
I979
aS'621'
p2969
aS'878'
p2970
aasS'2XB7'
p2971
(lp2972
(lp2973
I979
aS'1117'
p2974
aS'1382'
p2975
aasS'1M7N'
p2976
(lp2977
(lp2978
I979
aS'996'
p2979
aS'1262'
p2980
aasS'3UIM'
p2981
(lp2982
(lp2983
I979
aS'292'
p2984
aS'563'
p2985
aasS'1FGI'
p2986
(lp2987
(lp2988
I979
aS'479'
p2989
aS'754'
p2990
aasS'2I0V'
p2991
(lp2992
(lp2993
I979
aS'582'
p2994
aS'910'
p2995
aasS'4TWP'
p2996
(lp2997
(lp2998
I979
aS'242'
p2999
aS'492'
p3000
aasS'2I0Y'
p3001
(lp3002
(lp3003
I979
aS'582'
p3004
aS'910'
p3005
aasS'2W1I'
p3006
(lp3007
(lp3008
I979
aS'849'
p3009
aS'1120'
p3010
aasS'3JY9'
p3011
(lp3012
(lp3013
I979
aS'849'
p3014
aS'1120'
p3015
aasS'4LI5'
p3016
(lp3017
(lp3018
I979
aS'714'
p3019
aS'965'
p3020
aasS'3KMW'
p3021
(lp3022
(lp3023
I979
aS'194'
p3024
aS'445'
p3025
aa(lp3026
I4059
aS'264'
p3027
aS'364'
p3028
aasS'1M52'
p3029
(lp3030
(lp3031
I979
aS'242'
p3032
aS'492'
p3033
aasS'2B7A'
p3034
(lp3035
(lp3036
I979
aS'849'
p3037
aS'1120'
p3038
aasS'4FK3'
p3039
(lp3040
(lp3041
I979
aS'458'
p3042
aS'713'
p3043
aasS'3ZBX'
p3044
(lp3045
(lp3046
I979
aS'1079'
p3047
aS'1336'
p3048
aasS'2QU5'
p3049
(lp3050
(lp3051
I979
aS'834'
p3052
aS'1160'
p3053
aasS'2QU6'
p3054
(lp3055
(lp3056
I979
aS'834'
p3057
aS'1160'
p3058
aa(lp3059
I979
aS'834'
p3060
aS'1160'
p3061
aasS'3BYO'
p3062
(lp3063
(lp3064
I979
aS'245'
p3065
aS'493'
p3066
aasS'4IVA'
p3067
(lp3068
(lp3069
I979
aS'849'
p3070
aS'1120'
p3071
aasS'2Q0B'
p3072
(lp3073
(lp3074
I979
aS'481'
p3075
aS'757'
p3076
aasS'3KMM'
p3077
(lp3078
(lp3079
I979
aS'245'
p3080
aS'493'
p3081
aasS'3OG7'
p3082
(lp3083
(lp3084
I979
aS'458'
p3085
aS'713'
p3086
aasS'3EN7'
p3087
(lp3088
(lp3089
I979
aS'268'
p3090
aS'515'
p3091
aasS'3EN4'
p3092
(lp3093
(lp3094
I979
aS'268'
p3095
aS'515'
p3096
aasS'3EN5'
p3097
(lp3098
(lp3099
I979
aS'268'
p3100
aS'515'
p3101
aasS'2WGJ'
p3102
(lp3103
(lp3104
I979
aS'1079'
p3105
aS'1336'
p3106
aasS'2PSQ'
p3107
(lp3108
(lp3109
I979
aS'481'
p3110
aS'757'
p3111
aasS'4YMJ'
p3112
(lp3113
(lp3114
I979
aS'539'
p3115
aS'823'
p3116
aasS'5AM6'
p3117
(lp3118
(lp3119
I979
aS'479'
p3120
aS'754'
p3121
aasS'4PUZ'
p3122
(lp3123
(lp3124
I979
aS'374'
p3125
aS'623'
p3126
aasS'4G9R'
p3127
(lp3128
(lp3129
I979
aS'458'
p3130
aS'712'
p3131
aasS'3PRI'
p3132
(lp3133
(lp3134
I979
aS'458'
p3135
aS'712'
p3136
aasS'4F64'
p3137
(lp3138
(lp3139
I979
aS'479'
p3140
aS'754'
p3141
aa(lp3142
I979
aS'479'
p3143
aS'754'
p3144
aasS'3PRF'
p3145
(lp3146
(lp3147
I979
aS'458'
p3148
aS'712'
p3149
aasS'3EQP'
p3150
(lp3151
(lp3152
I979
aS'127'
p3153
aS'385'
p3154
aasS'4JI9'
p3155
(lp3156
(lp3157
I979
aS'849'
p3158
aS'1120'
p3159
aasS'4R3R'
p3160
(lp3161
(lp3162
I979
aS'714'
p3163
aS'965'
p3164
aasS'2QLQ'
p3165
(lp3166
(lp3167
I979
aS'268'
p3168
aS'515'
p3169
aasS'4F63'
p3170
(lp3171
(lp3172
I979
aS'479'
p3173
aS'754'
p3174
aasS'3ZEP'
p3175
(lp3176
(lp3177
I979
aS'823'
p3178
aS'1094'
p3179
aasS'4RX7'
p3180
(lp3181
(lp3182
I979
aS'374'
p3183
aS'623'
p3184
aasS'4TWO'
p3185
(lp3186
(lp3187
I979
aS'622'
p3188
aS'878'
p3189
aasS'4TWN'
p3190
(lp3191
(lp3192
I979
aS'622'
p3193
aS'878'
p3194
aasS'1GJO'
p3195
(lp3196
(lp3197
I979
aS'481'
p3198
aS'757'
p3199
aasS'4RX8'
p3200
(lp3201
(lp3202
I979
aS'374'
p3203
aS'623'
p3204
aasS'4RX9'
p3205
(lp3206
(lp3207
I979
aS'374'
p3208
aS'623'
p3209
aasS'3PSD'
p3210
(lp3211
(lp3212
I979
aS'458'
p3213
aS'712'
p3214
aasS'5CZI'
p3215
(lp3216
(lp3217
I979
aS'718'
p3218
aS'969'
p3219
aasS'3VJN'
p3220
(lp3221
(lp3222
I979
aS'714'
p3223
aS'965'
p3224
aasS'4BBF'
p3225
(lp3226
(lp3227
I979
aS'849'
p3228
aS'1120'
p3229
aasS'4OT6'
p3230
(lp3231
(lp3232
I979
aS'402'
p3233
aS'650'
p3234
aasS'5AM7'
p3235
(lp3236
(lp3237
I979
aS'479'
p3238
aS'754'
p3239
aasS'4XUF'
p3240
(lp3241
(lp3242
I979
aS'610'
p3243
aS'943'
p3244
aasS'3TCP'
p3245
(lp3246
(lp3247
I979
aS'588'
p3248
aS'852'
p3249
aasS'1K3A'
p3250
(lp3251
(lp3252
I979
aS'969'
p3253
aS'1235'
p3254
aasS'4RJ5'
p3255
(lp3256
(lp3257
I979
aS'714'
p3258
aS'965'
p3259
aasS'3GOP'
p3260
(lp3261
(lp3262
I979
aS'690'
p3263
aS'941'
p3264
aasS'4OTF'
p3265
(lp3266
(lp3267
I979
aS'402'
p3268
aS'650'
p3269
aasS'3ZEW'
p3270
(lp3271
(lp3272
I979
aS'616'
p3273
aS'874'
p3274
aasS'1QCF'
p3275
(lp3276
(lp3277
I729
aS'87'
p3278
aS'134'
p3279
aa(lp3280
I979
aS'267'
p3281
aS'515'
p3282
aa(lp3283
I1107
aS'148'
p3284
aS'230'
p3285
aasS'1Y57'
p3286
(lp3287
(lp3288
I729
aS'87'
p3289
aS'134'
p3290
aa(lp3291
I979
aS'268'
p3292
aS'515'
p3293
aa(lp3294
I1107
aS'148'
p3295
aS'230'
p3296
aasS'3TUB'
p3297
(lp3298
(lp3299
I979
aS'374'
p3300
aS'623'
p3301
aasS'3TUC'
p3302
(lp3303
(lp3304
I979
aS'374'
p3305
aS'623'
p3306
aasS'1T45'
p3307
(lp3308
(lp3309
I979
aS'589'
p3310
aS'923'
p3311
aasS'2Z8C'
p3312
(lp3313
(lp3314
I979
aS'997'
p3315
aS'1263'
p3316
aasS'4OTW'
p3317
(lp3318
(lp3319
I979
aS'692'
p3320
aS'945'
p3321
aasS'1K9A'
p3322
(lp3323
(lp3324
I729
aS'15'
p3325
aS'62'
p3326
aa(lp3327
I979
aS'195'
p3328
aS'440'
p3329
aa(lp3330
I1107
aS'82'
p3331
aS'156'
p3332
aasS'4XI2'
p3333
(lp3334
(lp3335
I729
aS'220'
p3336
aS'266'
p3337
aa(lp3338
I979
aS'402'
p3339
aS'650'
p3340
aa(lp3341
I1107
aS'281'
p3342
aS'362'
p3343
aasS'4YFF'
p3344
(lp3345
(lp3346
I979
aS'463'
p3347
aS'719'
p3348
aasS'3VHK'
p3349
(lp3350
(lp3351
I979
aS'834'
p3352
aS'1160'
p3353
aasS'2J5F'
p3354
(lp3355
(lp3356
I979
aS'714'
p3357
aS'965'
p3358
aasS'2J5E'
p3359
(lp3360
(lp3361
I979
aS'714'
p3362
aS'965'
p3363
aasS'4JIA'
p3364
(lp3365
(lp3366
I979
aS'849'
p3367
aS'1120'
p3368
aasS'2GQG'
p3369
(lp3370
(lp3371
I979
aS'242'
p3372
aS'492'
p3373
aasS'4OTR'
p3374
(lp3375
(lp3376
I979
aS'402'
p3377
aS'650'
p3378
aasS'4IVB'
p3379
(lp3380
(lp3381
I979
aS'876'
p3382
aS'1147'
p3383
aasS'1T46'
p3384
(lp3385
(lp3386
I979
aS'589'
p3387
aS'923'
p3388
aasS'4OTQ'
p3389
(lp3390
(lp3391
I979
aS'402'
p3392
aS'650'
p3393
aasS'4LUE'
p3394
(lp3395
(lp3396
I729
aS'89'
p3397
aS'135'
p3398
aa(lp3399
I979
aS'267'
p3400
aS'515'
p3401
aa(lp3402
I1107
aS'149'
p3403
aS'231'
p3404
aasS'4LUD'
p3405
(lp3406
(lp3407
I729
aS'89'
p3408
aS'135'
p3409
aa(lp3410
I979
aS'267'
p3411
aS'515'
p3412
aa(lp3413
I1107
aS'149'
p3414
aS'231'
p3415
aasS'4M0Z'
p3416
(lp3417
(lp3418
I979
aS'363'
p3419
aS'612'
p3420
aasS'3FQH'
p3421
(lp3422
(lp3423
I979
aS'374'
p3424
aS'623'
p3425
aasS'4I20'
p3426
(lp3427
(lp3428
I979
aS'714'
p3429
aS'965'
p3430
aasS'1GAG'
p3431
(lp3432
(lp3433
I979
aS'997'
p3434
aS'1263'
p3435
aasS'2OJ9'
p3436
(lp3437
(lp3438
I979
aS'969'
p3439
aS'1235'
p3440
aasS'2PZ5'
p3441
(lp3442
(lp3443
I979
aS'481'
p3444
aS'757'
p3445
aasS'3K54'
p3446
(lp3447
(lp3448
I979
aS'402'
p3449
aS'650'
p3450
aasS'4GT4'
p3451
(lp3452
(lp3453
I979
aS'474'
p3454
aS'746'
p3455
aasS'4GFG'
p3456
(lp3457
(lp3458
I979
aS'374'
p3459
aS'623'
p3460
aasS'3TL8'
p3461
(lp3462
(lp3463
I979
aS'292'
p3464
aS'563'
p3465
aa(lp3466
I3092
aS'267'
p3467
aS'353'
p3468
aasS'4TYG'
p3469
(lp3470
(lp3471
I979
aS'468'
p3472
aS'743'
p3473
aasS'4TYE'
p3474
(lp3475
(lp3476
I979
aS'468'
p3477
aS'743'
p3478
aasS'4XS2'
p3479
(lp3480
(lp3481
I979
aS'190'
p3482
aS'454'
p3483
aasS'3TUD'
p3484
(lp3485
(lp3486
I979
aS'374'
p3487
aS'623'
p3488
aasS'2DQ7'
p3489
(lp3490
(lp3491
I979
aS'11'
p3492
aS'260'
p3493
aasS'4EHE'
p3494
(lp3495
(lp3496
I979
aS'458'
p3497
aS'712'
p3498
aa(lp3499
I979
aS'458'
p3500
aS'712'
p3501
aasS'3VID'
p3502
(lp3503
(lp3504
I979
aS'834'
p3505
aS'1160'
p3506
aasS'3VS4'
p3507
(lp3508
(lp3509
I729
aS'89'
p3510
aS'135'
p3511
aa(lp3512
I979
aS'267'
p3513
aS'515'
p3514
aa(lp3515
I1107
aS'149'
p3516
aS'231'
p3517
aasS'3VS5'
p3518
(lp3519
(lp3520
I729
aS'89'
p3521
aS'135'
p3522
aa(lp3523
I979
aS'267'
p3524
aS'515'
p3525
aa(lp3526
I1107
aS'149'
p3527
aS'231'
p3528
aasS'3VS2'
p3529
(lp3530
(lp3531
I729
aS'89'
p3532
aS'135'
p3533
aa(lp3534
I979
aS'267'
p3535
aS'515'
p3536
aa(lp3537
I1107
aS'149'
p3538
aS'231'
p3539
aasS'3VS3'
p3540
(lp3541
(lp3542
I729
aS'89'
p3543
aS'135'
p3544
aa(lp3545
I979
aS'267'
p3546
aS'515'
p3547
aa(lp3548
I1107
aS'149'
p3549
aS'231'
p3550
aasS'4TYI'
p3551
(lp3552
(lp3553
I979
aS'468'
p3554
aS'743'
p3555
aasS'3VS1'
p3556
(lp3557
(lp3558
I729
aS'89'
p3559
aS'135'
p3560
aa(lp3561
I979
aS'267'
p3562
aS'515'
p3563
aa(lp3564
I1107
aS'149'
p3565
aS'231'
p3566
aasS'3Q96'
p3567
(lp3568
(lp3569
I979
aS'458'
p3570
aS'712'
p3571
aasS'2XYN'
p3572
(lp3573
(lp3574
I979
aS'288'
p3575
aS'538'
p3576
aasS'4YTC'
p3577
(lp3578
(lp3579
I979
aS'849'
p3580
aS'1120'
p3581
aasS'4EHZ'
p3582
(lp3583
(lp3584
I979
aS'876'
p3585
aS'1147'
p3586
aasS'2XP2'
p3587
(lp3588
(lp3589
I979
aS'1117'
p3590
aS'1382'
p3591
aasS'4BRX'
p3592
(lp3593
(lp3594
I979
aS'422'
p3595
aS'676'
p3596
aasS'5C03'
p3597
(lp3598
(lp3599
I979
aS'591'
p3600
aS'866'
p3601
aasS'4YTI'
p3602
(lp3603
(lp3604
I979
aS'849'
p3605
aS'1120'
p3606
aasS'1RJB'
p3607
(lp3608
(lp3609
I979
aS'610'
p3610
aS'943'
p3611
aasS'3I5N'
p3612
(lp3613
(lp3614
I979
aS'1079'
p3615
aS'1336'
p3616
aasS'4ANS'
p3617
(lp3618
(lp3619
I979
aS'1117'
p3620
aS'1382'
p3621
aasS'2IVU'
p3622
(lp3623
(lp3624
I979
aS'724'
p3625
aS'1005'
p3626
aasS'2RF9'
p3627
(lp3628
(lp3629
I979
aS'690'
p3630
aS'941'
p3631
aa(lp3632
I7141
aS'336'
p3633
aS'362'
p3634
aasS'4AOJ'
p3635
(lp3636
(lp3637
I979
aS'512'
p3638
aS'781'
p3639
aasS'4LGG'
p3640
(lp3641
(lp3642
I979
aS'268'
p3643
aS'515'
p3644
aasS'2E2B'
p3645
(lp3646
(lp3647
I979
aS'242'
p3648
aS'492'
p3649
aasS'4LGH'
p3650
(lp3651
(lp3652
I979
aS'268'
p3653
aS'515'
p3654
aasS'5CF5'
p3655
(lp3656
(lp3657
I979
aS'873'
p3658
aS'1144'
p3659
aasS'3UGC'
p3660
(lp3661
(lp3662
I979
aS'849'
p3663
aS'1120'
p3664
aasS'4M12'
p3665
(lp3666
(lp3667
I979
aS'363'
p3668
aS'612'
p3669
aasS'4M13'
p3670
(lp3671
(lp3672
I979
aS'363'
p3673
aS'612'
p3674
aasS'4M14'
p3675
(lp3676
(lp3677
I979
aS'363'
p3678
aS'612'
p3679
aasS'4M15'
p3680
(lp3681
(lp3682
I979
aS'363'
p3683
aS'612'
p3684
aasS'4RWK'
p3685
(lp3686
(lp3687
I979
aS'479'
p3688
aS'754'
p3689
aasS'4L52'
p3690
(lp3691
(lp3692
I979
aS'37'
p3693
aS'283'
p3694
aasS'4I0S'
p3695
(lp3696
(lp3697
I979
aS'374'
p3698
aS'623'
p3699
aasS'4I0R'
p3700
(lp3701
(lp3702
I979
aS'374'
p3703
aS'623'
p3704
aasS'4CLJ'
p3705
(lp3706
(lp3707
I979
aS'1117'
p3708
aS'1382'
p3709
aasS'4GU6'
p3710
(lp3711
(lp3712
I979
aS'422'
p3713
aS'676'
p3714
aasS'5CAN'
p3715
(lp3716
(lp3717
I979
aS'716'
p3718
aS'983'
p3719
aasS'3CE3'
p3720
(lp3721
(lp3722
I979
aS'1079'
p3723
aS'1336'
p3724
aasS'3TZ7'
p3725
(lp3726
(lp3727
I979
aS'268'
p3728
aS'515'
p3729
aasS'4D4R'
p3730
(lp3731
(lp3732
I979
aS'422'
p3733
aS'676'
p3734
aasS'4K6Z'
p3735
(lp3736
(lp3737
I979
aS'876'
p3738
aS'1147'
p3739
aasS'4TPT'
p3740
(lp3741
(lp3742
I979
aS'333'
p3743
aS'599'
p3744
aasS'2RFS'
p3745
(lp3746
(lp3747
I979
aS'1079'
p3748
aS'1336'
p3749
aasS'3TZ9'
p3750
(lp3751
(lp3752
I979
aS'268'
p3753
aS'515'
p3754
aasS'3TZ8'
p3755
(lp3756
(lp3757
I979
aS'268'
p3758
aS'515'
p3759
aasS'1R0P'
p3760
(lp3761
(lp3762
I979
aS'1079'
p3763
aS'1336'
p3764
aasS'3CJF'
p3765
(lp3766
(lp3767
I979
aS'832'
p3768
aS'1158'
p3769
aasS'3CJG'
p3770
(lp3771
(lp3772
I979
aS'832'
p3773
aS'1158'
p3774
aasS'4D5K'
p3775
(lp3776
(lp3777
I979
aS'422'
p3778
aS'676'
p3779
aasS'5D10'
p3780
(lp3781
(lp3782
I979
aS'268'
p3783
aS'515'
p3784
aasS'5D11'
p3785
(lp3786
(lp3787
I979
aS'268'
p3788
aS'515'
p3789
aasS'5D12'
p3790
(lp3791
(lp3792
I979
aS'268'
p3793
aS'515'
p3794
aasS'3GEN'
p3795
(lp3796
(lp3797
I979
aS'402'
p3798
aS'650'
p3799
aasS'2VWZ'
p3800
(lp3801
(lp3802
I979
aS'616'
p3803
aS'874'
p3804
aasS'3PYY'
p3805
(lp3806
(lp3807
I979
aS'261'
p3808
aS'511'
p3809
aasS'4FVP'
p3810
(lp3811
(lp3812
I979
aS'546'
p3813
aS'805'
p3814
aasS'4FVQ'
p3815
(lp3816
(lp3817
I979
aS'546'
p3818
aS'805'
p3819
aasS'4FVR'
p3820
(lp3821
(lp3822
I979
aS'546'
p3823
aS'805'
p3824
aasS'2RFE'
p3825
(lp3826
(lp3827
I979
aS'690'
p3828
aS'941'
p3829
aa(lp3830
I7141
aS'337'
p3831
aS'362'
p3832
aasS'3ULZ'
p3833
(lp3834
(lp3835
I979
aS'292'
p3836
aS'563'
p3837
aasS'4P5Q'
p3838
(lp3839
(lp3840
I979
aS'622'
p3841
aS'878'
p3842
aasS'3LZB'
p3843
(lp3844
(lp3845
I979
aS'690'
p3846
aS'941'
p3847
aasS'2P2H'
p3848
(lp3849
(lp3850
I979
aS'834'
p3851
aS'1160'
p3852
aasS'2P2I'
p3853
(lp3854
(lp3855
I979
aS'834'
p3856
aS'1160'
p3857
aasS'4KSP'
p3858
(lp3859
(lp3860
I979
aS'457'
p3861
aS'711'
p3862
aasS'4HW7'
p3863
(lp3864
(lp3865
I979
aS'582'
p3866
aS'910'
p3867
aasS'3BU3'
p3868
(lp3869
(lp3870
I979
aS'997'
p3871
aS'1263'
p3872
aasS'5E1S'
p3873
(lp3874
(lp3875
I979
aS'1004'
p3876
aS'1270'
p3877
aasS'3BU6'
p3878
(lp3879
(lp3880
I979
aS'997'
p3881
aS'1263'
p3882
aasS'2QQ7'
p3883
(lp3884
(lp3885
I979
aS'268'
p3886
aS'515'
p3887
aasS'4MCV'
p3888
(lp3889
(lp3890
I979
aS'268'
p3891
aS'515'
p3892
aasS'5CNN'
p3893
(lp3894
(lp3895
I979
aS'690'
p3896
aS'941'
p3897
aasS'5CNO'
p3898
(lp3899
(lp3900
I979
aS'690'
p3901
aS'941'
p3902
aasS'4PX6'
p3903
(lp3904
(lp3905
I979
aS'374'
p3906
aS'623'
p3907
aasS'3L8P'
p3908
(lp3909
(lp3910
I979
aS'824'
p3911
aS'1091'
p3912
aasS'4AG8'
p3913
(lp3914
(lp3915
I979
aS'834'
p3916
aS'1160'
p3917
aasS'1FVR'
p3918
(lp3919
(lp3920
I979
aS'824'
p3921
aS'1091'
p3922
aasS'4EEV'
p3923
(lp3924
(lp3925
I979
aS'1079'
p3926
aS'1336'
p3927
aasS'2WKM'
p3928
(lp3929
(lp3930
I979
aS'1079'
p3931
aS'1336'
p3932
aasS'4PQN'
p3933
(lp3934
(lp3935
I979
aS'363'
p3936
aS'612'
p3937
aasS'4EWH'
p3938
(lp3939
(lp3940
I979
aS'127'
p3941
aS'385'
p3942
aa(lp3943
I979
aS'127'
p3944
aS'385'
p3945
aasS'4R7I'
p3946
(lp3947
(lp3948
I979
aS'582'
p3949
aS'910'
p3950
aasS'4R7H'
p3951
(lp3952
(lp3953
I979
aS'582'
p3954
aS'910'
p3955
aasS'3TJD'
p3956
(lp3957
(lp3958
I979
aS'849'
p3959
aS'1120'
p3960
aasS'3KUL'
p3961
(lp3962
(lp3963
I213
aS'627'
p3964
aS'632'
p3965
aa(lp3966
I213
aS'627'
p3967
aS'632'
p3968
aa(lp3969
I979
aS'635'
p3970
aS'892'
p3971
aa(lp3972
I979
aS'635'
p3973
aS'892'
p3974
aasS'2ZV7'
p3975
(lp3976
(lp3977
I979
aS'247'
p3978
aS'496'
p3979
aasS'3CS9'
p3980
(lp3981
(lp3982
I979
aS'242'
p3983
aS'492'
p3984
aasS'3L8V'
p3985
(lp3986
(lp3987
I979
aS'1079'
p3988
aS'1336'
p3989
aasS'2R4B'
p3990
(lp3991
(lp3992
I979
aS'719'
p3993
aS'973'
p3994
aasS'4LRM'
p3995
(lp3996
(lp3997
I979
aS'714'
p3998
aS'968'
p3999
aasS'2YHV'
p4000
(lp4001
(lp4002
I979
aS'1117'
p4003
aS'1382'
p4004
aasS'2PY3'
p4005
(lp4006
(lp4007
I979
aS'481'
p4008
aS'757'
p4009
aasS'2WD1'
p4010
(lp4011
(lp4012
I979
aS'1079'
p4013
aS'1336'
p4014
aasS'2Z60'
p4015
(lp4016
(lp4017
I979
aS'242'
p4018
aS'492'
p4019
aasS'3ZOS'
p4020
(lp4021
(lp4022
I979
aS'610'
p4023
aS'905'
p4024
aasS'5BVO'
p4025
(lp4026
(lp4027
I979
aS'610'
p4028
aS'905'
p4029
aasS'5BVN'
p4030
(lp4031
(lp4032
I979
aS'610'
p4033
aS'905'
p4034
aasS'5BVK'
p4035
(lp4036
(lp4037
I979
aS'610'
p4038
aS'905'
p4039
aasS'4ITH'
p4040
(lp4041
(lp4042
I979
aS'31'
p4043
aS'284'
p4044
aasS'4ITJ'
p4045
(lp4046
(lp4047
I979
aS'28'
p4048
aS'284'
p4049
aasS'5BVW'
p4050
(lp4051
(lp4052
I979
aS'610'
p4053
aS'905'
p4054
aasS'3VO3'
p4055
(lp4056
(lp4057
I979
aS'834'
p4058
aS'1160'
p4059
aasS'4V01'
p4060
(lp4061
(lp4062
I979
aS'479'
p4063
aS'754'
p4064
aasS'2ZVA'
p4065
(lp4066
(lp4067
I979
aS'247'
p4068
aS'496'
p4069
aasS'3ZON'
p4070
(lp4071
(lp4072
I979
aS'591'
p4073
aS'866'
p4074
aasS'1P14'
p4075
(lp4076
(lp4077
I979
aS'997'
p4078
aS'1263'
p4079
aasS'4E4X'
p4080
(lp4081
(lp4082
I979
aS'458'
p4083
aS'712'
p4084
aasS'3POZ'
p4085
(lp4086
(lp4087
I979
aS'714'
p4088
aS'965'
p4089
aasS'4AGW'
p4090
(lp4091
(lp4092
I979
aS'268'
p4093
aS'515'
p4094
aasS'2HWO'
p4095
(lp4096
(lp4097
I979
aS'268'
p4098
aS'515'
p4099
aasS'4AGD'
p4100
(lp4101
(lp4102
I979
aS'834'
p4103
aS'1160'
p4104
aasS'4GG7'
p4105
(lp4106
(lp4107
I979
aS'1079'
p4108
aS'1336'
p4109
aasS'2G2I'
p4110
(lp4111
(lp4112
I979
aS'242'
p4113
aS'492'
p4114
aasS'4GG5'
p4115
(lp4116
(lp4117
I979
aS'1079'
p4118
aS'1336'
p4119
aasS'4E4M'
p4120
(lp4121
(lp4122
I979
aS'849'
p4123
aS'1120'
p4124
aasS'4E4L'
p4125
(lp4126
(lp4127
I979
aS'876'
p4128
aS'1147'
p4129
aasS'4E4N'
p4130
(lp4131
(lp4132
I979
aS'876'
p4133
aS'1147'
p4134
aasS'1YOM'
p4135
(lp4136
(lp4137
I979
aS'270'
p4138
aS'517'
p4139
aasS'2X9F'
p4140
(lp4141
(lp4142
I979
aS'616'
p4143
aS'874'
p4144
aasS'1YOJ'
p4145
(lp4146
(lp4147
I979
aS'270'
p4148
aS'517'
p4149
aasS'3C7Q'
p4150
(lp4151
(lp4152
I979
aS'834'
p4153
aS'1160'
p4154
aasS'3TJC'
p4155
(lp4156
(lp4157
I979
aS'849'
p4158
aS'1120'
p4159
aasS'3SXR'
p4160
(lp4161
(lp4162
I979
aS'418'
p4163
aS'665'
p4164
aasS'3SXS'
p4165
(lp4166
(lp4167
I979
aS'418'
p4168
aS'665'
p4169
aasS'3AOX'
p4170
(lp4171
(lp4172
I979
aS'1117'
p4173
aS'1382'
p4174
aasS'4YPS'
p4175
(lp4176
(lp4177
I979
aS'512'
p4178
aS'781'
p4179
aasS'3BYS'
p4180
(lp4181
(lp4182
I979
aS'245'
p4183
aS'493'
p4184
aasS'3BYM'
p4185
(lp4186
(lp4187
I979
aS'245'
p4188
aS'493'
p4189
aasS'4R1V'
p4190
(lp4191
(lp4192
I979
aS'1079'
p4193
aS'1336'
p4194
aasS'2HEL'
p4195
(lp4196
(lp4197
I213
aS'613'
p4198
aS'618'
p4199
aa(lp4200
I979
aS'621'
p4201
aS'878'
p4202
aasS'4WUN'
p4203
(lp4204
(lp4205
I979
aS'479'
p4206
aS'754'
p4207
aasS'2HEN'
p4208
(lp4209
(lp4210
I979
aS'630'
p4211
aS'888'
p4212
aasS'4Y73'
p4213
(lp4214
(lp4215
I979
aS'190'
p4216
aS'454'
p4217
aasS'4UWB'
p4218
(lp4219
(lp4220
I979
aS'479'
p4221
aS'754'
p4222
aasS'4UWC'
p4223
(lp4224
(lp4225
I979
aS'479'
p4226
aS'754'
p4227
aasS'3OY3'
p4228
(lp4229
(lp4230
I979
aS'242'
p4231
aS'492'
p4232
aasS'1MQB'
p4233
(lp4234
(lp4235
I979
aS'615'
p4236
aS'871'
p4237
aasS'3QTI'
p4238
(lp4239
(lp4240
I979
aS'1079'
p4241
aS'1336'
p4242
aasS'4PDO'
p4243
(lp4244
(lp4245
I213
aS'590'
p4246
aS'610'
p4247
aa(lp4248
I979
aS'614'
p4249
aS'871'
p4250
aasS'3ZXZ'
p4251
(lp4252
(lp4253
I979
aS'1079'
p4254
aS'1336'
p4255
aasS'2OO8'
p4256
(lp4257
(lp4258
I979
aS'836'
p4259
aS'1091'
p4260
aasS'2IVT'
p4261
(lp4262
(lp4263
I979
aS'724'
p4264
aS'1005'
p4265
aasS'2IVV'
p4266
(lp4267
(lp4268
I979
aS'724'
p4269
aS'1005'
p4270
aasS'1OEC'
p4271
(lp4272
(lp4273
I979
aS'481'
p4274
aS'757'
p4275
aasS'2ZYB'
p4276
(lp4277
(lp4278
I979
aS'245'
p4279
aS'493'
p4280
aasS'2IVS'
p4281
(lp4282
(lp4283
I979
aS'724'
p4284
aS'1005'
p4285
aasS'3VS7'
p4286
(lp4287
(lp4288
I729
aS'89'
p4289
aS'135'
p4290
aa(lp4291
I979
aS'267'
p4292
aS'515'
p4293
aa(lp4294
I1107
aS'149'
p4295
aS'231'
p4296
aasS'4UWY'
p4297
(lp4298
(lp4299
I979
aS'479'
p4300
aS'754'
p4301
aasS'4EHG'
p4302
(lp4303
(lp4304
I979
aS'458'
p4305
aS'712'
p4306
aasS'3Q4C'
p4307
(lp4308
(lp4309
I979
aS'457'
p4310
aS'711'
p4311
aasS'2NRU'
p4312
(lp4313
(lp4314
I979
aS'190'
p4315
aS'454'
p4316
aasS'3FUP'
p4317
(lp4318
(lp4319
I979
aS'849'
p4320
aS'1120'
p4321
aasS'2PZP'
p4322
(lp4323
(lp4324
I979
aS'481'
p4325
aS'757'
p4326
aasS'2PZR'
p4327
(lp4328
(lp4329
I979
aS'481'
p4330
aS'757'
p4331
aasS'4Q9S'
p4332
(lp4333
(lp4334
I979
aS'422'
p4335
aS'676'
p4336
aasS'1JQH'
p4337
(lp4338
(lp4339
I979
aS'999'
p4340
aS'1265'
p4341
aasS'3MJ2'
p4342
(lp4343
(lp4344
I979
aS'363'
p4345
aS'612'
p4346
aasS'3VS0'
p4347
(lp4348
(lp4349
I729
aS'89'
p4350
aS'135'
p4351
aa(lp4352
I979
aS'267'
p4353
aS'515'
p4354
aa(lp4355
I1107
aS'149'
p4356
aS'231'
p4357
aasS'3MJ1'
p4358
(lp4359
(lp4360
I979
aS'363'
p4361
aS'612'
p4362
aasS'4QRC'
p4363
(lp4364
(lp4365
I979
aS'468'
p4366
aS'743'
p4367
aasS'3UQG'
p4368
(lp4369
(lp4370
I979
aS'268'
p4371
aS'515'
p4372
aasS'3UQF'
p4373
(lp4374
(lp4375
I979
aS'268'
p4376
aS'515'
p4377
aasS'3VS6'
p4378
(lp4379
(lp4380
I729
aS'89'
p4381
aS'135'
p4382
aa(lp4383
I979
aS'267'
p4384
aS'515'
p4385
aa(lp4386
I1107
aS'149'
p4387
aS'231'
p4388
aasS'3LOK'
p4389
(lp4390
(lp4391
I979
aS'268'
p4392
aS'515'
p4393
aasS'4YP8'
p4394
(lp4395
(lp4396
I979
aS'190'
p4397
aS'454'
p4398
aasS'4G5J'
p4399
(lp4400
(lp4401
I979
aS'714'
p4402
aS'965'
p4403
aasS'1AD5'
p4404
(lp4405
(lp4406
I729
aS'87'
p4407
aS'134'
p4408
aa(lp4409
I979
aS'267'
p4410
aS'515'
p4411
aa(lp4412
I1107
aS'148'
p4413
aS'230'
p4414
aasS'5CXH'
p4415
(lp4416
(lp4417
I979
aS'374'
p4418
aS'623'
p4419
aasS'4HJO'
p4420
(lp4421
(lp4422
I979
aS'690'
p4423
aS'941'
p4424
aasS'3O23'
p4425
(lp4426
(lp4427
I979
aS'999'
p4428
aS'1265'
p4429
aasS'3W32'
p4430
(lp4431
(lp4432
I979
aS'714'
p4433
aS'965'
p4434
aasS'4YTF'
p4435
(lp4436
(lp4437
I979
aS'849'
p4438
aS'1120'
p4439
aasS'4P5Z'
p4440
(lp4441
(lp4442
I979
aS'622'
p4443
aS'878'
p4444
aasS'3U6J'
p4445
(lp4446
(lp4447
I979
aS'834'
p4448
aS'1160'
p4449
aasS'3U6H'
p4450
(lp4451
(lp4452
I979
aS'1079'
p4453
aS'1336'
p4454
aasS'3U6I'
p4455
(lp4456
(lp4457
I979
aS'1079'
p4458
aS'1336'
p4459
aasS'4IBM'
p4460
(lp4461
(lp4462
I979
aS'997'
p4463
aS'1263'
p4464
aasS'3CTJ'
p4465
(lp4466
(lp4467
I979
aS'1079'
p4468
aS'1336'
p4469
aasS'3CTH'
p4470
(lp4471
(lp4472
I979
aS'1079'
p4473
aS'1336'
p4474
aasS'2ETM'
p4475
(lp4476
(lp4477
I979
aS'422'
p4478
aS'676'
p4479
aasS'3BZ3'
p4480
(lp4481
(lp4482
I979
aS'422'
p4483
aS'676'
p4484
aasS'3IK3'
p4485
(lp4486
(lp4487
I979
aS'242'
p4488
aS'492'
p4489
aasS'3IDP'
p4490
(lp4491
(lp4492
I979
aS'458'
p4493
aS'712'
p4494
aasS'4JQ7'
p4495
(lp4496
(lp4497
I979
aS'690'
p4498
aS'941'
p4499
aasS'4FNW'
p4500
(lp4501
(lp4502
I979
aS'1117'
p4503
aS'1382'
p4504
aasS'3KXZ'
p4505
(lp4506
(lp4507
I979
aS'245'
p4508
aS'493'
p4509
aasS'3FY2'
p4510
(lp4511
(lp4512
I213
aS'607'
p4513
aS'618'
p4514
aa(lp4515
I979
aS'622'
p4516
aS'878'
p4517
aasS'3GT8'
p4518
(lp4519
(lp4520
I979
aS'690'
p4521
aS'941'
p4522
aasS'5C01'
p4523
(lp4524
(lp4525
I979
aS'591'
p4526
aS'866'
p4527
aasS'3LVP'
p4528
(lp4529
(lp4530
I979
aS'999'
p4531
aS'1265'
p4532
aasS'4FNX'
p4533
(lp4534
(lp4535
I979
aS'1117'
p4536
aS'1382'
p4537
aasS'4FNY'
p4538
(lp4539
(lp4540
I979
aS'1117'
p4541
aS'1382'
p4542
aasS'4FNZ'
p4543
(lp4544
(lp4545
I979
aS'1117'
p4546
aS'1382'
p4547
aasS'3A4P'
p4548
(lp4549
(lp4550
I979
aS'1079'
p4551
aS'1336'
p4552
aasS'3EYG'
p4553
(lp4554
(lp4555
I979
aS'876'
p4556
aS'1147'
p4557
aasS'4R6V'
p4558
(lp4559
(lp4560
I979
aS'468'
p4561
aS'743'
p4562
aasS'3EYH'
p4563
(lp4564
(lp4565
I979
aS'876'
p4566
aS'1147'
p4567
aasS'3ZC6'
p4568
(lp4569
(lp4570
I979
aS'823'
p4571
aS'1094'
p4572
aasS'4RWL'
p4573
(lp4574
(lp4575
I979
aS'479'
p4576
aS'754'
p4577
aasS'4YTH'
p4578
(lp4579
(lp4580
I979
aS'849'
p4581
aS'1120'
p4582
aasS'3MS9'
p4583
(lp4584
(lp4585
I979
aS'242'
p4586
aS'492'
p4587
aasS'2RL5'
p4588
(lp4589
(lp4590
I979
aS'834'
p4591
aS'1160'
p4592
aasS'4K2R'
p4593
(lp4594
(lp4595
I979
aS'342'
p4596
aS'591'
p4597
aa(lp4598
I1107
aS'10'
p4599
aS'87'
p4600
aa(lp4601
I1107
aS'163'
p4602
aS'238'
p4603
aasS'3PJC'
p4604
(lp4605
(lp4606
I979
aS'823'
p4607
aS'1094'
p4608
aasS'4O2P'
p4609
(lp4610
(lp4611
I979
aS'268'
p4612
aS'515'
p4613
aasS'3A4O'
p4614
(lp4615
(lp4616
I979
aS'16'
p4617
aS'265'
p4618
aasS'1M14'
p4619
(lp4620
(lp4621
I979
aS'690'
p4622
aS'941'
p4623
aasS'3PJ3'
p4624
(lp4625
(lp4626
I979
aS'402'
p4627
aS'650'
p4628
aasS'3PJ2'
p4629
(lp4630
(lp4631
I979
aS'402'
p4632
aS'650'
p4633
aasS'3PJ1'
p4634
(lp4635
(lp4636
I979
aS'402'
p4637
aS'650'
p4638
aasS'5AEP'
p4639
(lp4640
(lp4641
I979
aS'849'
p4642
aS'1120'
p4643
aasS'3ZC5'
p4644
(lp4645
(lp4646
I979
aS'1079'
p4647
aS'1336'
p4648
aa(lp4649
I979
aS'1079'
p4650
aS'1336'
p4651
aasS'2Y4I'
p4652
(lp4653
(lp4654
I252
aS'68'
p4655
aS'361'
p4656
aa(lp4657
I979
aS'666'
p4658
aS'928'
p4659
aasS'3KCK'
p4660
(lp4661
(lp4662
I979
aS'849'
p4663
aS'1120'
p4664
aasS'4F0F'
p4665
(lp4666
(lp4667
I979
aS'1027'
p4668
aS'1289'
p4669
aasS'4OLI'
p4670
(lp4671
(lp4672
I979
aS'591'
p4673
aS'866'
p4674
aa(lp4675
I979
aS'898'
p4676
aS'1167'
p4677
aasS'3BPR'
p4678
(lp4679
(lp4680
I979
aS'588'
p4681
aS'852'
p4682
aasS'3ZCL'
p4683
(lp4684
(lp4685
I979
aS'1079'
p4686
aS'1336'
p4687
aasS'4F0G'
p4688
(lp4689
(lp4690
I979
aS'1027'
p4691
aS'1289'
p4692
aasS'2Y6M'
p4693
(lp4694
(lp4695
I979
aS'621'
p4696
aS'878'
p4697
aasS'3F3W'
p4698
(lp4699
(lp4700
I979
aS'268'
p4701
aS'515'
p4702
aasS'3MSS'
p4703
(lp4704
(lp4705
I979
aS'242'
p4706
aS'492'
p4707
aasS'3F3U'
p4708
(lp4709
(lp4710
I979
aS'268'
p4711
aS'515'
p4712
aasS'5CXZ'
p4713
(lp4714
(lp4715
I979
aS'374'
p4716
aS'623'
p4717
aasS'2VX1'
p4718
(lp4719
(lp4720
I979
aS'616'
p4721
aS'874'
p4722
aasS'4DEG'
p4723
(lp4724
(lp4725
I979
aS'1079'
p4726
aS'1336'
p4727
aasS'4GJ3'
p4728
(lp4729
(lp4730
I979
aS'898'
p4731
aS'1167'
p4732
aasS'1FGK'
p4733
(lp4734
(lp4735
I979
aS'479'
p4736
aS'754'
p4737
aasS'4DEI'
p4738
(lp4739
(lp4740
I979
aS'1079'
p4741
aS'1336'
p4742
aasS'3DK7'
p4743
(lp4744
(lp4745
I979
aS'242'
p4746
aS'492'
p4747
aasS'3TT0'
p4748
(lp4749
(lp4750
I979
aS'479'
p4751
aS'754'
p4752
aasS'4MBJ'
p4753
(lp4754
(lp4755
I979
aS'458'
p4756
aS'712'
p4757
aasS'3IKA'
p4758
(lp4759
(lp4760
I979
aS'714'
p4761
aS'965'
p4762
aasS'4IWD'
p4763
(lp4764
(lp4765
I979
aS'1079'
p4766
aS'1336'
p4767
aasS'4GK3'
p4768
(lp4769
(lp4770
I979
aS'622'
p4771
aS'878'
p4772
aasS'3G0F'
p4773
(lp4774
(lp4775
I979
aS'589'
p4776
aS'923'
p4777
aasS'4GK4'
p4778
(lp4779
(lp4780
I979
aS'622'
p4781
aS'878'
p4782
aasS'3G0E'
p4783
(lp4784
(lp4785
I979
aS'589'
p4786
aS'923'
p4787
aasS'3DQW'
p4788
(lp4789
(lp4790
I979
aS'268'
p4791
aS'515'
p4792
aasS'3PXK'
p4793
(lp4794
(lp4795
I979
aS'422'
p4796
aS'676'
p4797
aasS'3H3C'
p4798
(lp4799
(lp4800
I979
aS'426'
p4801
aS'678'
p4802
aasS'3PLS'
p4803
(lp4804
(lp4805
I979
aS'1085'
p4806
aS'1338'
p4807
aasS'5C8K'
p4808
(lp4809
(lp4810
I979
aS'717'
p4811
aS'985'
p4812
aasS'5C8M'
p4813
(lp4814
(lp4815
I979
aS'717'
p4816
aS'984'
p4817
aasS'5C8N'
p4818
(lp4819
(lp4820
I979
aS'716'
p4821
aS'984'
p4822
aasS'3CCN'
p4823
(lp4824
(lp4825
I979
aS'1079'
p4826
aS'1336'
p4827
aasS'3E62'
p4828
(lp4829
(lp4830
I979
aS'849'
p4831
aS'1120'
p4832
aasS'3E63'
p4833
(lp4834
(lp4835
I979
aS'849'
p4836
aS'1120'
p4837
aasS'4M0Y'
p4838
(lp4839
(lp4840
I979
aS'363'
p4841
aS'612'
p4842
aasS'3E64'
p4843
(lp4844
(lp4845
I979
aS'849'
p4846
aS'1120'
p4847
aasS'4PPA'
p4848
(lp4849
(lp4850
I979
aS'363'
p4851
aS'612'
p4852
aasS'4YJQ'
p4853
(lp4854
(lp4855
I979
aS'383'
p4856
aS'632'
p4857
aasS'4JQ8'
p4858
(lp4859
(lp4860
I979
aS'690'
p4861
aS'941'
p4862
aasS'3VRY'
p4863
(lp4864
(lp4865
I729
aS'89'
p4866
aS'135'
p4867
aa(lp4868
I979
aS'267'
p4869
aS'515'
p4870
aa(lp4871
I1107
aS'149'
p4872
aS'231'
p4873
aasS'4HGE'
p4874
(lp4875
(lp4876
I979
aS'849'
p4877
aS'1120'
p4878
aasS'4PV0'
p4879
(lp4880
(lp4881
I979
aS'374'
p4882
aS'623'
p4883
aasS'4U9A'
p4884
(lp4885
(lp4886
I979
aS'190'
p4887
aS'454'
p4888
aasS'4E93'
p4889
(lp4890
(lp4891
I979
aS'561'
p4892
aS'814'
p4893
aa(lp4894
I1107
aS'460'
p4895
aS'529'
p4896
aasS'3ACK'
p4897
(lp4898
(lp4899
I979
aS'245'
p4900
aS'493'
p4901
aasS'4YJV'
p4902
(lp4903
(lp4904
I979
aS'383'
p4905
aS'632'
p4906
aasS'4MHA'
p4907
(lp4908
(lp4909
I979
aS'588'
p4910
aS'852'
p4911
aasS'2QO9'
p4912
(lp4913
(lp4914
I213
aS'608'
p4915
aS'618'
p4916
aa(lp4917
I979
aS'622'
p4918
aS'878'
p4919
aasS'2RGP'
p4920
(lp4921
(lp4922
I979
aS'714'
p4923
aS'965'
p4924
aasS'2QO2'
p4925
(lp4926
(lp4927
I213
aS'595'
p4928
aS'618'
p4929
aa(lp4930
I979
aS'622'
p4931
aS'878'
p4932
aasS'4C61'
p4933
(lp4934
(lp4935
I979
aS'849'
p4936
aS'1120'
p4937
aasS'2QO7'
p4938
(lp4939
(lp4940
I213
aS'595'
p4941
aS'618'
p4942
aa(lp4943
I979
aS'622'
p4944
aS'878'
p4945
aasS'2NRY'
p4946
(lp4947
(lp4948
I979
aS'190'
p4949
aS'454'
p4950
aasS'2QOK'
p4951
(lp4952
(lp4953
I213
aS'595'
p4954
aS'618'
p4955
aa(lp4956
I979
aS'622'
p4957
aS'878'
p4958
aasS'3FZS'
p4959
(lp4960
(lp4961
I979
aS'426'
p4962
aS'678'
p4963
aasS'3FZR'
p4964
(lp4965
(lp4966
I979
aS'426'
p4967
aS'678'
p4968
aasS'2QON'
p4969
(lp4970
(lp4971
I213
aS'595'
p4972
aS'618'
p4973
aa(lp4974
I979
aS'622'
p4975
aS'878'
p4976
aasS'2QOO'
p4977
(lp4978
(lp4979
I213
aS'595'
p4980
aS'618'
p4981
aa(lp4982
I979
aS'622'
p4983
aS'878'
p4984
aasS'2QOL'
p4985
(lp4986
(lp4987
I213
aS'595'
p4988
aS'618'
p4989
aa(lp4990
I979
aS'622'
p4991
aS'878'
p4992
aasS'2QOB'
p4993
(lp4994
(lp4995
I979
aS'622'
p4996
aS'878'
p4997
aasS'2QOC'
p4998
(lp4999
(lp5000
I979
aS'622'
p5001
aS'878'
p5002
aasS'4UEU'
p5003
(lp5004
(lp5005
I979
aS'8'
aS'258'
p5006
aasS'2QOF'
p5007
(lp5008
(lp5009
I213
aS'595'
p5010
aS'618'
p5011
aa(lp5012
I979
aS'622'
p5013
aS'878'
p5014
aasS'4RFM'
p5015
(lp5016
(lp5017
I979
aS'363'
p5018
aS'612'
p5019
aasS'2QOD'
p5020
(lp5021
(lp5022
I213
aS'595'
p5023
aS'618'
p5024
aa(lp5025
I979
aS'622'
p5026
aS'878'
p5027
aasS'4G5P'
p5028
(lp5029
(lp5030
I979
aS'714'
p5031
aS'965'
p5032
aasS'3AC5'
p5033
(lp5034
(lp5035
I979
aS'245'
p5036
aS'493'
p5037
aasS'2HYY'
p5038
(lp5039
(lp5040
I979
aS'242'
p5041
aS'492'
p5042
aasS'4U97'
p5043
(lp5044
(lp5045
I979
aS'190'
p5046
aS'454'
p5047
aasS'4WO5'
p5048
(lp5049
(lp5050
I979
aS'458'
p5051
aS'713'
p5052
aasS'5CEN'
p5053
(lp5054
(lp5055
I979
aS'136'
p5056
aS'368'
p5057
aasS'4RFY'
p5058
(lp5059
(lp5060
I979
aS'402'
p5061
aS'650'
p5062
aasS'4RFZ'
p5063
(lp5064
(lp5065
I979
aS'402'
p5066
aS'650'
p5067
aasS'2QOQ'
p5068
(lp5069
(lp5070
I213
aS'595'
p5071
aS'618'
p5072
aa(lp5073
I979
aS'622'
p5074
aS'878'
p5075
aasS'4RWI'
p5076
(lp5077
(lp5078
I979
aS'479'
p5079
aS'754'
p5080
aasS'3FZO'
p5081
(lp5082
(lp5083
I979
aS'426'
p5084
aS'678'
p5085
aasS'3NZ0'
p5086
(lp5087
(lp5088
I979
aS'898'
p5089
aS'1167'
p5090
aasS'3BBW'
p5091
(lp5092
(lp5093
I979
aS'694'
p5094
aS'948'
p5095
aasS'3CP9'
p5096
(lp5097
(lp5098
I979
aS'834'
p5099
aS'1160'
p5100
aasS'3CBL'
p5101
(lp5102
(lp5103
I979
aS'561'
p5104
aS'814'
p5105
aa(lp5106
I1107
aS'460'
p5107
aS'529'
p5108
aasS'4L68'
p5109
(lp5110
(lp5111
I979
aS'330'
p5112
aS'571'
p5113
aasS'4I0T'
p5114
(lp5115
(lp5116
I979
aS'374'
p5117
aS'623'
p5118
aasS'3DZQ'
p5119
(lp5120
(lp5121
I979
aS'622'
p5122
aS'878'
p5123
aasS'4X3J'
p5124
(lp5125
(lp5126
I979
aS'838'
p5127
aS'1091'
p5128
aasS'3AC8'
p5129
(lp5130
(lp5131
I979
aS'245'
p5132
aS'493'
p5133
aasS'4CLI'
p5134
(lp5135
(lp5136
I979
aS'1117'
p5137
aS'1382'
p5138
aasS'4ZSA'
p5139
(lp5140
(lp5141
I979
aS'479'
p5142
aS'754'
p5143
aasS'4D0W'
p5144
(lp5145
(lp5146
I979
aS'849'
p5147
aS'1120'
p5148
aasS'4GT5'
p5149
(lp5150
(lp5151
I979
aS'512'
p5152
aS'781'
p5153
aasS'4G9C'
p5154
(lp5155
(lp5156
I979
aS'458'
p5157
aS'712'
p5158
aasS'1U46'
p5159
(lp5160
(lp5161
I979
aS'127'
p5162
aS'385'
p5163
aasS'4UYA'
p5164
(lp5165
(lp5166
I979
aS'145'
p5167
aS'445'
p5168
aasS'2FO0'
p5169
(lp5170
(lp5171
I729
aS'86'
p5172
aS'132'
p5173
aa(lp5174
I979
aS'261'
p5175
aS'511'
p5176
aa(lp5177
I1107
aS'146'
p5178
aS'221'
p5179
aasS'4AOI'
p5180
(lp5181
(lp5182
I979
aS'1079'
p5183
aS'1336'
p5184
aasS'3L9P'
p5185
(lp5186
(lp5187
I979
aS'1117'
p5188
aS'1382'
p5189
aasS'4C3F'
p5190
(lp5191
(lp5192
I979
aS'245'
p5193
aS'493'
p5194
aasS'4RT7'
p5195
(lp5196
(lp5197
I979
aS'610'
p5198
aS'943'
p5199
aasS'4GU9'
p5200
(lp5201
(lp5202
I979
aS'422'
p5203
aS'676'
p5204
aasS'4I6Q'
p5205
(lp5206
(lp5207
I979
aS'823'
p5208
aS'1094'
p5209
aasS'4RWJ'
p5210
(lp5211
(lp5212
I979
aS'479'
p5213
aS'754'
p5214
aasS'3VHE'
p5215
(lp5216
(lp5217
I979
aS'834'
p5218
aS'1160'
p5219
aasS'4FOD'
p5220
(lp5221
(lp5222
I979
aS'1117'
p5223
aS'1382'
p5224
aasS'4DBN'
p5225
(lp5226
(lp5227
I979
aS'457'
p5228
aS'711'
p5229
aasS'2O8Y'
p5230
(lp5231
(lp5232
I979
aS'190'
p5233
aS'454'
p5234
aasS'1LUF'
p5235
(lp5236
(lp5237
I979
aS'575'
p5238
aS'855'
p5239
aasS'3CPB'
p5240
(lp5241
(lp5242
I979
aS'834'
p5243
aS'1160'
p5244
aasS'3CPC'
p5245
(lp5246
(lp5247
I979
aS'834'
p5248
aS'1160'
p5249
aasS'3ZMM'
p5250
(lp5251
(lp5252
I979
aS'849'
p5253
aS'1120'
p5254
aasS'4GJ2'
p5255
(lp5256
(lp5257
I979
aS'898'
p5258
aS'1167'
p5259
aasS'4JRV'
p5260
(lp5261
(lp5262
I979
aS'690'
p5263
aS'941'
p5264
aasS'3GQL'
p5265
(lp5266
(lp5267
I979
aS'479'
p5268
aS'754'
p5269
aasS'3GQI'
p5270
(lp5271
(lp5272
I979
aS'479'
p5273
aS'754'
p5274
aa(lp5275
I1107
aS'550'
p5276
aS'639'
p5277
aa(lp5278
I1107
aS'668'
p5279
aS'741'
p5280
aasS'4M69'
p5281
(lp5282
(lp5283
I252
aS'23'
p5284
aS'284'
p5285
aa(lp5286
I979
aS'202'
p5287
aS'453'
p5288
aasS'4MKC'
p5289
(lp5290
(lp5291
I979
aS'1117'
p5292
aS'1382'
p5293
aasS'3GEQ'
p5294
(lp5295
(lp5296
I979
aS'268'
p5297
aS'515'
p5298
aasS'1M17'
p5299
(lp5300
(lp5301
I979
aS'690'
p5302
aS'941'
p5303
aasS'1IR3'
p5304
(lp5305
(lp5306
I979
aS'997'
p5307
aS'1263'
p5308
aasS'4FEQ'
p5309
(lp5310
(lp5311
I979
aS'509'
p5312
aS'775'
p5313
aasS'2C0T'
p5314
(lp5315
(lp5316
I729
aS'63'
p5317
aS'109'
p5318
aa(lp5319
I979
aS'241'
p5320
aS'489'
p5321
aa(lp5322
I1107
aS'123'
p5323
aS'205'
p5324
aasS'4CD0'
p5325
(lp5326
(lp5327
I979
aS'1117'
p5328
aS'1382'
p5329
aasS'1UWJ'
p5330
(lp5331
(lp5332
I979
aS'457'
p5333
aS'711'
p5334
aasS'4PY1'
p5335
(lp5336
(lp5337
I979
aS'898'
p5338
aS'1167'
p5339
aasS'1UWH'
p5340
(lp5341
(lp5342
I979
aS'457'
p5343
aS'711'
p5344
aasS'4JR3'
p5345
(lp5346
(lp5347
I979
aS'690'
p5348
aS'941'
p5349
aasS'2EVA'
p5350
(lp5351
(lp5352
I979
aS'37'
p5353
aS'283'
p5354
aasS'3QQU'
p5355
(lp5356
(lp5357
I979
aS'996'
p5358
aS'1262'
p5359
aasS'3C4C'
p5360
(lp5361
(lp5362
I979
aS'458'
p5363
aS'713'
p5364
aasS'3EKK'
p5365
(lp5366
(lp5367
I979
aS'997'
p5368
aS'1263'
p5369
aasS'2VWU'
p5370
(lp5371
(lp5372
I979
aS'616'
p5373
aS'874'
p5374
aasS'2PVF'
p5375
(lp5376
(lp5377
I979
aS'481'
p5378
aS'757'
p5379
aasS'2VWW'
p5380
(lp5381
(lp5382
I979
aS'616'
p5383
aS'874'
p5384
aasS'2VWV'
p5385
(lp5386
(lp5387
I979
aS'616'
p5388
aS'874'
p5389
aasS'2VWY'
p5390
(lp5391
(lp5392
I979
aS'616'
p5393
aS'874'
p5394
aasS'2VWX'
p5395
(lp5396
(lp5397
I979
aS'616'
p5398
aS'874'
p5399
aasS'3MY0'
p5400
(lp5401
(lp5402
I979
aS'204'
p5403
aS'488'
p5404
aasS'3BCE'
p5405
(lp5406
(lp5407
I979
aS'694'
p5408
aS'948'
p5409
aasS'3KXX'
p5410
(lp5411
(lp5412
I979
aS'479'
p5413
aS'754'
p5414
aasS'2PVY'
p5415
(lp5416
(lp5417
I979
aS'481'
p5418
aS'757'
p5419
aasS'4M67'
p5420
(lp5421
(lp5422
I979
aS'219'
p5423
aS'466'
p5424
aasS'4WKQ'
p5425
(lp5426
(lp5427
I979
aS'714'
p5428
aS'965'
p5429
aasS'4C8B'
p5430
(lp5431
(lp5432
I979
aS'22'
p5433
aS'287'
p5434
aasS'2PL0'
p5435
(lp5436
(lp5437
I979
aS'245'
p5438
aS'493'
p5439
aasS'3IOK'
p5440
(lp5441
(lp5442
I979
aS'849'
p5443
aS'1120'
p5444
aasS'3F66'
p5445
(lp5446
(lp5447
I979
aS'1079'
p5448
aS'1336'
p5449
aasS'3W2Q'
p5450
(lp5451
(lp5452
I979
aS'714'
p5453
aS'965'
p5454
aasS'4YZN'
p5455
(lp5456
(lp5457
I979
aS'1027'
p5458
aS'1289'
p5459
aasS'4YZM'
p5460
(lp5461
(lp5462
I979
aS'1027'
p5463
aS'1289'
p5464
aasS'5AR5'
p5465
(lp5466
(lp5467
I979
aS'22'
p5468
aS'287'
p5469
aasS'2RFN'
p5470
(lp5471
(lp5472
I979
aS'1079'
p5473
aS'1336'
p5474
aasS'3EL7'
p5475
(lp5476
(lp5477
I979
aS'268'
p5478
aS'515'
p5479
aasS'2YN8'
p5480
(lp5481
(lp5482
I979
aS'616'
p5483
aS'874'
p5484
aas.