(dp1
S'1QKB'
p2
(lp3
(lp4
I7021
aS'56'
p5
aS'437'
p6
aasS'2M32'
p7
(lp8
(lp9
I2829
aS'5'
aS'185'
p10
aasS'2YP6'
p11
(lp12
(lp13
I1099
aS'45'
p14
aS'165'
p15
aasS'1PT6'
p16
(lp17
(lp18
I2829
aS'144'
p19
aS'324'
p20
aasS'3IA1'
p21
(lp22
(lp23
I1099
aS'22'
p24
aS'137'
p25
aasS'1B5H'
p26
(lp27
(lp28
I7021
aS'56'
p29
aS'437'
p30
aasS'4A41'
p31
(lp32
(lp33
I826
aS'1364'
p34
aS'1489'
p35
aasS'3HNY'
p36
(lp37
(lp38
I826
aS'2189'
p39
aS'2323'
p40
aasS'1JGK'
p41
(lp42
(lp43
I6648
aS'5'
aS'66'
p44
aasS'3HNB'
p45
(lp46
(lp47
I826
aS'2189'
p48
aS'2323'
p49
aasS'2BZD'
p50
(lp51
(lp52
I826
aS'520'
p53
aS'641'
p54
aa(lp55
I2068
aS'98'
p56
aS'381'
p57
aa(lp58
I6982
aS'416'
p59
aS'487'
p60
aasS'3EYP'
p61
(lp62
(lp63
I826
aS'355'
p64
aS'463'
p65
aa(lp66
I5825
aS'34'
p67
aS'329'
p68
aasS'4TUU'
p69
(lp70
(lp71
I4831
aS'174'
p72
aS'291'
p73
aa(lp74
I5073
aS'798'
p75
aS'1014'
p76
aa(lp77
I5747
aS'352'
p78
aS'483'
p79
aa(lp80
I6704
aS'521'
p81
aS'703'
p82
aasS'4DK5'
p83
(lp84
(lp85
I4831
aS'204'
p86
aS'310'
p87
aa(lp88
I5073
aS'828'
p89
aS'1043'
p90
aa(lp91
I5747
aS'380'
p92
aS'488'
p93
aa(lp94
I6704
aS'547'
p95
aS'732'
p96
aasS'4GF8'
p97
(lp98
(lp99
I7021
aS'48'
p100
aS'418'
p101
aasS'3P8W'
p102
(lp103
(lp104
I1924
aS'24'
p105
aS'86'
p106
aa(lp107
I6764
aS'124'
p108
aS'210'
p109
aasS'1D7P'
p110
(lp111
(lp112
I826
aS'2189'
p113
aS'2323'
p114
aasS'2B2X'
p115
(lp116
(lp117
I1690
aS'139'
p118
aS'210'
p119
aa(lp120
I1690
aS'124'
p121
aS'209'
p122
aa(lp123
I2388
aS'12'
p124
aS'116'
p125
aa(lp126
I2388
aS'6'
aS'105'
p127
aa(lp128
I2829
aS'148'
p129
aS'328'
p130
aasS'3ZIM'
p131
(lp132
(lp133
I4831
aS'174'
p134
aS'291'
p135
aa(lp136
I5073
aS'798'
p137
aS'1014'
p138
aa(lp139
I5747
aS'352'
p140
aS'483'
p141
aa(lp142
I6704
aS'521'
p143
aS'703'
p144
aasS'2C4R'
p145
(lp146
(lp147
I1116
aS'121'
p148
aS'391'
p149
aa(lp150
I2833
aS'36'
p151
aS'118'
p152
aasS'1E7V'
p153
(lp154
(lp155
I4831
aS'204'
p156
aS'310'
p157
aa(lp158
I5073
aS'828'
p159
aS'1043'
p160
aa(lp161
I5747
aS'380'
p162
aS'488'
p163
aa(lp164
I6704
aS'546'
p165
aS'732'
p166
aasS'1E7U'
p167
(lp168
(lp169
I4831
aS'204'
p170
aS'310'
p171
aa(lp172
I5073
aS'828'
p173
aS'1043'
p174
aa(lp175
I5747
aS'380'
p176
aS'491'
p177
aa(lp178
I6704
aS'544'
p179
aS'732'
p180
aasS'1B2H'
p181
(lp182
(lp183
I7021
aS'56'
p184
aS'437'
p185
aasS'2BHI'
p186
(lp187
(lp188
I6648
aS'3'
aS'60'
p189
aasS'2PER'
p190
(lp191
(lp192
I1924
aS'30'
p193
aS'97'
p194
aa(lp195
I6764
aS'137'
p196
aS'216'
p197
aasS'2ODP'
p198
(lp199
(lp200
I2829
aS'234'
p201
aS'430'
p202
aa(lp203
I2879
aS'453'
p204
aS'683'
p205
aasS'4MP4'
p206
(lp207
(lp208
I1924
aS'17'
p209
aS'86'
p210
aa(lp211
I6762
aS'93'
p212
aS'207'
p213
aasS'3ENE'
p214
(lp215
(lp216
I4831
aS'204'
p217
aS'310'
p218
aa(lp219
I5073
aS'828'
p220
aS'1043'
p221
aa(lp222
I5747
aS'380'
p223
aS'489'
p224
aa(lp225
I6704
aS'544'
p226
aS'732'
p227
aasS'4EVM'
p228
(lp229
(lp230
I1099
aS'52'
p231
aS'168'
p232
aasS'4XKR'
p233
(lp234
(lp235
I7021
aS'48'
p236
aS'393'
p237
aasS'2C35'
p238
(lp239
(lp240
I410
aS'11'
p241
aS'77'
p242
aa(lp243
I2833
aS'79'
p244
aS'158'
p245
aa(lp246
I5642
aS'32'
p247
aS'136'
p248
aasS'2R5G'
p249
(lp250
(lp251
I1924
aS'30'
p252
aS'97'
p253
aa(lp254
I6764
aS'137'
p255
aS'216'
p256
aasS'3CSF'
p257
(lp258
(lp259
I4831
aS'204'
p260
aS'310'
p261
aa(lp262
I5073
aS'828'
p263
aS'1043'
p264
aa(lp265
I5747
aS'380'
p266
aS'488'
p267
aa(lp268
I6704
aS'544'
p269
aS'732'
p270
aasS'1XDG'
p271
(lp272
(lp273
I2829
aS'131'
p274
aS'300'
p275
aasS'2CDX'
p276
(lp277
(lp278
I6648
aS'2'
aS'60'
p279
aasS'1XDD'
p280
(lp281
(lp282
I2829
aS'131'
p283
aS'300'
p284
aasS'3DBS'
p285
(lp286
(lp287
I4831
aS'204'
p288
aS'310'
p289
aa(lp290
I5073
aS'828'
p291
aS'1043'
p292
aa(lp293
I5747
aS'380'
p294
aS'489'
p295
aa(lp296
I6704
aS'544'
p297
aS'732'
p298
aasS'3K72'
p299
(lp300
(lp301
I2032
aS'10'
p302
aS'425'
p303
aa(lp304
I2829
aS'326'
p305
aS'127'
p306
aa(lp307
I3368
aS'596'
p308
aS'963'
p309
aa(lp310
I6798
aS'439'
p311
aS'475'
p312
aa(lp313
I6798
aS'502'
p314
aS'537'
p315
aa(lp316
I6809
aS'600'
p317
aS'673'
p318
aasS'3K71'
p319
(lp320
(lp321
I2032
aS'10'
p322
aS'425'
p323
aa(lp324
I2829
aS'329'
p325
aS'127'
p326
aa(lp327
I3368
aS'596'
p328
aS'963'
p329
aa(lp330
I6798
aS'439'
p331
aS'475'
p332
aa(lp333
I6798
aS'502'
p334
aS'537'
p335
aa(lp336
I6809
aS'600'
p337
aS'673'
p338
aasS'3E2M'
p339
(lp340
(lp341
I2829
aS'131'
p342
aS'300'
p343
aasS'1YZ6'
p344
(lp345
(lp346
I2833
aS'9'
aS'83'
p347
aa(lp348
I7551
aS'122'
p349
aS'233'
p350
aasS'3FY7'
p351
(lp352
(lp353
I1924
aS'21'
p354
aS'88'
p355
aa(lp356
I6764
aS'126'
p357
aS'207'
p358
aasS'2H1D'
p359
(lp360
(lp361
I1099
aS'40'
p362
aS'154'
p363
aasS'2H1G'
p364
(lp365
(lp366
I1099
aS'40'
p367
aS'154'
p368
aasS'2WXQ'
p369
(lp370
(lp371
I4831
aS'187'
p372
aS'280'
p373
aa(lp374
I5073
aS'774'
p375
aS'990'
p376
aa(lp377
I5747
aS'339'
p378
aS'445'
p379
aa(lp380
I6704
aS'511'
p381
aS'682'
p382
aasS'2WXP'
p383
(lp384
(lp385
I4831
aS'187'
p386
aS'280'
p387
aa(lp388
I5073
aS'774'
p389
aS'990'
p390
aa(lp391
I5747
aS'339'
p392
aS'445'
p393
aa(lp394
I6704
aS'511'
p395
aS'682'
p396
aasS'2WXR'
p397
(lp398
(lp399
I4831
aS'187'
p400
aS'280'
p401
aa(lp402
I5073
aS'774'
p403
aS'990'
p404
aa(lp405
I5747
aS'339'
p406
aS'445'
p407
aa(lp408
I6704
aS'511'
p409
aS'682'
p410
aasS'2WXG'
p411
(lp412
(lp413
I4831
aS'187'
p414
aS'280'
p415
aa(lp416
I5073
aS'774'
p417
aS'990'
p418
aa(lp419
I5747
aS'339'
p420
aS'445'
p421
aa(lp422
I6704
aS'505'
p423
aS'682'
p424
aasS'2WXF'
p425
(lp426
(lp427
I4831
aS'187'
p428
aS'280'
p429
aa(lp430
I5073
aS'774'
p431
aS'990'
p432
aa(lp433
I5747
aS'339'
p434
aS'445'
p435
aa(lp436
I6704
aS'511'
p437
aS'682'
p438
aasS'3BZK'
p439
(lp440
(lp441
I2600
aS'495'
p442
aS'559'
p443
aa(lp444
I2833
aS'653'
p445
aS'724'
p446
aa(lp447
I4228
aS'330'
p448
aS'455'
p449
aa(lp450
I5745
aS'20'
p451
aS'203'
p452
aasS'2WXM'
p453
(lp454
(lp455
I4831
aS'187'
p456
aS'280'
p457
aa(lp458
I5073
aS'774'
p459
aS'990'
p460
aa(lp461
I5747
aS'339'
p462
aS'445'
p463
aa(lp464
I6704
aS'511'
p465
aS'682'
p466
aasS'2WXL'
p467
(lp468
(lp469
I4831
aS'187'
p470
aS'280'
p471
aa(lp472
I5073
aS'774'
p473
aS'990'
p474
aa(lp475
I5747
aS'339'
p476
aS'445'
p477
aa(lp478
I6704
aS'510'
p479
aS'682'
p480
aasS'2WXO'
p481
(lp482
(lp483
I4831
aS'187'
p484
aS'280'
p485
aa(lp486
I5073
aS'774'
p487
aS'990'
p488
aa(lp489
I5747
aS'339'
p490
aS'445'
p491
aa(lp492
I6704
aS'511'
p493
aS'682'
p494
aasS'2WXN'
p495
(lp496
(lp497
I4831
aS'187'
p498
aS'280'
p499
aa(lp500
I5073
aS'774'
p501
aS'990'
p502
aa(lp503
I5747
aS'339'
p504
aS'445'
p505
aa(lp506
I6704
aS'511'
p507
aS'682'
p508
aasS'2WXI'
p509
(lp510
(lp511
I4831
aS'187'
p512
aS'280'
p513
aa(lp514
I5073
aS'774'
p515
aS'990'
p516
aa(lp517
I5747
aS'339'
p518
aS'445'
p519
aa(lp520
I6704
aS'522'
p521
aS'682'
p522
aasS'2WXH'
p523
(lp524
(lp525
I4831
aS'187'
p526
aS'280'
p527
aa(lp528
I5073
aS'774'
p529
aS'990'
p530
aa(lp531
I5747
aS'339'
p532
aS'445'
p533
aa(lp534
I6704
aS'511'
p535
aS'682'
p536
aasS'2WXK'
p537
(lp538
(lp539
I4831
aS'187'
p540
aS'280'
p541
aa(lp542
I5073
aS'774'
p543
aS'990'
p544
aa(lp545
I5747
aS'339'
p546
aS'445'
p547
aa(lp548
I6704
aS'505'
p549
aS'682'
p550
aasS'4FA6'
p551
(lp552
(lp553
I4831
aS'204'
p554
aS'310'
p555
aa(lp556
I5073
aS'828'
p557
aS'1043'
p558
aa(lp559
I5747
aS'380'
p560
aS'489'
p561
aa(lp562
I6704
aS'544'
p563
aS'732'
p564
aasS'2VMC'
p565
(lp566
(lp567
I826
aS'39'
p568
aS'151'
p569
aa(lp570
I3025
aS'187'
p571
aS'253'
p572
aasS'2J1A'
p573
(lp574
(lp575
I826
aS'630'
p576
aS'763'
p577
aasS'1FFJ'
p578
(lp579
(lp580
I6648
aS'4'
aS'60'
p581
aasS'2VME'
p582
(lp583
(lp584
I826
aS'39'
p585
aS'151'
p586
aa(lp587
I3025
aS'187'
p588
aS'253'
p589
aasS'2VMD'
p590
(lp591
(lp592
I826
aS'39'
p593
aS'151'
p594
aa(lp595
I3025
aS'187'
p596
aS'253'
p597
aasS'2VMK'
p598
(lp599
(lp600
I1116
aS'121'
p601
aS'391'
p602
aa(lp603
I2833
aS'36'
p604
aS'118'
p605
aasS'4QFN'
p606
(lp607
(lp608
I7021
aS'74'
p609
aS'452'
p610
aasS'4QFL'
p611
(lp612
(lp613
I7021
aS'74'
p614
aS'452'
p615
aasS'2RD0'
p616
(lp617
(lp618
I3031
aS'32'
p619
aS'107'
p620
aa(lp621
I4028
aS'442'
p622
aS'598'
p623
aa(lp624
I4831
aS'174'
p625
aS'291'
p626
aa(lp627
I5073
aS'798'
p628
aS'1014'
p629
aa(lp630
I5747
aS'352'
p631
aS'483'
p632
aa(lp633
I6704
aS'528'
p634
aS'703'
p635
aasS'2L9L'
p636
(lp637
(lp638
I826
aS'17'
p639
aS'153'
p640
aasS'1ZTY'
p641
(lp642
(lp643
I7021
aS'48'
p644
aS'418'
p645
aasS'1N3Y'
p646
(lp647
(lp648
I2829
aS'132'
p649
aS'309'
p650
aasS'1NEA'
p651
(lp652
(lp653
I6648
aS'2'
aS'60'
p654
aasS'1XVW'
p655
(lp656
(lp657
I1099
aS'4'
aS'129'
p658
aasS'4QFP'
p659
(lp660
(lp661
I7021
aS'74'
p662
aS'452'
p663
aasS'1ST9'
p664
(lp665
(lp666
I1099
aS'38'
p667
aS'153'
p668
aasS'4MO3'
p669
(lp670
(lp671
I826
aS'2189'
p672
aS'2323'
p673
aasS'1F8U'
p674
(lp675
(lp676
I6648
aS'2'
aS'60'
p677
aa(lp678
I6910
aS'7'
aS'532'
p679
aasS'4JPS'
p680
(lp681
(lp682
I1107
aS'333'
p683
aS'398'
p684
aa(lp685
I3031
aS'32'
p686
aS'107'
p687
aa(lp688
I4028
aS'434'
p689
aS'592'
p690
aa(lp691
I4831
aS'174'
p692
aS'291'
p693
aa(lp694
I5073
aS'798'
p695
aS'1014'
p696
aa(lp697
I5747
aS'352'
p698
aS'483'
p699
aa(lp700
I6704
aS'525'
p701
aS'703'
p702
aasS'4GSN'
p703
(lp704
(lp705
I1924
aS'6'
aS'80'
p706
aa(lp707
I2159
aS'126'
p708
aS'194'
p709
aasS'1HOY'
p710
(lp711
(lp712
I6648
aS'2'
aS'66'
p713
aasS'2MFL'
p714
(lp715
(lp716
I2833
aS'105'
p717
aS'171'
p718
aasS'2CRS'
p719
(lp720
(lp721
I6648
aS'3'
aS'60'
p722
aasS'4J6I'
p723
(lp724
(lp725
I4831
aS'204'
p726
aS'310'
p727
aa(lp728
I5073
aS'828'
p729
aS'1043'
p730
aa(lp731
I5747
aS'380'
p732
aS'489'
p733
aa(lp734
I6704
aS'546'
p735
aS'732'
p736
aasS'3R7R'
p737
(lp738
(lp739
I4831
aS'204'
p740
aS'310'
p741
aa(lp742
I5073
aS'828'
p743
aS'1043'
p744
aa(lp745
I5747
aS'380'
p746
aS'489'
p747
aa(lp748
I6704
aS'546'
p749
aS'732'
p750
aasS'3R7Q'
p751
(lp752
(lp753
I4831
aS'204'
p754
aS'310'
p755
aa(lp756
I5073
aS'828'
p757
aS'1043'
p758
aa(lp759
I5747
aS'380'
p760
aS'489'
p761
aa(lp762
I6704
aS'544'
p763
aS'732'
p764
aasS'2VM9'
p765
(lp766
(lp767
I826
aS'39'
p768
aS'151'
p769
aa(lp770
I3025
aS'187'
p771
aS'253'
p772
aasS'1FF4'
p773
(lp774
(lp775
I6648
aS'1'
aS'64'
p776
aasS'1IQD'
p777
(lp778
(lp779
I826
aS'2189'
p780
aS'2323'
p781
aa(lp782
I1690
aS'121'
p783
aS'206'
p784
aa(lp785
I1690
aS'136'
p786
aS'207'
p787
aa(lp788
I2388
aS'6'
aS'107'
p789
aa(lp790
I2388
aS'9'
aS'112'
p791
aasS'3GGL'
p792
(lp793
(lp794
I826
aS'309'
p795
aS'431'
p796
aasS'4LLR'
p797
(lp798
(lp799
I1099
aS'9'
aS'141'
p800
aa(lp801
I4104
aS'162'
p802
aS'195'
p803
aasS'1RD4'
p804
(lp805
(lp806
I2829
aS'131'
p807
aS'300'
p808
aasS'4IHK'
p809
(lp810
(lp811
I2829
aS'1026'
p812
aS'1196'
p813
aasS'1CB9'
p814
(lp815
(lp816
I6648
aS'4'
aS'60'
p817
aasS'3ML8'
p818
(lp819
(lp820
I4831
aS'204'
p821
aS'310'
p822
aa(lp823
I5073
aS'828'
p824
aS'1043'
p825
aa(lp826
I5747
aS'380'
p827
aS'489'
p828
aa(lp829
I6704
aS'544'
p830
aS'732'
p831
aasS'3ML9'
p832
(lp833
(lp834
I4831
aS'204'
p835
aS'310'
p836
aa(lp837
I5073
aS'828'
p838
aS'1043'
p839
aa(lp840
I5747
aS'380'
p841
aS'489'
p842
aa(lp843
I6704
aS'544'
p844
aS'732'
p845
aasS'3L54'
p846
(lp847
(lp848
I4831
aS'204'
p849
aS'310'
p850
aa(lp851
I5073
aS'828'
p852
aS'1043'
p853
aa(lp854
I5747
aS'380'
p855
aS'487'
p856
aa(lp857
I6704
aS'545'
p858
aS'732'
p859
aasS'1WCQ'
p860
(lp861
(lp862
I826
aS'520'
p863
aS'641'
p864
aa(lp865
I2068
aS'98'
p866
aS'380'
p867
aa(lp868
I6982
aS'416'
p869
aS'487'
p870
aasS'2H19'
p871
(lp872
(lp873
I1099
aS'40'
p874
aS'154'
p875
aasS'1Y14'
p876
(lp877
(lp878
I410
aS'9'
aS'79'
p879
aa(lp880
I2833
aS'80'
p881
aS'157'
p882
aa(lp883
I5642
aS'49'
p884
aS'217'
p885
aasS'1UIU'
p886
(lp887
(lp888
I7021
aS'46'
p889
aS'411'
p890
aasS'3TJB'
p891
(lp892
(lp893
I1099
aS'82'
p894
aS'213'
p895
aa(lp896
I4104
aS'234'
p897
aS'245'
p898
aasS'1UIV'
p899
(lp900
(lp901
I7021
aS'46'
p902
aS'411'
p903
aasS'2M72'
p904
(lp905
(lp906
I1099
aS'8'
aS'126'
p907
aasS'3TJF'
p908
(lp909
(lp910
I1099
aS'82'
p911
aS'213'
p912
aa(lp913
I4104
aS'234'
p914
aS'262'
p915
aasS'4YKN'
p916
(lp917
(lp918
I1107
aS'333'
p919
aS'408'
p920
aa(lp921
I3031
aS'1032'
p922
aS'1107'
p923
aa(lp924
I4028
aS'452'
p925
aS'580'
p926
aa(lp927
I4831
aS'1174'
p928
aS'1291'
p929
aa(lp930
I5073
aS'1798'
p931
aS'2014'
p932
aa(lp933
I5747
aS'1352'
p934
aS'1483'
p935
aa(lp936
I6704
aS'1523'
p937
aS'1703'
p938
aasS'4V0I'
p939
(lp940
(lp941
I4831
aS'189'
p942
aS'285'
p943
aa(lp944
I5073
aS'917'
p945
aS'1084'
p946
aa(lp947
I5747
aS'344'
p948
aS'454'
p949
aa(lp950
I6704
aS'508'
p951
aS'825'
p952
aasS'3TJK'
p953
(lp954
(lp955
I1099
aS'82'
p956
aS'213'
p957
aa(lp958
I4104
aS'234'
p959
aS'262'
p960
aasS'3TJJ'
p961
(lp962
(lp963
I1099
aS'82'
p964
aS'213'
p965
aa(lp966
I4104
aS'234'
p967
aS'242'
p968
aasS'1FRA'
p969
(lp970
(lp971
I6648
aS'1'
aS'61'
p972
aasS'2BMX'
p973
(lp974
(lp975
I1099
aS'6'
aS'146'
p976
aasS'2WN3'
p977
(lp978
(lp979
I826
aS'34'
p980
aS'149'
p981
aa(lp982
I3025
aS'184'
p983
aS'250'
p984
aasS'2WN2'
p985
(lp986
(lp987
I826
aS'34'
p988
aS'149'
p989
aa(lp990
I3025
aS'184'
p991
aS'250'
p992
aasS'3TJP'
p993
(lp994
(lp995
I4831
aS'204'
p996
aS'310'
p997
aa(lp998
I5073
aS'828'
p999
aS'1043'
p1000
aa(lp1001
I5747
aS'380'
p1002
aS'490'
p1003
aa(lp1004
I6704
aS'545'
p1005
aS'732'
p1006
aasS'3NEQ'
p1007
(lp1008
(lp1009
I6648
aS'1'
aS'65'
p1010
aasS'1GOF'
p1011
(lp1012
(lp1013
I635
aS'543'
p1014
aS'637'
p1015
aa(lp1016
I826
aS'16'
p1017
aS'143'
p1018
aa(lp1019
I3558
aS'273'
p1020
aS'314'
p1021
aasS'2ICA'
p1022
(lp1023
(lp1024
I2829
aS'131'
p1025
aS'300'
p1026
aasS'3V11'
p1027
(lp1028
(lp1029
I2828
aS'328'
p1030
aS'412'
p1031
aa(lp1032
I2833
aS'9'
aS'83'
p1033
aa(lp1034
I4654
aS'235'
p1035
aS'303'
p1036
aa(lp1037
I6226
aS'10'
p1038
aS'203'
p1039
aa(lp1040
I7551
aS'122'
p1041
aS'232'
p1042
aasS'4LPL'
p1043
(lp1044
(lp1045
I826
aS'972'
p1046
aS'1087'
p1047
aasS'4DO8'
p1048
(lp1049
(lp1050
I6648
aS'1'
aS'65'
p1051
aasS'4A4A'
p1052
(lp1053
(lp1054
I826
aS'36'
p1055
aS'149'
p1056
aa(lp1057
I2546
aS'627'
p1058
aS'880'
p1059
aa(lp1060
I2548
aS'198'
p1061
aS'280'
p1062
aa(lp1063
I5399
aS'295'
p1064
aS'619'
p1065
aasS'1B3L'
p1066
(lp1067
(lp1068
I7021
aS'56'
p1069
aS'437'
p1070
aasS'2Z4F'
p1071
(lp1072
(lp1073
I826
aS'46'
p1074
aS'182'
p1075
aasS'3PPV'
p1076
(lp1077
(lp1078
I2829
aS'1498'
p1079
aS'1646'
p1080
aasS'4OXP'
p1081
(lp1082
(lp1083
I1116
aS'178'
p1084
aS'270'
p1085
aa(lp1086
I2833
aS'40'
p1087
aS'175'
p1088
aasS'2JL4'
p1089
(lp1090
(lp1091
I1924
aS'3'
aS'79'
p1092
aasS'3PPY'
p1093
(lp1094
(lp1095
I2829
aS'1498'
p1096
aS'1646'
p1097
aasS'3PPX'
p1098
(lp1099
(lp1100
I2829
aS'1498'
p1101
aS'1646'
p1102
aasS'4MTN'
p1103
(lp1104
(lp1105
I1145
aS'5'
aS'56'
p1106
aa(lp1107
I1145
aS'73'
p1108
aS'97'
p1109
aa(lp1110
I2833
aS'108'
p1111
aS'163'
p1112
aa(lp1113
I6347
aS'202'
p1114
aS'269'
p1115
aasS'4BFR'
p1116
(lp1117
(lp1118
I4831
aS'176'
p1119
aS'281'
p1120
aa(lp1121
I5073
aS'794'
p1122
aS'1010'
p1123
aa(lp1124
I5747
aS'346'
p1125
aS'458'
p1126
aa(lp1127
I6704
aS'526'
p1128
aS'702'
p1129
aasS'1LXH'
p1130
(lp1131
(lp1132
I6648
aS'2'
aS'63'
p1133
aasS'3ZML'
p1134
(lp1135
(lp1136
I1924
aS'6'
aS'80'
p1137
aa(lp1138
I2159
aS'121'
p1139
aS'194'
p1140
aasS'3PR8'
p1141
(lp1142
(lp1143
I1924
aS'5'
aS'76'
p1144
aa(lp1145
I2159
aS'130'
p1146
aS'192'
p1147
aasS'1LXG'
p1148
(lp1149
(lp1150
I6648
aS'2'
aS'63'
p1151
aasS'1IDH'
p1152
(lp1153
(lp1154
I6648
aS'2'
aS'66'
p1155
aasS'4JSD'
p1156
(lp1157
(lp1158
I7021
aS'50'
p1159
aS'442'
p1160
aasS'1IDN'
p1161
(lp1162
(lp1163
I2829
aS'134'
p1164
aS'311'
p1165
aasS'1IDO'
p1166
(lp1167
(lp1168
I2829
aS'134'
p1169
aS'311'
p1170
aasS'1IDL'
p1171
(lp1172
(lp1173
I6648
aS'2'
aS'66'
p1174
aasS'3TL5'
p1175
(lp1176
(lp1177
I4831
aS'204'
p1178
aS'310'
p1179
aa(lp1180
I5073
aS'828'
p1181
aS'1043'
p1182
aa(lp1183
I5747
aS'380'
p1184
aS'489'
p1185
aa(lp1186
I6704
aS'544'
p1187
aS'732'
p1188
aasS'4OVU'
p1189
(lp1190
(lp1191
I1107
aS'333'
p1192
aS'408'
p1193
aa(lp1194
I3031
aS'32'
p1195
aS'107'
p1196
aa(lp1197
I4028
aS'431'
p1198
aS'598'
p1199
aa(lp1200
I4831
aS'174'
p1201
aS'291'
p1202
aa(lp1203
I5073
aS'798'
p1204
aS'1014'
p1205
aa(lp1206
I5747
aS'352'
p1207
aS'483'
p1208
aa(lp1209
I6704
aS'521'
p1210
aS'703'
p1211
aasS'1IDG'
p1212
(lp1213
(lp1214
I6648
aS'2'
aS'66'
p1215
aasS'4OVV'
p1216
(lp1217
(lp1218
I1107
aS'333'
p1219
aS'408'
p1220
aa(lp1221
I3031
aS'32'
p1222
aS'107'
p1223
aa(lp1224
I4028
aS'431'
p1225
aS'598'
p1226
aa(lp1227
I4831
aS'174'
p1228
aS'291'
p1229
aa(lp1230
I5073
aS'798'
p1231
aS'1014'
p1232
aa(lp1233
I5747
aS'352'
p1234
aS'483'
p1235
aa(lp1236
I6704
aS'521'
p1237
aS'703'
p1238
aasS'2J7M'
p1239
(lp1240
(lp1241
I826
aS'630'
p1242
aS'763'
p1243
aasS'2K52'
p1244
(lp1245
(lp1246
I2833
aS'3'
aS'69'
p1247
aasS'4WAF'
p1248
(lp1249
(lp1250
I1107
aS'333'
p1251
aS'408'
p1252
aa(lp1253
I3031
aS'32'
p1254
aS'107'
p1255
aa(lp1256
I4028
aS'432'
p1257
aS'591'
p1258
aa(lp1259
I4831
aS'174'
p1260
aS'291'
p1261
aa(lp1262
I5073
aS'798'
p1263
aS'1014'
p1264
aa(lp1265
I5747
aS'352'
p1266
aS'483'
p1267
aa(lp1268
I6704
aS'524'
p1269
aS'703'
p1270
aasS'3A5W'
p1271
(lp1272
(lp1273
I1099
aS'8'
aS'139'
p1274
aa(lp1275
I4104
aS'160'
p1276
aS'203'
p1277
aasS'1QKE'
p1278
(lp1279
(lp1280
I6648
aS'1'
aS'61'
p1281
aasS'3LJ3'
p1282
(lp1283
(lp1284
I4831
aS'204'
p1285
aS'310'
p1286
aa(lp1287
I5073
aS'828'
p1288
aS'1043'
p1289
aa(lp1290
I5747
aS'380'
p1291
aS'488'
p1292
aa(lp1293
I6704
aS'545'
p1294
aS'732'
p1295
aasS'4LKS'
p1296
(lp1297
(lp1298
I826
aS'24'
p1299
aS'157'
p1300
aasS'1CTX'
p1301
(lp1302
(lp1303
I6648
aS'2'
aS'63'
p1304
aasS'4O5R'
p1305
(lp1306
(lp1307
I1099
aS'10'
p1308
aS'133'
p1309
aa(lp1310
I4104
aS'154'
p1311
aS'167'
p1312
aasS'4HQP'
p1313
(lp1314
(lp1315
I4273
aS'4'
aS'203'
p1316
aa(lp1317
I6648
aS'2'
aS'66'
p1318
aasS'1SMX'
p1319
(lp1320
(lp1321
I2833
aS'39'
p1322
aS'118'
p1323
aasS'1KXI'
p1324
(lp1325
(lp1326
I6648
aS'1'
aS'62'
p1327
aasS'1N8J'
p1328
(lp1329
(lp1330
I1099
aS'9'
aS'132'
p1331
aa(lp1332
I4104
aS'153'
p1333
aS'181'
p1334
aasS'4KW6'
p1335
(lp1336
(lp1337
I1099
aS'6'
aS'138'
p1338
aasS'4ID0'
p1339
(lp1340
(lp1341
I1924
aS'3'
aS'82'
p1342
aa(lp1343
I6764
aS'125'
p1344
aS'188'
p1345
aasS'4HQK'
p1346
(lp1347
(lp1348
I2829
aS'48'
p1349
aS'226'
p1350
aasS'4HQO'
p1351
(lp1352
(lp1353
I2829
aS'44'
p1354
aS'219'
p1355
aa(lp1356
I7314
aS'241'
p1357
aS'267'
p1358
aasS'1ZAD'
p1359
(lp1360
(lp1361
I6648
aS'3'
aS'60'
p1362
aasS'4HQL'
p1363
(lp1364
(lp1365
I2829
aS'44'
p1366
aS'219'
p1367
aa(lp1368
I7314
aS'241'
p1369
aS'267'
p1370
aasS'2EID'
p1371
(lp1372
(lp1373
I635
aS'543'
p1374
aS'637'
p1375
aa(lp1376
I826
aS'16'
p1377
aS'143'
p1378
aa(lp1379
I3558
aS'273'
p1380
aS'314'
p1381
aasS'2EIE'
p1382
(lp1383
(lp1384
I635
aS'543'
p1385
aS'637'
p1386
aa(lp1387
I826
aS'16'
p1388
aS'143'
p1389
aa(lp1390
I3558
aS'273'
p1391
aS'314'
p1392
aasS'4NEN'
p1393
(lp1394
(lp1395
I2032
aS'10'
p1396
aS'425'
p1397
aa(lp1398
I2829
aS'132'
p1399
aS'309'
p1400
aa(lp1401
I3368
aS'596'
p1402
aS'963'
p1403
aa(lp1404
I6798
aS'439'
p1405
aS'475'
p1406
aa(lp1407
I6798
aS'502'
p1408
aS'537'
p1409
aa(lp1410
I6809
aS'600'
p1411
aS'676'
p1412
aasS'2V4L'
p1413
(lp1414
(lp1415
I4831
aS'204'
p1416
aS'310'
p1417
aa(lp1418
I5073
aS'828'
p1419
aS'1043'
p1420
aa(lp1421
I5747
aS'380'
p1422
aS'489'
p1423
aa(lp1424
I6704
aS'544'
p1425
aS'732'
p1426
aasS'4NEH'
p1427
(lp1428
(lp1429
I2032
aS'10'
p1430
aS'425'
p1431
aa(lp1432
I2829
aS'132'
p1433
aS'309'
p1434
aa(lp1435
I3368
aS'596'
p1436
aS'963'
p1437
aa(lp1438
I6798
aS'439'
p1439
aS'475'
p1440
aa(lp1441
I6798
aS'502'
p1442
aS'537'
p1443
aa(lp1444
I6809
aS'600'
p1445
aS'676'
p1446
aasS'2EIB'
p1447
(lp1448
(lp1449
I635
aS'543'
p1450
aS'637'
p1451
aa(lp1452
I826
aS'16'
p1453
aS'143'
p1454
aa(lp1455
I3558
aS'273'
p1456
aS'314'
p1457
aasS'2EIC'
p1458
(lp1459
(lp1460
I635
aS'543'
p1461
aS'637'
p1462
aa(lp1463
I826
aS'16'
p1464
aS'143'
p1465
aa(lp1466
I3558
aS'273'
p1467
aS'314'
p1468
aasS'4HQZ'
p1469
(lp1470
(lp1471
I1099
aS'45'
p1472
aS'165'
p1473
aasS'1LJZ'
p1474
(lp1475
(lp1476
I6648
aS'2'
aS'66'
p1477
aasS'3HI6'
p1478
(lp1479
(lp1480
I1690
aS'141'
p1481
aS'213'
p1482
aa(lp1483
I1690
aS'119'
p1484
aS'204'
p1485
aa(lp1486
I1690
aS'141'
p1487
aS'213'
p1488
aa(lp1489
I1690
aS'119'
p1490
aS'204'
p1491
aa(lp1492
I2388
aS'12'
p1493
aS'118'
p1494
aa(lp1495
I2388
aS'6'
aS'105'
p1496
aa(lp1497
I2388
aS'12'
p1498
aS'118'
p1499
aa(lp1500
I2388
aS'6'
aS'105'
p1501
aa(lp1502
I2829
aS'131'
p1503
aS'298'
p1504
aa(lp1505
I2829
aS'131'
p1506
aS'298'
p1507
aasS'1Q46'
p1508
(lp1509
(lp1510
I2833
aS'13'
p1511
aS'87'
p1512
aa(lp1513
I7551
aS'125'
p1514
aS'175'
p1515
aasS'3DP8'
p1516
(lp1517
(lp1518
I7021
aS'46'
p1519
aS'411'
p1520
aasS'2W1U'
p1521
(lp1522
(lp1523
I826
aS'817'
p1524
aS'940'
p1525
aasS'4DEQ'
p1526
(lp1527
(lp1528
I826
aS'17'
p1529
aS'148'
p1530
aa(lp1531
I5337
aS'165'
p1532
aS'214'
p1533
aasS'4ZE9'
p1534
(lp1535
(lp1536
I7021
aS'84'
p1537
aS'426'
p1538
aasS'4ZE8'
p1539
(lp1540
(lp1541
I7021
aS'84'
p1542
aS'426'
p1543
aasS'3VTS'
p1544
(lp1545
(lp1546
I6648
aS'2'
aS'61'
p1547
aasS'4M76'
p1548
(lp1549
(lp1550
I2829
aS'134'
p1551
aS'310'
p1552
aa(lp1553
I4736
aS'1000'
p1554
aS'1028'
p1555
aa(lp1556
I5512
aS'1051'
p1557
aS'1283'
p1558
aasS'4CNB'
p1559
(lp1560
(lp1561
I2829
aS'54'
p1562
aS'232'
p1563
aa(lp1564
I2829
aS'253'
p1565
aS'430'
p1566
aasS'4ZEC'
p1567
(lp1568
(lp1569
I7021
aS'84'
p1570
aS'426'
p1571
aasS'4ZEB'
p1572
(lp1573
(lp1574
I7021
aS'84'
p1575
aS'426'
p1576
aasS'4HZ2'
p1577
(lp1578
(lp1579
I1924
aS'4'
aS'74'
p1580
aa(lp1581
I2159
aS'123'
p1582
aS'192'
p1583
aasS'4CN8'
p1584
(lp1585
(lp1586
I2829
aS'54'
p1587
aS'232'
p1588
aa(lp1589
I2829
aS'253'
p1590
aS'430'
p1591
aasS'4ZEI'
p1592
(lp1593
(lp1594
I7021
aS'84'
p1595
aS'426'
p1596
aasS'4ZEK'
p1597
(lp1598
(lp1599
I7021
aS'84'
p1600
aS'426'
p1601
aasS'4OZO'
p1602
(lp1603
(lp1604
I826
aS'355'
p1605
aS'463'
p1606
aa(lp1607
I5825
aS'34'
p1608
aS'329'
p1609
aasS'3DPD'
p1610
(lp1611
(lp1612
I4831
aS'204'
p1613
aS'310'
p1614
aa(lp1615
I5073
aS'828'
p1616
aS'1043'
p1617
aa(lp1618
I5747
aS'380'
p1619
aS'488'
p1620
aa(lp1621
I6704
aS'546'
p1622
aS'732'
p1623
aasS'3L16'
p1624
(lp1625
(lp1626
I4831
aS'204'
p1627
aS'310'
p1628
aa(lp1629
I5073
aS'828'
p1630
aS'1043'
p1631
aa(lp1632
I5747
aS'380'
p1633
aS'489'
p1634
aa(lp1635
I6704
aS'544'
p1636
aS'732'
p1637
aasS'3L17'
p1638
(lp1639
(lp1640
I4831
aS'204'
p1641
aS'310'
p1642
aa(lp1643
I5073
aS'828'
p1644
aS'1043'
p1645
aa(lp1646
I5747
aS'380'
p1647
aS'489'
p1648
aa(lp1649
I6704
aS'544'
p1650
aS'732'
p1651
aasS'2I81'
p1652
(lp1653
(lp1654
I1099
aS'5'
aS'138'
p1655
aa(lp1656
I4104
aS'159'
p1657
aS'193'
p1658
aasS'1JBD'
p1659
(lp1660
(lp1661
I6648
aS'2'
aS'66'
p1662
aasS'4GWJ'
p1663
(lp1664
(lp1665
I826
aS'54'
p1666
aS'172'
p1667
aasS'3L13'
p1668
(lp1669
(lp1670
I4831
aS'204'
p1671
aS'310'
p1672
aa(lp1673
I5073
aS'828'
p1674
aS'1043'
p1675
aa(lp1676
I5747
aS'380'
p1677
aS'489'
p1678
aa(lp1679
I6704
aS'544'
p1680
aS'732'
p1681
aasS'3ZTL'
p1682
(lp1683
(lp1684
I1099
aS'6'
aS'137'
p1685
aa(lp1686
I4104
aS'158'
p1687
aS'182'
p1688
aasS'3LXT'
p1689
(lp1690
(lp1691
I1924
aS'5'
aS'78'
p1692
aasS'4QQ7'
p1693
(lp1694
(lp1695
I1924
aS'4'
aS'77'
p1696
aa(lp1697
I2159
aS'117'
p1698
aS'188'
p1699
aasS'1L4W'
p1700
(lp1701
(lp1702
I6648
aS'2'
aS'66'
p1703
aasS'2V41'
p1704
(lp1705
(lp1706
I1099
aS'6'
aS'140'
p1707
aa(lp1708
I4104
aS'162'
p1709
aS'199'
p1710
aasS'3LXZ'
p1711
(lp1712
(lp1713
I1924
aS'4'
aS'75'
p1714
aa(lp1715
I2159
aS'129'
p1716
aS'191'
p1717
aasS'3R2Q'
p1718
(lp1719
(lp1720
I1924
aS'3'
aS'71'
p1721
aa(lp1722
I2159
aS'97'
p1723
aS'192'
p1724
aasS'2ENQ'
p1725
(lp1726
(lp1727
I5747
aS'29'
p1728
aS'150'
p1729
aasS'4GFR'
p1730
(lp1731
(lp1732
I7021
aS'48'
p1733
aS'418'
p1734
aasS'1MJN'
p1735
(lp1736
(lp1737
I2829
aS'131'
p1738
aS'298'
p1739
aasS'2IMI'
p1740
(lp1741
(lp1742
I1924
aS'6'
aS'80'
p1743
aa(lp1744
I2159
aS'126'
p1745
aS'194'
p1746
aasS'2CRT'
p1747
(lp1748
(lp1749
I6648
aS'3'
aS'60'
p1750
aasS'2IMK'
p1751
(lp1752
(lp1753
I1924
aS'6'
aS'80'
p1754
aa(lp1755
I2159
aS'126'
p1756
aS'194'
p1757
aasS'2BA0'
p1758
(lp1759
(lp1760
I1691
aS'158'
p1761
aS'225'
p1762
aa(lp1763
I1691
aS'182'
p1764
aS'245'
p1765
aa(lp1766
I2833
aS'55'
p1767
aS'126'
p1768
aa(lp1769
I4118
aS'25'
p1770
aS'154'
p1771
aa(lp1772
I4118
aS'31'
p1773
aS'166'
p1774
aa(lp1775
I6344
aS'140'
p1776
aS'193'
p1777
aasS'4OUE'
p1778
(lp1779
(lp1780
I826
aS'355'
p1781
aS'463'
p1782
aa(lp1783
I5825
aS'34'
p1784
aS'329'
p1785
aasS'1B1H'
p1786
(lp1787
(lp1788
I7021
aS'56'
p1789
aS'437'
p1790
aasS'2VCA'
p1791
(lp1792
(lp1793
I826
aS'36'
p1794
aS'149'
p1795
aa(lp1796
I2546
aS'627'
p1797
aS'880'
p1798
aa(lp1799
I2548
aS'198'
p1800
aS'280'
p1801
aa(lp1802
I5399
aS'295'
p1803
aS'619'
p1804
aasS'4F03'
p1805
(lp1806
(lp1807
I1924
aS'18'
p1808
aS'102'
p1809
aasS'2VCC'
p1810
(lp1811
(lp1812
I826
aS'36'
p1813
aS'149'
p1814
aa(lp1815
I2546
aS'627'
p1816
aS'880'
p1817
aa(lp1818
I2548
aS'198'
p1819
aS'280'
p1820
aa(lp1821
I5399
aS'295'
p1822
aS'619'
p1823
aasS'2VCB'
p1824
(lp1825
(lp1826
I826
aS'36'
p1827
aS'149'
p1828
aa(lp1829
I2546
aS'627'
p1830
aS'880'
p1831
aa(lp1832
I2548
aS'198'
p1833
aS'280'
p1834
aa(lp1835
I5399
aS'295'
p1836
aS'619'
p1837
aasS'4MAB'
p1838
(lp1839
(lp1840
I1099
aS'9'
aS'132'
p1841
aa(lp1842
I4104
aS'153'
p1843
aS'165'
p1844
aasS'1QM7'
p1845
(lp1846
(lp1847
I6648
aS'2'
aS'60'
p1848
aasS'3T8M'
p1849
(lp1850
(lp1851
I4831
aS'204'
p1852
aS'310'
p1853
aa(lp1854
I5073
aS'828'
p1855
aS'1043'
p1856
aa(lp1857
I5747
aS'380'
p1858
aS'489'
p1859
aa(lp1860
I6704
aS'544'
p1861
aS'732'
p1862
aasS'3IBE'
p1863
(lp1864
(lp1865
I4831
aS'204'
p1866
aS'310'
p1867
aa(lp1868
I5073
aS'828'
p1869
aS'1043'
p1870
aa(lp1871
I5747
aS'380'
p1872
aS'488'
p1873
aa(lp1874
I6704
aS'544'
p1875
aS'732'
p1876
aasS'3IBH'
p1877
(lp1878
(lp1879
I1924
aS'22'
p1880
aS'100'
p1881
aa(lp1882
I2159
aS'151'
p1883
aS'220'
p1884
aasS'3RQT'
p1885
(lp1886
(lp1887
I7021
aS'45'
p1888
aS'390'
p1889
aasS'4A0Q'
p1890
(lp1891
(lp1892
I2829
aS'144'
p1893
aS'324'
p1894
aasS'3LFL'
p1895
(lp1896
(lp1897
I1924
aS'27'
p1898
aS'100'
p1899
aa(lp1900
I2159
aS'136'
p1901
aS'207'
p1902
aasS'1BHQ'
p1903
(lp1904
(lp1905
I2829
aS'134'
p1906
aS'311'
p1907
aasS'2CCX'
p1908
(lp1909
(lp1910
I6648
aS'3'
aS'60'
p1911
aa(lp1912
I6648
aS'3'
aS'60'
p1913
aasS'1T2X'
p1914
(lp1915
(lp1916
I635
aS'543'
p1917
aS'637'
p1918
aa(lp1919
I826
aS'16'
p1920
aS'143'
p1921
aa(lp1922
I3558
aS'273'
p1923
aS'314'
p1924
aasS'3PAM'
p1925
(lp1926
(lp1927
I7021
aS'321'
p1928
aS'518'
p1929
aasS'4C29'
p1930
(lp1931
(lp1932
I2829
aS'1277'
p1933
aS'1449'
p1934
aasS'2GRV'
p1935
(lp1936
(lp1937
I7021
aS'84'
p1938
aS'450'
p1939
aasS'3A2X'
p1940
(lp1941
(lp1942
I1099
aS'8'
aS'139'
p1943
aa(lp1944
I1099
aS'8'
aS'139'
p1945
aa(lp1946
I4104
aS'160'
p1947
aS'203'
p1948
aa(lp1949
I4104
aS'160'
p1950
aS'203'
p1951
aasS'1NA5'
p1952
(lp1953
(lp1954
I2829
aS'134'
p1955
aS'311'
p1956
aasS'1CQP'
p1957
(lp1958
(lp1959
I2829
aS'131'
p1960
aS'300'
p1961
aasS'1BHO'
p1962
(lp1963
(lp1964
I2829
aS'134'
p1965
aS'311'
p1966
aasS'1KEX'
p1967
(lp1968
(lp1969
I826
aS'18'
p1970
aS'149'
p1971
aasS'3A2V'
p1972
(lp1973
(lp1974
I1099
aS'8'
aS'139'
p1975
aa(lp1976
I4104
aS'160'
p1977
aS'203'
p1978
aasS'3A2W'
p1979
(lp1980
(lp1981
I1099
aS'8'
aS'139'
p1982
aa(lp1983
I4104
aS'160'
p1984
aS'203'
p1985
aasS'1WI5'
p1986
(lp1987
(lp1988
I2833
aS'198'
p1989
aS'270'
p1990
aasS'1RGJ'
p1991
(lp1992
(lp1993
I6648
aS'2'
aS'66'
p1994
aasS'4HQF'
p1995
(lp1996
(lp1997
I2829
aS'48'
p1998
aS'226'
p1999
aasS'1FW1'
p2000
(lp2001
(lp2002
I1924
aS'8'
aS'86'
p2003
aasS'1A0F'
p2004
(lp2005
(lp2006
I1924
aS'16'
p2007
aS'80'
p2008
aa(lp2009
I2159
aS'102'
p2010
aS'189'
p2011
aasS'4PS3'
p2012
(lp2013
(lp2014
I4831
aS'204'
p2015
aS'310'
p2016
aa(lp2017
I5073
aS'828'
p2018
aS'1043'
p2019
aa(lp2020
I5747
aS'380'
p2021
aS'489'
p2022
aa(lp2023
I6704
aS'544'
p2024
aS'732'
p2025
aasS'4FAD'
p2026
(lp2027
(lp2028
I4831
aS'204'
p2029
aS'310'
p2030
aa(lp2031
I5073
aS'828'
p2032
aS'1043'
p2033
aa(lp2034
I5747
aS'380'
p2035
aS'489'
p2036
aa(lp2037
I6704
aS'544'
p2038
aS'732'
p2039
aasS'4PS7'
p2040
(lp2041
(lp2042
I4831
aS'204'
p2043
aS'310'
p2044
aa(lp2045
I5073
aS'828'
p2046
aS'1043'
p2047
aa(lp2048
I5747
aS'380'
p2049
aS'489'
p2050
aa(lp2051
I6704
aS'544'
p2052
aS'732'
p2053
aasS'1XUO'
p2054
(lp2055
(lp2056
I2829
aS'131'
p2057
aS'300'
p2058
aasS'4ANW'
p2059
(lp2060
(lp2061
I4831
aS'204'
p2062
aS'310'
p2063
aa(lp2064
I5073
aS'828'
p2065
aS'1043'
p2066
aa(lp2067
I5747
aS'380'
p2068
aS'489'
p2069
aa(lp2070
I6704
aS'544'
p2071
aS'732'
p2072
aasS'4PS8'
p2073
(lp2074
(lp2075
I4831
aS'204'
p2076
aS'310'
p2077
aa(lp2078
I5073
aS'828'
p2079
aS'1043'
p2080
aa(lp2081
I5747
aS'380'
p2082
aS'489'
p2083
aa(lp2084
I6704
aS'544'
p2085
aS'732'
p2086
aasS'4ANU'
p2087
(lp2088
(lp2089
I4831
aS'204'
p2090
aS'310'
p2091
aa(lp2092
I5073
aS'828'
p2093
aS'1043'
p2094
aa(lp2095
I5747
aS'380'
p2096
aS'489'
p2097
aa(lp2098
I6704
aS'544'
p2099
aS'732'
p2100
aasS'3M6F'
p2101
(lp2102
(lp2103
I2829
aS'131'
p2104
aS'300'
p2105
aasS'4JZQ'
p2106
(lp2107
(lp2108
I1924
aS'25'
p2109
aS'86'
p2110
aa(lp2111
I6764
aS'124'
p2112
aS'210'
p2113
aasS'3EMP'
p2114
(lp2115
(lp2116
I1099
aS'9'
aS'132'
p2117
aasS'2J1R'
p2118
(lp2119
(lp2120
I826
aS'25'
p2121
aS'135'
p2122
aasS'3BN3'
p2123
(lp2124
(lp2125
I2829
aS'131'
p2126
aS'300'
p2127
aa(lp2128
I6224
aS'6'
aS'91'
p2129
aasS'1NXB'
p2130
(lp2131
(lp2132
I6648
aS'1'
aS'61'
p2133
aasS'4WED'
p2134
(lp2135
(lp2136
I7021
aS'76'
p2137
aS'437'
p2138
aasS'4I8C'
p2139
(lp2140
(lp2141
I7021
aS'46'
p2142
aS'411'
p2143
aasS'3BN6'
p2144
(lp2145
(lp2146
I826
aS'16'
p2147
aS'155'
p2148
aasS'1ZOP'
p2149
(lp2150
(lp2151
I2829
aS'131'
p2152
aS'300'
p2153
aasS'1CXN'
p2154
(lp2155
(lp2156
I6648
aS'3'
aS'60'
p2157
aasS'4AEA'
p2158
(lp2159
(lp2160
I6648
aS'2'
aS'63'
p2161
aasS'3MZB'
p2162
(lp2163
(lp2164
I7021
aS'46'
p2165
aS'411'
p2166
aasS'1ATZ'
p2167
(lp2168
(lp2169
I2829
aS'928'
p2170
aS'1096'
p2171
aasS'4DCY'
p2172
(lp2173
(lp2174
I7021
aS'46'
p2175
aS'411'
p2176
aasS'4DCX'
p2177
(lp2178
(lp2179
I7021
aS'46'
p2180
aS'411'
p2181
aasS'1ONJ'
p2182
(lp2183
(lp2184
I6648
aS'2'
aS'60'
p2185
aasS'2CQO'
p2186
(lp2187
(lp2188
I2833
aS'17'
p2189
aS'85'
p2190
aasS'4KSM'
p2191
(lp2192
(lp2193
I1679
aS'86'
p2194
aS'214'
p2195
aa(lp2196
I1924
aS'3'
aS'75'
p2197
aasS'1ABT'
p2198
(lp2199
(lp2200
I6648
aS'2'
aS'66'
p2201
aasS'4OM5'
p2202
(lp2203
(lp2204
I6648
aS'2'
aS'60'
p2205
aasS'1LFA'
p2206
(lp2207
(lp2208
I2829
aS'131'
p2209
aS'300'
p2210
aasS'4CN9'
p2211
(lp2212
(lp2213
I2829
aS'54'
p2214
aS'232'
p2215
aa(lp2216
I2829
aS'253'
p2217
aS'430'
p2218
aasS'2I6Q'
p2219
(lp2220
(lp2221
I2829
aS'234'
p2222
aS'430'
p2223
aa(lp2224
I2879
aS'453'
p2225
aS'683'
p2226
aasS'4TV3'
p2227
(lp2228
(lp2229
I4831
aS'174'
p2230
aS'291'
p2231
aa(lp2232
I5073
aS'798'
p2233
aS'1014'
p2234
aa(lp2235
I5747
aS'352'
p2236
aS'483'
p2237
aa(lp2238
I6704
aS'521'
p2239
aS'703'
p2240
aasS'2PQS'
p2241
(lp2242
(lp2243
I826
aS'16'
p2244
aS'155'
p2245
aasS'4PT6'
p2246
(lp2247
(lp2248
I826
aS'20'
p2249
aS'154'
p2250
aasS'4IGI'
p2251
(lp2252
(lp2253
I2829
aS'1026'
p2254
aS'1196'
p2255
aasS'4IGJ'
p2256
(lp2257
(lp2258
I1924
aS'5'
aS'85'
p2259
aasS'3MDK'
p2260
(lp2261
(lp2262
I1924
aS'10'
p2263
aS'83'
p2264
aa(lp2265
I2159
aS'117'
p2266
aS'191'
p2267
aasS'4WWN'
p2268
(lp2269
(lp2270
I4831
aS'204'
p2271
aS'310'
p2272
aa(lp2273
I5073
aS'828'
p2274
aS'1043'
p2275
aa(lp2276
I5747
aS'380'
p2277
aS'488'
p2278
aa(lp2279
I6704
aS'546'
p2280
aS'732'
p2281
aasS'4WWO'
p2282
(lp2283
(lp2284
I4831
aS'204'
p2285
aS'310'
p2286
aa(lp2287
I5073
aS'828'
p2288
aS'1043'
p2289
aa(lp2290
I5747
aS'380'
p2291
aS'489'
p2292
aa(lp2293
I6704
aS'545'
p2294
aS'732'
p2295
aasS'3PS6'
p2296
(lp2297
(lp2298
I4831
aS'204'
p2299
aS'310'
p2300
aa(lp2301
I5073
aS'828'
p2302
aS'1043'
p2303
aa(lp2304
I5747
aS'380'
p2305
aS'489'
p2306
aa(lp2307
I6704
aS'544'
p2308
aS'732'
p2309
aasS'3CST'
p2310
(lp2311
(lp2312
I4831
aS'204'
p2313
aS'310'
p2314
aa(lp2315
I5073
aS'828'
p2316
aS'1043'
p2317
aa(lp2318
I5747
aS'380'
p2319
aS'489'
p2320
aa(lp2321
I6704
aS'544'
p2322
aS'732'
p2323
aasS'2KHJ'
p2324
(lp2325
(lp2326
I2833
aS'10'
p2327
aS'81'
p2328
aasS'4PFW'
p2329
(lp2330
(lp2331
I7021
aS'71'
p2332
aS'451'
p2333
aasS'4WWP'
p2334
(lp2335
(lp2336
I4831
aS'204'
p2337
aS'310'
p2338
aa(lp2339
I5073
aS'828'
p2340
aS'1043'
p2341
aa(lp2342
I5747
aS'380'
p2343
aS'488'
p2344
aa(lp2345
I6704
aS'546'
p2346
aS'732'
p2347
aasS'4PFU'
p2348
(lp2349
(lp2350
I7021
aS'71'
p2351
aS'451'
p2352
aasS'4HVB'
p2353
(lp2354
(lp2355
I4831
aS'204'
p2356
aS'310'
p2357
aa(lp2358
I5073
aS'828'
p2359
aS'1043'
p2360
aa(lp2361
I5747
aS'380'
p2362
aS'489'
p2363
aa(lp2364
I6704
aS'544'
p2365
aS'732'
p2366
aasS'6EBX'
p2367
(lp2368
(lp2369
I6648
aS'1'
aS'61'
p2370
aasS'4PFY'
p2371
(lp2372
(lp2373
I7021
aS'70'
p2374
aS'440'
p2375
aasS'3CDZ'
p2376
(lp2377
(lp2378
I826
aS'2036'
p2379
aS'2166'
p2380
aa(lp2381
I826
aS'2189'
p2382
aS'2323'
p2383
aa(lp2384
I2580
aS'205'
p2385
aS'329'
p2386
aa(lp2387
I3227
aS'71'
p2388
aS'178'
p2389
aa(lp2390
I3227
aS'435'
p2391
aS'553'
p2392
aa(lp2393
I3228
aS'1901'
p2394
aS'2018'
p2395
aasS'2CX3'
p2396
(lp2397
(lp2398
I1099
aS'8'
aS'135'
p2399
aasS'1B4Z'
p2400
(lp2401
(lp2402
I7021
aS'56'
p2403
aS'437'
p2404
aasS'2CX4'
p2405
(lp2406
(lp2407
I1099
aS'8'
aS'135'
p2408
aasS'2KD7'
p2409
(lp2410
(lp2411
I826
aS'20'
p2412
aS'142'
p2413
aasS'4E8H'
p2414
(lp2415
(lp2416
I1924
aS'8'
aS'82'
p2417
aa(lp2418
I2159
aS'122'
p2419
aS'190'
p2420
aasS'1RL5'
p2421
(lp2422
(lp2423
I6648
aS'3'
aS'60'
p2424
aasS'1MAH'
p2425
(lp2426
(lp2427
I6648
aS'2'
aS'60'
p2428
aa(lp2429
I6910
aS'8'
aS'532'
p2430
aasS'3LYP'
p2431
(lp2432
(lp2433
I1924
aS'12'
p2434
aS'85'
p2435
aa(lp2436
I6764
aS'123'
p2437
aS'188'
p2438
aasS'1RS0'
p2439
(lp2440
(lp2441
I2829
aS'245'
p2442
aS'442'
p2443
aa(lp2444
I2879
aS'458'
p2445
aS'717'
p2446
aasS'1KC4'
p2447
(lp2448
(lp2449
I6648
aS'2'
aS'66'
p2450
aasS'4NHW'
p2451
(lp2452
(lp2453
I1924
aS'16'
p2454
aS'90'
p2455
aa(lp2456
I2159
aS'135'
p2457
aS'205'
p2458
aasS'1Q0P'
p2459
(lp2460
(lp2461
I2829
aS'245'
p2462
aS'432'
p2463
aasS'3ZS6'
p2464
(lp2465
(lp2466
I7021
aS'95'
p2467
aS'473'
p2468
aasS'4K0N'
p2469
(lp2470
(lp2471
I1924
aS'25'
p2472
aS'86'
p2473
aa(lp2474
I6764
aS'124'
p2475
aS'210'
p2476
aasS'1SU9'
p2477
(lp2478
(lp2479
I1099
aS'39'
p2480
aS'153'
p2481
aasS'2JKX'
p2482
(lp2483
(lp2484
I635
aS'543'
p2485
aS'637'
p2486
aa(lp2487
I826
aS'16'
p2488
aS'143'
p2489
aa(lp2490
I3558
aS'273'
p2491
aS'314'
p2492
aasS'4FLH'
p2493
(lp2494
(lp2495
I4831
aS'204'
p2496
aS'310'
p2497
aa(lp2498
I5073
aS'828'
p2499
aS'1043'
p2500
aa(lp2501
I5747
aS'380'
p2502
aS'488'
p2503
aa(lp2504
I6704
aS'546'
p2505
aS'732'
p2506
aasS'4KDU'
p2507
(lp2508
(lp2509
I1924
aS'6'
aS'80'
p2510
aa(lp2511
I2159
aS'112'
p2512
aS'196'
p2513
aasS'2H1A'
p2514
(lp2515
(lp2516
I1099
aS'40'
p2517
aS'154'
p2518
aasS'3ZLP'
p2519
(lp2520
(lp2521
I1099
aS'6'
aS'137'
p2522
aa(lp2523
I4104
aS'158'
p2524
aS'165'
p2525
aasS'1B5J'
p2526
(lp2527
(lp2528
I7021
aS'56'
p2529
aS'437'
p2530
aasS'4KDY'
p2531
(lp2532
(lp2533
I1924
aS'5'
aS'85'
p2534
aasS'4KDX'
p2535
(lp2536
(lp2537
I1924
aS'6'
aS'80'
p2538
aa(lp2539
I2159
aS'112'
p2540
aS'196'
p2541
aasS'1E8Z'
p2542
(lp2543
(lp2544
I4831
aS'204'
p2545
aS'310'
p2546
aa(lp2547
I5073
aS'828'
p2548
aS'1043'
p2549
aa(lp2550
I5747
aS'380'
p2551
aS'489'
p2552
aa(lp2553
I6704
aS'544'
p2554
aS'732'
p2555
aasS'1RK4'
p2556
(lp2557
(lp2558
I1924
aS'24'
p2559
aS'86'
p2560
aa(lp2561
I6764
aS'124'
p2562
aS'210'
p2563
aasS'4K0G'
p2564
(lp2565
(lp2566
I1924
aS'24'
p2567
aS'86'
p2568
aa(lp2569
I6764
aS'124'
p2570
aS'210'
p2571
aasS'2H1B'
p2572
(lp2573
(lp2574
I1099
aS'39'
p2575
aS'154'
p2576
aasS'1WE0'
p2577
(lp2578
(lp2579
I1099
aS'3'
aS'133'
p2580
aa(lp2581
I4104
aS'154'
p2582
aS'166'
p2583
aasS'2X8B'
p2584
(lp2585
(lp2586
I5007
aS'547'
p2587
aS'547'
p2588
aa(lp2589
I6648
aS'2'
aS'60'
p2590
aa(lp2591
I6910
aS'7'
aS'532'
p2592
aasS'1E8X'
p2593
(lp2594
(lp2595
I4831
aS'204'
p2596
aS'310'
p2597
aa(lp2598
I5073
aS'828'
p2599
aS'1043'
p2600
aa(lp2601
I5747
aS'380'
p2602
aS'489'
p2603
aa(lp2604
I6704
aS'546'
p2605
aS'732'
p2606
aasS'1E8Y'
p2607
(lp2608
(lp2609
I4831
aS'204'
p2610
aS'310'
p2611
aa(lp2612
I5073
aS'828'
p2613
aS'1043'
p2614
aa(lp2615
I5747
aS'380'
p2616
aS'489'
p2617
aa(lp2618
I6704
aS'544'
p2619
aS'732'
p2620
aasS'2H66'
p2621
(lp2622
(lp2623
I1099
aS'5'
aS'138'
p2624
aa(lp2625
I4104
aS'159'
p2626
aS'168'
p2627
aasS'4GWI'
p2628
(lp2629
(lp2630
I826
aS'54'
p2631
aS'172'
p2632
aasS'1V7P'
p2633
(lp2634
(lp2635
I645
aS'22'
p2636
aS'131'
p2637
aa(lp2638
I645
aS'20'
p2639
aS'122'
p2640
aa(lp2641
I2829
aS'145'
p2642
aS'321'
p2643
aasS'1E8W'
p2644
(lp2645
(lp2646
I4831
aS'204'
p2647
aS'310'
p2648
aa(lp2649
I5073
aS'828'
p2650
aS'1043'
p2651
aa(lp2652
I5747
aS'380'
p2653
aS'488'
p2654
aa(lp2655
I6704
aS'546'
p2656
aS'732'
p2657
aasS'4QDS'
p2658
(lp2659
(lp2660
I826
aS'292'
p2661
aS'424'
p2662
aasS'2Y0S'
p2663
(lp2664
(lp2665
I410
aS'10'
p2666
aS'77'
p2667
aa(lp2668
I1770
aS'10'
p2669
aS'116'
p2670
aa(lp2671
I1874
aS'44'
p2672
aS'156'
p2673
aa(lp2674
I2150
aS'4'
aS'313'
p2675
aa(lp2676
I2154
aS'677'
p2677
aS'782'
p2678
aa(lp2679
I2534
aS'14'
p2680
aS'81'
p2681
aa(lp2682
I2559
aS'13'
p2683
aS'82'
p2684
aa(lp2685
I2833
aS'82'
p2686
aS'151'
p2687
aa(lp2688
I3290
aS'22'
p2689
aS'76'
p2690
aa(lp2691
I3356
aS'17'
p2692
aS'252'
p2693
aa(lp2694
I3357
aS'1'
aS'58'
p2695
aa(lp2696
I3506
aS'415'
p2697
aS'479'
p2698
aa(lp2699
I4336
aS'607'
p2700
aS'645'
p2701
aa(lp2702
I4337
aS'523'
p2703
aS'585'
p2704
aa(lp2705
I4338
aS'1027'
p2706
aS'1118'
p2707
aa(lp2708
I4339
aS'655'
p2709
aS'1025'
p2710
aa(lp2711
I4340
aS'25'
p2712
aS'394'
p2713
aa(lp2714
I4342
aS'172'
p2715
aS'347'
p2716
aa(lp2717
I4457
aS'39'
p2718
aS'59'
p2719
aa(lp2720
I5408
aS'315'
p2721
aS'482'
p2722
aa(lp2723
I5409
aS'485'
p2724
aS'651'
p2725
aa(lp2726
I5415
aS'789'
p2727
aS'855'
p2728
aa(lp2729
I5415
aS'27'
p2730
aS'340'
p2731
aa(lp2732
I5642
aS'28'
p2733
aS'92'
p2734
aasS'4AJW'
p2735
(lp2736
(lp2737
I4831
aS'186'
p2738
aS'280'
p2739
aa(lp2740
I5073
aS'774'
p2741
aS'990'
p2742
aa(lp2743
I5747
aS'343'
p2744
aS'444'
p2745
aa(lp2746
I6704
aS'525'
p2747
aS'682'
p2748
aasS'1HC9'
p2749
(lp2750
(lp2751
I6648
aS'2'
aS'66'
p2752
aa(lp2753
I6648
aS'2'
aS'66'
p2754
aasS'1CCQ'
p2755
(lp2756
(lp2757
I6648
aS'4'
aS'60'
p2758
aasS'4MDC'
p2759
(lp2760
(lp2761
I1924
aS'4'
aS'75'
p2762
aa(lp2763
I2159
aS'151'
p2764
aS'206'
p2765
aasS'3HCZ'
p2766
(lp2767
(lp2768
I1099
aS'334'
p2769
aS'452'
p2770
aasS'1ZLQ'
p2771
(lp2772
(lp2773
I7021
aS'46'
p2774
aS'411'
p2775
aasS'1RKM'
p2776
(lp2777
(lp2778
I7021
aS'56'
p2779
aS'437'
p2780
aa(lp2781
I7021
aS'56'
p2782
aS'437'
p2783
aasS'1QMV'
p2784
(lp2785
(lp2786
I1099
aS'8'
aS'140'
p2787
aa(lp2788
I4104
aS'161'
p2789
aS'195'
p2790
aasS'1SN8'
p2791
(lp2792
(lp2793
I2833
aS'39'
p2794
aS'118'
p2795
aasS'1UQW'
p2796
(lp2797
(lp2798
I7021
aS'48'
p2799
aS'406'
p2800
aasS'3MVZ'
p2801
(lp2802
(lp2803
I7021
aS'46'
p2804
aS'411'
p2805
aasS'3MVX'
p2806
(lp2807
(lp2808
I7021
aS'46'
p2809
aS'411'
p2810
aasS'3MVY'
p2811
(lp2812
(lp2813
I7021
aS'46'
p2814
aS'411'
p2815
aasS'1B52'
p2816
(lp2817
(lp2818
I7021
aS'56'
p2819
aS'437'
p2820
aasS'1B51'
p2821
(lp2822
(lp2823
I7021
aS'56'
p2824
aS'437'
p2825
aasS'2PN8'
p2826
(lp2827
(lp2828
I1099
aS'85'
p2829
aS'213'
p2830
aa(lp2831
I4104
aS'234'
p2832
aS'263'
p2833
aasS'1N2A'
p2834
(lp2835
(lp2836
I1924
aS'16'
p2837
aS'80'
p2838
aa(lp2839
I2159
aS'102'
p2840
aS'189'
p2841
aasS'3MVW'
p2842
(lp2843
(lp2844
I7021
aS'46'
p2845
aS'411'
p2846
aasS'2BER'
p2847
(lp2848
(lp2849
I826
aS'520'
p2850
aS'641'
p2851
aa(lp2852
I2068
aS'98'
p2853
aS'379'
p2854
aa(lp2855
I6982
aS'416'
p2856
aS'487'
p2857
aasS'4LFT'
p2858
(lp2859
(lp2860
I6648
aS'1'
aS'64'
p2861
aasS'2V72'
p2862
(lp2863
(lp2864
I826
aS'13'
p2865
aS'134'
p2866
aasS'3PRE'
p2867
(lp2868
(lp2869
I4831
aS'204'
p2870
aS'310'
p2871
aa(lp2872
I5073
aS'828'
p2873
aS'1043'
p2874
aa(lp2875
I5747
aS'380'
p2876
aS'489'
p2877
aa(lp2878
I6704
aS'544'
p2879
aS'732'
p2880
aasS'2X38'
p2881
(lp2882
(lp2883
I4831
aS'187'
p2884
aS'280'
p2885
aa(lp2886
I5073
aS'774'
p2887
aS'990'
p2888
aa(lp2889
I5747
aS'339'
p2890
aS'445'
p2891
aa(lp2892
I6704
aS'511'
p2893
aS'682'
p2894
aasS'4ONY'
p2895
(lp2896
(lp2897
I7021
aS'98'
p2898
aS'507'
p2899
aasS'1K3I'
p2900
(lp2901
(lp2902
I635
aS'543'
p2903
aS'637'
p2904
aa(lp2905
I826
aS'16'
p2906
aS'143'
p2907
aa(lp2908
I3558
aS'273'
p2909
aS'314'
p2910
aasS'1HH2'
p2911
(lp2912
(lp2913
I1145
aS'5'
aS'124'
p2914
aa(lp2915
I2833
aS'134'
p2916
aS'192'
p2917
aa(lp2918
I6347
aS'229'
p2919
aS'297'
p2920
aasS'3ZL5'
p2921
(lp2922
(lp2923
I1099
aS'6'
aS'137'
p2924
aa(lp2925
I4104
aS'158'
p2926
aS'164'
p2927
aasS'4EXJ'
p2928
(lp2929
(lp2930
I1924
aS'12'
p2931
aS'79'
p2932
aa(lp2933
I2159
aS'124'
p2934
aS'202'
p2935
aasS'3Q3G'
p2936
(lp2937
(lp2938
I1690
aS'126'
p2939
aS'211'
p2940
aa(lp2941
I1690
aS'139'
p2942
aS'216'
p2943
aa(lp2944
I2388
aS'6'
aS'111'
p2945
aa(lp2946
I2388
aS'7'
aS'122'
p2947
aa(lp2948
I2829
aS'134'
p2949
aS'311'
p2950
aasS'3I5O'
p2951
(lp2952
(lp2953
I7021
aS'51'
p2954
aS'443'
p2955
aasS'4JBB'
p2956
(lp2957
(lp2958
I1924
aS'15'
p2959
aS'86'
p2960
aa(lp2961
I6762
aS'95'
p2962
aS'210'
p2963
aasS'3ERW'
p2964
(lp2965
(lp2966
I1099
aS'40'
p2967
aS'148'
p2968
aasS'3QAG'
p2969
(lp2970
(lp2971
I1924
aS'27'
p2972
aS'100'
p2973
aa(lp2974
I6764
aS'142'
p2975
aS'204'
p2976
aasS'3QR6'
p2977
(lp2978
(lp2979
I1924
aS'24'
p2980
aS'86'
p2981
aa(lp2982
I6764
aS'124'
p2983
aS'210'
p2984
aasS'1UG4'
p2985
(lp2986
(lp2987
I6648
aS'3'
aS'60'
p2988
aasS'1DRS'
p2989
(lp2990
(lp2991
I6648
aS'1'
aS'58'
p2992
aasS'3QAW'
p2993
(lp2994
(lp2995
I1924
aS'10'
p2996
aS'84'
p2997
aa(lp2998
I2159
aS'113'
p2999
aS'200'
p3000
aasS'4FUL'
p3001
(lp3002
(lp3003
I4831
aS'204'
p3004
aS'310'
p3005
aa(lp3006
I5073
aS'828'
p3007
aS'1043'
p3008
aa(lp3009
I5747
aS'380'
p3010
aS'488'
p3011
aa(lp3012
I6704
aS'544'
p3013
aS'732'
p3014
aasS'3QAR'
p3015
(lp3016
(lp3017
I4831
aS'204'
p3018
aS'310'
p3019
aa(lp3020
I5073
aS'828'
p3021
aS'1043'
p3022
aa(lp3023
I5747
aS'380'
p3024
aS'488'
p3025
aa(lp3026
I6704
aS'546'
p3027
aS'732'
p3028
aasS'3QAQ'
p3029
(lp3030
(lp3031
I4831
aS'204'
p3032
aS'310'
p3033
aa(lp3034
I5073
aS'828'
p3035
aS'1043'
p3036
aa(lp3037
I5747
aS'380'
p3038
aS'488'
p3039
aa(lp3040
I6704
aS'544'
p3041
aS'732'
p3042
aasS'4NMU'
p3043
(lp3044
(lp3045
I1099
aS'8'
aS'124'
p3046
aasS'3HIZ'
p3047
(lp3048
(lp3049
I1107
aS'333'
p3050
aS'408'
p3051
aa(lp3052
I3031
aS'32'
p3053
aS'107'
p3054
aa(lp3055
I4028
aS'431'
p3056
aS'579'
p3057
aa(lp3058
I4831
aS'174'
p3059
aS'291'
p3060
aa(lp3061
I5073
aS'798'
p3062
aS'1014'
p3063
aa(lp3064
I5747
aS'352'
p3065
aS'483'
p3066
aa(lp3067
I6704
aS'524'
p3068
aS'703'
p3069
aasS'3U5R'
p3070
(lp3071
(lp3072
I1099
aS'35'
p3073
aS'158'
p3074
aasS'1R5A'
p3075
(lp3076
(lp3077
I1924
aS'5'
aS'79'
p3078
aa(lp3079
I2159
aS'120'
p3080
aS'187'
p3081
aasS'3QJZ'
p3082
(lp3083
(lp3084
I4831
aS'204'
p3085
aS'310'
p3086
aa(lp3087
I5073
aS'828'
p3088
aS'1040'
p3089
aa(lp3090
I5747
aS'380'
p3091
aS'487'
p3092
aa(lp3093
I6704
aS'546'
p3094
aS'732'
p3095
aasS'2C0B'
p3096
(lp3097
(lp3098
I1116
aS'121'
p3099
aS'391'
p3100
aa(lp3101
I2833
aS'36'
p3102
aS'118'
p3103
aasS'2C0D'
p3104
(lp3105
(lp3106
I1099
aS'23'
p3107
aS'155'
p3108
aa(lp3109
I4104
aS'177'
p3110
aS'188'
p3111
aasS'4PFT'
p3112
(lp3113
(lp3114
I7021
aS'70'
p3115
aS'440'
p3116
aasS'2XWB'
p3117
(lp3118
(lp3119
I2539
aS'436'
p3120
aS'583'
p3121
aa(lp3122
I2829
aS'245'
p3123
aS'442'
p3124
aa(lp3125
I2879
aS'458'
p3126
aS'717'
p3127
aa(lp3128
I2879
aS'1'
aS'223'
p3129
aa(lp3130
I3054
aS'1377'
p3131
aS'1471'
p3132
aa(lp3133
I3069
aS'748'
p3134
aS'844'
p3135
aa(lp3136
I4067
aS'28'
p3137
aS'59'
p3138
aa(lp3139
I4067
aS'78'
p3140
aS'133'
p3141
aa(lp3142
I4067
aS'151'
p3143
aS'193'
p3144
aa(lp3145
I4736
aS'978'
p3146
aS'1006'
p3147
aa(lp3148
I5512
aS'1029'
p3149
aS'1261'
p3150
aa(lp3151
I6554
aS'108'
p3152
aS'202'
p3153
aa(lp3154
I7153
aS'1512'
p3155
aS'1622'
p3156
aasS'3AEV'
p3157
(lp3158
(lp3159
I2833
aS'9'
aS'83'
p3160
aa(lp3161
I6344
aS'37'
p3162
aS'83'
p3163
aa(lp3164
I6344
aS'138'
p3165
aS'185'
p3166
aa(lp3167
I7551
aS'122'
p3168
aS'174'
p3169
aasS'3HHM'
p3170
(lp3171
(lp3172
I1107
aS'333'
p3173
aS'408'
p3174
aa(lp3175
I3031
aS'32'
p3176
aS'107'
p3177
aa(lp3178
I4028
aS'431'
p3179
aS'579'
p3180
aa(lp3181
I4831
aS'174'
p3182
aS'291'
p3183
aa(lp3184
I5073
aS'798'
p3185
aS'1014'
p3186
aa(lp3187
I5747
aS'352'
p3188
aS'483'
p3189
aa(lp3190
I6704
aS'524'
p3191
aS'703'
p3192
aasS'2WXJ'
p3193
(lp3194
(lp3195
I4831
aS'187'
p3196
aS'280'
p3197
aa(lp3198
I5073
aS'774'
p3199
aS'990'
p3200
aa(lp3201
I5747
aS'339'
p3202
aS'445'
p3203
aa(lp3204
I6704
aS'511'
p3205
aS'682'
p3206
aasS'3LWA'
p3207
(lp3208
(lp3209
I1099
aS'59'
p3210
aS'181'
p3211
aasS'3TGZ'
p3212
(lp3213
(lp3214
I1924
aS'24'
p3215
aS'86'
p3216
aa(lp3217
I6764
aS'124'
p3218
aS'210'
p3219
aasS'3SD5'
p3220
(lp3221
(lp3222
I4831
aS'204'
p3223
aS'310'
p3224
aa(lp3225
I5073
aS'828'
p3226
aS'1043'
p3227
aa(lp3228
I5747
aS'380'
p3229
aS'489'
p3230
aa(lp3231
I6704
aS'547'
p3232
aS'732'
p3233
aasS'3GXB'
p3234
(lp3235
(lp3236
I2829
aS'1498'
p3237
aS'1646'
p3238
aasS'1IQ9'
p3239
(lp3240
(lp3241
I6648
aS'2'
aS'60'
p3242
aasS'3HH7'
p3243
(lp3244
(lp3245
I6648
aS'2'
aS'64'
p3246
aasS'1FSC'
p3247
(lp3248
(lp3249
I6648
aS'2'
aS'60'
p3250
aasS'2IL3'
p3251
(lp3252
(lp3253
I1924
aS'6'
aS'80'
p3254
aa(lp3255
I2159
aS'126'
p3256
aS'194'
p3257
aasS'3J2S'
p3258
(lp3259
(lp3260
I826
aS'2036'
p3261
aS'2166'
p3262
aa(lp3263
I826
aS'2189'
p3264
aS'2323'
p3265
aa(lp3266
I3228
aS'1901'
p3267
aS'2018'
p3268
aasS'1ZYE'
p3269
(lp3270
(lp3271
I1099
aS'4'
aS'136'
p3272
aa(lp3273
I4104
aS'157'
p3274
aS'163'
p3275
aasS'1KBS'
p3276
(lp3277
(lp3278
I6648
aS'2'
aS'60'
p3279
aasS'1IJB'
p3280
(lp3281
(lp3282
I2829
aS'514'
p3283
aS'686'
p3284
aasS'1IJC'
p3285
(lp3286
(lp3287
I6648
aS'2'
aS'62'
p3288
aasS'1PRX'
p3289
(lp3290
(lp3291
I1099
aS'8'
aS'144'
p3292
aa(lp3293
I4104
aS'166'
p3294
aS'205'
p3295
aasS'1KBT'
p3296
(lp3297
(lp3298
I6648
aS'2'
aS'60'
p3299
aasS'3FTO'
p3300
(lp3301
(lp3302
I7021
aS'90'
p3303
aS'492'
p3304
aasS'2NVL'
p3305
(lp3306
(lp3307
I1099
aS'8'
aS'139'
p3308
aa(lp3309
I4104
aS'160'
p3310
aS'203'
p3311
aasS'2WDB'
p3312
(lp3313
(lp3314
I826
aS'817'
p3315
aS'940'
p3316
aasS'1EUU'
p3317
(lp3318
(lp3319
I826
aS'520'
p3320
aS'641'
p3321
aa(lp3322
I2068
aS'98'
p3323
aS'381'
p3324
aa(lp3325
I6982
aS'416'
p3326
aS'487'
p3327
aasS'1EUT'
p3328
(lp3329
(lp3330
I826
aS'520'
p3331
aS'641'
p3332
aa(lp3333
I2068
aS'98'
p3334
aS'381'
p3335
aa(lp3336
I6982
aS'416'
p3337
aS'487'
p3338
aasS'1W8O'
p3339
(lp3340
(lp3341
I826
aS'520'
p3342
aS'641'
p3343
aa(lp3344
I2068
aS'98'
p3345
aS'381'
p3346
aa(lp3347
I6982
aS'416'
p3348
aS'487'
p3349
aasS'2BX2'
p3350
(lp3351
(lp3352
I1116
aS'121'
p3353
aS'391'
p3354
aa(lp3355
I2833
aS'36'
p3356
aS'118'
p3357
aasS'1KBA'
p3358
(lp3359
(lp3360
I6648
aS'1'
aS'65'
p3361
aasS'3QIM'
p3362
(lp3363
(lp3364
I7021
aS'46'
p3365
aS'411'
p3366
aasS'3ERF'
p3367
(lp3368
(lp3369
I1924
aS'22'
p3370
aS'100'
p3371
aa(lp3372
I2159
aS'151'
p3373
aS'220'
p3374
aasS'1X0R'
p3375
(lp3376
(lp3377
I1099
aS'8'
aS'139'
p3378
aa(lp3379
I4104
aS'160'
p3380
aS'203'
p3381
aasS'3ERG'
p3382
(lp3383
(lp3384
I1924
aS'22'
p3385
aS'100'
p3386
aa(lp3387
I2159
aS'151'
p3388
aS'220'
p3389
aasS'3VLN'
p3390
(lp3391
(lp3392
I1924
aS'27'
p3393
aS'100'
p3394
aa(lp3395
I2159
aS'130'
p3396
aS'208'
p3397
aasS'4HI7'
p3398
(lp3399
(lp3400
I1924
aS'6'
aS'80'
p3401
aa(lp3402
I2159
aS'125'
p3403
aS'196'
p3404
aasS'3ZW3'
p3405
(lp3406
(lp3407
I4831
aS'204'
p3408
aS'310'
p3409
aa(lp3410
I5073
aS'828'
p3411
aS'1043'
p3412
aa(lp3413
I5747
aS'380'
p3414
aS'489'
p3415
aa(lp3416
I6704
aS'544'
p3417
aS'732'
p3418
aasS'3IXR'
p3419
(lp3420
(lp3421
I1099
aS'24'
p3422
aS'135'
p3423
aasS'4QFO'
p3424
(lp3425
(lp3426
I7021
aS'74'
p3427
aS'452'
p3428
aasS'4A3Z'
p3429
(lp3430
(lp3431
I826
aS'1219'
p3432
aS'1321'
p3433
aasS'4LQR'
p3434
(lp3435
(lp3436
I826
aS'18'
p3437
aS'151'
p3438
aasS'3WD6'
p3439
(lp3440
(lp3441
I1924
aS'33'
p3442
aS'107'
p3443
aa(lp3444
I6764
aS'143'
p3445
aS'213'
p3446
aasS'2J1T'
p3447
(lp3448
(lp3449
I826
aS'25'
p3450
aS'135'
p3451
aasS'3QA3'
p3452
(lp3453
(lp3454
I1690
aS'126'
p3455
aS'211'
p3456
aa(lp3457
I1690
aS'139'
p3458
aS'216'
p3459
aa(lp3460
I2388
aS'6'
aS'111'
p3461
aa(lp3462
I2388
aS'7'
aS'122'
p3463
aa(lp3464
I2829
aS'134'
p3465
aS'311'
p3466
aasS'1NTX'
p3467
(lp3468
(lp3469
I6648
aS'1'
aS'61'
p3470
aasS'1YEP'
p3471
(lp3472
(lp3473
I1099
aS'9'
aS'132'
p3474
aa(lp3475
I4104
aS'153'
p3476
aS'168'
p3477
aasS'3BQM'
p3478
(lp3479
(lp3480
I2829
aS'131'
p3481
aS'300'
p3482
aasS'3BQN'
p3483
(lp3484
(lp3485
I2829
aS'131'
p3486
aS'300'
p3487
aasS'3ERA'
p3488
(lp3489
(lp3490
I6648
aS'1'
aS'61'
p3491
aasS'1YEX'
p3492
(lp3493
(lp3494
I1099
aS'9'
aS'132'
p3495
aa(lp3496
I1099
aS'9'
aS'132'
p3497
aa(lp3498
I4104
aS'153'
p3499
aS'167'
p3500
aa(lp3501
I4104
aS'153'
p3502
aS'167'
p3503
aasS'4OMV'
p3504
(lp3505
(lp3506
I1924
aS'3'
aS'80'
p3507
aasS'4IQA'
p3508
(lp3509
(lp3510
I1924
aS'24'
p3511
aS'86'
p3512
aa(lp3513
I6764
aS'124'
p3514
aS'210'
p3515
aasS'1B9J'
p3516
(lp3517
(lp3518
I7021
aS'56'
p3519
aS'437'
p3520
aasS'3L08'
p3521
(lp3522
(lp3523
I4831
aS'204'
p3524
aS'310'
p3525
aa(lp3526
I5073
aS'828'
p3527
aS'1043'
p3528
aa(lp3529
I5747
aS'380'
p3530
aS'488'
p3531
aa(lp3532
I6704
aS'544'
p3533
aS'732'
p3534
aasS'1DGQ'
p3535
(lp3536
(lp3537
I2829
aS'131'
p3538
aS'300'
p3539
aasS'4KI5'
p3540
(lp3541
(lp3542
I826
aS'2189'
p3543
aS'2323'
p3544
aa(lp3545
I1690
aS'133'
p3546
aS'208'
p3547
aa(lp3548
I1690
aS'119'
p3549
aS'204'
p3550
aa(lp3551
I1690
aS'139'
p3552
aS'214'
p3553
aa(lp3554
I1690
aS'120'
p3555
aS'205'
p3556
aa(lp3557
I2388
aS'7'
aS'114'
p3558
aa(lp3559
I2388
aS'6'
aS'104'
p3560
aa(lp3561
I2388
aS'6'
aS'120'
p3562
aa(lp3563
I2388
aS'6'
aS'106'
p3564
aasS'4FHJ'
p3565
(lp3566
(lp3567
I4831
aS'204'
p3568
aS'310'
p3569
aa(lp3570
I5073
aS'828'
p3571
aS'1039'
p3572
aa(lp3573
I5747
aS'380'
p3574
aS'488'
p3575
aa(lp3576
I6704
aS'546'
p3577
aS'732'
p3578
aasS'4FHK'
p3579
(lp3580
(lp3581
I4831
aS'204'
p3582
aS'310'
p3583
aa(lp3584
I5073
aS'828'
p3585
aS'1039'
p3586
aa(lp3587
I5747
aS'380'
p3588
aS'488'
p3589
aa(lp3590
I6704
aS'546'
p3591
aS'732'
p3592
aasS'1K0M'
p3593
(lp3594
(lp3595
I1924
aS'24'
p3596
aS'86'
p3597
aa(lp3598
I6764
aS'124'
p3599
aS'210'
p3600
aasS'1K0N'
p3601
(lp3602
(lp3603
I1924
aS'24'
p3604
aS'86'
p3605
aa(lp3606
I6764
aS'124'
p3607
aS'210'
p3608
aasS'1K0O'
p3609
(lp3610
(lp3611
I1924
aS'24'
p3612
aS'86'
p3613
aa(lp3614
I6764
aS'124'
p3615
aS'210'
p3616
aasS'4F1S'
p3617
(lp3618
(lp3619
I4831
aS'204'
p3620
aS'310'
p3621
aa(lp3622
I5073
aS'828'
p3623
aS'1043'
p3624
aa(lp3625
I5747
aS'380'
p3626
aS'488'
p3627
aa(lp3628
I6704
aS'545'
p3629
aS'732'
p3630
aasS'3ZQK'
p3631
(lp3632
(lp3633
I2829
aS'1498'
p3634
aS'1646'
p3635
aasS'1TFS'
p3636
(lp3637
(lp3638
I6648
aS'1'
aS'59'
p3639
aasS'4F1K'
p3640
(lp3641
(lp3642
I2829
aS'48'
p3643
aS'226'
p3644
aasS'4F1J'
p3645
(lp3646
(lp3647
I2829
aS'48'
p3648
aS'226'
p3649
aasS'4IXD'
p3650
(lp3651
(lp3652
I2829
aS'131'
p3653
aS'300'
p3654
aasS'3NIV'
p3655
(lp3656
(lp3657
I1924
aS'3'
aS'80'
p3658
aasS'2H8U'
p3659
(lp3660
(lp3661
I6648
aS'1'
aS'64'
p3662
aasS'1AUQ'
p3663
(lp3664
(lp3665
I2829
aS'514'
p3666
aS'686'
p3667
aasS'1SRO'
p3668
(lp3669
(lp3670
I2833
aS'3'
aS'74'
p3671
aasS'2W1S'
p3672
(lp3673
(lp3674
I826
aS'817'
p3675
aS'940'
p3676
aasS'4GQF'
p3677
(lp3678
(lp3679
I1099
aS'8'
aS'135'
p3680
aasS'2W1Q'
p3681
(lp3682
(lp3683
I826
aS'817'
p3684
aS'940'
p3685
aasS'4L1B'
p3686
(lp3687
(lp3688
I1107
aS'333'
p3689
aS'408'
p3690
aa(lp3691
I3031
aS'32'
p3692
aS'107'
p3693
aa(lp3694
I4028
aS'431'
p3695
aS'598'
p3696
aa(lp3697
I4831
aS'174'
p3698
aS'291'
p3699
aa(lp3700
I5073
aS'798'
p3701
aS'1014'
p3702
aa(lp3703
I5747
aS'352'
p3704
aS'483'
p3705
aa(lp3706
I6704
aS'521'
p3707
aS'703'
p3708
aasS'3LYK'
p3709
(lp3710
(lp3711
I1924
aS'13'
p3712
aS'87'
p3713
aa(lp3714
I2159
aS'105'
p3715
aS'194'
p3716
aasS'4GQC'
p3717
(lp3718
(lp3719
I1099
aS'8'
aS'135'
p3720
aasS'4NBQ'
p3721
(lp3722
(lp3723
I1691
aS'149'
p3724
aS'207'
p3725
aa(lp3726
I1691
aS'462'
p3727
aS'532'
p3728
aa(lp3729
I2833
aS'629'
p3730
aS'692'
p3731
aa(lp3732
I3732
aS'241'
p3733
aS'323'
p3734
aa(lp3735
I4118
aS'14'
p3736
aS'143'
p3737
aa(lp3738
I4118
aS'327'
p3739
aS'459'
p3740
aa(lp3741
I6344
aS'559'
p3742
aS'615'
p3743
aasS'2WQ8'
p3744
(lp3745
(lp3746
I635
aS'543'
p3747
aS'637'
p3748
aa(lp3749
I826
aS'16'
p3750
aS'143'
p3751
aa(lp3752
I3558
aS'273'
p3753
aS'314'
p3754
aasS'3SBC'
p3755
(lp3756
(lp3757
I1099
aS'4'
aS'136'
p3758
aa(lp3759
I4104
aS'157'
p3760
aS'191'
p3761
aasS'3QK0'
p3762
(lp3763
(lp3764
I4831
aS'204'
p3765
aS'310'
p3766
aa(lp3767
I5073
aS'828'
p3768
aS'1043'
p3769
aa(lp3770
I5747
aS'380'
p3771
aS'488'
p3772
aa(lp3773
I6704
aS'545'
p3774
aS'732'
p3775
aasS'3Q18'
p3776
(lp3777
(lp3778
I1924
aS'27'
p3779
aS'100'
p3780
aa(lp3781
I6764
aS'142'
p3782
aS'204'
p3783
aasS'1JEV'
p3784
(lp3785
(lp3786
I7021
aS'56'
p3787
aS'437'
p3788
aasS'4IJI'
p3789
(lp3790
(lp3791
I1924
aS'3'
aS'82'
p3792
aa(lp3793
I6764
aS'125'
p3794
aS'188'
p3795
aasS'1IDI'
p3796
(lp3797
(lp3798
I6648
aS'2'
aS'66'
p3799
aasS'3MZ9'
p3800
(lp3801
(lp3802
I7021
aS'46'
p3803
aS'411'
p3804
aasS'2CTX'
p3805
(lp3806
(lp3807
I6648
aS'2'
aS'63'
p3808
aasS'2V5D'
p3809
(lp3810
(lp3811
I826
aS'630'
p3812
aS'763'
p3813
aa(lp3814
I4872
aS'44'
p3815
aS'176'
p3816
aa(lp3817
I6395
aS'182'
p3818
aS'479'
p3819
aasS'4EZL'
p3820
(lp3821
(lp3822
I4831
aS'204'
p3823
aS'310'
p3824
aa(lp3825
I5073
aS'828'
p3826
aS'1043'
p3827
aa(lp3828
I5747
aS'380'
p3829
aS'489'
p3830
aa(lp3831
I6704
aS'544'
p3832
aS'732'
p3833
aasS'2VRT'
p3834
(lp3835
(lp3836
I1116
aS'121'
p3837
aS'391'
p3838
aa(lp3839
I2833
aS'36'
p3840
aS'118'
p3841
aasS'1XT3'
p3842
(lp3843
(lp3844
I6648
aS'3'
aS'60'
p3845
aasS'4EZK'
p3846
(lp3847
(lp3848
I4831
aS'204'
p3849
aS'310'
p3850
aa(lp3851
I5073
aS'828'
p3852
aS'1043'
p3853
aa(lp3854
I5747
aS'380'
p3855
aS'489'
p3856
aa(lp3857
I6704
aS'544'
p3858
aS'732'
p3859
aasS'4OM4'
p3860
(lp3861
(lp3862
I6648
aS'3'
aS'60'
p3863
aasS'1FAS'
p3864
(lp3865
(lp3866
I6648
aS'2'
aS'60'
p3867
aasS'4FH8'
p3868
(lp3869
(lp3870
I1099
aS'6'
aS'138'
p3871
aa(lp3872
I4104
aS'159'
p3873
aS'170'
p3874
aasS'4XE0'
p3875
(lp3876
(lp3877
I4831
aS'187'
p3878
aS'280'
p3879
aa(lp3880
I5073
aS'774'
p3881
aS'990'
p3882
aa(lp3883
I5747
aS'339'
p3884
aS'445'
p3885
aa(lp3886
I6704
aS'511'
p3887
aS'682'
p3888
aasS'3VWX'
p3889
(lp3890
(lp3891
I1924
aS'6'
aS'80'
p3892
aa(lp3893
I2159
aS'135'
p3894
aS'196'
p3895
aasS'1ZON'
p3896
(lp3897
(lp3898
I2829
aS'131'
p3899
aS'300'
p3900
aasS'1ZOO'
p3901
(lp3902
(lp3903
I2829
aS'131'
p3904
aS'300'
p3905
aasS'3UBL'
p3906
(lp3907
(lp3908
I1924
aS'4'
aS'76'
p3909
aasS'3VWV'
p3910
(lp3911
(lp3912
I1099
aS'88'
p3913
aS'216'
p3914
aa(lp3915
I4104
aS'237'
p3916
aS'255'
p3917
aasS'3UBK'
p3918
(lp3919
(lp3920
I1924
aS'4'
aS'76'
p3921
aasS'1ZOF'
p3922
(lp3923
(lp3924
I1099
aS'5'
aS'137'
p3925
aa(lp3926
I4104
aS'158'
p3927
aS'170'
p3928
aasS'3VWU'
p3929
(lp3930
(lp3931
I1099
aS'84'
p3932
aS'216'
p3933
aa(lp3934
I4104
aS'237'
p3935
aS'255'
p3936
aasS'4N0V'
p3937
(lp3938
(lp3939
I1924
aS'10'
p3940
aS'82'
p3941
aa(lp3942
I2159
aS'143'
p3943
aS'202'
p3944
aasS'2A5U'
p3945
(lp3946
(lp3947
I4831
aS'204'
p3948
aS'310'
p3949
aa(lp3950
I5073
aS'828'
p3951
aS'1043'
p3952
aa(lp3953
I5747
aS'380'
p3954
aS'489'
p3955
aa(lp3956
I6704
aS'544'
p3957
aS'732'
p3958
aasS'4OKR'
p3959
(lp3960
(lp3961
I2829
aS'76'
p3962
aS'253'
p3963
aa(lp3964
I7314
aS'274'
p3965
aS'312'
p3966
aasS'3PRZ'
p3967
(lp3968
(lp3969
I4831
aS'204'
p3970
aS'310'
p3971
aa(lp3972
I5073
aS'828'
p3973
aS'1043'
p3974
aa(lp3975
I5747
aS'380'
p3976
aS'489'
p3977
aa(lp3978
I6704
aS'544'
p3979
aS'732'
p3980
aasS'3APD'
p3981
(lp3982
(lp3983
I4831
aS'204'
p3984
aS'310'
p3985
aa(lp3986
I5073
aS'828'
p3987
aS'1043'
p3988
aa(lp3989
I5747
aS'380'
p3990
aS'489'
p3991
aa(lp3992
I6704
aS'546'
p3993
aS'732'
p3994
aasS'3APF'
p3995
(lp3996
(lp3997
I4831
aS'204'
p3998
aS'310'
p3999
aa(lp4000
I5073
aS'828'
p4001
aS'1043'
p4002
aa(lp4003
I5747
aS'380'
p4004
aS'489'
p4005
aa(lp4006
I6704
aS'547'
p4007
aS'732'
p4008
aasS'3W6G'
p4009
(lp4010
(lp4011
I1099
aS'4'
aS'134'
p4012
aa(lp4013
I4104
aS'155'
p4014
aS'194'
p4015
aasS'1SDD'
p4016
(lp4017
(lp4018
I826
aS'1881'
p4019
aS'2017'
p4020
aa(lp4021
I826
aS'2040'
p4022
aS'2177'
p4023
aa(lp4024
I3227
aS'57'
p4025
aS'166'
p4026
aa(lp4027
I3227
aS'1602'
p4028
aS'1676'
p4029
aasS'1E2Y'
p4030
(lp4031
(lp4032
I1099
aS'10'
p4033
aS'141'
p4034
aa(lp4035
I4104
aS'162'
p4036
aS'170'
p4037
aasS'3APC'
p4038
(lp4039
(lp4040
I4831
aS'204'
p4041
aS'310'
p4042
aa(lp4043
I5073
aS'828'
p4044
aS'1043'
p4045
aa(lp4046
I5747
aS'380'
p4047
aS'489'
p4048
aa(lp4049
I6704
aS'546'
p4050
aS'732'
p4051
aasS'1B6H'
p4052
(lp4053
(lp4054
I7021
aS'56'
p4055
aS'437'
p4056
aasS'3O3T'
p4057
(lp4058
(lp4059
I1924
aS'24'
p4060
aS'86'
p4061
aa(lp4062
I6764
aS'124'
p4063
aS'210'
p4064
aasS'4QIW'
p4065
(lp4066
(lp4067
I410
aS'8'
aS'77'
p4068
aa(lp4069
I1560
aS'8'
aS'39'
p4070
aa(lp4071
I1874
aS'45'
p4072
aS'147'
p4073
aa(lp4074
I2150
aS'6'
aS'310'
p4075
aa(lp4076
I2154
aS'698'
p4077
aS'804'
p4078
aa(lp4079
I2534
aS'7'
aS'79'
p4080
aa(lp4081
I2559
aS'13'
p4082
aS'86'
p4083
aa(lp4084
I2833
aS'79'
p4085
aS'154'
p4086
aa(lp4087
I3290
aS'5'
aS'51'
p4088
aa(lp4089
I3356
aS'15'
p4090
aS'246'
p4091
aa(lp4092
I3357
aS'1'
aS'58'
p4093
aa(lp4094
I3506
aS'425'
p4095
aS'489'
p4096
aa(lp4097
I4336
aS'606'
p4098
aS'646'
p4099
aa(lp4100
I4337
aS'522'
p4101
aS'585'
p4102
aa(lp4103
I4338
aS'1032'
p4104
aS'1118'
p4105
aa(lp4106
I4339
aS'654'
p4107
aS'1009'
p4108
aa(lp4109
I4340
aS'30'
p4110
aS'380'
p4111
aa(lp4112
I4342
aS'176'
p4113
aS'349'
p4114
aa(lp4115
I5408
aS'326'
p4116
aS'487'
p4117
aa(lp4118
I5409
aS'490'
p4119
aS'672'
p4120
aa(lp4121
I5415
aS'811'
p4122
aS'876'
p4123
aa(lp4124
I5415
aS'48'
p4125
aS'329'
p4126
aa(lp4127
I5642
aS'12'
p4128
aS'119'
p4129
aasS'3LE0'
p4130
(lp4131
(lp4132
I826
aS'54'
p4133
aS'172'
p4134
aasS'4A55'
p4135
(lp4136
(lp4137
I3031
aS'32'
p4138
aS'107'
p4139
aa(lp4140
I4028
aS'448'
p4141
aS'598'
p4142
aa(lp4143
I4831
aS'174'
p4144
aS'291'
p4145
aa(lp4146
I5073
aS'798'
p4147
aS'1014'
p4148
aa(lp4149
I5747
aS'352'
p4150
aS'483'
p4151
aa(lp4152
I6704
aS'526'
p4153
aS'703'
p4154
aasS'3RY3'
p4155
(lp4156
(lp4157
I7021
aS'74'
p4158
aS'427'
p4159
aasS'3TCH'
p4160
(lp4161
(lp4162
I7021
aS'83'
p4163
aS'463'
p4164
aasS'2BTX'
p4165
(lp4166
(lp4167
I6648
aS'2'
aS'66'
p4168
aasS'3IC8'
p4169
(lp4170
(lp4171
I1924
aS'6'
aS'79'
p4172
aa(lp4173
I6764
aS'150'
p4174
aS'214'
p4175
aasS'2AHE'
p4176
(lp4177
(lp4178
I1924
aS'35'
p4179
aS'97'
p4180
aa(lp4181
I6764
aS'136'
p4182
aS'221'
p4183
aasS'4A6O'
p4184
(lp4185
(lp4186
I826
aS'1219'
p4187
aS'1321'
p4188
aasS'1AO3'
p4189
(lp4190
(lp4191
I2829
aS'6'
aS'174'
p4192
aasS'2AHO'
p4193
(lp4194
(lp4195
I2828
aS'328'
p4196
aS'412'
p4197
aa(lp4198
I2833
aS'9'
aS'83'
p4199
aa(lp4200
I4654
aS'235'
p4201
aS'303'
p4202
aa(lp4203
I6226
aS'10'
p4204
aS'203'
p4205
aa(lp4206
I7551
aS'122'
p4207
aS'232'
p4208
aasS'3N2N'
p4209
(lp4210
(lp4211
I2829
aS'44'
p4212
aS'211'
p4213
aasS'3TCX'
p4214
(lp4215
(lp4216
I2829
aS'131'
p4217
aS'300'
p4218
aa(lp4219
I6224
aS'2'
aS'85'
p4220
aasS'1B05'
p4221
(lp4222
(lp4223
I7021
aS'56'
p4224
aS'437'
p4225
aasS'1JET'
p4226
(lp4227
(lp4228
I7021
aS'56'
p4229
aS'437'
p4230
aasS'1JEU'
p4231
(lp4232
(lp4233
I7021
aS'56'
p4234
aS'437'
p4235
aasS'4PNF'
p4236
(lp4237
(lp4238
I1924
aS'6'
aS'81'
p4239
aa(lp4240
I2159
aS'125'
p4241
aS'196'
p4242
aasS'4EZJ'
p4243
(lp4244
(lp4245
I4831
aS'204'
p4246
aS'310'
p4247
aa(lp4248
I5073
aS'828'
p4249
aS'1043'
p4250
aa(lp4251
I5747
aS'380'
p4252
aS'489'
p4253
aa(lp4254
I6704
aS'546'
p4255
aS'732'
p4256
aasS'1QC5'
p4257
(lp4258
(lp4259
I2829
aS'34'
p4260
aS'214'
p4261
aa(lp4262
I2829
aS'334'
p4263
aS'514'
p4264
aasS'3PLC'
p4265
(lp4266
(lp4267
I6648
aS'1'
aS'62'
p4268
aasS'1B0H'
p4269
(lp4270
(lp4271
I7021
aS'56'
p4272
aS'437'
p4273
aasS'4ANV'
p4274
(lp4275
(lp4276
I4831
aS'204'
p4277
aS'310'
p4278
aa(lp4279
I5073
aS'828'
p4280
aS'1043'
p4281
aa(lp4282
I5747
aS'380'
p4283
aS'489'
p4284
aa(lp4285
I6704
aS'544'
p4286
aS'732'
p4287
aasS'2F9S'
p4288
(lp4289
(lp4290
I1099
aS'39'
p4291
aS'154'
p4292
aasS'1XOC'
p4293
(lp4294
(lp4295
I7021
aS'65'
p4296
aS'430'
p4297
aasS'3AY8'
p4298
(lp4299
(lp4300
I1924
aS'6'
aS'80'
p4301
aa(lp4302
I6765
aS'127'
p4303
aS'188'
p4304
aasS'1QCY'
p4305
(lp4306
(lp4307
I2829
aS'144'
p4308
aS'324'
p4309
aasS'3TUE'
p4310
(lp4311
(lp4312
I1099
aS'8'
aS'141'
p4313
aa(lp4314
I4104
aS'162'
p4315
aS'169'
p4316
aasS'1MQA'
p4317
(lp4318
(lp4319
I2829
aS'131'
p4320
aS'300'
p4321
aasS'4GZ9'
p4322
(lp4323
(lp4324
I826
aS'290'
p4325
aS'421'
p4326
aa(lp4327
I826
aS'446'
p4328
aS'580'
p4329
aa(lp4330
I5635
aS'27'
p4331
aS'138'
p4332
aa(lp4333
I5635
aS'147'
p4334
aS'262'
p4335
aasS'4RN5'
p4336
(lp4337
(lp4338
I826
aS'290'
p4339
aS'421'
p4340
aasS'4DMU'
p4341
(lp4342
(lp4343
I2829
aS'1691'
p4344
aS'1859'
p4345
aa(lp4346
I4597
aS'3'
aS'127'
p4347
aa(lp4348
I4597
aS'101'
p4349
aS'227'
p4350
aasS'3LEK'
p4351
(lp4352
(lp4353
I826
aS'54'
p4354
aS'172'
p4355
aasS'3LEI'
p4356
(lp4357
(lp4358
I826
aS'54'
p4359
aS'172'
p4360
aasS'1CRF'
p4361
(lp4362
(lp4363
I6648
aS'3'
aS'60'
p4364
aasS'2ZCT'
p4365
(lp4366
(lp4367
I1099
aS'8'
aS'139'
p4368
aa(lp4369
I4104
aS'160'
p4370
aS'203'
p4371
aasS'1KFH'
p4372
(lp4373
(lp4374
I6648
aS'2'
aS'66'
p4375
aasS'1CRE'
p4376
(lp4377
(lp4378
I6648
aS'3'
aS'60'
p4379
aasS'3I97'
p4380
(lp4381
(lp4382
I826
aS'18'
p4383
aS'149'
p4384
aasS'1H0J'
p4385
(lp4386
(lp4387
I6648
aS'3'
aS'60'
p4388
aasS'3RYB'
p4389
(lp4390
(lp4391
I7021
aS'90'
p4392
aS'492'
p4393
aasS'2R7E'
p4394
(lp4395
(lp4396
I826
aS'2036'
p4397
aS'2166'
p4398
aa(lp4399
I826
aS'2189'
p4400
aS'2323'
p4401
aa(lp4402
I2580
aS'205'
p4403
aS'329'
p4404
aa(lp4405
I3227
aS'71'
p4406
aS'178'
p4407
aa(lp4408
I3227
aS'435'
p4409
aS'553'
p4410
aa(lp4411
I3228
aS'1901'
p4412
aS'2018'
p4413
aasS'4RA1'
p4414
(lp4415
(lp4416
I7021
aS'84'
p4417
aS'426'
p4418
aasS'1Q8K'
p4419
(lp4420
(lp4421
I2833
aS'13'
p4422
aS'87'
p4423
aa(lp4424
I7551
aS'129'
p4425
aS'242'
p4426
aasS'1CK4'
p4427
(lp4428
(lp4429
I2829
aS'148'
p4430
aS'328'
p4431
aasS'2QQJ'
p4432
(lp4433
(lp4434
I826
aS'292'
p4435
aS'424'
p4436
aa(lp4437
I826
aS'449'
p4438
aS'589'
p4439
aasS'2QQK'
p4440
(lp4441
(lp4442
I826
aS'292'
p4443
aS'424'
p4444
aa(lp4445
I826
aS'449'
p4446
aS'589'
p4447
aa(lp4448
I1690
aS'126'
p4449
aS'206'
p4450
aa(lp4451
I1690
aS'120'
p4452
aS'205'
p4453
aa(lp4454
I2388
aS'12'
p4455
aS'111'
p4456
aa(lp4457
I2388
aS'6'
aS'106'
p4458
aa(lp4459
I5635
aS'28'
p4460
aS'139'
p4461
aa(lp4462
I5635
aS'149'
p4463
aS'264'
p4464
aasS'2QQL'
p4465
(lp4466
(lp4467
I826
aS'292'
p4468
aS'424'
p4469
aa(lp4470
I826
aS'449'
p4471
aS'589'
p4472
aa(lp4473
I1690
aS'126'
p4474
aS'206'
p4475
aa(lp4476
I1690
aS'120'
p4477
aS'205'
p4478
aa(lp4479
I2388
aS'12'
p4480
aS'111'
p4481
aa(lp4482
I2388
aS'6'
aS'106'
p4483
aa(lp4484
I5635
aS'28'
p4485
aS'139'
p4486
aa(lp4487
I5635
aS'149'
p4488
aS'264'
p4489
aasS'2QQM'
p4490
(lp4491
(lp4492
I826
aS'290'
p4493
aS'421'
p4494
aa(lp4495
I826
aS'446'
p4496
aS'580'
p4497
aa(lp4498
I5635
aS'147'
p4499
aS'262'
p4500
aasS'2QQN'
p4501
(lp4502
(lp4503
I826
aS'290'
p4504
aS'421'
p4505
aa(lp4506
I1690
aS'126'
p4507
aS'206'
p4508
aa(lp4509
I1690
aS'120'
p4510
aS'205'
p4511
aa(lp4512
I2388
aS'12'
p4513
aS'111'
p4514
aa(lp4515
I2388
aS'6'
aS'106'
p4516
aasS'2QQO'
p4517
(lp4518
(lp4519
I826
aS'292'
p4520
aS'424'
p4521
aa(lp4522
I826
aS'449'
p4523
aS'589'
p4524
aa(lp4525
I5635
aS'149'
p4526
aS'264'
p4527
aasS'1JE9'
p4528
(lp4529
(lp4530
I6648
aS'2'
aS'60'
p4531
aasS'1CDT'
p4532
(lp4533
(lp4534
I6648
aS'3'
aS'60'
p4535
aasS'4XX5'
p4536
(lp4537
(lp4538
I4831
aS'204'
p4539
aS'310'
p4540
aa(lp4541
I5073
aS'828'
p4542
aS'1043'
p4543
aa(lp4544
I5747
aS'380'
p4545
aS'489'
p4546
aa(lp4547
I6704
aS'544'
p4548
aS'732'
p4549
aasS'3QPM'
p4550
(lp4551
(lp4552
I1099
aS'70'
p4553
aS'202'
p4554
aa(lp4555
I4104
aS'223'
p4556
aS'249'
p4557
aasS'4AIM'
p4558
(lp4559
(lp4560
I1691
aS'147'
p4561
aS'210'
p4562
aa(lp4563
I1691
aS'462'
p4564
aS'531'
p4565
aa(lp4566
I2833
aS'621'
p4567
aS'691'
p4568
aa(lp4569
I3732
aS'241'
p4570
aS'322'
p4571
aa(lp4572
I4118
aS'16'
p4573
aS'144'
p4574
aa(lp4575
I4118
aS'326'
p4576
aS'458'
p4577
aa(lp4578
I6344
aS'558'
p4579
aS'613'
p4580
aasS'4G10'
p4581
(lp4582
(lp4583
I1924
aS'10'
p4584
aS'85'
p4585
aa(lp4586
I2778
aS'99'
p4587
aS'202'
p4588
aasS'2V2G'
p4589
(lp4590
(lp4591
I1099
aS'6'
aS'140'
p4592
aa(lp4593
I4104
aS'162'
p4594
aS'199'
p4595
aasS'2H7Z'
p4596
(lp4597
(lp4598
I6648
aS'12'
p4599
aS'73'
p4600
aa(lp4601
I6648
aS'12'
p4602
aS'75'
p4603
aasS'2Y3A'
p4604
(lp4605
(lp4606
I1107
aS'616'
p4607
aS'690'
p4608
aa(lp4609
I3031
aS'36'
p4610
aS'110'
p4611
aa(lp4612
I4028
aS'441'
p4613
aS'575'
p4614
aa(lp4615
I4831
aS'176'
p4616
aS'281'
p4617
aa(lp4618
I5073
aS'794'
p4619
aS'1010'
p4620
aa(lp4621
I5747
aS'344'
p4622
aS'458'
p4623
aa(lp4624
I6704
aS'526'
p4625
aS'702'
p4626
aasS'2E2G'
p4627
(lp4628
(lp4629
I1099
aS'8'
aS'139'
p4630
aa(lp4631
I4104
aS'160'
p4632
aS'203'
p4633
aasS'2YWI'
p4634
(lp4635
(lp4636
I1099
aS'19'
p4637
aS'142'
p4638
aasS'3M3M'
p4639
(lp4640
(lp4641
I1924
aS'5'
aS'76'
p4642
aa(lp4643
I2159
aS'109'
p4644
aS'193'
p4645
aasS'2YWO'
p4646
(lp4647
(lp4648
I1099
aS'13'
p4649
aS'131'
p4650
aasS'3MJW'
p4651
(lp4652
(lp4653
I4831
aS'204'
p4654
aS'310'
p4655
aa(lp4656
I5073
aS'828'
p4657
aS'1043'
p4658
aa(lp4659
I5747
aS'380'
p4660
aS'488'
p4661
aa(lp4662
I6704
aS'544'
p4663
aS'732'
p4664
aasS'2E2M'
p4665
(lp4666
(lp4667
I1099
aS'8'
aS'139'
p4668
aa(lp4669
I4104
aS'160'
p4670
aS'203'
p4671
aasS'1OYJ'
p4672
(lp4673
(lp4674
I1924
aS'9'
aS'84'
p4675
aa(lp4676
I6764
aS'133'
p4677
aS'200'
p4678
aasS'4PNG'
p4679
(lp4680
(lp4681
I1924
aS'6'
aS'80'
p4682
aa(lp4683
I2159
aS'130'
p4684
aS'196'
p4685
aasS'3M8U'
p4686
(lp4687
(lp4688
I7021
aS'70'
p4689
aS'450'
p4690
aasS'2OK5'
p4691
(lp4692
(lp4693
I2829
aS'245'
p4694
aS'442'
p4695
aa(lp4696
I2879
aS'458'
p4697
aS'717'
p4698
aa(lp4699
I4067
aS'28'
p4700
aS'59'
p4701
aa(lp4702
I4067
aS'78'
p4703
aS'133'
p4704
aa(lp4705
I4067
aS'151'
p4706
aS'193'
p4707
aasS'2LRN'
p4708
(lp4709
(lp4710
I1099
aS'6'
aS'124'
p4711
aasS'3GKN'
p4712
(lp4713
(lp4714
I1099
aS'10'
p4715
aS'136'
p4716
aasS'3GKM'
p4717
(lp4718
(lp4719
I1099
aS'10'
p4720
aS'136'
p4721
aasS'4QDQ'
p4722
(lp4723
(lp4724
I826
aS'292'
p4725
aS'424'
p4726
aa(lp4727
I826
aS'449'
p4728
aS'589'
p4729
aasS'4AOF'
p4730
(lp4731
(lp4732
I4831
aS'204'
p4733
aS'310'
p4734
aa(lp4735
I5073
aS'828'
p4736
aS'1043'
p4737
aa(lp4738
I5747
aS'380'
p4739
aS'489'
p4740
aa(lp4741
I6704
aS'544'
p4742
aS'732'
p4743
aasS'2O7N'
p4744
(lp4745
(lp4746
I2829
aS'131'
p4747
aS'300'
p4748
aasS'4QDR'
p4749
(lp4750
(lp4751
I826
aS'292'
p4752
aS'424'
p4753
aa(lp4754
I826
aS'449'
p4755
aS'589'
p4756
aasS'1B5I'
p4757
(lp4758
(lp4759
I7021
aS'56'
p4760
aS'437'
p4761
aasS'3DRJ'
p4762
(lp4763
(lp4764
I7021
aS'90'
p4765
aS'492'
p4766
aasS'3F78'
p4767
(lp4768
(lp4769
I2829
aS'131'
p4770
aS'300'
p4771
aasS'3DRH'
p4772
(lp4773
(lp4774
I7021
aS'90'
p4775
aS'492'
p4776
aasS'3DRN'
p4777
(lp4778
(lp4779
I1099
aS'4'
aS'125'
p4780
aasS'1RTK'
p4781
(lp4782
(lp4783
I2829
aS'245'
p4784
aS'442'
p4785
aa(lp4786
I2879
aS'458'
p4787
aS'717'
p4788
aasS'3DRG'
p4789
(lp4790
(lp4791
I7021
aS'90'
p4792
aS'492'
p4793
aasS'4KB3'
p4794
(lp4795
(lp4796
I1099
aS'38'
p4797
aS'170'
p4798
aa(lp4799
I4104
aS'191'
p4800
aS'198'
p4801
aasS'3F74'
p4802
(lp4803
(lp4804
I2829
aS'131'
p4805
aS'300'
p4806
aasS'3SWL'
p4807
(lp4808
(lp4809
I1924
aS'24'
p4810
aS'86'
p4811
aa(lp4812
I6764
aS'124'
p4813
aS'210'
p4814
aasS'2XGG'
p4815
(lp4816
(lp4817
I2829
aS'76'
p4818
aS'217'
p4819
aasS'1JLM'
p4820
(lp4821
(lp4822
I2829
aS'134'
p4823
aS'311'
p4824
aasS'3E3K'
p4825
(lp4826
(lp4827
I7021
aS'46'
p4828
aS'411'
p4829
aasS'4NNH'
p4830
(lp4831
(lp4832
I2833
aS'291'
p4833
aS'363'
p4834
aasS'4NNI'
p4835
(lp4836
(lp4837
I2833
aS'291'
p4838
aS'363'
p4839
aasS'3BZC'
p4840
(lp4841
(lp4842
I2600
aS'495'
p4843
aS'559'
p4844
aa(lp4845
I2833
aS'653'
p4846
aS'724'
p4847
aa(lp4848
I4228
aS'330'
p4849
aS'455'
p4850
aa(lp4851
I5745
aS'20'
p4852
aS'203'
p4853
aasS'4NNK'
p4854
(lp4855
(lp4856
I2833
aS'291'
p4857
aS'363'
p4858
aasS'4NNG'
p4859
(lp4860
(lp4861
I2833
aS'291'
p4862
aS'363'
p4863
aasS'4P5Y'
p4864
(lp4865
(lp4866
I826
aS'24'
p4867
aS'157'
p4868
aasS'4OFJ'
p4869
(lp4870
(lp4871
I7021
aS'48'
p4872
aS'393'
p4873
aasS'4OFL'
p4874
(lp4875
(lp4876
I7021
aS'48'
p4877
aS'401'
p4878
aasS'4OFO'
p4879
(lp4880
(lp4881
I7021
aS'48'
p4882
aS'401'
p4883
aasS'3RBT'
p4884
(lp4885
(lp4886
I1924
aS'23'
p4887
aS'98'
p4888
aa(lp4889
I6764
aS'140'
p4890
aS'204'
p4891
aasS'4AG4'
p4892
(lp4893
(lp4894
I826
aS'47'
p4895
aS'182'
p4896
aa(lp4897
I1690
aS'133'
p4898
aS'205'
p4899
aa(lp4900
I1690
aS'120'
p4901
aS'205'
p4902
aa(lp4903
I2388
aS'6'
aS'111'
p4904
aa(lp4905
I2388
aS'6'
aS'105'
p4906
aasS'1B3F'
p4907
(lp4908
(lp4909
I7021
aS'56'
p4910
aS'437'
p4911
aasS'1B3G'
p4912
(lp4913
(lp4914
I7021
aS'56'
p4915
aS'437'
p4916
aasS'1VYC'
p4917
(lp4918
(lp4919
I6648
aS'1'
aS'64'
p4920
aasS'1IKC'
p4921
(lp4922
(lp4923
I6648
aS'2'
aS'66'
p4924
aasS'1SHU'
p4925
(lp4926
(lp4927
I2829
aS'44'
p4928
aS'198'
p4929
aasS'4HLE'
p4930
(lp4931
(lp4932
I4831
aS'204'
p4933
aS'310'
p4934
aa(lp4935
I5073
aS'828'
p4936
aS'1043'
p4937
aa(lp4938
I5747
aS'380'
p4939
aS'487'
p4940
aa(lp4941
I6704
aS'546'
p4942
aS'732'
p4943
aasS'1B3H'
p4944
(lp4945
(lp4946
I7021
aS'56'
p4947
aS'437'
p4948
aasS'3RYA'
p4949
(lp4950
(lp4951
I7021
aS'90'
p4952
aS'492'
p4953
aasS'1DZI'
p4954
(lp4955
(lp4956
I2829
aS'145'
p4957
aS'321'
p4958
aasS'4PQI'
p4959
(lp4960
(lp4961
I1924
aS'35'
p4962
aS'111'
p4963
aa(lp4964
I6764
aS'148'
p4965
aS'213'
p4966
aasS'4PQH'
p4967
(lp4968
(lp4969
I1924
aS'30'
p4970
aS'106'
p4971
aa(lp4972
I6764
aS'142'
p4973
aS'206'
p4974
aasS'3QAV'
p4975
(lp4976
(lp4977
I1924
aS'10'
p4978
aS'84'
p4979
aa(lp4980
I2159
aS'113'
p4981
aS'200'
p4982
aasS'2A1A'
p4983
(lp4984
(lp4985
I252
aS'267'
p4986
aS'534'
p4987
aa(lp4988
I2833
aS'13'
p4989
aS'87'
p4990
aa(lp4991
I7551
aS'125'
p4992
aS'175'
p4993
aasS'1E6B'
p4994
(lp4995
(lp4996
I1924
aS'11'
p4997
aS'88'
p4998
aasS'3C73'
p4999
(lp5000
(lp5001
I1099
aS'41'
p5002
aS'154'
p5003
aasS'3C71'
p5004
(lp5005
(lp5006
I1099
aS'40'
p5007
aS'154'
p5008
aasS'1B41'
p5009
(lp5010
(lp5011
I6648
aS'2'
aS'60'
p5012
aa(lp5013
I6910
aS'9'
aS'532'
p5014
aasS'1B40'
p5015
(lp5016
(lp5017
I7021
aS'56'
p5018
aS'437'
p5019
aasS'4AAX'
p5020
(lp5021
(lp5022
I826
aS'1364'
p5023
aS'1489'
p5024
aasS'1VR5'
p5025
(lp5026
(lp5027
I7021
aS'70'
p5028
aS'440'
p5029
aasS'1B46'
p5030
(lp5031
(lp5032
I7021
aS'56'
p5033
aS'437'
p5034
aasS'3TOT'
p5035
(lp5036
(lp5037
I1924
aS'5'
aS'77'
p5038
aa(lp5039
I1924
aS'5'
aS'77'
p5040
aa(lp5041
I6764
aS'125'
p5042
aS'191'
p5043
aa(lp5044
I6764
aS'125'
p5045
aS'191'
p5046
aasS'3TOU'
p5047
(lp5048
(lp5049
I1924
aS'5'
aS'77'
p5050
aa(lp5051
I6764
aS'125'
p5052
aS'191'
p5053
aasS'3NZS'
p5054
(lp5055
(lp5056
I4831
aS'204'
p5057
aS'310'
p5058
aa(lp5059
I5073
aS'828'
p5060
aS'1043'
p5061
aa(lp5062
I5747
aS'380'
p5063
aS'487'
p5064
aa(lp5065
I6704
aS'546'
p5066
aS'732'
p5067
aasS'4HQS'
p5068
(lp5069
(lp5070
I1099
aS'53'
p5071
aS'168'
p5072
aasS'3MW0'
p5073
(lp5074
(lp5075
I7021
aS'46'
p5076
aS'411'
p5077
aa(lp5078
I7021
aS'46'
p5079
aS'411'
p5080
aasS'2R4V'
p5081
(lp5082
(lp5083
I1924
aS'30'
p5084
aS'97'
p5085
aa(lp5086
I6764
aS'137'
p5087
aS'216'
p5088
aasS'1T0P'
p5089
(lp5090
(lp5091
I2829
aS'131'
p5092
aS'300'
p5093
aa(lp5094
I6224
aS'2'
aS'85'
p5095
aasS'1YF0'
p5096
(lp5097
(lp5098
I1099
aS'9'
aS'132'
p5099
aa(lp5100
I4104
aS'153'
p5101
aS'167'
p5102
aasS'3P2B'
p5103
(lp5104
(lp5105
I4831
aS'204'
p5106
aS'310'
p5107
aa(lp5108
I5073
aS'828'
p5109
aS'1043'
p5110
aa(lp5111
I5747
aS'380'
p5112
aS'489'
p5113
aa(lp5114
I6704
aS'547'
p5115
aS'732'
p5116
aasS'4BJ3'
p5117
(lp5118
(lp5119
I2829
aS'145'
p5120
aS'321'
p5121
aasS'4BDV'
p5122
(lp5123
(lp5124
I826
aS'2036'
p5125
aS'2166'
p5126
aa(lp5127
I826
aS'2189'
p5128
aS'2323'
p5129
aa(lp5130
I2580
aS'205'
p5131
aS'329'
p5132
aa(lp5133
I3227
aS'71'
p5134
aS'178'
p5135
aa(lp5136
I3227
aS'435'
p5137
aS'553'
p5138
aa(lp5139
I3228
aS'1911'
p5140
aS'2018'
p5141
aasS'4BDT'
p5142
(lp5143
(lp5144
I5007
aS'547'
p5145
aS'567'
p5146
aa(lp5147
I6648
aS'2'
aS'60'
p5148
aa(lp5149
I6910
aS'7'
aS'532'
p5150
aasS'4KGI'
p5151
(lp5152
(lp5153
I1924
aS'16'
p5154
aS'80'
p5155
aa(lp5156
I2159
aS'102'
p5157
aS'189'
p5158
aasS'2WUH'
p5159
(lp5160
(lp5161
I826
aS'46'
p5162
aS'182'
p5163
aasS'4KAE'
p5164
(lp5165
(lp5166
I1924
aS'5'
aS'85'
p5167
aasS'5EBX'
p5168
(lp5169
(lp5170
I6648
aS'1'
aS'61'
p5171
aasS'2ORZ'
p5172
(lp5173
(lp5174
I826
aS'290'
p5175
aS'421'
p5176
aa(lp5177
I826
aS'446'
p5178
aS'580'
p5179
aasS'2ORX'
p5180
(lp5181
(lp5182
I826
aS'290'
p5183
aS'421'
p5184
aa(lp5185
I826
aS'446'
p5186
aS'580'
p5187
aasS'1B4H'
p5188
(lp5189
(lp5190
I7021
aS'56'
p5191
aS'437'
p5192
aasS'3FEV'
p5193
(lp5194
(lp5195
I6648
aS'1'
aS'64'
p5196
aasS'4ZRX'
p5197
(lp5198
(lp5199
I826
aS'496'
p5200
aS'588'
p5201
aa(lp5202
I5825
aS'87'
p5203
aS'370'
p5204
aasS'4XKP'
p5205
(lp5206
(lp5207
I7021
aS'48'
p5208
aS'393'
p5209
aasS'2A19'
p5210
(lp5211
(lp5212
I252
aS'267'
p5213
aS'534'
p5214
aa(lp5215
I2833
aS'13'
p5216
aS'87'
p5217
aa(lp5218
I7551
aS'125'
p5219
aS'174'
p5220
aasS'3EBX'
p5221
(lp5222
(lp5223
I6648
aS'1'
aS'61'
p5224
aasS'4O7H'
p5225
(lp5226
(lp5227
I1924
aS'4'
aS'78'
p5228
aa(lp5229
I6764
aS'133'
p5230
aS'192'
p5231
aasS'4AGS'
p5232
(lp5233
(lp5234
I1924
aS'8'
aS'82'
p5235
aa(lp5236
I1924
aS'234'
p5237
aS'302'
p5238
aa(lp5239
I2778
aS'97'
p5240
aS'204'
p5241
aa(lp5242
I2778
aS'321'
p5243
aS'429'
p5244
aasS'4PQ1'
p5245
(lp5246
(lp5247
I1099
aS'58'
p5248
aS'163'
p5249
aasS'2J1E'
p5250
(lp5251
(lp5252
I826
aS'630'
p5253
aS'763'
p5254
aasS'4G2E'
p5255
(lp5256
(lp5257
I1099
aS'4'
aS'132'
p5258
aasS'1IK8'
p5259
(lp5260
(lp5261
I6648
aS'2'
aS'66'
p5262
aasS'3J2Q'
p5263
(lp5264
(lp5265
I826
aS'2036'
p5266
aS'2166'
p5267
aa(lp5268
I826
aS'2189'
p5269
aS'2323'
p5270
aa(lp5271
I2580
aS'205'
p5272
aS'329'
p5273
aa(lp5274
I3227
aS'71'
p5275
aS'178'
p5276
aa(lp5277
I3227
aS'435'
p5278
aS'553'
p5279
aa(lp5280
I3228
aS'1901'
p5281
aS'2018'
p5282
aasS'1B32'
p5283
(lp5284
(lp5285
I7021
aS'56'
p5286
aS'437'
p5287
aasS'2J1S'
p5288
(lp5289
(lp5290
I826
aS'25'
p5291
aS'135'
p5292
aasS'1CVO'
p5293
(lp5294
(lp5295
I6648
aS'1'
aS'62'
p5296
aasS'2J1V'
p5297
(lp5298
(lp5299
I826
aS'25'
p5300
aS'135'
p5301
aa(lp5302
I826
aS'25'
p5303
aS'135'
p5304
aasS'2J1U'
p5305
(lp5306
(lp5307
I826
aS'25'
p5308
aS'135'
p5309
aasS'1V6P'
p5310
(lp5311
(lp5312
I6648
aS'2'
aS'61'
p5313
aasS'3F2Z'
p5314
(lp5315
(lp5316
I826
aS'309'
p5317
aS'431'
p5318
aasS'3CQO'
p5319
(lp5320
(lp5321
I826
aS'13'
p5322
aS'133'
p5323
aa(lp5324
I826
aS'160'
p5325
aS'279'
p5326
aasS'2QQI'
p5327
(lp5328
(lp5329
I826
aS'290'
p5330
aS'421'
p5331
aa(lp5332
I826
aS'446'
p5333
aS'580'
p5334
aasS'4ANX'
p5335
(lp5336
(lp5337
I4831
aS'204'
p5338
aS'310'
p5339
aa(lp5340
I5073
aS'828'
p5341
aS'1043'
p5342
aa(lp5343
I5747
aS'380'
p5344
aS'489'
p5345
aa(lp5346
I6704
aS'544'
p5347
aS'732'
p5348
aasS'1OLA'
p5349
(lp5350
(lp5351
I7021
aS'56'
p5352
aS'437'
p5353
aasS'2NBT'
p5354
(lp5355
(lp5356
I6648
aS'1'
aS'65'
p5357
aasS'1OLC'
p5358
(lp5359
(lp5360
I7021
aS'56'
p5361
aS'437'
p5362
aasS'4BXS'
p5363
(lp5364
(lp5365
I826
aS'1132'
p5366
aS'1260'
p5367
aa(lp5368
I826
aS'1289'
p5369
aS'1424'
p5370
aa(lp5371
I2879
aS'174'
p5372
aS'405'
p5373
aa(lp5374
I2939
aS'89'
p5375
aS'124'
p5376
aa(lp5377
I3227
aS'58'
p5378
aS'167'
p5379
aa(lp5380
I3227
aS'383'
p5381
aS'500'
p5382
aa(lp5383
I3227
aS'854'
p5384
aS'928'
p5385
aasS'3P90'
p5386
(lp5387
(lp5388
I1924
aS'24'
p5389
aS'86'
p5390
aa(lp5391
I6764
aS'124'
p5392
aS'210'
p5393
aasS'1BXP'
p5394
(lp5395
(lp5396
I6648
aS'2'
aS'66'
p5397
aasS'3IR4'
p5398
(lp5399
(lp5400
I1679
aS'86'
p5401
aS'214'
p5402
aa(lp5403
I1924
aS'3'
aS'75'
p5404
aasS'1G6M'
p5405
(lp5406
(lp5407
I6648
aS'2'
aS'61'
p5408
aasS'3TJG'
p5409
(lp5410
(lp5411
I1099
aS'82'
p5412
aS'213'
p5413
aa(lp5414
I4104
aS'234'
p5415
aS'243'
p5416
aasS'4L2Y'
p5417
(lp5418
(lp5419
I1107
aS'333'
p5420
aS'408'
p5421
aa(lp5422
I3031
aS'32'
p5423
aS'107'
p5424
aa(lp5425
I4028
aS'431'
p5426
aS'598'
p5427
aa(lp5428
I4831
aS'174'
p5429
aS'291'
p5430
aa(lp5431
I5073
aS'798'
p5432
aS'1014'
p5433
aa(lp5434
I5747
aS'352'
p5435
aS'483'
p5436
aa(lp5437
I6704
aS'521'
p5438
aS'703'
p5439
aasS'2RKM'
p5440
(lp5441
(lp5442
I7021
aS'56'
p5443
aS'437'
p5444
aasS'2W94'
p5445
(lp5446
(lp5447
I826
aS'34'
p5448
aS'149'
p5449
aa(lp5450
I3025
aS'184'
p5451
aS'250'
p5452
aasS'2W95'
p5453
(lp5454
(lp5455
I826
aS'34'
p5456
aS'149'
p5457
aa(lp5458
I3025
aS'184'
p5459
aS'250'
p5460
aasS'4OER'
p5461
(lp5462
(lp5463
I7021
aS'43'
p5464
aS'409'
p5465
aasS'4OES'
p5466
(lp5467
(lp5468
I7021
aS'43'
p5469
aS'409'
p5470
aasS'4OET'
p5471
(lp5472
(lp5473
I7021
aS'46'
p5474
aS'400'
p5475
aasS'4OEU'
p5476
(lp5477
(lp5478
I7021
aS'46'
p5479
aS'400'
p5480
aasS'4OEV'
p5481
(lp5482
(lp5483
I7021
aS'46'
p5484
aS'400'
p5485
aasS'3KJY'
p5486
(lp5487
(lp5488
I1924
aS'21'
p5489
aS'88'
p5490
aa(lp5491
I6764
aS'126'
p5492
aS'207'
p5493
aasS'1QQ2'
p5494
(lp5495
(lp5496
I1099
aS'8'
aS'141'
p5497
aa(lp5498
I4104
aS'162'
p5499
aS'175'
p5500
aasS'2V6K'
p5501
(lp5502
(lp5503
I1924
aS'3'
aS'79'
p5504
aasS'1KL8'
p5505
(lp5506
(lp5507
I6648
aS'2'
aS'66'
p5508
aasS'1ZZO'
p5509
(lp5510
(lp5511
I1099
aS'51'
p5512
aS'159'
p5513
aasS'2WB1'
p5514
(lp5515
(lp5516
I410
aS'10'
p5517
aS'77'
p5518
aa(lp5519
I1770
aS'10'
p5520
aS'117'
p5521
aa(lp5522
I1874
aS'44'
p5523
aS'156'
p5524
aa(lp5525
I2150
aS'4'
aS'313'
p5526
aa(lp5527
I2154
aS'677'
p5528
aS'782'
p5529
aa(lp5530
I2534
aS'14'
p5531
aS'81'
p5532
aa(lp5533
I2559
aS'13'
p5534
aS'82'
p5535
aa(lp5536
I2833
aS'82'
p5537
aS'151'
p5538
aa(lp5539
I3290
aS'22'
p5540
aS'76'
p5541
aa(lp5542
I3356
aS'17'
p5543
aS'252'
p5544
aa(lp5545
I3357
aS'1'
aS'58'
p5546
aa(lp5547
I3506
aS'415'
p5548
aS'479'
p5549
aa(lp5550
I4336
aS'607'
p5551
aS'645'
p5552
aa(lp5553
I4337
aS'523'
p5554
aS'585'
p5555
aa(lp5556
I4338
aS'1027'
p5557
aS'1118'
p5558
aa(lp5559
I4339
aS'655'
p5560
aS'1025'
p5561
aa(lp5562
I4340
aS'25'
p5563
aS'394'
p5564
aa(lp5565
I4342
aS'172'
p5566
aS'347'
p5567
aa(lp5568
I4457
aS'47'
p5569
aS'59'
p5570
aa(lp5571
I5408
aS'315'
p5572
aS'482'
p5573
aa(lp5574
I5409
aS'485'
p5575
aS'651'
p5576
aa(lp5577
I5415
aS'789'
p5578
aS'855'
p5579
aa(lp5580
I5415
aS'27'
p5581
aS'340'
p5582
aa(lp5583
I5642
aS'28'
p5584
aS'93'
p5585
aasS'2QC1'
p5586
(lp5587
(lp5588
I4273
aS'4'
aS'210'
p5589
aa(lp5590
I6648
aS'2'
aS'66'
p5591
aasS'1KL9'
p5592
(lp5593
(lp5594
I2833
aS'13'
p5595
aS'87'
p5596
aa(lp5597
I7551
aS'129'
p5598
aS'182'
p5599
aasS'3LEG'
p5600
(lp5601
(lp5602
I826
aS'54'
p5603
aS'172'
p5604
aasS'1W6B'
p5605
(lp5606
(lp5607
I6648
aS'2'
aS'65'
p5608
aasS'3LOR'
p5609
(lp5610
(lp5611
I1099
aS'6'
aS'135'
p5612
aasS'1MHP'
p5613
(lp5614
(lp5615
I1690
aS'131'
p5616
aS'211'
p5617
aa(lp5618
I1690
aS'119'
p5619
aS'204'
p5620
aa(lp5621
I2388
aS'12'
p5622
aS'116'
p5623
aa(lp5624
I2388
aS'6'
aS'105'
p5625
aa(lp5626
I2829
aS'148'
p5627
aS'328'
p5628
aasS'3ZVV'
p5629
(lp5630
(lp5631
I4831
aS'204'
p5632
aS'310'
p5633
aa(lp5634
I5073
aS'828'
p5635
aS'1043'
p5636
aa(lp5637
I5747
aS'380'
p5638
aS'489'
p5639
aa(lp5640
I6704
aS'544'
p5641
aS'732'
p5642
aasS'2KHI'
p5643
(lp5644
(lp5645
I2833
aS'275'
p5646
aS'346'
p5647
aasS'3ZVJ'
p5648
(lp5649
(lp5650
I1099
aS'6'
aS'137'
p5651
aa(lp5652
I1099
aS'6'
aS'137'
p5653
aa(lp5654
I4104
aS'158'
p5655
aS'165'
p5656
aa(lp5657
I4104
aS'158'
p5658
aS'168'
p5659
aasS'4KH7'
p5660
(lp5661
(lp5662
I1924
aS'5'
aS'81'
p5663
aa(lp5664
I6764
aS'127'
p5665
aS'191'
p5666
aasS'1GOH'
p5667
(lp5668
(lp5669
I635
aS'543'
p5670
aS'637'
p5671
aa(lp5672
I826
aS'16'
p5673
aS'143'
p5674
aa(lp5675
I3558
aS'273'
p5676
aS'314'
p5677
aasS'3K6S'
p5678
(lp5679
(lp5680
I2032
aS'10'
p5681
aS'425'
p5682
aa(lp5683
I2829
aS'132'
p5684
aS'309'
p5685
aa(lp5686
I3368
aS'596'
p5687
aS'963'
p5688
aa(lp5689
I6798
aS'439'
p5690
aS'475'
p5691
aa(lp5692
I6798
aS'502'
p5693
aS'537'
p5694
aa(lp5695
I6809
aS'600'
p5696
aS'674'
p5697
aasS'1GOG'
p5698
(lp5699
(lp5700
I635
aS'543'
p5701
aS'637'
p5702
aa(lp5703
I826
aS'16'
p5704
aS'143'
p5705
aa(lp5706
I3558
aS'273'
p5707
aS'314'
p5708
aasS'2JQP'
p5709
(lp5710
(lp5711
I6648
aS'1'
aS'64'
p5712
aasS'1MQ9'
p5713
(lp5714
(lp5715
I2829
aS'131'
p5716
aS'300'
p5717
aasS'1MQ8'
p5718
(lp5719
(lp5720
I2829
aS'131'
p5721
aS'298'
p5722
aa(lp5723
I6224
aS'1'
aS'88'
p5724
aasS'1F94'
p5725
(lp5726
(lp5727
I6648
aS'2'
aS'62'
p5728
aasS'4IBP'
p5729
(lp5730
(lp5731
I1924
aS'3'
aS'82'
p5732
aa(lp5733
I6764
aS'125'
p5734
aS'188'
p5735
aasS'3LVU'
p5736
(lp5737
(lp5738
I7021
aS'313'
p5739
aS'513'
p5740
aasS'4L23'
p5741
(lp5742
(lp5743
I1107
aS'333'
p5744
aS'408'
p5745
aa(lp5746
I3031
aS'32'
p5747
aS'107'
p5748
aa(lp5749
I4028
aS'431'
p5750
aS'598'
p5751
aa(lp5752
I4831
aS'174'
p5753
aS'291'
p5754
aa(lp5755
I5073
aS'798'
p5756
aS'1014'
p5757
aa(lp5758
I5747
aS'352'
p5759
aS'483'
p5760
aa(lp5761
I6704
aS'521'
p5762
aS'703'
p5763
aasS'3HOB'
p5764
(lp5765
(lp5766
I826
aS'2189'
p5767
aS'2323'
p5768
aasS'1AOX'
p5769
(lp5770
(lp5771
I2829
aS'145'
p5772
aS'321'
p5773
aasS'2VZ3'
p5774
(lp5775
(lp5776
I635
aS'543'
p5777
aS'637'
p5778
aa(lp5779
I826
aS'16'
p5780
aS'143'
p5781
aa(lp5782
I3558
aS'273'
p5783
aS'314'
p5784
aasS'2VZ1'
p5785
(lp5786
(lp5787
I635
aS'543'
p5788
aS'637'
p5789
aa(lp5790
I826
aS'16'
p5791
aS'143'
p5792
aa(lp5793
I3558
aS'273'
p5794
aS'314'
p5795
aasS'1COE'
p5796
(lp5797
(lp5798
I6648
aS'2'
aS'61'
p5799
aasS'1TGX'
p5800
(lp5801
(lp5802
I6648
aS'3'
aS'60'
p5803
aasS'4G11'
p5804
(lp5805
(lp5806
I4831
aS'204'
p5807
aS'310'
p5808
aa(lp5809
I5073
aS'828'
p5810
aS'1043'
p5811
aa(lp5812
I5747
aS'380'
p5813
aS'489'
p5814
aa(lp5815
I6704
aS'544'
p5816
aS'732'
p5817
aasS'1B7H'
p5818
(lp5819
(lp5820
I7021
aS'56'
p5821
aS'437'
p5822
aasS'4MA9'
p5823
(lp5824
(lp5825
I1099
aS'9'
aS'132'
p5826
aa(lp5827
I4104
aS'153'
p5828
aS'163'
p5829
aasS'4GLT'
p5830
(lp5831
(lp5832
I1924
aS'3'
aS'75'
p5833
aa(lp5834
I6764
aS'121'
p5835
aS'188'
p5836
aasS'3S2A'
p5837
(lp5838
(lp5839
I4831
aS'204'
p5840
aS'310'
p5841
aa(lp5842
I5073
aS'828'
p5843
aS'1043'
p5844
aa(lp5845
I5747
aS'380'
p5846
aS'488'
p5847
aa(lp5848
I6704
aS'546'
p5849
aS'732'
p5850
aasS'2D2Z'
p5851
(lp5852
(lp5853
I1924
aS'35'
p5854
aS'97'
p5855
aa(lp5856
I6764
aS'136'
p5857
aS'221'
p5858
aasS'1YF1'
p5859
(lp5860
(lp5861
I1099
aS'9'
aS'132'
p5862
aa(lp5863
I4104
aS'153'
p5864
aS'166'
p5865
aasS'1K12'
p5866
(lp5867
(lp5868
I826
aS'17'
p5869
aS'139'
p5870
aasS'1ZU0'
p5871
(lp5872
(lp5873
I7021
aS'48'
p5874
aS'418'
p5875
aasS'5AE9'
p5876
(lp5877
(lp5878
I4831
aS'187'
p5879
aS'280'
p5880
aa(lp5881
I5073
aS'774'
p5882
aS'990'
p5883
aa(lp5884
I5747
aS'339'
p5885
aS'445'
p5886
aa(lp5887
I6704
aS'503'
p5888
aS'682'
p5889
aasS'5AE8'
p5890
(lp5891
(lp5892
I4831
aS'187'
p5893
aS'280'
p5894
aa(lp5895
I5073
aS'774'
p5896
aS'990'
p5897
aa(lp5898
I5747
aS'339'
p5899
aS'445'
p5900
aa(lp5901
I6704
aS'503'
p5902
aS'682'
p5903
aasS'1TXA'
p5904
(lp5905
(lp5906
I6648
aS'2'
aS'64'
p5907
aasS'1KU6'
p5908
(lp5909
(lp5910
I6648
aS'2'
aS'60'
p5911
aa(lp5912
I6910
aS'8'
aS'532'
p5913
aasS'1SLJ'
p5914
(lp5915
(lp5916
I2833
aS'36'
p5917
aS'118'
p5918
aasS'2WOL'
p5919
(lp5920
(lp5921
I7021
aS'82'
p5922
aS'472'
p5923
aasS'2WOP'
p5924
(lp5925
(lp5926
I7021
aS'82'
p5927
aS'472'
p5928
aasS'4IYE'
p5929
(lp5930
(lp5931
I6648
aS'1'
aS'64'
p5932
aasS'1HAA'
p5933
(lp5934
(lp5935
I6648
aS'2'
aS'66'
p5936
aasS'3EYT'
p5937
(lp5938
(lp5939
I1099
aS'2'
aS'129'
p5940
aasS'2ODQ'
p5941
(lp5942
(lp5943
I2829
aS'234'
p5944
aS'430'
p5945
aa(lp5946
I2879
aS'453'
p5947
aS'683'
p5948
aasS'2VC9'
p5949
(lp5950
(lp5951
I826
aS'36'
p5952
aS'149'
p5953
aa(lp5954
I2546
aS'627'
p5955
aS'880'
p5956
aa(lp5957
I2548
aS'198'
p5958
aS'280'
p5959
aa(lp5960
I5399
aS'295'
p5961
aS'619'
p5962
aasS'1HAJ'
p5963
(lp5964
(lp5965
I6648
aS'2'
aS'66'
p5966
aasS'2MFA'
p5967
(lp5968
(lp5969
I6648
aS'2'
aS'56'
p5970
aasS'4KE3'
p5971
(lp5972
(lp5973
I1924
aS'6'
aS'80'
p5974
aa(lp5975
I2159
aS'112'
p5976
aS'196'
p5977
aasS'2ERA'
p5978
(lp5979
(lp5980
I6648
aS'1'
aS'61'
p5981
aasS'1XCC'
p5982
(lp5983
(lp5984
I1099
aS'6'
aS'142'
p5985
aa(lp5986
I4104
aS'163'
p5987
aS'201'
p5988
aasS'2MFI'
p5989
(lp5990
(lp5991
I2833
aS'19'
p5992
aS'82'
p5993
aasS'2JD9'
p5994
(lp5995
(lp5996
I826
aS'13'
p5997
aS'131'
p5998
aasS'1TXB'
p5999
(lp6000
(lp6001
I6648
aS'2'
aS'64'
p6002
aasS'4JSO'
p6003
(lp6004
(lp6005
I7021
aS'50'
p6006
aS'442'
p6007
aasS'4KCE'
p6008
(lp6009
(lp6010
I1099
aS'38'
p6011
aS'170'
p6012
aa(lp6013
I4104
aS'191'
p6014
aS'207'
p6015
aasS'3EOA'
p6016
(lp6017
(lp6018
I1690
aS'120'
p6019
aS'205'
p6020
aa(lp6021
I1690
aS'134'
p6022
aS'214'
p6023
aa(lp6024
I2388
aS'6'
aS'106'
p6025
aa(lp6026
I2388
aS'12'
p6027
aS'119'
p6028
aa(lp6029
I2829
aS'131'
p6030
aS'300'
p6031
aasS'3KCM'
p6032
(lp6033
(lp6034
I1099
aS'30'
p6035
aS'143'
p6036
aasS'3EOB'
p6037
(lp6038
(lp6039
I1690
aS'120'
p6040
aS'205'
p6041
aa(lp6042
I1690
aS'134'
p6043
aS'214'
p6044
aa(lp6045
I2388
aS'6'
aS'106'
p6046
aa(lp6047
I2388
aS'12'
p6048
aS'119'
p6049
aa(lp6050
I2829
aS'131'
p6051
aS'300'
p6052
aasS'2YWN'
p6053
(lp6054
(lp6055
I1099
aS'4'
aS'132'
p6056
aasS'1SHT'
p6057
(lp6058
(lp6059
I2829
aS'44'
p6060
aS'198'
p6061
aasS'1NOR'
p6062
(lp6063
(lp6064
I6648
aS'2'
aS'60'
p6065
aasS'2OLB'
p6066
(lp6067
(lp6068
I7021
aS'56'
p6069
aS'437'
p6070
aasS'1QKA'
p6071
(lp6072
(lp6073
I7021
aS'56'
p6074
aS'437'
p6075
aasS'2LS6'
p6076
(lp6077
(lp6078
I826
aS'38'
p6079
aS'150'
p6080
aasS'3M0F'
p6081
(lp6082
(lp6083
I1924
aS'5'
aS'78'
p6084
aasS'1QKD'
p6085
(lp6086
(lp6087
I6648
aS'1'
aS'61'
p6088
aasS'1CZS'
p6089
(lp6090
(lp6091
I826
aS'16'
p6092
aS'153'
p6093
aasS'1LSI'
p6094
(lp6095
(lp6096
I6648
aS'2'
aS'63'
p6097
aasS'1CZV'
p6098
(lp6099
(lp6100
I826
aS'16'
p6101
aS'153'
p6102
aasS'1CZT'
p6103
(lp6104
(lp6105
I826
aS'16'
p6106
aS'153'
p6107
aasS'1COD'
p6108
(lp6109
(lp6110
I6648
aS'2'
aS'61'
p6111
aasS'1V2A'
p6112
(lp6113
(lp6114
I1924
aS'4'
aS'76'
p6115
aa(lp6116
I2159
aS'115'
p6117
aS'186'
p6118
aasS'1FSS'
p6119
(lp6120
(lp6121
I6648
aS'2'
aS'60'
p6122
aa(lp6123
I6910
aS'5'
aS'524'
p6124
aasS'2VLW'
p6125
(lp6126
(lp6127
I6648
aS'1'
aS'64'
p6128
aasS'3NDS'
p6129
(lp6130
(lp6131
I6648
aS'2'
aS'61'
p6132
aasS'3GH6'
p6133
(lp6134
(lp6135
I1924
aS'3'
aS'78'
p6136
aa(lp6137
I2159
aS'114'
p6138
aS'186'
p6139
aasS'4JED'
p6140
(lp6141
(lp6142
I1924
aS'8'
aS'83'
p6143
aa(lp6144
I6764
aS'126'
p6145
aS'193'
p6146
aasS'2Z9S'
p6147
(lp6148
(lp6149
I1099
aS'8'
aS'141'
p6150
aa(lp6151
I4104
aS'162'
p6152
aS'196'
p6153
aasS'3Q19'
p6154
(lp6155
(lp6156
I1924
aS'27'
p6157
aS'100'
p6158
aa(lp6159
I6764
aS'142'
p6160
aS'204'
p6161
aasS'3T66'
p6162
(lp6163
(lp6164
I7021
aS'54'
p6165
aS'406'
p6166
aasS'3O6P'
p6167
(lp6168
(lp6169
I7021
aS'301'
p6170
aS'474'
p6171
aasS'2ABX'
p6172
(lp6173
(lp6174
I6648
aS'2'
aS'66'
p6175
aasS'4EY8'
p6176
(lp6177
(lp6178
I6648
aS'2'
aS'60'
p6179
aa(lp6180
I6910
aS'7'
aS'532'
p6181
aasS'3NZU'
p6182
(lp6183
(lp6184
I4831
aS'204'
p6185
aS'310'
p6186
aa(lp6187
I5073
aS'828'
p6188
aS'1043'
p6189
aa(lp6190
I5747
aS'380'
p6191
aS'487'
p6192
aa(lp6193
I6704
aS'546'
p6194
aS'732'
p6195
aasS'1L2F'
p6196
(lp6197
(lp6198
I1145
aS'5'
aS'124'
p6199
aa(lp6200
I2833
aS'134'
p6201
aS'192'
p6202
aa(lp6203
I6347
aS'229'
p6204
aS'297'
p6205
aasS'4QFK'
p6206
(lp6207
(lp6208
I7021
aS'74'
p6209
aS'452'
p6210
aasS'4HOJ'
p6211
(lp6212
(lp6213
I1924
aS'4'
aS'77'
p6214
aa(lp6215
I2159
aS'113'
p6216
aS'186'
p6217
aasS'2LA1'
p6218
(lp6219
(lp6220
I6648
aS'1'
aS'58'
p6221
aasS'3TB2'
p6222
(lp6223
(lp6224
I1099
aS'6'
aS'142'
p6225
aa(lp6226
I4104
aS'163'
p6227
aS'201'
p6228
aasS'3UVH'
p6229
(lp6230
(lp6231
I1924
aS'24'
p6232
aS'86'
p6233
aa(lp6234
I6764
aS'124'
p6235
aS'210'
p6236
aasS'1EEM'
p6237
(lp6238
(lp6239
I1924
aS'27'
p6240
aS'100'
p6241
aa(lp6242
I2159
aS'130'
p6243
aS'208'
p6244
aasS'4K1F'
p6245
(lp6246
(lp6247
I1099
aS'8'
aS'141'
p6248
aa(lp6249
I4104
aS'162'
p6250
aS'197'
p6251
aasS'4MH3'
p6252
(lp6253
(lp6254
I1099
aS'4'
aS'136'
p6255
aa(lp6256
I4104
aS'157'
p6257
aS'166'
p6258
aasS'1YY7'
p6259
(lp6260
(lp6261
I1924
aS'13'
p6262
aS'87'
p6263
aa(lp6264
I2159
aS'105'
p6265
aS'194'
p6266
aasS'4KZ0'
p6267
(lp6268
(lp6269
I4831
aS'204'
p6270
aS'310'
p6271
aa(lp6272
I5073
aS'828'
p6273
aS'1043'
p6274
aa(lp6275
I5747
aS'380'
p6276
aS'487'
p6277
aa(lp6278
I6704
aS'546'
p6279
aS'732'
p6280
aasS'4MH2'
p6281
(lp6282
(lp6283
I1099
aS'4'
aS'136'
p6284
aa(lp6285
I4104
aS'157'
p6286
aS'165'
p6287
aasS'3PPW'
p6288
(lp6289
(lp6290
I2829
aS'1498'
p6291
aS'1646'
p6292
aasS'1CXO'
p6293
(lp6294
(lp6295
I6648
aS'3'
aS'60'
p6296
aasS'3J81'
p6297
(lp6298
(lp6299
I82
aS'32'
p6300
aS'94'
p6301
aa(lp6302
I125
aS'24'
p6303
aS'102'
p6304
aa(lp6305
I143
aS'17'
p6306
aS'112'
p6307
aa(lp6308
I143
aS'116'
p6309
aS'181'
p6310
aa(lp6311
I145
aS'8'
aS'61'
p6312
aa(lp6313
I147
aS'81'
p6314
aS'145'
p6315
aa(lp6316
I512
aS'2'
aS'60'
p6317
aa(lp6318
I625
aS'6'
aS'66'
p6319
aa(lp6320
I672
aS'2'
aS'185'
p6321
aa(lp6322
I1127
aS'212'
p6323
aS'258'
p6324
aa(lp6325
I2417
aS'178'
p6326
aS'211'
p6327
aa(lp6328
I2446
aS'107'
p6329
aS'188'
p6330
aa(lp6331
I2502
aS'3'
aS'39'
p6332
aa(lp6333
I2828
aS'429'
p6334
aS'517'
p6335
aa(lp6336
I2833
aS'14'
p6337
aS'88'
p6338
aa(lp6339
I2835
aS'107'
p6340
aS'151'
p6341
aa(lp6342
I2835
aS'43'
p6343
aS'90'
p6344
aa(lp6345
I3282
aS'10'
p6346
aS'186'
p6347
aa(lp6348
I3544
aS'16'
p6349
aS'144'
p6350
aa(lp6351
I3545
aS'23'
p6352
aS'116'
p6353
aa(lp6354
I3548
aS'73'
p6355
aS'141'
p6356
aa(lp6357
I3549
aS'7'
aS'56'
p6358
aa(lp6359
I3550
aS'74'
p6360
aS'147'
p6361
aa(lp6362
I3767
aS'19'
p6363
aS'221'
p6364
aa(lp6365
I3809
aS'165'
p6366
aS'235'
p6367
aa(lp6368
I3813
aS'8'
aS'60'
p6369
aa(lp6370
I4304
aS'8'
aS'71'
p6371
aa(lp6372
I4654
aS'339'
p6373
aS'417'
p6374
aa(lp6375
I4667
aS'5'
aS'140'
p6376
aa(lp6377
I4935
aS'2'
aS'116'
p6378
aa(lp6379
I5041
aS'6'
aS'130'
p6380
aa(lp6381
I5042
aS'11'
p6382
aS'143'
p6383
aa(lp6384
I5050
aS'85'
p6385
aS'227'
p6386
aa(lp6387
I5532
aS'11'
p6388
aS'144'
p6389
aa(lp6390
I5807
aS'1'
aS'80'
p6391
aa(lp6392
I6226
aS'100'
p6393
aS'303'
p6394
aa(lp6395
I6235
aS'1'
aS'25'
p6396
aa(lp6397
I6345
aS'20'
p6398
aS'92'
p6399
aa(lp6400
I6388
aS'3'
aS'92'
p6401
aa(lp6402
I6403
aS'15'
p6403
aS'133'
p6404
aa(lp6405
I6412
aS'47'
p6406
aS'128'
p6407
aa(lp6408
I6625
aS'20'
p6409
aS'113'
p6410
aa(lp6411
I6680
aS'95'
p6412
aS'169'
p6413
aa(lp6414
I6742
aS'23'
p6415
aS'98'
p6416
aa(lp6417
I6925
aS'1'
aS'126'
p6418
aa(lp6419
I7161
aS'36'
p6420
aS'104'
p6421
aa(lp6422
I7213
aS'12'
p6423
aS'46'
p6424
aa(lp6425
I7213
aS'57'
p6426
aS'94'
p6427
aa(lp6428
I7213
aS'104'
p6429
aS'136'
p6430
aa(lp6431
I7213
aS'139'
p6432
aS'187'
p6433
aa(lp6434
I7213
aS'198'
p6435
aS'231'
p6436
aa(lp6437
I7397
aS'28'
p6438
aS'82'
p6439
aa(lp6440
I7432
aS'2'
aS'98'
p6441
aa(lp6442
I7504
aS'102'
p6443
aS'145'
p6444
aa(lp6445
I7551
aS'126'
p6446
aS'237'
p6447
aasS'1RRK'
p6448
(lp6449
(lp6450
I2829
aS'245'
p6451
aS'442'
p6452
aa(lp6453
I2879
aS'458'
p6454
aS'717'
p6455
aasS'2CVB'
p6456
(lp6457
(lp6458
I1099
aS'13'
p6459
aS'131'
p6460
aasS'3HJP'
p6461
(lp6462
(lp6463
I1099
aS'4'
aS'133'
p6464
aasS'2A4V'
p6465
(lp6466
(lp6467
I1099
aS'65'
p6468
aS'185'
p6469
aasS'1NTN'
p6470
(lp6471
(lp6472
I6648
aS'2'
aS'64'
p6473
aasS'1E3P'
p6474
(lp6475
(lp6476
I1691
aS'483'
p6477
aS'557'
p6478
aa(lp6479
I2833
aS'656'
p6480
aS'717'
p6481
aa(lp6482
I3732
aS'267'
p6483
aS'343'
p6484
aa(lp6485
I4118
aS'20'
p6486
aS'151'
p6487
aa(lp6488
I4118
aS'348'
p6489
aS'480'
p6490
aa(lp6491
I6344
aS'583'
p6492
aS'634'
p6493
aasS'4TOI'
p6494
(lp6495
(lp6496
I143
aS'9'
aS'224'
p6497
aa(lp6498
I2833
aS'258'
p6499
aS'311'
p6500
aasS'2CV4'
p6501
(lp6502
(lp6503
I1099
aS'8'
aS'139'
p6504
aa(lp6505
I4104
aS'160'
p6506
aS'203'
p6507
aasS'1I02'
p6508
(lp6509
(lp6510
I6648
aS'3'
aS'60'
p6511
aasS'2A4Z'
p6512
(lp6513
(lp6514
I4831
aS'204'
p6515
aS'310'
p6516
aa(lp6517
I5073
aS'828'
p6518
aS'1043'
p6519
aa(lp6520
I5747
aS'380'
p6521
aS'488'
p6522
aa(lp6523
I6704
aS'544'
p6524
aS'732'
p6525
aasS'3TKP'
p6526
(lp6527
(lp6528
I1099
aS'45'
p6529
aS'176'
p6530
aa(lp6531
I4104
aS'197'
p6532
aS'225'
p6533
aasS'3TKQ'
p6534
(lp6535
(lp6536
I1099
aS'45'
p6537
aS'176'
p6538
aa(lp6539
I4104
aS'197'
p6540
aS'225'
p6541
aasS'3TKR'
p6542
(lp6543
(lp6544
I1099
aS'45'
p6545
aS'176'
p6546
aa(lp6547
I4104
aS'197'
p6548
aS'225'
p6549
aasS'3TKS'
p6550
(lp6551
(lp6552
I1099
aS'45'
p6553
aS'176'
p6554
aa(lp6555
I1099
aS'45'
p6556
aS'176'
p6557
aa(lp6558
I1099
aS'45'
p6559
aS'176'
p6560
aa(lp6561
I4104
aS'197'
p6562
aS'225'
p6563
aa(lp6564
I4104
aS'197'
p6565
aS'225'
p6566
aa(lp6567
I4104
aS'197'
p6568
aS'225'
p6569
aasS'2HYX'
p6570
(lp6571
(lp6572
I1099
aS'412'
p6573
aS'522'
p6574
aasS'2O7I'
p6575
(lp6576
(lp6577
I7021
aS'51'
p6578
aS'443'
p6579
aasS'2OCE'
p6580
(lp6581
(lp6582
I2600
aS'495'
p6583
aS'559'
p6584
aa(lp6585
I2833
aS'653'
p6586
aS'724'
p6587
aa(lp6588
I4228
aS'330'
p6589
aS'455'
p6590
aa(lp6591
I5745
aS'20'
p6592
aS'203'
p6593
aasS'4KZC'
p6594
(lp6595
(lp6596
I4831
aS'204'
p6597
aS'310'
p6598
aa(lp6599
I5073
aS'828'
p6600
aS'1043'
p6601
aa(lp6602
I5747
aS'380'
p6603
aS'489'
p6604
aa(lp6605
I6704
aS'544'
p6606
aS'732'
p6607
aasS'4TOZ'
p6608
(lp6609
(lp6610
I7021
aS'77'
p6611
aS'453'
p6612
aasS'1XXU'
p6613
(lp6614
(lp6615
I1099
aS'4'
aS'129'
p6616
aasS'3BBY'
p6617
(lp6618
(lp6619
I1924
aS'15'
p6620
aS'86'
p6621
aa(lp6622
I6762
aS'95'
p6623
aS'211'
p6624
aasS'3O9P'
p6625
(lp6626
(lp6627
I7021
aS'55'
p6628
aS'431'
p6629
aasS'3GKK'
p6630
(lp6631
(lp6632
I1099
aS'10'
p6633
aS'136'
p6634
aasS'1DPP'
p6635
(lp6636
(lp6637
I7021
aS'45'
p6638
aS'425'
p6639
aasS'4GB9'
p6640
(lp6641
(lp6642
I4831
aS'204'
p6643
aS'310'
p6644
aa(lp6645
I5073
aS'828'
p6646
aS'1043'
p6647
aa(lp6648
I5747
aS'380'
p6649
aS'489'
p6650
aa(lp6651
I6704
aS'545'
p6652
aS'732'
p6653
aasS'3CBU'
p6654
(lp6655
(lp6656
I1924
aS'4'
aS'74'
p6657
aa(lp6658
I6764
aS'118'
p6659
aS'180'
p6660
aasS'2CHW'
p6661
(lp6662
(lp6663
I4831
aS'204'
p6664
aS'310'
p6665
aa(lp6666
I5073
aS'828'
p6667
aS'1043'
p6668
aa(lp6669
I5747
aS'380'
p6670
aS'489'
p6671
aa(lp6672
I6704
aS'544'
p6673
aS'732'
p6674
aasS'2CHX'
p6675
(lp6676
(lp6677
I4831
aS'204'
p6678
aS'310'
p6679
aa(lp6680
I5073
aS'828'
p6681
aS'1043'
p6682
aa(lp6683
I5747
aS'380'
p6684
aS'489'
p6685
aa(lp6686
I6704
aS'544'
p6687
aS'732'
p6688
aasS'2CHZ'
p6689
(lp6690
(lp6691
I4831
aS'204'
p6692
aS'310'
p6693
aa(lp6694
I5073
aS'828'
p6695
aS'1043'
p6696
aa(lp6697
I5747
aS'380'
p6698
aS'489'
p6699
aa(lp6700
I6704
aS'544'
p6701
aS'732'
p6702
aasS'1DPE'
p6703
(lp6704
(lp6705
I7021
aS'45'
p6706
aS'425'
p6707
aasS'1MF7'
p6708
(lp6709
(lp6710
I2829
aS'134'
p6711
aS'311'
p6712
aasS'4XKQ'
p6713
(lp6714
(lp6715
I7021
aS'48'
p6716
aS'393'
p6717
aasS'3DRK'
p6718
(lp6719
(lp6720
I7021
aS'90'
p6721
aS'492'
p6722
aasS'3F6F'
p6723
(lp6724
(lp6725
I1924
aS'3'
aS'78'
p6726
aa(lp6727
I2159
aS'114'
p6728
aS'186'
p6729
aasS'4ISD'
p6730
(lp6731
(lp6732
I1924
aS'14'
p6733
aS'86'
p6734
aa(lp6735
I6762
aS'95'
p6736
aS'206'
p6737
aasS'4OKU'
p6738
(lp6739
(lp6740
I2829
aS'76'
p6741
aS'253'
p6742
aa(lp6743
I7314
aS'274'
p6744
aS'312'
p6745
aasS'1N9Z'
p6746
(lp6747
(lp6748
I2829
aS'134'
p6749
aS'311'
p6750
aasS'3HXO'
p6751
(lp6752
(lp6753
I2829
aS'514'
p6754
aS'686'
p6755
aasS'4PUR'
p6756
(lp6757
(lp6758
I1924
aS'3'
aS'80'
p6759
aasS'3DRI'
p6760
(lp6761
(lp6762
I7021
aS'90'
p6763
aS'492'
p6764
aasS'4FJY'
p6765
(lp6766
(lp6767
I4831
aS'204'
p6768
aS'310'
p6769
aa(lp6770
I5073
aS'828'
p6771
aS'1043'
p6772
aa(lp6773
I5747
aS'380'
p6774
aS'488'
p6775
aa(lp6776
I6704
aS'544'
p6777
aS'732'
p6778
aasS'4FJZ'
p6779
(lp6780
(lp6781
I4831
aS'204'
p6782
aS'310'
p6783
aa(lp6784
I5073
aS'828'
p6785
aS'1043'
p6786
aa(lp6787
I5747
aS'380'
p6788
aS'488'
p6789
aa(lp6790
I6704
aS'545'
p6791
aS'732'
p6792
aasS'3ZMK'
p6793
(lp6794
(lp6795
I1924
aS'6'
aS'80'
p6796
aa(lp6797
I2159
aS'113'
p6798
aS'194'
p6799
aasS'3HXQ'
p6800
(lp6801
(lp6802
I2829
aS'514'
p6803
aS'686'
p6804
aasS'3OAW'
p6805
(lp6806
(lp6807
I4831
aS'204'
p6808
aS'310'
p6809
aa(lp6810
I5073
aS'828'
p6811
aS'1043'
p6812
aa(lp6813
I5747
aS'380'
p6814
aS'489'
p6815
aa(lp6816
I6704
aS'544'
p6817
aS'732'
p6818
aasS'4IS0'
p6819
(lp6820
(lp6821
I1924
aS'27'
p6822
aS'100'
p6823
aa(lp6824
I2159
aS'130'
p6825
aS'208'
p6826
aasS'4XKN'
p6827
(lp6828
(lp6829
I7021
aS'48'
p6830
aS'393'
p6831
aasS'3TPA'
p6832
(lp6833
(lp6834
I7021
aS'52'
p6835
aS'432'
p6836
aasS'2MJ4'
p6837
(lp6838
(lp6839
I6648
aS'2'
aS'60'
p6840
aasS'4GRF'
p6841
(lp6842
(lp6843
I1099
aS'254'
p6844
aS'372'
p6845
aasS'2MJ0'
p6846
(lp6847
(lp6848
I6648
aS'101'
p6849
aS'164'
p6850
aasS'2K4K'
p6851
(lp6852
(lp6853
I2833
aS'4'
aS'77'
p6854
aasS'1MR6'
p6855
(lp6856
(lp6857
I6648
aS'2'
aS'67'
p6858
aasS'3HA9'
p6859
(lp6860
(lp6861
I1099
aS'44'
p6862
aS'109'
p6863
aasS'2V32'
p6864
(lp6865
(lp6866
I1099
aS'6'
aS'140'
p6867
aa(lp6868
I4104
aS'162'
p6869
aS'199'
p6870
aasS'4QL7'
p6871
(lp6872
(lp6873
I1099
aS'10'
p6874
aS'133'
p6875
aasS'1E90'
p6876
(lp6877
(lp6878
I4831
aS'204'
p6879
aS'310'
p6880
aa(lp6881
I5073
aS'828'
p6882
aS'1043'
p6883
aa(lp6884
I5747
aS'380'
p6885
aS'488'
p6886
aa(lp6887
I6704
aS'546'
p6888
aS'732'
p6889
aasS'4EO3'
p6890
(lp6891
(lp6892
I1099
aS'4'
aS'116'
p6893
aa(lp6894
I5587
aS'148'
p6895
aS'290'
p6896
aasS'4QL9'
p6897
(lp6898
(lp6899
I1099
aS'10'
p6900
aS'133'
p6901
aa(lp6902
I4104
aS'154'
p6903
aS'165'
p6904
aasS'1ERA'
p6905
(lp6906
(lp6907
I6648
aS'1'
aS'61'
p6908
aasS'1HE8'
p6909
(lp6910
(lp6911
I4831
aS'204'
p6912
aS'310'
p6913
aa(lp6914
I5073
aS'828'
p6915
aS'1037'
p6916
aa(lp6917
I5747
aS'380'
p6918
aS'488'
p6919
aa(lp6920
I6704
aS'620'
p6921
aS'732'
p6922
aa(lp6923
I6751
aS'5'
aS'164'
p6924
aasS'1CHV'
p6925
(lp6926
(lp6927
I6648
aS'3'
aS'60'
p6928
aasS'2J22'
p6929
(lp6930
(lp6931
I826
aS'24'
p6932
aS'133'
p6933
aasS'2B5Y'
p6934
(lp6935
(lp6936
I1099
aS'5'
aS'125'
p6937
aasS'2B5X'
p6938
(lp6939
(lp6940
I1099
aS'5'
aS'125'
p6941
aasS'2MJY'
p6942
(lp6943
(lp6944
I6648
aS'2'
aS'56'
p6945
aasS'3HDC'
p6946
(lp6947
(lp6948
I1099
aS'36'
p6949
aS'148'
p6950
aasS'3DRF'
p6951
(lp6952
(lp6953
I7021
aS'90'
p6954
aS'492'
p6955
aasS'1M1U'
p6956
(lp6957
(lp6958
I2829
aS'134'
p6959
aS'311'
p6960
aasS'4RQX'
p6961
(lp6962
(lp6963
I1099
aS'82'
p6964
aS'213'
p6965
aa(lp6966
I4104
aS'234'
p6967
aS'242'
p6968
aasS'4J2F'
p6969
(lp6970
(lp6971
I1924
aS'7'
aS'82'
p6972
aa(lp6973
I2159
aS'113'
p6974
aS'194'
p6975
aasS'4URK'
p6976
(lp6977
(lp6978
I4831
aS'204'
p6979
aS'310'
p6980
aa(lp6981
I5073
aS'828'
p6982
aS'1043'
p6983
aa(lp6984
I5747
aS'380'
p6985
aS'489'
p6986
aa(lp6987
I6704
aS'544'
p6988
aS'732'
p6989
aasS'2I6S'
p6990
(lp6991
(lp6992
I2829
aS'234'
p6993
aS'430'
p6994
aa(lp6995
I2879
aS'453'
p6996
aS'683'
p6997
aasS'2NOO'
p6998
(lp6999
(lp7000
I7021
aS'46'
p7001
aS'411'
p7002
aasS'4MK3'
p7003
(lp7004
(lp7005
I1924
aS'3'
aS'75'
p7006
aa(lp7007
I6764
aS'122'
p7008
aS'186'
p7009
aasS'1LU4'
p7010
(lp7011
(lp7012
I1099
aS'1006'
p7013
aS'1107'
p7014
aasS'3IOS'
p7015
(lp7016
(lp7017
I1099
aS'51'
p7018
aS'159'
p7019
aasS'4KX4'
p7020
(lp7021
(lp7022
I1679
aS'86'
p7023
aS'214'
p7024
aa(lp7025
I1924
aS'3'
aS'75'
p7026
aasS'4I9D'
p7027
(lp7028
(lp7029
I7021
aS'46'
p7030
aS'411'
p7031
aasS'2EQS'
p7032
(lp7033
(lp7034
I2833
aS'261'
p7035
aS'333'
p7036
aasS'4UY2'
p7037
(lp7038
(lp7039
I4273
aS'7'
aS'211'
p7040
aa(lp7041
I6648
aS'2'
aS'66'
p7042
aasS'1VB0'
p7043
(lp7044
(lp7045
I6648
aS'2'
aS'60'
p7046
aasS'4KF9'
p7047
(lp7048
(lp7049
I1924
aS'8'
aS'80'
p7050
aa(lp7051
I6764
aS'153'
p7052
aS'218'
p7053
aasS'3CW2'
p7054
(lp7055
(lp7056
I2828
aS'328'
p7057
aS'412'
p7058
aa(lp7059
I2833
aS'9'
aS'83'
p7060
aa(lp7061
I4254
aS'24'
p7062
aS'129'
p7063
aa(lp7064
I4654
aS'235'
p7065
aS'303'
p7066
aa(lp7067
I6226
aS'10'
p7068
aS'203'
p7069
aa(lp7070
I7551
aS'122'
p7071
aS'232'
p7072
aasS'1G7O'
p7073
(lp7074
(lp7075
I1679
aS'86'
p7076
aS'214'
p7077
aa(lp7078
I1924
aS'3'
aS'75'
p7079
aas.