(dp1
S'4YOA'
p2
(lp3
(lp4
I1
aI1
aI99
aasS'4YOB'
p5
(lp6
(lp7
I1
aI1
aI99
aasS'2BQV'
p8
(lp9
(lp10
I1
aI1
aI99
aasS'3B3K'
p11
(lp12
(lp13
I2
aI96
aI505
aasS'2P7A'
p14
(lp15
(lp16
I2
aI57
aI458
aasS'2W8Y'
p17
(lp18
(lp19
I2
aI534
aI933
aasS'2P7Z'
p20
(lp21
(lp22
I2
aI57
aI458
aasS'1OT7'
p23
(lp24
(lp25
I2
aI51
aI469
aasS'2FIV'
p26
(lp27
(lp28
I3
aI725
aI850
aa(lp29
I4
aI1
aI737
aa(lp30
I5
aI801
aI1111
aasS'3AUR'
p31
(lp32
(lp33
I2
aI2
aI427
aasS'3AUQ'
p34
(lp35
(lp36
I2
aI2
aI427
aasS'3CYW'
p37
(lp38
(lp39
I6
aI1
aI462
aa(lp40
I4
aI269
aI865
aa(lp41
I5
aI1074
aI1324
aasS'3CYX'
p42
(lp43
(lp44
I6
aI1
aI462
aa(lp45
I4
aI269
aI865
aa(lp46
I5
aI1074
aI1324
aasS'3AUN'
p47
(lp48
(lp49
I2
aI2
aI422
aasS'1XDK'
p50
(lp51
(lp52
I2
aI8
aI467
aasS'4LNX'
p53
(lp54
(lp55
I2
aI1
aI383
aasS'2R5Q'
p56
(lp57
(lp58
I4
aI267
aI1305
aa(lp59
I5
aI1017
aI1409
aasS'2R5P'
p60
(lp61
(lp62
I4
aI267
aI1305
aa(lp63
I5
aI1017
aI1409
aasS'3AID'
p64
(lp65
(lp66
I4
aI271
aI1140
aa(lp67
I5
aI1006
aI1415
aasS'2OUZ'
p68
(lp69
(lp70
I2
aI27
aI566
aasS'1UPJ'
p71
(lp72
(lp73
I1
aI1
aI99
aasS'1HVS'
p74
(lp75
(lp76
I6
aI1
aI462
aa(lp77
I4
aI269
aI865
aa(lp78
I5
aI1074
aI1324
aasS'1UPV'
p79
(lp80
(lp81
I2
aI1
aI460
aasS'1UPW'
p82
(lp83
(lp84
I2
aI1
aI460
aasS'2MIP'
p85
(lp86
(lp87
I4
aI286
aI1444
aasS'4DFG'
p88
(lp89
(lp90
I6
aI1
aI462
aa(lp91
I4
aI482
aI1174
aa(lp92
I5
aI1160
aI1425
aasS'3ILZ'
p93
(lp94
(lp95
I2
aI1
aI383
aasS'1ZTZ'
p96
(lp97
(lp98
I6
aI1
aI462
aa(lp99
I4
aI482
aI1174
aa(lp100
I5
aI1160
aI1425
aasS'2H77'
p101
(lp102
(lp103
I2
aI1
aI383
aasS'4HLW'
p104
(lp105
(lp106
I2
aI536
aI920
aasS'4HLA'
p107
(lp108
(lp109
I6
aI1
aI462
aa(lp110
I4
aI482
aI1174
aa(lp111
I5
aI1160
aI1425
aasS'1G6L'
p112
(lp113
(lp114
I6
aI1
aI458
aa(lp115
I4
aI269
aI1162
aa(lp116
I5
aI1021
aI1413
aasS'2V7C'
p117
(lp118
(lp119
I2
aI44
aI268
aa(lp120
I2
aI385
aI579
aasS'1RL8'
p121
(lp122
(lp123
I6
aI1
aI462
aa(lp124
I4
aI284
aI1174
aa(lp125
I5
aI1033
aI1425
aasS'4APU'
p126
(lp127
(lp128
I2
aI534
aI933
aasS'1NSO'
p129
(lp130
(lp131
I3
aI48
aI167
aa(lp132
I1
aI183
aI267
aasS'2P7G'
p133
(lp134
(lp135
I2
aI57
aI458
aasS'1FM6'
p136
(lp137
(lp138
I2
aI96
aI505
aasS'1FM9'
p139
(lp140
(lp141
I2
aI96
aI505
aasS'3FXV'
p142
(lp143
(lp144
I7
aI1
aI1441
aasS'1PZL'
p145
(lp146
(lp147
I2
aI5
aI456
aasS'2QAK'
p148
(lp149
(lp150
I6
aI1
aI462
aa(lp151
I4
aI284
aI1174
aa(lp152
I5
aI1033
aI1425
aasS'3W0C'
p153
(lp154
(lp155
I2
aI2
aI427
aasS'2QAB'
p156
(lp157
(lp158
I7
aI1
aI852
aa(lp159
I8
aI1013
aI1461
aasS'2QHY'
p160
(lp161
(lp162
I4
aI271
aI1140
aa(lp163
I5
aI1006
aI1415
aasS'2QA8'
p164
(lp165
(lp166
I7
aI1
aI852
aa(lp167
I8
aI1013
aI1461
aasS'1HIH'
p168
(lp169
(lp170
I6
aI1
aI462
aa(lp171
I4
aI269
aI1174
aa(lp172
I5
aI1033
aI1425
aasS'1HII'
p173
(lp174
(lp175
I4
aI286
aI1444
aasS'3W5Q'
p176
(lp177
(lp178
I2
aI2
aI422
aasS'3W5P'
p179
(lp180
(lp181
I2
aI2
aI422
aasS'3W5R'
p182
(lp183
(lp184
I2
aI2
aI422
aasS'3W5T'
p185
(lp186
(lp187
I2
aI2
aI422
aasS'2QA6'
p188
(lp189
(lp190
I7
aI1
aI852
aa(lp191
I8
aI1013
aI1461
aasS'1FMB'
p192
(lp193
(lp194
I1
aI2
aI104
aasS'4TUZ'
p195
(lp196
(lp197
I7
aI1
aI1441
aasS'1HIV'
p198
(lp199
(lp200
I6
aI1
aI458
aa(lp201
I4
aI269
aI1162
aa(lp202
I5
aI1021
aI1413
aasS'3S54'
p203
(lp204
(lp205
I1
aI1
aI99
aasS'3S56'
p206
(lp207
(lp208
I1
aI1
aI99
aasS'2ZMJ'
p209
(lp210
(lp211
I2
aI2
aI422
aasS'3S53'
p212
(lp213
(lp214
I1
aI1
aI99
aasS'2ZMH'
p215
(lp216
(lp217
I2
aI2
aI422
aasS'3R29'
p218
(lp219
(lp220
I2
aI17
aI462
aasS'1DMP'
p221
(lp222
(lp223
I1
aI1
aI99
aasS'1MSN'
p224
(lp225
(lp226
I6
aI1
aI462
aa(lp227
I4
aI284
aI1174
aa(lp228
I5
aI1033
aI1425
aasS'1MSM'
p229
(lp230
(lp231
I6
aI1
aI462
aa(lp232
I4
aI284
aI1174
aa(lp233
I5
aI1033
aI1425
aasS'2QSE'
p234
(lp235
(lp236
I7
aI1
aI852
aa(lp237
I8
aI1013
aI1461
aasS'2AM9'
p238
(lp239
(lp240
I2
aI536
aI920
aasS'1K6V'
p241
(lp242
(lp243
I6
aI1
aI454
aa(lp244
I4
aI269
aI856
aa(lp245
I5
aI1004
aI1398
aasS'1K6T'
p246
(lp247
(lp248
I6
aI1
aI454
aa(lp249
I4
aI269
aI856
aa(lp250
I5
aI1004
aI1398
aasS'3VTD'
p251
(lp252
(lp253
I2
aI2
aI422
aasS'3VTC'
p254
(lp255
(lp256
I2
aI2
aI422
aasS'3VTB'
p257
(lp258
(lp259
I2
aI2
aI422
aasS'1K6P'
p260
(lp261
(lp262
I6
aI1
aI454
aa(lp263
I4
aI269
aI856
aa(lp264
I5
aI1004
aI1398
aasS'1K6C'
p265
(lp266
(lp267
I6
aI1
aI454
aa(lp268
I4
aI269
aI856
aa(lp269
I5
aI1004
aI1398
aasS'2AZ9'
p270
(lp271
(lp272
I6
aI1
aI462
aa(lp273
I4
aI269
aI1174
aa(lp274
I5
aI1016
aI1425
aasS'2AZ8'
p275
(lp276
(lp277
I6
aI1
aI462
aa(lp278
I4
aI284
aI1174
aa(lp279
I5
aI1033
aI1425
aasS'1Q4X'
p280
(lp281
(lp282
I2
aI69
aI461
aasS'3TX7'
p283
(lp284
(lp285
I2
aI26
aI541
aasS'3VT9'
p286
(lp287
(lp288
I2
aI2
aI422
aasS'3VT8'
p289
(lp290
(lp291
I2
aI2
aI422
aasS'3VT7'
p292
(lp293
(lp294
I2
aI2
aI422
aasS'3VT6'
p295
(lp296
(lp297
I2
aI2
aI422
aasS'3VT5'
p298
(lp299
(lp300
I2
aI2
aI422
aasS'3VT4'
p301
(lp302
(lp303
I2
aI2
aI422
aasS'3VT3'
p304
(lp305
(lp306
I2
aI2
aI422
aasS'4OC7'
p307
(lp308
(lp309
I2
aI17
aI462
aasS'2AMB'
p310
(lp311
(lp312
I2
aI536
aI920
aasS'2B60'
p313
(lp314
(lp315
I1
aI1
aI99
aasS'3IPU'
p316
(lp317
(lp318
I7
aI1
aI1441
aasS'3IPQ'
p319
(lp320
(lp321
I7
aI1
aI1441
aasS'3IPS'
p322
(lp323
(lp324
I7
aI1
aI1441
aasS'3R2A'
p325
(lp326
(lp327
I2
aI17
aI462
aasS'1IIQ'
p328
(lp329
(lp330
I6
aI1
aI462
aa(lp331
I4
aI284
aI1174
aa(lp332
I5
aI1033
aI1425
aasS'3VFA'
p333
(lp334
(lp335
I6
aI1
aI458
aa(lp336
I4
aI269
aI1162
aa(lp337
I5
aI1021
aI1413
aasS'3VFB'
p338
(lp339
(lp340
I6
aI1
aI462
aa(lp341
I4
aI284
aI1174
aa(lp342
I5
aI1033
aI1425
aasS'2F8G'
p343
(lp344
(lp345
I6
aI1
aI462
aa(lp346
I4
aI269
aI865
aa(lp347
I5
aI1074
aI1324
aasS'4BCR'
p348
(lp349
(lp350
I2
aI13
aI468
aasS'3RVF'
p351
(lp352
(lp353
I7
aI1
aI1441
aasS'2YJA'
p354
(lp355
(lp356
I2
aI27
aI566
aasS'2R6Y'
p357
(lp358
(lp359
I2
aI27
aI566
aasS'2YJD'
p360
(lp361
(lp362
I7
aI1
aI852
aa(lp363
I8
aI1013
aI1463
aasS'2R6W'
p364
(lp365
(lp366
I2
aI27
aI566
aasS'2PC0'
p367
(lp368
(lp369
I1
aI1
aI99
aasS'5AGZ'
p370
(lp371
(lp372
I6
aI1
aI462
aa(lp373
I4
aI269
aI1174
aa(lp374
I5
aI1033
aI1425
aasS'3HVL'
p375
(lp376
(lp377
I7
aI1
aI1441
aasS'1YMT'
p378
(lp379
(lp380
I2
aI1
aI462
aasS'2F80'
p381
(lp382
(lp383
I6
aI1
aI462
aa(lp384
I4
aI269
aI865
aa(lp385
I5
aI1074
aI1324
aasS'2F81'
p386
(lp387
(lp388
I6
aI1
aI462
aa(lp389
I4
aI269
aI865
aa(lp390
I5
aI1074
aI1324
aasS'3VF5'
p391
(lp392
(lp393
I6
aI1
aI462
aa(lp394
I4
aI284
aI1174
aa(lp395
I5
aI1033
aI1425
aasS'3VF7'
p396
(lp397
(lp398
I6
aI1
aI462
aa(lp399
I4
aI284
aI1174
aa(lp400
I5
aI1033
aI1425
aasS'3HVP'
p401
(lp402
(lp403
I1
aI1
aI99
aasS'2REW'
p404
(lp405
(lp406
I2
aI13
aI468
aasS'3AX8'
p407
(lp408
(lp409
I2
aI2
aI427
aasS'1ZEO'
p410
(lp411
(lp412
I2
aI96
aI505
aasS'3OTS'
p413
(lp414
(lp415
I6
aI1
aI454
aa(lp416
I4
aI269
aI856
aa(lp417
I5
aI1004
aI1398
aasS'2PQZ'
p418
(lp419
(lp420
I6
aI1
aI462
aa(lp421
I4
aI284
aI1174
aa(lp422
I5
aI1033
aI1425
aasS'4TV1'
p423
(lp424
(lp425
I7
aI1
aI1441
aasS'2ZVT'
p426
(lp427
(lp428
I2
aI96
aI505
aasS'3CDS'
p429
(lp430
(lp431
I2
aI96
aI505
aasS'3CDP'
p432
(lp433
(lp434
I2
aI96
aI505
aasS'4TVH'
p435
(lp436
(lp437
I1
aI1
aI99
aasS'2P4Y'
p438
(lp439
(lp440
I2
aI96
aI505
aasS'4X1G'
p441
(lp442
(lp443
I2
aI18
aI433
aasS'4X1F'
p444
(lp445
(lp446
I2
aI18
aI433
aasS'1TCW'
p447
(lp448
(lp449
I4
aI148
aI1344
aa(lp450
I5
aI1021
aI1437
aasS'4LL3'
p451
(lp452
(lp453
I6
aI1
aI462
aa(lp454
I4
aI284
aI1174
aa(lp455
I5
aI1033
aI1425
aasS'4QE6'
p456
(lp457
(lp458
I2
aI64
aI486
aasS'1TCX'
p459
(lp460
(lp461
I6
aI1
aI462
aa(lp462
I4
aI269
aI865
aa(lp463
I5
aI1074
aI1324
aasS'1HHP'
p464
(lp465
(lp466
I1
aI1
aI99
aasS'3V3E'
p467
(lp468
(lp469
I2
aI178
aI598
aasS'3FC6'
p470
(lp471
(lp472
I2
aI17
aI462
aasS'2ZNP'
p473
(lp474
(lp475
I2
aI25
aI441
aasS'2ZNQ'
p476
(lp477
(lp478
I2
aI25
aI441
aasS'2ZNN'
p479
(lp480
(lp481
I2
aI13
aI468
aasS'2ZNO'
p482
(lp483
(lp484
I2
aI96
aI505
aasS'2OZ7'
p485
(lp486
(lp487
I2
aI536
aI920
aasS'4FGY'
p488
(lp489
(lp490
I2
aI96
aI505
aasS'2QH6'
p491
(lp492
(lp493
I7
aI1
aI852
aa(lp494
I8
aI1013
aI1461
aasS'3IMY'
p495
(lp496
(lp497
I2
aI69
aI461
aasS'1ZKY'
p498
(lp499
(lp500
I7
aI1
aI852
aa(lp501
I8
aI1013
aI1463
aasS'1NDE'
p502
(lp503
(lp504
I2
aI17
aI529
aasS'1A52'
p505
(lp506
(lp507
I2
aI27
aI566
aasS'4HEE'
p508
(lp509
(lp510
I2
aI96
aI505
aasS'4G2I'
p511
(lp512
(lp513
I2
aI2
aI427
aasS'4G2H'
p514
(lp515
(lp516
I2
aI2
aI453
aasS'3R5M'
p517
(lp518
(lp519
I2
aI17
aI462
aasS'3R5N'
p520
(lp521
(lp522
I2
aI96
aI505
aasS'3WMH'
p523
(lp524
(lp525
I2
aI96
aI505
aasS'1S9Q'
p526
(lp527
(lp528
I2
aI57
aI458
aasS'1S9P'
p529
(lp530
(lp531
I2
aI57
aI458
aasS'1SGU'
p532
(lp533
(lp534
I6
aI1
aI462
aa(lp535
I4
aI284
aI1174
aa(lp536
I5
aI1033
aI1425
aasS'1NRL'
p537
(lp538
(lp539
I7
aI1
aI1441
aasS'4JEC'
p540
(lp541
(lp542
I6
aI1
aI462
aa(lp543
I4
aI284
aI1174
aa(lp544
I5
aI1033
aI1425
aasS'4G21'
p545
(lp546
(lp547
I2
aI2
aI453
aasS'4G20'
p548
(lp549
(lp550
I2
aI2
aI453
aasS'3LIN'
p551
(lp552
(lp553
I9
aI1
aI116
aasS'3LIV'
p554
(lp555
(lp556
I9
aI1
aI116
aasS'4RMC'
p557
(lp558
(lp559
I2
aI17
aI462
aasS'4RME'
p560
(lp561
(lp562
I2
aI17
aI462
aasS'4RMD'
p563
(lp564
(lp565
I2
aI17
aI462
aasS'3LIQ'
p566
(lp567
(lp568
I9
aI1
aI116
aasS'3LIX'
p569
(lp570
(lp571
I9
aI1
aI116
aasS'3BQD'
p572
(lp573
(lp574
I7
aI1
aI1441
aasS'3HQ5'
p575
(lp576
(lp577
I2
aI534
aI933
aasS'1K74'
p578
(lp579
(lp580
I2
aI96
aI505
aasS'3X1H'
p581
(lp582
(lp583
I2
aI96
aI505
aasS'3X1I'
p584
(lp585
(lp586
I2
aI96
aI505
aasS'2BAW'
p587
(lp588
(lp589
I2
aI25
aI441
aasS'2QR9'
p590
(lp591
(lp592
I7
aI1
aI852
aa(lp593
I8
aI1013
aI1461
aasS'4EM9'
p594
(lp595
(lp596
I2
aI96
aI505
aasS'3GWS'
p597
(lp598
(lp599
I2
aI69
aI461
aasS'8HVP'
p600
(lp601
(lp602
I4
aI271
aI1140
aa(lp603
I5
aI1006
aI1415
aasS'3GWX'
p604
(lp605
(lp606
I2
aI25
aI441
aasS'3JW2'
p607
(lp608
(lp609
I6
aI1
aI462
aa(lp610
I4
aI284
aI1174
aa(lp611
I5
aI1033
aI1425
aasS'1YJE'
p612
(lp613
(lp614
I2
aI118
aI597
aasS'1M7W'
p615
(lp616
(lp617
I2
aI9
aI456
aasS'4EMA'
p618
(lp619
(lp620
I2
aI96
aI505
aasS'1ODW'
p621
(lp622
(lp623
I6
aI1
aI458
aa(lp624
I4
aI269
aI1162
aa(lp625
I5
aI1021
aI1413
aasS'1I7I'
p626
(lp627
(lp628
I2
aI96
aI505
aasS'1I7G'
p629
(lp630
(lp631
I2
aI13
aI468
aasS'1ODX'
p632
(lp633
(lp634
I6
aI1
aI462
aa(lp635
I4
aI269
aI865
aa(lp636
I5
aI1074
aI1324
aasS'1ODY'
p637
(lp638
(lp639
I6
aI1
aI458
aa(lp640
I4
aI269
aI1162
aa(lp641
I5
aI1021
aI1413
aasS'1K7L'
p642
(lp643
(lp644
I2
aI13
aI468
aasS'2B7Z'
p645
(lp646
(lp647
I6
aI1
aI462
aa(lp648
I4
aI269
aI1174
aa(lp649
I5
aI1016
aI1425
aasS'4YMQ'
p650
(lp651
(lp652
I2
aI4
aI511
aasS'3RY9'
p653
(lp654
(lp655
I2
aI1
aI250
aasS'2HS2'
p656
(lp657
(lp658
I6
aI1
aI462
aa(lp659
I4
aI269
aI1174
aa(lp660
I5
aI1033
aI1425
aasS'2HS1'
p661
(lp662
(lp663
I6
aI1
aI462
aa(lp664
I4
aI269
aI1174
aa(lp665
I5
aI1033
aI1425
aasS'3B5R'
p666
(lp667
(lp668
I2
aI536
aI920
aasS'2P54'
p669
(lp670
(lp671
I2
aI13
aI468
aasS'3CWD'
p672
(lp673
(lp674
I2
aI96
aI505
aasS'1OVL'
p675
(lp676
(lp677
I2
aI183
aI598
aasS'6UPJ'
p678
(lp679
(lp680
I4
aI286
aI1444
aasS'3G8I'
p681
(lp682
(lp683
I2
aI13
aI468
aasS'3G8O'
p684
(lp685
(lp686
I2
aI534
aI933
aasS'1BWA'
p687
(lp688
(lp689
I6
aI1
aI458
aa(lp690
I4
aI269
aI1162
aa(lp691
I5
aI1021
aI1413
aasS'1BWB'
p692
(lp693
(lp694
I6
aI1
aI458
aa(lp695
I4
aI269
aI1162
aa(lp696
I5
aI1021
aI1413
aasS'3MNP'
p697
(lp698
(lp699
I7
aI1
aI852
aa(lp700
I8
aI1013
aI1461
aasS'2XYX'
p701
(lp702
(lp703
I2
aI25
aI441
aasS'2XYW'
p704
(lp705
(lp706
I2
aI25
aI441
aasS'2Z54'
p707
(lp708
(lp709
I6
aI1
aI462
aa(lp710
I4
aI269
aI865
aa(lp711
I5
aI1074
aI1324
aasS'3OKI'
p712
(lp713
(lp714
I7
aI1
aI1441
aasS'3MNE'
p715
(lp716
(lp717
I7
aI1
aI852
aa(lp718
I8
aI1013
aI1461
aasS'2XYE'
p719
(lp720
(lp721
I6
aI1
aI465
aa(lp722
I4
aI270
aI1163
aa(lp723
I5
aI1022
aI1414
aasS'2XYF'
p724
(lp725
(lp726
I6
aI1
aI465
aa(lp727
I4
aI270
aI1163
aa(lp728
I5
aI1022
aI1414
aasS'3MNO'
p729
(lp730
(lp731
I7
aI1
aI852
aa(lp732
I8
aI1013
aI1461
aasS'4XAO'
p733
(lp734
(lp735
I2
aI18
aI433
aasS'3OU1'
p736
(lp737
(lp738
I6
aI1
aI454
aa(lp739
I4
aI269
aI856
aa(lp740
I5
aI1004
aI1398
aasS'3OU3'
p741
(lp742
(lp743
I6
aI1
aI454
aa(lp744
I4
aI269
aI856
aa(lp745
I5
aI1004
aI1398
aasS'3OU4'
p746
(lp747
(lp748
I6
aI1
aI454
aa(lp749
I4
aI269
aI856
aa(lp750
I5
aI1004
aI1398
aasS'3B68'
p751
(lp752
(lp753
I2
aI536
aI920
aasS'4WHG'
p754
(lp755
(lp756
I2
aI178
aI598
aasS'4WHF'
p757
(lp758
(lp759
I2
aI178
aI598
aasS'1GS4'
p760
(lp761
(lp762
I2
aI536
aI920
aasS'1ZJ7'
p763
(lp764
(lp765
I6
aI1
aI462
aa(lp766
I4
aI284
aI1174
aa(lp767
I5
aI1033
aI1425
aasS'3OUC'
p768
(lp769
(lp770
I6
aI1
aI454
aa(lp771
I4
aI269
aI856
aa(lp772
I5
aI1004
aI1398
aasS'3OUB'
p773
(lp774
(lp775
I6
aI1
aI454
aa(lp776
I4
aI269
aI856
aa(lp777
I5
aI1004
aI1398
aasS'3OUD'
p778
(lp779
(lp780
I6
aI1
aI454
aa(lp781
I4
aI269
aI856
aa(lp782
I5
aI1004
aI1398
aasS'1ZDU'
p783
(lp784
(lp785
I7
aI1
aI852
aa(lp786
I8
aI1013
aI1463
aasS'1ZDT'
p787
(lp788
(lp789
I7
aI1
aI852
aa(lp790
I8
aI1013
aI1463
aasS'4WVD'
p791
(lp792
(lp793
I10
aI1
aI940
aa(lp794
I11
aI1960
aI2439
aa(lp795
I12
aI993
aI1790
aasS'3OK9'
p796
(lp797
(lp798
I6
aI1
aI462
aa(lp799
I4
aI269
aI1174
aa(lp800
I5
aI1033
aI1425
aasS'4LNW'
p801
(lp802
(lp803
I2
aI1
aI383
aasS'2VV4'
p804
(lp805
(lp806
I2
aI96
aI505
aasS'2VV2'
p807
(lp808
(lp809
I2
aI96
aI505
aasS'2VV3'
p810
(lp811
(lp812
I2
aI96
aI505
aasS'2VV0'
p813
(lp814
(lp815
I2
aI96
aI505
aasS'2VV1'
p816
(lp817
(lp818
I2
aI96
aI505
aasS'2H79'
p819
(lp820
(lp821
I2
aI1
aI383
aasS'3PO9'
p822
(lp823
(lp824
I2
aI96
aI505
aasS'4DJO'
p825
(lp826
(lp827
I1
aI1
aI99
aasS'7UPJ'
p828
(lp829
(lp830
I6
aI1
aI462
aa(lp831
I4
aI284
aI1174
aa(lp832
I5
aI1033
aI1425
aasS'4DJR'
p833
(lp834
(lp835
I1
aI1
aI99
aasS'4DJP'
p836
(lp837
(lp838
I1
aI1
aI99
aasS'4DJQ'
p839
(lp840
(lp841
I1
aI1
aI99
aasS'2J14'
p842
(lp843
(lp844
I2
aI25
aI441
aasS'3OXV'
p845
(lp846
(lp847
I6
aI1
aI460
aa(lp848
I4
aI271
aI1140
aa(lp849
I5
aI1006
aI1415
aasS'1GNO'
p850
(lp851
(lp852
I6
aI1
aI462
aa(lp853
I4
aI269
aI1174
aa(lp854
I5
aI1033
aI1425
aasS'1A28'
p855
(lp856
(lp857
I2
aI534
aI933
aasS'1AZ5'
p858
(lp859
(lp860
I1
aI2
aI99
aasS'1ZUC'
p861
(lp862
(lp863
I2
aI534
aI933
aasS'1NQ7'
p864
(lp865
(lp866
I7
aI1
aI1441
aasS'1NQ2'
p867
(lp868
(lp869
I2
aI69
aI461
aasS'1SH9'
p870
(lp871
(lp872
I6
aI1
aI462
aa(lp873
I4
aI284
aI1174
aa(lp874
I5
aI1033
aI1425
aasS'1NQ0'
p875
(lp876
(lp877
I2
aI69
aI461
aasS'1NQ1'
p878
(lp879
(lp880
I2
aI69
aI461
aasS'3MXD'
p881
(lp882
(lp883
I4
aI271
aI1140
aa(lp884
I5
aI1006
aI1415
aasS'3MXE'
p885
(lp886
(lp887
I4
aI271
aI1140
aa(lp888
I5
aI1006
aI1415
aasS'4PXM'
p889
(lp890
(lp891
I7
aI1
aI852
aa(lp892
I8
aI1013
aI1463
aasS'3FLI'
p893
(lp894
(lp895
I2
aI64
aI486
aasS'2GL8'
p896
(lp897
(lp898
I2
aI20
aI463
aasS'3JVY'
p899
(lp900
(lp901
I6
aI1
aI462
aa(lp902
I4
aI284
aI1174
aa(lp903
I5
aI1033
aI1425
aasS'3ZQT'
p904
(lp905
(lp906
I2
aI536
aI920
aasS'3JVW'
p907
(lp908
(lp909
I6
aI1
aI462
aa(lp910
I4
aI284
aI1174
aa(lp911
I5
aI1033
aI1425
aasS'2SAM'
p912
(lp913
(lp914
I1
aI1
aI99
aasS'7HVP'
p915
(lp916
(lp917
I4
aI271
aI1140
aa(lp918
I5
aI1006
aI1415
aasS'4OEY'
p919
(lp920
(lp921
I2
aI536
aI920
aasS'4OEZ'
p922
(lp923
(lp924
I2
aI536
aI920
aasS'2AO6'
p925
(lp926
(lp927
I2
aI536
aI920
aasS'4OEA'
p928
(lp929
(lp930
I2
aI536
aI920
aasS'4OED'
p931
(lp932
(lp933
I2
aI536
aI920
aasS'3H0A'
p934
(lp935
(lp936
I2
aI96
aI505
aasS'2QCI'
p937
(lp938
(lp939
I6
aI1
aI462
aa(lp940
I4
aI284
aI1174
aa(lp941
I5
aI1033
aI1425
aasS'2AOJ'
p942
(lp943
(lp944
I6
aI1
aI462
aa(lp945
I4
aI269
aI865
aa(lp946
I5
aI1074
aI1324
aasS'2AOH'
p947
(lp948
(lp949
I6
aI1
aI462
aa(lp950
I4
aI269
aI865
aa(lp951
I5
aI1074
aI1324
aasS'2AOI'
p952
(lp953
(lp954
I6
aI1
aI462
aa(lp955
I4
aI269
aI1174
aa(lp956
I5
aI1074
aI1425
aasS'3OQD'
p957
(lp958
(lp959
I6
aI1
aI454
aa(lp960
I4
aI269
aI856
aa(lp961
I5
aI1004
aI1398
aasS'2AOC'
p962
(lp963
(lp964
I6
aI1
aI462
aa(lp965
I4
aI269
aI1174
aa(lp966
I5
aI1074
aI1425
aasS'1BAI'
p967
(lp968
(lp969
I4
aI1
aI1546
aasS'2AOF'
p970
(lp971
(lp972
I6
aI1
aI462
aa(lp973
I4
aI269
aI1174
aa(lp974
I5
aI1074
aI1425
aasS'2AOG'
p975
(lp976
(lp977
I6
aI1
aI462
aa(lp978
I4
aI269
aI1174
aa(lp979
I5
aI1074
aI1425
aasS'2AOD'
p980
(lp981
(lp982
I6
aI1
aI462
aa(lp983
I4
aI269
aI1174
aa(lp984
I5
aI1074
aI1425
aasS'2AOE'
p985
(lp986
(lp987
I6
aI1
aI462
aa(lp988
I4
aI269
aI1174
aa(lp989
I5
aI1074
aI1425
aasS'2P1V'
p990
(lp991
(lp992
I2
aI17
aI462
aasS'3R4B'
p993
(lp994
(lp995
I4
aI271
aI1140
aa(lp996
I5
aI1006
aI1415
aasS'4IW8'
p997
(lp998
(lp999
I7
aI1
aI852
aa(lp1000
I8
aI1013
aI1463
aasS'2BB9'
p1001
(lp1002
(lp1003
I6
aI1
aI462
aa(lp1004
I4
aI284
aI1174
aa(lp1005
I5
aI1033
aI1425
aasS'3CTB'
p1006
(lp1007
(lp1008
I7
aI1
aI1441
aasS'4IW6'
p1009
(lp1010
(lp1011
I7
aI1
aI852
aa(lp1012
I8
aI1013
aI1463
aasS'3TTP'
p1013
(lp1014
(lp1015
I6
aI1
aI462
aa(lp1016
I4
aI284
aI1174
aa(lp1017
I5
aI1033
aI1425
aasS'4MGA'
p1018
(lp1019
(lp1020
I7
aI1
aI1441
aasS'4MGB'
p1021
(lp1022
(lp1023
I7
aI1
aI1441
aasS'4MGC'
p1024
(lp1025
(lp1026
I7
aI1
aI1441
aasS'4MGD'
p1027
(lp1028
(lp1029
I7
aI1
aI1441
aasS'2HPE'
p1030
(lp1031
(lp1032
I4
aI286
aI1444
aasS'2GPO'
p1033
(lp1034
(lp1035
I2
aI57
aI458
aasS'3FUG'
p1036
(lp1037
(lp1038
I2
aI17
aI462
aasS'3G9E'
p1039
(lp1040
(lp1041
I2
aI96
aI505
aasS'1XIU'
p1042
(lp1043
(lp1044
I2
aI29
aI436
aasS'2JJ3'
p1045
(lp1046
(lp1047
I2
aI17
aI529
aasS'2HB8'
p1048
(lp1049
(lp1050
I2
aI2
aI427
aasS'2HB4'
p1051
(lp1052
(lp1053
I6
aI1
aI462
aa(lp1054
I4
aI284
aI1174
aa(lp1055
I5
aI1033
aI1425
aasS'3HOD'
p1056
(lp1057
(lp1058
I2
aI96
aI505
aasS'2HB7'
p1059
(lp1060
(lp1061
I2
aI2
aI427
aasS'2GPP'
p1062
(lp1063
(lp1064
I2
aI57
aI458
aasS'2HB2'
p1065
(lp1066
(lp1067
I6
aI1
aI462
aa(lp1068
I4
aI284
aI1174
aa(lp1069
I5
aI1033
aI1425
aasS'2HB3'
p1070
(lp1071
(lp1072
I6
aI1
aI462
aa(lp1073
I4
aI269
aI1174
aa(lp1074
I5
aI1033
aI1425
aasS'2HBH'
p1075
(lp1076
(lp1077
I2
aI2
aI453
aasS'5AK2'
p1078
(lp1079
(lp1080
I2
aI27
aI566
aasS'2GP7'
p1081
(lp1082
(lp1083
I2
aI57
aI458
aasS'4MG8'
p1084
(lp1085
(lp1086
I7
aI1
aI1441
aasS'2Q54'
p1087
(lp1088
(lp1089
I1
aI1
aI99
aasS'3NDU'
p1090
(lp1091
(lp1092
I6
aI1
aI462
aa(lp1093
I4
aI284
aI1174
aa(lp1094
I5
aI1033
aI1425
aasS'4MG6'
p1095
(lp1096
(lp1097
I7
aI1
aI1441
aasS'4MG7'
p1098
(lp1099
(lp1100
I7
aI1
aI1441
aasS'4IWF'
p1101
(lp1102
(lp1103
I7
aI1
aI852
aa(lp1104
I8
aI1013
aI1463
aasS'2BBB'
p1105
(lp1106
(lp1107
I6
aI1
aI462
aa(lp1108
I4
aI269
aI1174
aa(lp1109
I5
aI1033
aI1425
aasS'3AZ2'
p1110
(lp1111
(lp1112
I2
aI2
aI427
aasS'3AZ3'
p1113
(lp1114
(lp1115
I2
aI2
aI427
aasS'3AZ1'
p1116
(lp1117
(lp1118
I2
aI2
aI427
aasS'3OZJ'
p1119
(lp1120
(lp1121
I2
aI17
aI462
aasS'2PWC'
p1122
(lp1123
(lp1124
I6
aI1
aI462
aa(lp1125
I4
aI284
aI1174
aa(lp1126
I5
aI1033
aI1425
aasS'3O99'
p1127
(lp1128
(lp1129
I1
aI1
aI99
aasS'2PWR'
p1130
(lp1131
(lp1132
I6
aI1
aI462
aa(lp1133
I4
aI284
aI1174
aa(lp1134
I5
aI1033
aI1425
aasS'1YY4'
p1135
(lp1136
(lp1137
I7
aI1
aI1441
aasS'3WFF'
p1138
(lp1139
(lp1140
I2
aI490
aI984
aasS'1G1U'
p1141
(lp1142
(lp1143
I2
aI17
aI462
aasS'3GZ9'
p1144
(lp1145
(lp1146
I2
aI25
aI441
aasS'3ERT'
p1147
(lp1148
(lp1149
I2
aI27
aI566
aasS'4N1Y'
p1150
(lp1151
(lp1152
I2
aI6
aI239
aasS'3ERD'
p1153
(lp1154
(lp1155
I7
aI1
aI852
aa(lp1156
I8
aI1013
aI1463
aasS'1YYE'
p1157
(lp1158
(lp1159
I7
aI1
aI1441
aasS'2ZFX'
p1160
(lp1161
(lp1162
I2
aI2
aI422
aasS'3T3C'
p1163
(lp1164
(lp1165
I6
aI1
aI462
aa(lp1166
I4
aI284
aI1174
aa(lp1167
I5
aI1033
aI1425
aasS'3ST5'
p1168
(lp1169
(lp1170
I6
aI1
aI462
aa(lp1171
I4
aI284
aI1174
aa(lp1172
I5
aI1033
aI1425
aasS'3O9E'
p1173
(lp1174
(lp1175
I1
aI1
aI99
aasS'3O9D'
p1176
(lp1177
(lp1178
I1
aI1
aI99
aasS'3O9G'
p1179
(lp1180
(lp1181
I4
aI271
aI1140
aa(lp1182
I5
aI1006
aI1415
aasS'3O9F'
p1183
(lp1184
(lp1185
I4
aI271
aI1140
aa(lp1186
I5
aI1006
aI1415
aasS'3O9A'
p1187
(lp1188
(lp1189
I1
aI1
aI99
aasS'2FLE'
p1190
(lp1191
(lp1192
I1
aI1
aI99
aasS'3O9C'
p1193
(lp1194
(lp1195
I1
aI1
aI99
aasS'3O9B'
p1196
(lp1197
(lp1198
I1
aI1
aI99
aasS'3OZ0'
p1199
(lp1200
(lp1201
I2
aI25
aI441
aasS'3O9H'
p1202
(lp1203
(lp1204
I4
aI271
aI1140
aa(lp1205
I5
aI1006
aI1415
aasS'4FE6'
p1206
(lp1207
(lp1208
I6
aI1
aI462
aa(lp1209
I4
aI284
aI1174
aa(lp1210
I5
aI1033
aI1425
aasS'3SAB'
p1211
(lp1212
(lp1213
I1
aI1
aI99
aasS'1ERE'
p1214
(lp1215
(lp1216
I2
aI27
aI566
aasS'2HPF'
p1217
(lp1218
(lp1219
I4
aI286
aI1444
aasS'3PBA'
p1220
(lp1221
(lp1222
I2
aI96
aI505
aasS'1HJ1'
p1223
(lp1224
(lp1225
I2
aI17
aI518
aasS'3OGQ'
p1226
(lp1227
(lp1228
I3
aI725
aI850
aa(lp1229
I4
aI1
aI737
aa(lp1230
I5
aI801
aI1111
aasS'4COE'
p1231
(lp1232
(lp1233
I6
aI1
aI462
aa(lp1234
I4
aI269
aI1174
aa(lp1235
I5
aI1033
aI1425
aasS'1A30'
p1236
(lp1237
(lp1238
I6
aI1
aI458
aa(lp1239
I4
aI269
aI1162
aa(lp1240
I5
aI1021
aI1413
aasS'3DY6'
p1241
(lp1242
(lp1243
I2
aI25
aI441
aasS'3IA6'
p1244
(lp1245
(lp1246
I2
aI96
aI505
aasS'3IA9'
p1247
(lp1248
(lp1249
I1
aI1
aI99
aasS'4DK8'
p1250
(lp1251
(lp1252
I2
aI1
aI460
aasS'4DK7'
p1253
(lp1254
(lp1255
I2
aI1
aI460
aasS'3IAW'
p1256
(lp1257
(lp1258
I4
aI271
aI1140
aa(lp1259
I5
aI1006
aI1415
aasS'1NPW'
p1260
(lp1261
(lp1262
I6
aI1
aI462
aa(lp1263
I4
aI269
aI1174
aa(lp1264
I5
aI1033
aI1425
aasS'1NPV'
p1265
(lp1266
(lp1267
I6
aI1
aI462
aa(lp1268
I4
aI269
aI1174
aa(lp1269
I5
aI1033
aI1425
aasS'1SIV'
p1270
(lp1271
(lp1272
I4
aI148
aI1344
aa(lp1273
I5
aI1021
aI1437
aasS'1SIP'
p1274
(lp1275
(lp1276
I1
aI1
aI99
aasS'1NPA'
p1277
(lp1278
(lp1279
I6
aI1
aI462
aa(lp1280
I4
aI269
aI1174
aa(lp1281
I5
aI1033
aI1425
aasS'2GPU'
p1282
(lp1283
(lp1284
I2
aI57
aI458
aasS'3DOX'
p1285
(lp1286
(lp1287
I6
aI1
aI458
aa(lp1288
I4
aI269
aI1162
aa(lp1289
I5
aI1021
aI1413
aasS'2GPV'
p1290
(lp1291
(lp1292
I10
aI1
aI976
aa(lp1293
I11
aI2048
aI2525
aa(lp1294
I12
aI1055
aI1901
aasS'4E2J'
p1295
(lp1296
(lp1297
I7
aI1
aI852
aa(lp1298
I8
aI1013
aI1463
aasS'4LSJ'
p1299
(lp1300
(lp1301
I2
aI289
aI777
aasS'1CPI'
p1302
(lp1303
(lp1304
I4
aI271
aI1140
aa(lp1305
I5
aI1006
aI1415
aasS'2HCD'
p1306
(lp1307
(lp1308
I2
aI2
aI453
aasS'1BV9'
p1309
(lp1310
(lp1311
I6
aI1
aI458
aa(lp1312
I4
aI269
aI1162
aa(lp1313
I5
aI1021
aI1413
aasS'1MV9'
p1314
(lp1315
(lp1316
I2
aI17
aI462
aasS'1BV7'
p1317
(lp1318
(lp1319
I6
aI1
aI458
aa(lp1320
I4
aI269
aI1162
aa(lp1321
I5
aI1021
aI1413
aasS'1IVQ'
p1322
(lp1323
(lp1324
I4
aI286
aI1444
aasS'4IVY'
p1325
(lp1326
(lp1327
I7
aI1
aI852
aa(lp1328
I8
aI1013
aI1463
aasS'1R20'
p1329
(lp1330
(lp1331
I2
aI93
aI567
aasS'4IVW'
p1332
(lp1333
(lp1334
I7
aI1
aI852
aa(lp1335
I8
aI1013
aI1463
aasS'1XVP'
p1336
(lp1337
(lp1338
I2
aI17
aI462
aasS'3OGT'
p1339
(lp1340
(lp1341
I2
aI2
aI427
aasS'3F5C'
p1342
(lp1343
(lp1344
I2
aI53
aI560
aasS'4K4R'
p1345
(lp1346
(lp1347
I6
aI1
aI465
aa(lp1348
I4
aI270
aI1163
aa(lp1349
I5
aI1022
aI1414
aasS'3GGU'
p1350
(lp1351
(lp1352
I6
aI1
aI462
aa(lp1353
I4
aI284
aI1174
aa(lp1354
I5
aI1033
aI1425
aasS'4K4P'
p1355
(lp1356
(lp1357
I6
aI1
aI465
aa(lp1358
I4
aI270
aI1163
aa(lp1359
I5
aI1022
aI1414
aasS'4IV4'
p1360
(lp1361
(lp1362
I7
aI1
aI852
aa(lp1363
I8
aI1013
aI1463
aasS'4IV2'
p1364
(lp1365
(lp1366
I7
aI1
aI852
aa(lp1367
I8
aI1013
aI1463
aasS'3GGA'
p1368
(lp1369
(lp1370
I6
aI1
aI462
aa(lp1371
I4
aI269
aI1174
aa(lp1372
I5
aI1033
aI1425
aasS'3NYG'
p1373
(lp1374
(lp1375
I4
aI271
aI1140
aa(lp1376
I5
aI1006
aI1415
aasS'1XV9'
p1377
(lp1378
(lp1379
I2
aI17
aI462
aasS'3ZPU'
p1380
(lp1381
(lp1382
I6
aI1
aI462
aa(lp1383
I4
aI269
aI1174
aa(lp1384
I5
aI1033
aI1425
aasS'3ZPT'
p1385
(lp1386
(lp1387
I6
aI1
aI462
aa(lp1388
I4
aI269
aI1174
aa(lp1389
I5
aI1033
aI1425
aasS'3ZPS'
p1390
(lp1391
(lp1392
I6
aI1
aI462
aa(lp1393
I4
aI269
aI1174
aa(lp1394
I5
aI1033
aI1425
aasS'4K4J'
p1395
(lp1396
(lp1397
I2
aI17
aI462
aasS'1MVC'
p1398
(lp1399
(lp1400
I2
aI17
aI462
aasS'1KV6'
p1401
(lp1402
(lp1403
I7
aI1
aI1441
aasS'1BVG'
p1404
(lp1405
(lp1406
I6
aI1
aI458
aa(lp1407
I4
aI269
aI1162
aa(lp1408
I5
aI1021
aI1413
aasS'2QTU'
p1409
(lp1410
(lp1411
I2
aI17
aI529
aasS'1BVE'
p1412
(lp1413
(lp1414
I6
aI1
aI458
aa(lp1415
I4
aI269
aI1162
aa(lp1416
I5
aI1021
aI1413
aasS'1MVP'
p1417
(lp1418
(lp1419
I1
aI1
aI124
aasS'2B1V'
p1420
(lp1421
(lp1422
I7
aI1
aI852
aa(lp1423
I8
aI1013
aI1463
aasS'2B1Z'
p1424
(lp1425
(lp1426
I7
aI1
aI852
aa(lp1427
I8
aI1013
aI1463
aasS'2HC4'
p1428
(lp1429
(lp1430
I2
aI2
aI453
aasS'2JE4'
p1431
(lp1432
(lp1433
I4
aI271
aI1140
aa(lp1434
I5
aI1006
aI1415
aasS'5AH6'
p1435
(lp1436
(lp1437
I6
aI1
aI462
aa(lp1438
I4
aI269
aI1174
aa(lp1439
I5
aI1033
aI1425
aasS'5AH7'
p1440
(lp1441
(lp1442
I6
aI1
aI462
aa(lp1443
I4
aI269
aI1174
aa(lp1444
I5
aI1033
aI1425
aasS'5AH8'
p1445
(lp1446
(lp1447
I6
aI1
aI462
aa(lp1448
I4
aI269
aI1174
aa(lp1449
I5
aI1033
aI1425
aasS'5AH9'
p1450
(lp1451
(lp1452
I6
aI1
aI462
aa(lp1453
I4
aI269
aI1174
aa(lp1454
I5
aI1033
aI1425
aasS'2Q8S'
p1455
(lp1456
(lp1457
I2
aI96
aI505
aasS'3B7V'
p1458
(lp1459
(lp1460
I6
aI1
aI462
aa(lp1461
I4
aI269
aI1174
aa(lp1462
I5
aI1074
aI1425
aasS'4QJ2'
p1463
(lp1464
(lp1465
I6
aI1
aI460
aa(lp1466
I4
aI271
aI1140
aa(lp1467
I5
aI1006
aI1415
aasS'2FMB'
p1468
(lp1469
(lp1470
I1
aI2
aI104
aasS'4QJ7'
p1471
(lp1472
(lp1473
I6
aI1
aI460
aa(lp1474
I4
aI271
aI1140
aa(lp1475
I5
aI1006
aI1415
aasS'3D90'
p1476
(lp1477
(lp1478
I2
aI534
aI933
aasS'4MG9'
p1479
(lp1480
(lp1481
I7
aI1
aI1441
aasS'3UUC'
p1482
(lp1483
(lp1484
I2
aI27
aI566
aasS'3UHL'
p1485
(lp1486
(lp1487
I6
aI1
aI462
aa(lp1488
I4
aI284
aI1174
aa(lp1489
I5
aI1033
aI1425
aasS'3M7R'
p1490
(lp1491
(lp1492
I2
aI2
aI427
aasS'1IDB'
p1493
(lp1494
(lp1495
I4
aI286
aI1444
aasS'1IDA'
p1496
(lp1497
(lp1498
I4
aI286
aI1444
aasS'1N4H'
p1499
(lp1500
(lp1501
I7
aI1
aI1441
aasS'4QJ8'
p1502
(lp1503
(lp1504
I6
aI1
aI460
aa(lp1505
I4
aI271
aI1140
aa(lp1506
I5
aI1006
aI1415
aasS'5AHB'
p1507
(lp1508
(lp1509
I6
aI1
aI462
aa(lp1510
I4
aI269
aI1174
aa(lp1511
I5
aI1033
aI1425
aasS'5AHC'
p1512
(lp1513
(lp1514
I6
aI1
aI462
aa(lp1515
I4
aI269
aI1174
aa(lp1516
I5
aI1033
aI1425
aasS'5AHA'
p1517
(lp1518
(lp1519
I6
aI1
aI462
aa(lp1520
I4
aI269
aI1174
aa(lp1521
I5
aI1033
aI1425
aasS'2I0A'
p1522
(lp1523
(lp1524
I1
aI1
aI99
aasS'4MG5'
p1525
(lp1526
(lp1527
I7
aI1
aI1441
aasS'5UPJ'
p1528
(lp1529
(lp1530
I4
aI286
aI1444
aasS'1KJ7'
p1531
(lp1532
(lp1533
I6
aI1
aI434
aa(lp1534
I4
aI269
aI1417
aasS'1KJ4'
p1535
(lp1536
(lp1537
I6
aI1
aI434
aa(lp1538
I4
aI269
aI1417
aasS'1KJF'
p1539
(lp1540
(lp1541
I6
aI1
aI434
aa(lp1542
I4
aI269
aI1417
aasS'1KJG'
p1543
(lp1544
(lp1545
I4
aI271
aI1140
aa(lp1546
I5
aI1006
aI1415
aasS'1KJH'
p1547
(lp1548
(lp1549
I6
aI1
aI462
aa(lp1550
I4
aI269
aI1174
aa(lp1551
I5
aI1033
aI1425
aasS'2J9J'
p1552
(lp1553
(lp1554
I4
aI271
aI1140
aa(lp1555
I5
aI1006
aI1415
aasS'1XJ7'
p1556
(lp1557
(lp1558
I2
aI536
aI920
aasS'1G2N'
p1559
(lp1560
(lp1561
I2
aI1
aI258
aasS'1G2K'
p1562
(lp1563
(lp1564
I6
aI1
aI462
aa(lp1565
I4
aI269
aI1174
aa(lp1566
I5
aI1074
aI1425
aasS'2Q1V'
p1567
(lp1568
(lp1569
I2
aI2
aI250
aasS'1AAQ'
p1570
(lp1571
(lp1572
I6
aI1
aI462
aa(lp1573
I4
aI284
aI1174
aa(lp1574
I5
aI1033
aI1425
aasS'4CP7'
p1575
(lp1576
(lp1577
I6
aI1
aI462
aa(lp1578
I4
aI269
aI1174
aa(lp1579
I5
aI1033
aI1425
aasS'3QIH'
p1580
(lp1581
(lp1582
I6
aI1
aI462
aa(lp1583
I4
aI284
aI1174
aa(lp1584
I5
aI1033
aI1425
aasS'3V4A'
p1585
(lp1586
(lp1587
I2
aI536
aI920
aasS'1QBR'
p1588
(lp1589
(lp1590
I6
aI1
aI458
aa(lp1591
I4
aI269
aI1162
aa(lp1592
I5
aI1021
aI1413
aasS'1QBS'
p1593
(lp1594
(lp1595
I6
aI1
aI458
aa(lp1596
I4
aI269
aI1162
aa(lp1597
I5
aI1021
aI1413
aasS'1QBT'
p1598
(lp1599
(lp1600
I6
aI1
aI458
aa(lp1601
I4
aI269
aI1162
aa(lp1602
I5
aI1021
aI1413
aasS'1QBU'
p1603
(lp1604
(lp1605
I6
aI1
aI458
aa(lp1606
I4
aI269
aI1162
aa(lp1607
I5
aI1021
aI1413
aasS'1U8G'
p1608
(lp1609
(lp1610
I6
aI1
aI462
aa(lp1611
I4
aI284
aI1174
aa(lp1612
I5
aI1033
aI1425
aasS'4LTW'
p1613
(lp1614
(lp1615
I2
aI1
aI252
aasS'4LBD'
p1616
(lp1617
(lp1618
I2
aI4
aI267
aasS'1NAX'
p1619
(lp1620
(lp1621
I2
aI69
aI461
aasS'1A8K'
p1622
(lp1623
(lp1624
I6
aI1
aI462
aa(lp1625
I4
aI284
aI1174
aa(lp1626
I5
aI1033
aI1425
aasS'1SJ0'
p1627
(lp1628
(lp1629
I2
aI27
aI566
aasS'1FIV'
p1630
(lp1631
(lp1632
I3
aI725
aI850
aa(lp1633
I4
aI1
aI737
aa(lp1634
I5
aI801
aI1111
aasS'1B11'
p1635
(lp1636
(lp1637
I1
aI1
aI113
aasS'2O4P'
p1638
(lp1639
(lp1640
I6
aI1
aI462
aa(lp1641
I4
aI269
aI1174
aa(lp1642
I5
aI1016
aI1425
aasS'2P1T'
p1643
(lp1644
(lp1645
I2
aI17
aI462
aasS'4K7A'
p1646
(lp1647
(lp1648
I2
aI536
aI920
aasS'3NXE'
p1649
(lp1650
(lp1651
I1
aI1
aI203
aasS'1R1K'
p1652
(lp1653
(lp1654
I2
aI93
aI567
aasS'3NXN'
p1655
(lp1656
(lp1657
I4
aI271
aI1140
aa(lp1658
I5
aI1006
aI1415
aasS'1DIF'
p1659
(lp1660
(lp1661
I6
aI1
aI462
aa(lp1662
I4
aI284
aI1174
aa(lp1663
I5
aI1033
aI1425
aasS'3HDK'
p1664
(lp1665
(lp1666
I4
aI271
aI1140
aa(lp1667
I5
aI1006
aI1415
aasS'2OM9'
p1668
(lp1669
(lp1670
I2
aI96
aI505
aasS'4OGH'
p1671
(lp1672
(lp1673
I2
aI536
aI920
aasS'4Q1Y'
p1674
(lp1675
(lp1676
I6
aI1
aI458
aa(lp1677
I4
aI269
aI1162
aa(lp1678
I5
aI1021
aI1413
aasS'3FX5'
p1679
(lp1680
(lp1681
I6
aI1
aI462
aa(lp1682
I4
aI284
aI1174
aa(lp1683
I5
aI1033
aI1425
aasS'3PSU'
p1684
(lp1685
(lp1686
I6
aI1
aI462
aa(lp1687
I4
aI269
aI1174
aa(lp1688
I5
aI1033
aI1425
aasS'3P0U'
p1689
(lp1690
(lp1691
I2
aI13
aI592
aasS'4PF3'
p1692
(lp1693
(lp1694
I2
aI490
aI984
aasS'2QMV'
p1695
(lp1696
(lp1697
I2
aI96
aI505
aasS'2QMP'
p1698
(lp1699
(lp1700
I1
aI1
aI99
aasS'2B23'
p1701
(lp1702
(lp1703
I7
aI1
aI852
aa(lp1704
I8
aI1013
aI1463
aasS'4P6W'
p1705
(lp1706
(lp1707
I7
aI1
aI852
aa(lp1708
I8
aI1013
aI1463
aasS'2AID'
p1709
(lp1710
(lp1711
I4
aI271
aI1140
aa(lp1712
I5
aI1006
aI1415
aasS'3GD2'
p1713
(lp1714
(lp1715
I2
aI64
aI486
aasS'1T5Z'
p1716
(lp1717
(lp1718
I2
aI536
aI920
aasS'4OIU'
p1719
(lp1720
(lp1721
I2
aI536
aI920
aasS'4OIV'
p1722
(lp1723
(lp1724
I2
aI64
aI486
aasS'4PHV'
p1725
(lp1726
(lp1727
I6
aI1
aI454
aa(lp1728
I4
aI269
aI856
aa(lp1729
I5
aI1021
aI1398
aasS'4I8W'
p1730
(lp1731
(lp1732
I6
aI1
aI458
aa(lp1733
I4
aI269
aI1162
aa(lp1734
I5
aI1021
aI1413
aasS'4I8Z'
p1735
(lp1736
(lp1737
I6
aI1
aI458
aa(lp1738
I4
aI269
aI1162
aa(lp1739
I5
aI1021
aI1413
aasS'1YIM'
p1740
(lp1741
(lp1742
I2
aI27
aI566
aasS'4IU7'
p1743
(lp1744
(lp1745
I7
aI1
aI852
aa(lp1746
I8
aI1013
aI1463
aasS'1YIN'
p1747
(lp1748
(lp1749
I2
aI27
aI566
aasS'3UF3'
p1750
(lp1751
(lp1752
I6
aI1
aI462
aa(lp1753
I4
aI284
aI1174
aa(lp1754
I5
aI1033
aI1425
aasS'4OIL'
p1755
(lp1756
(lp1757
I2
aI536
aI920
aasS'3EBZ'
p1758
(lp1759
(lp1760
I4
aI286
aI1444
aasS'2HVC'
p1761
(lp1762
(lp1763
I2
aI536
aI920
aasS'1VIJ'
p1764
(lp1765
(lp1766
I6
aI1
aI465
aa(lp1767
I4
aI270
aI1163
aa(lp1768
I5
aI1022
aI1414
aasS'2AMA'
p1769
(lp1770
(lp1771
I2
aI536
aI920
aasS'2HVP'
p1772
(lp1773
(lp1774
I1
aI1
aI99
aasS'2JFA'
p1775
(lp1776
(lp1777
I2
aI27
aI566
aasS'2JF9'
p1778
(lp1779
(lp1780
I2
aI27
aI566
aasS'1IE9'
p1781
(lp1782
(lp1783
I2
aI2
aI427
aasS'1IE8'
p1784
(lp1785
(lp1786
I2
aI2
aI427
aasS'3UFN'
p1787
(lp1788
(lp1789
I6
aI1
aI462
aa(lp1790
I4
aI284
aI1174
aa(lp1791
I5
aI1033
aI1425
aasS'3ADT'
p1792
(lp1793
(lp1794
I2
aI96
aI505
aasS'3JZC'
p1795
(lp1796
(lp1797
I2
aI69
aI461
aasS'3JZB'
p1798
(lp1799
(lp1800
I2
aI1
aI383
aasS'4IUI'
p1801
(lp1802
(lp1803
I7
aI1
aI852
aa(lp1804
I8
aI1013
aI1463
aasS'3HZF'
p1805
(lp1806
(lp1807
I2
aI1
aI383
aasS'3HZC'
p1808
(lp1809
(lp1810
I4
aI271
aI1140
aa(lp1811
I5
aI1006
aI1415
aasS'3G0W'
p1812
(lp1813
(lp1814
I2
aI518
aI902
aasS'3B65'
p1815
(lp1816
(lp1817
I2
aI536
aI920
aasS'3B67'
p1818
(lp1819
(lp1820
I2
aI536
aI920
aasS'3B66'
p1821
(lp1822
(lp1823
I2
aI536
aI920
aasS'3RLJ'
p1824
(lp1825
(lp1826
I2
aI536
aI920
aasS'3RLL'
p1827
(lp1828
(lp1829
I2
aI536
aI920
aasS'3OXX'
p1830
(lp1831
(lp1832
I4
aI271
aI1140
aa(lp1833
I5
aI1006
aI1415
aasS'1S19'
p1834
(lp1835
(lp1836
I2
aI2
aI427
aasS'4ZJW'
p1837
(lp1838
(lp1839
I2
aI4
aI511
aasS'1KKQ'
p1840
(lp1841
(lp1842
I2
aI13
aI468
aasS'3OXW'
p1843
(lp1844
(lp1845
I4
aI271
aI1140
aa(lp1846
I5
aI1006
aI1415
aasS'4ZJR'
p1847
(lp1848
(lp1849
I2
aI4
aI511
aasS'1GNM'
p1850
(lp1851
(lp1852
I6
aI1
aI462
aa(lp1853
I4
aI269
aI1174
aa(lp1854
I5
aI1033
aI1425
aasS'2Q5G'
p1855
(lp1856
(lp1857
I2
aI25
aI441
aasS'2F3K'
p1858
(lp1859
(lp1860
I4
aI271
aI1140
aa(lp1861
I5
aI1006
aI1415
aasS'2NV7'
p1862
(lp1863
(lp1864
I7
aI1
aI1441
aasS'2NXX'
p1865
(lp1866
(lp1867
I2
aI1
aI247
aasS'2Q5K'
p1868
(lp1869
(lp1870
I1
aI1
aI99
aasS'2NXD'
p1871
(lp1872
(lp1873
I4
aI271
aI1140
aa(lp1874
I5
aI1006
aI1415
aasS'2Q5P'
p1875
(lp1876
(lp1877
I2
aI96
aI505
aasS'2Q5S'
p1878
(lp1879
(lp1880
I2
aI96
aI505
aasS'2NXL'
p1881
(lp1882
(lp1883
I4
aI271
aI1140
aa(lp1884
I5
aI1006
aI1415
aasS'2NXM'
p1885
(lp1886
(lp1887
I4
aI271
aI1140
aa(lp1888
I5
aI1006
aI1415
aasS'2YFE'
p1889
(lp1890
(lp1891
I2
aI96
aI505
aasS'3NDW'
p1892
(lp1893
(lp1894
I6
aI1
aI462
aa(lp1895
I4
aI284
aI1174
aa(lp1896
I5
aI1033
aI1425
aasS'2Q55'
p1897
(lp1898
(lp1899
I1
aI1
aI99
aasS'2ZMI'
p1900
(lp1901
(lp1902
I2
aI2
aI422
aasS'3NDT'
p1903
(lp1904
(lp1905
I6
aI1
aI462
aa(lp1906
I4
aI269
aI1174
aa(lp1907
I5
aI1033
aI1425
aasS'1G35'
p1908
(lp1909
(lp1910
I6
aI1
aI462
aa(lp1911
I4
aI269
aI1174
aa(lp1912
I5
aI1033
aI1425
aasS'2Q59'
p1913
(lp1914
(lp1915
I2
aI96
aI505
aasS'3NDX'
p1916
(lp1917
(lp1918
I6
aI1
aI462
aa(lp1919
I4
aI284
aI1174
aa(lp1920
I5
aI1033
aI1425
aasS'3D6D'
p1921
(lp1922
(lp1923
I2
aI96
aI505
aasS'2FNT'
p1924
(lp1925
(lp1926
I4
aI271
aI1140
aa(lp1927
I5
aI1006
aI1415
aasS'2FNS'
p1928
(lp1929
(lp1930
I4
aI271
aI1140
aa(lp1931
I5
aI1006
aI1415
aasS'4CI4'
p1932
(lp1933
(lp1934
I2
aI13
aI468
aasS'4CI5'
p1935
(lp1936
(lp1937
I2
aI96
aI505
aasS'3GGX'
p1938
(lp1939
(lp1940
I6
aI1
aI462
aa(lp1941
I4
aI269
aI1174
aa(lp1942
I5
aI1033
aI1425
aasS'3AN4'
p1943
(lp1944
(lp1945
I2
aI96
aI505
aasS'3AN3'
p1946
(lp1947
(lp1948
I2
aI96
aI505
aasS'3FIV'
p1949
(lp1950
(lp1951
I3
aI725
aI850
aa(lp1952
I4
aI1
aI737
aa(lp1953
I5
aI801
aI1111
aasS'4L1A'
p1954
(lp1955
(lp1956
I1
aI1
aI99
aasS'3MIM'
p1957
(lp1958
(lp1959
I6
aI1
aI458
aa(lp1960
I4
aI269
aI1162
aa(lp1961
I5
aI1021
aI1413
aasS'3KMR'
p1962
(lp1963
(lp1964
I7
aI1
aI1441
aasS'2ZXZ'
p1965
(lp1966
(lp1967
I2
aI17
aI462
aasS'3KMG'
p1968
(lp1969
(lp1970
I2
aI96
aI505
aasS'2ZXM'
p1971
(lp1972
(lp1973
I2
aI2
aI422
aasS'2ZXN'
p1974
(lp1975
(lp1976
I2
aI2
aI422
aasS'1U9E'
p1977
(lp1978
(lp1979
I2
aI17
aI529
aasS'4RAK'
p1980
(lp1981
(lp1982
I2
aI1
aI460
aasS'1PQC'
p1983
(lp1984
(lp1985
I2
aI1
aI460
aasS'3H5B'
p1986
(lp1987
(lp1988
I6
aI1
aI462
aa(lp1989
I4
aI284
aI1174
aa(lp1990
I5
aI1033
aI1425
aasS'3PRG'
p1991
(lp1992
(lp1993
I2
aI96
aI505
aasS'4A6C'
p1994
(lp1995
(lp1996
I6
aI1
aI454
aa(lp1997
I4
aI269
aI856
aa(lp1998
I5
aI1004
aI1398
aasS'4A6B'
p1999
(lp2000
(lp2001
I6
aI1
aI454
aa(lp2002
I4
aI269
aI856
aa(lp2003
I5
aI1004
aI1398
aasS'4DM8'
p2004
(lp2005
(lp2006
I7
aI1
aI1441
aasS'4DM6'
p2007
(lp2008
(lp2009
I7
aI1
aI1441
aasS'3BC4'
p2010
(lp2011
(lp2012
I6
aI1
aI462
aa(lp2013
I4
aI269
aI1174
aa(lp2014
I5
aI1074
aI1425
aasS'3BC5'
p2015
(lp2016
(lp2017
I2
aI96
aI505
aasS'4DMA'
p2018
(lp2019
(lp2020
I7
aI1
aI1433
aasS'3PLZ'
p2021
(lp2022
(lp2023
I7
aI1
aI852
aa(lp2024
I8
aI1013
aI1463
aasS'3H52'
p2025
(lp2026
(lp2027
I10
aI1
aI940
aa(lp2028
I11
aI1960
aI2439
aa(lp2029
I12
aI993
aI1790
aasS'3WSJ'
p2030
(lp2031
(lp2032
I9
aI1
aI116
aasS'3O9I'
p2033
(lp2034
(lp2035
I6
aI1
aI460
aa(lp2036
I4
aI271
aI1140
aa(lp2037
I5
aI1006
aI1415
aasS'1PQ9'
p2038
(lp2039
(lp2040
I2
aI1
aI460
aasS'1PQ6'
p2041
(lp2042
(lp2043
I2
aI1
aI460
aasS'1SKX'
p2044
(lp2045
(lp2046
I2
aI18
aI433
aasS'1I37'
p2047
(lp2048
(lp2049
I2
aI518
aI902
aasS'2HAS'
p2050
(lp2051
(lp2052
I2
aI2
aI427
aasS'2HAR'
p2053
(lp2054
(lp2055
I2
aI2
aI427
aasS'1I38'
p2056
(lp2057
(lp2058
I2
aI518
aI902
aasS'1MT8'
p2059
(lp2060
(lp2061
I6
aI1
aI460
aa(lp2062
I4
aI271
aI1140
aa(lp2063
I5
aI1006
aI1415
aasS'1MT9'
p2064
(lp2065
(lp2066
I6
aI1
aI460
aa(lp2067
I4
aI271
aI1140
aa(lp2068
I5
aI1006
aI1415
aasS'2HAM'
p2069
(lp2070
(lp2071
I2
aI2
aI427
aasS'1MT7'
p2072
(lp2073
(lp2074
I6
aI1
aI460
aa(lp2075
I4
aI271
aI1140
aa(lp2076
I5
aI1006
aI1415
aasS'2HAH'
p2077
(lp2078
(lp2079
I3
aI725
aI850
aa(lp2080
I4
aI1
aI737
aa(lp2081
I5
aI801
aI1111
aasS'2EWP'
p2082
(lp2083
(lp2084
I2
aI57
aI458
aasS'3UU7'
p2085
(lp2086
(lp2087
I7
aI1
aI1441
aasS'3ZR7'
p2088
(lp2089
(lp2090
I2
aI534
aI933
aasS'2E2R'
p2091
(lp2092
(lp2093
I2
aI57
aI458
aasS'3NUO'
p2094
(lp2095
(lp2096
I6
aI1
aI462
aa(lp2097
I4
aI269
aI1174
aa(lp2098
I5
aI1033
aI1425
aasS'3NUJ'
p2099
(lp2100
(lp2101
I6
aI1
aI462
aa(lp2102
I4
aI269
aI1174
aa(lp2103
I5
aI1033
aI1425
aasS'3NU4'
p2104
(lp2105
(lp2106
I6
aI1
aI462
aa(lp2107
I4
aI269
aI1174
aa(lp2108
I5
aI1033
aI1425
aasS'3NU5'
p2109
(lp2110
(lp2111
I6
aI1
aI462
aa(lp2112
I4
aI269
aI1174
aa(lp2113
I5
aI1033
aI1425
aasS'3NU6'
p2114
(lp2115
(lp2116
I6
aI1
aI462
aa(lp2117
I4
aI269
aI1174
aa(lp2118
I5
aI1033
aI1425
aasS'3NU3'
p2119
(lp2120
(lp2121
I6
aI1
aI462
aa(lp2122
I4
aI269
aI1174
aa(lp2123
I5
aI1033
aI1425
aasS'1HPO'
p2124
(lp2125
(lp2126
I6
aI1
aI462
aa(lp2127
I4
aI269
aI1174
aa(lp2128
I5
aI1016
aI1425
aasS'4UMM'
p2129
(lp2130
(lp2131
I2
aI93
aI567
aasS'3NU9'
p2132
(lp2133
(lp2134
I6
aI1
aI462
aa(lp2135
I4
aI269
aI1174
aa(lp2136
I5
aI1033
aI1425
aasS'3I2L'
p2137
(lp2138
(lp2139
I6
aI1
aI460
aa(lp2140
I4
aI271
aI1140
aa(lp2141
I5
aI1006
aI1415
aasS'1HPV'
p2142
(lp2143
(lp2144
I6
aI1
aI462
aa(lp2145
I4
aI269
aI1174
aa(lp2146
I5
aI1074
aI1425
aasS'3UUD'
p2147
(lp2148
(lp2149
I7
aI1
aI1441
aasS'4K6I'
p2150
(lp2151
(lp2152
I2
aI17
aI462
aasS'1JLD'
p2153
(lp2154
(lp2155
I4
aI286
aI1444
aasS'3UUA'
p2156
(lp2157
(lp2158
I7
aI1
aI1441
aasS'3ZRB'
p2159
(lp2160
(lp2161
I2
aI534
aI933
aasS'1PCG'
p2162
(lp2163
(lp2164
I2
aI27
aI566
aasS'1HPX'
p2165
(lp2166
(lp2167
I6
aI1
aI462
aa(lp2168
I4
aI269
aI1174
aa(lp2169
I5
aI1016
aI1425
aasS'3D3T'
p2170
(lp2171
(lp2172
I13
aI271
aI485
aa(lp2173
I6
aI1
aI465
aasS'4OFR'
p2174
(lp2175
(lp2176
I2
aI536
aI920
aasS'1MTB'
p2177
(lp2178
(lp2179
I6
aI1
aI460
aa(lp2180
I4
aI271
aI1140
aa(lp2181
I5
aI1006
aI1415
aasS'3VSP'
p2182
(lp2183
(lp2184
I2
aI96
aI505
aasS'3VSO'
p2185
(lp2186
(lp2187
I2
aI96
aI505
aasS'1MTR'
p2188
(lp2189
(lp2190
I6
aI1
aI460
aa(lp2191
I4
aI271
aI1140
aa(lp2192
I5
aI1006
aI1415
aasS'2R38'
p2193
(lp2194
(lp2195
I6
aI1
aI462
aa(lp2196
I4
aI269
aI1174
aa(lp2197
I5
aI1074
aI1425
aasS'1D4S'
p2198
(lp2199
(lp2200
I6
aI1
aI462
aa(lp2201
I4
aI269
aI1174
aa(lp2202
I5
aI1016
aI1425
aasS'2G0H'
p2203
(lp2204
(lp2205
I2
aI96
aI505
aasS'2G0G'
p2206
(lp2207
(lp2208
I2
aI96
aI505
aasS'1D4Y'
p2209
(lp2210
(lp2211
I6
aI1
aI462
aa(lp2212
I4
aI269
aI1174
aa(lp2213
I5
aI1016
aI1425
aasS'1YTJ'
p2214
(lp2215
(lp2216
I4
aI148
aI1344
aa(lp2217
I5
aI1021
aI1437
aasS'1YTH'
p2218
(lp2219
(lp2220
I6
aI1
aI460
aa(lp2221
I4
aI271
aI1140
aa(lp2222
I5
aI1006
aI1415
aasS'1YTI'
p2223
(lp2224
(lp2225
I4
aI148
aI1344
aa(lp2226
I5
aI1021
aI1437
aasS'2YAT'
p2227
(lp2228
(lp2229
I2
aI27
aI566
aasS'3GYU'
p2230
(lp2231
(lp2232
I7
aI1
aI1441
aasS'2WL0'
p2233
(lp2234
(lp2235
I6
aI1
aI465
aa(lp2236
I4
aI270
aI1163
aa(lp2237
I5
aI1022
aI1414
aasS'1D4L'
p2238
(lp2239
(lp2240
I6
aI1
aI460
aa(lp2241
I4
aI271
aI1140
aa(lp2242
I5
aI1006
aI1415
aasS'1D4K'
p2243
(lp2244
(lp2245
I6
aI1
aI460
aa(lp2246
I4
aI271
aI1140
aa(lp2247
I5
aI1006
aI1415
aasS'1D4J'
p2248
(lp2249
(lp2250
I6
aI1
aI462
aa(lp2251
I4
aI269
aI1174
aa(lp2252
I5
aI1033
aI1425
aasS'1D4I'
p2253
(lp2254
(lp2255
I6
aI1
aI462
aa(lp2256
I4
aI269
aI1174
aa(lp2257
I5
aI1033
aI1425
aasS'1D4H'
p2258
(lp2259
(lp2260
I6
aI1
aI462
aa(lp2261
I4
aI269
aI1174
aa(lp2262
I5
aI1033
aI1425
aasS'4OH6'
p2263
(lp2264
(lp2265
I2
aI536
aI920
aasS'4OH5'
p2266
(lp2267
(lp2268
I2
aI536
aI920
aasS'3D5F'
p2269
(lp2270
(lp2271
I2
aI25
aI441
aasS'3CS6'
p2272
(lp2273
(lp2274
I2
aI2
aI427
aasS'3CS4'
p2275
(lp2276
(lp2277
I2
aI2
aI427
aasS'3CS8'
p2278
(lp2279
(lp2280
I14
aI24
aI216
aa(lp2281
I15
aI667
aI796
aa(lp2282
I16
aI255
aI467
aasS'3EC0'
p2283
(lp2284
(lp2285
I4
aI286
aI1444
aasS'3TOH'
p2286
(lp2287
(lp2288
I6
aI1
aI462
aa(lp2289
I4
aI269
aI1174
aa(lp2290
I5
aI1016
aI1425
aasS'4OZT'
p2291
(lp2292
(lp2293
I2
aI1
aI195
aasS'3TOF'
p2294
(lp2295
(lp2296
I6
aI1
aI462
aa(lp2297
I4
aI269
aI1174
aa(lp2298
I5
aI1016
aI1425
aasS'3TOG'
p2299
(lp2300
(lp2301
I6
aI1
aI462
aa(lp2302
I4
aI269
aI1174
aa(lp2303
I5
aI1016
aI1425
aasS'4OZR'
p2304
(lp2305
(lp2306
I2
aI1
aI196
aasS'4ITE'
p2307
(lp2308
(lp2309
I2
aI2
aI427
aasS'4ITF'
p2310
(lp2311
(lp2312
I2
aI2
aI427
aasS'3ECG'
p2313
(lp2314
(lp2315
I4
aI286
aI1444
aasS'1MZN'
p2316
(lp2317
(lp2318
I2
aI17
aI462
aasS'3D57'
p2319
(lp2320
(lp2321
I2
aI69
aI461
aasS'4OHA'
p2322
(lp2323
(lp2324
I2
aI536
aI920
aasS'1YT9'
p2325
(lp2326
(lp2327
I6
aI1
aI462
aa(lp2328
I4
aI269
aI1174
aa(lp2329
I5
aI1033
aI1425
aasS'4MDD'
p2330
(lp2331
(lp2332
I10
aI1
aI940
aa(lp2333
I11
aI1960
aI2439
aa(lp2334
I12
aI993
aI1790
aasS'2R3T'
p2335
(lp2336
(lp2337
I6
aI1
aI462
aa(lp2338
I4
aI269
aI1174
aa(lp2339
I5
aI1074
aI1425
aasS'2R3W'
p2340
(lp2341
(lp2342
I6
aI1
aI462
aa(lp2343
I4
aI269
aI1174
aa(lp2344
I5
aI1074
aI1425
aasS'2HWR'
p2345
(lp2346
(lp2347
I2
aI96
aI505
aasS'2HWQ'
p2348
(lp2349
(lp2350
I2
aI96
aI505
aasS'1KZK'
p2351
(lp2352
(lp2353
I6
aI1
aI460
aa(lp2354
I4
aI271
aI1140
aa(lp2355
I5
aI1006
aI1415
aasS'4Q50'
p2356
(lp2357
(lp2358
I2
aI27
aI566
aasS'2FAI'
p2359
(lp2360
(lp2361
I7
aI1
aI852
aa(lp2362
I8
aI1013
aI1463
aasS'3OY4'
p2363
(lp2364
(lp2365
I6
aI1
aI460
aa(lp2366
I4
aI271
aI1140
aa(lp2367
I5
aI1006
aI1415
aasS'1WBM'
p2368
(lp2369
(lp2370
I1
aI1
aI99
aasS'1WBK'
p2371
(lp2372
(lp2373
I1
aI1
aI99
aasS'3OOK'
p2374
(lp2375
(lp2376
I7
aI1
aI1441
aasS'2ZYE'
p2377
(lp2378
(lp2379
I6
aI1
aI462
aa(lp2380
I4
aI269
aI1174
aa(lp2381
I5
aI1016
aI1425
aasS'2ZY0'
p2382
(lp2383
(lp2384
I2
aI17
aI462
aasS'4U7Q'
p2385
(lp2386
(lp2387
I6
aI1
aI458
aa(lp2388
I4
aI269
aI1162
aa(lp2389
I5
aI1021
aI1413
aasS'4U7V'
p2390
(lp2391
(lp2392
I6
aI1
aI458
aa(lp2393
I4
aI269
aI1162
aa(lp2394
I5
aI1021
aI1413
aasS'4NJS'
p2395
(lp2396
(lp2397
I1
aI1
aI99
aasS'4NJT'
p2398
(lp2399
(lp2400
I1
aI1
aI99
aasS'4NJU'
p2401
(lp2402
(lp2403
I1
aI1
aI99
aasS'4NJV'
p2404
(lp2405
(lp2406
I1
aI1
aI99
aasS'2IOG'
p2407
(lp2408
(lp2409
I2
aI27
aI566
aasS'2IOK'
p2410
(lp2411
(lp2412
I2
aI27
aI566
aasS'4Q5M'
p2413
(lp2414
(lp2415
I6
aI1
aI458
aa(lp2416
I4
aI269
aI1162
aa(lp2417
I5
aI1021
aI1413
aasS'4FNE'
p2418
(lp2419
(lp2420
I2
aI1
aI254
aasS'2AYR'
p2421
(lp2422
(lp2423
I2
aI27
aI566
aasS'2ZKC'
p2424
(lp2425
(lp2426
I2
aI57
aI458
aasS'3M9F'
p2427
(lp2428
(lp2429
I1
aI1
aI99
aasS'1FG8'
p2430
(lp2431
(lp2432
I6
aI1
aI462
aa(lp2433
I4
aI269
aI1174
aa(lp2434
I5
aI1074
aI1425
aasS'3PCU'
p2435
(lp2436
(lp2437
I2
aI17
aI462
aasS'1FG6'
p2438
(lp2439
(lp2440
I6
aI1
aI462
aa(lp2441
I4
aI269
aI1174
aa(lp2442
I5
aI1074
aI1425
aasS'1TXI'
p2443
(lp2444
(lp2445
I2
aI2
aI427
aasS'3WT6'
p2446
(lp2447
(lp2448
I2
aI2
aI422
aasS'1HOS'
p2449
(lp2450
(lp2451
I6
aI1
aI462
aa(lp2452
I4
aI269
aI1174
aa(lp2453
I5
aI1033
aI1425
aasS'4GB2'
p2454
(lp2455
(lp2456
I6
aI1
aI462
aa(lp2457
I4
aI269
aI1174
aa(lp2458
I5
aI1016
aI1425
aasS'1Y0X'
p2459
(lp2460
(lp2461
I2
aI69
aI461
aasS'1Y0S'
p2462
(lp2463
(lp2464
I2
aI25
aI441
aasS'1Z1R'
p2465
(lp2466
(lp2467
I6
aI1
aI460
aa(lp2468
I4
aI271
aI1140
aa(lp2469
I5
aI1006
aI1415
aasS'1FGC'
p2470
(lp2471
(lp2472
I6
aI1
aI462
aa(lp2473
I4
aI269
aI1174
aa(lp2474
I5
aI1074
aI1425
aasS'1Z1H'
p2475
(lp2476
(lp2477
I6
aI1
aI460
aa(lp2478
I4
aI271
aI1140
aa(lp2479
I5
aI1006
aI1415
aasS'2FSZ'
p2480
(lp2481
(lp2482
I2
aI17
aI529
aasS'2ZK0'
p2483
(lp2484
(lp2485
I2
aI96
aI505
aasS'2ZK3'
p2486
(lp2487
(lp2488
I2
aI96
aI505
aasS'2ZK2'
p2489
(lp2490
(lp2491
I2
aI96
aI505
aasS'2ZK5'
p2492
(lp2493
(lp2494
I2
aI96
aI505
aasS'4FN9'
p2495
(lp2496
(lp2497
I2
aI1
aI254
aasS'2ZK6'
p2498
(lp2499
(lp2500
I2
aI96
aI505
aasS'3UVV'
p2501
(lp2502
(lp2503
I2
aI1
aI408
aasS'1HSG'
p2504
(lp2505
(lp2506
I6
aI1
aI462
aa(lp2507
I4
aI269
aI1174
aa(lp2508
I5
aI1016
aI1425
aasS'3R8I'
p2509
(lp2510
(lp2511
I2
aI96
aI505
aasS'3WFG'
p2512
(lp2513
(lp2514
I2
aI490
aI984
aasS'1VJB'
p2515
(lp2516
(lp2517
I2
aI57
aI458
aasS'1HSH'
p2518
(lp2519
(lp2520
I4
aI286
aI1444
aasS'1HSI'
p2521
(lp2522
(lp2523
I4
aI286
aI1444
aasS'3R8A'
p2524
(lp2525
(lp2526
I2
aI96
aI505
aasS'1T73'
p2527
(lp2528
(lp2529
I2
aI456
aI911
aasS'1T76'
p2530
(lp2531
(lp2532
I2
aI456
aI911
aasS'1T74'
p2533
(lp2534
(lp2535
I2
aI456
aI911
aasS'1T79'
p2536
(lp2537
(lp2538
I2
aI456
aI911
aasS'1MUI'
p2539
(lp2540
(lp2541
I1
aI1
aI99
aasS'1DKF'
p2542
(lp2543
(lp2544
I2
aI8
aI467
aasS'3VRU'
p2545
(lp2546
(lp2547
I2
aI2
aI422
aasS'3VRT'
p2548
(lp2549
(lp2550
I2
aI2
aI422
aasS'3VRW'
p2551
(lp2552
(lp2553
I2
aI2
aI422
aasS'3VRV'
p2554
(lp2555
(lp2556
I2
aI2
aI422
aasS'1X76'
p2557
(lp2558
(lp2559
I7
aI1
aI1441
aasS'1X78'
p2560
(lp2561
(lp2562
I7
aI1
aI1441
aasS'3U9Q'
p2563
(lp2564
(lp2565
I14
aI24
aI216
aa(lp2566
I15
aI667
aI796
aa(lp2567
I16
aI255
aI467
aasS'1X7E'
p2568
(lp2569
(lp2570
I2
aI27
aI566
aasS'1X7B'
p2571
(lp2572
(lp2573
I7
aI1
aI1441
aasS'4PVU'
p2574
(lp2575
(lp2576
I2
aI96
aI505
aasS'1X7J'
p2577
(lp2578
(lp2579
I7
aI1
aI1441
aasS'4KZI'
p2580
(lp2581
(lp2582
I2
aI178
aI598
aasS'2A4F'
p2583
(lp2584
(lp2585
I1
aI1
aI99
aasS'4KZJ'
p2586
(lp2587
(lp2588
I2
aI178
aI598
aasS'4KZM'
p2589
(lp2590
(lp2591
I2
aI178
aI598
aasS'4RFW'
p2592
(lp2593
(lp2594
I2
aI17
aI462
aasS'1T7F'
p2595
(lp2596
(lp2597
I2
aI456
aI911
aasS'1T7J'
p2598
(lp2599
(lp2600
I6
aI1
aI454
aa(lp2601
I4
aI269
aI856
aa(lp2602
I5
aI1004
aI1398
aasS'1T7K'
p2603
(lp2604
(lp2605
I6
aI1
aI462
aa(lp2606
I4
aI269
aI1174
aa(lp2607
I5
aI1033
aI1425
aasS'1T7I'
p2608
(lp2609
(lp2610
I6
aI1
aI454
aa(lp2611
I4
aI269
aI856
aa(lp2612
I5
aI1004
aI1398
aasS'1T7M'
p2613
(lp2614
(lp2615
I2
aI456
aI911
aasS'1T7R'
p2616
(lp2617
(lp2618
I2
aI456
aI911
aasS'3F7D'
p2619
(lp2620
(lp2621
I14
aI22
aI215
aa(lp2622
I15
aI666
aI795
aa(lp2623
I16
aI254
aI466
aasS'3DZU'
p2624
(lp2625
(lp2626
I2
aI96
aI505
aasS'3DZY'
p2627
(lp2628
(lp2629
I2
aI96
aI505
aasS'4OKW'
p2630
(lp2631
(lp2632
I2
aI536
aI920
aasS'4OKT'
p2633
(lp2634
(lp2635
I2
aI536
aI920
aasS'1OSV'
p2636
(lp2637
(lp2638
I7
aI1
aI852
aa(lp2639
I8
aI1013
aI1461
aasS'4OKX'
p2640
(lp2641
(lp2642
I2
aI536
aI920
aasS'4OKB'
p2643
(lp2644
(lp2645
I2
aI536
aI920
aasS'1OSH'
p2646
(lp2647
(lp2648
I2
aI64
aI486
aasS'4J24'
p2649
(lp2650
(lp2651
I2
aI17
aI529
aasS'4J26'
p2652
(lp2653
(lp2654
I2
aI17
aI529
aasS'1GNN'
p2655
(lp2656
(lp2657
I6
aI1
aI462
aa(lp2658
I4
aI269
aI1174
aa(lp2659
I5
aI1033
aI1425
aasS'2Q60'
p2660
(lp2661
(lp2662
I2
aI12
aI257
aasS'2GTK'
p2663
(lp2664
(lp2665
I2
aI96
aI505
aasS'3OTY'
p2666
(lp2667
(lp2668
I6
aI1
aI454
aa(lp2669
I4
aI269
aI856
aa(lp2670
I5
aI1004
aI1398
aasS'2HFP'
p2671
(lp2672
(lp2673
I2
aI96
aI505
aasS'1S0X'
p2674
(lp2675
(lp2676
I2
aI1
aI516
aasS'1S0Z'
p2677
(lp2678
(lp2679
I2
aI2
aI427
aasS'5DGW'
p2680
(lp2681
(lp2682
I6
aI1
aI458
aa(lp2683
I4
aI269
aI1162
aa(lp2684
I5
aI1021
aI1413
aasS'5DGU'
p2685
(lp2686
(lp2687
I6
aI1
aI458
aa(lp2688
I4
aI269
aI1162
aa(lp2689
I5
aI1021
aI1413
aasS'4OK1'
p2690
(lp2691
(lp2692
I2
aI536
aI920
aasS'3EL9'
p2693
(lp2694
(lp2695
I6
aI1
aI460
aa(lp2696
I4
aI271
aI1140
aa(lp2697
I5
aI1006
aI1415
aasS'4IS8'
p2698
(lp2699
(lp2700
I2
aI26
aI541
aasS'1HPS'
p2701
(lp2702
(lp2703
I1
aI1
aI99
aasS'3EL0'
p2704
(lp2705
(lp2706
I6
aI1
aI460
aa(lp2707
I4
aI271
aI1140
aa(lp2708
I5
aI1006
aI1415
aasS'2I4U'
p2709
(lp2710
(lp2711
I6
aI1
aI462
aa(lp2712
I4
aI269
aI1174
aa(lp2713
I5
aI1033
aI1425
aasS'4O8F'
p2714
(lp2715
(lp2716
I2
aI96
aI505
aasS'3B80'
p2717
(lp2718
(lp2719
I6
aI1
aI462
aa(lp2720
I4
aI269
aI1174
aa(lp2721
I5
aI1074
aI1425
aasS'3VN2'
p2722
(lp2723
(lp2724
I2
aI96
aI505
aasS'2LBD'
p2725
(lp2726
(lp2727
I2
aI4
aI267
aasS'3SPK'
p2728
(lp2729
(lp2730
I1
aI1
aI99
aasS'2Q7J'
p2731
(lp2732
(lp2733
I2
aI536
aI920
aasS'2Q7K'
p2734
(lp2735
(lp2736
I2
aI536
aI920
aasS'2Q7I'
p2737
(lp2738
(lp2739
I2
aI536
aI920
aasS'2Q7L'
p2740
(lp2741
(lp2742
I2
aI536
aI920
aasS'3E94'
p2743
(lp2744
(lp2745
I2
aI17
aI462
aasS'4NKK'
p2746
(lp2747
(lp2748
I1
aI1
aI99
aasS'4YHQ'
p2749
(lp2750
(lp2751
I6
aI1
aI462
aa(lp2752
I4
aI269
aI1174
aa(lp2753
I5
aI1033
aI1425
aasS'4G1D'
p2754
(lp2755
(lp2756
I2
aI2
aI453
aasS'2Q70'
p2757
(lp2758
(lp2759
I2
aI27
aI566
aasS'1Z5X'
p2760
(lp2761
(lp2762
I2
aI13
aI310
aasS'3SP9'
p2763
(lp2764
(lp2765
I2
aI25
aI441
aasS'3SP6'
p2766
(lp2767
(lp2768
I14
aI31
aI222
aa(lp2769
I15
aI892
aI1022
aa(lp2770
I16
aI571
aI769
aasS'1YUC'
p2771
(lp2772
(lp2773
I2
aI19
aI257
aasS'3N00'
p2774
(lp2775
(lp2776
I10
aI1
aI940
aa(lp2777
I11
aI1960
aI2439
aa(lp2778
I12
aI993
aI1790
aasS'2V0V'
p2779
(lp2780
(lp2781
I2
aI385
aI579
aa(lp2782
I2
aI44
aI268
aasS'4OFU'
p2783
(lp2784
(lp2785
I2
aI536
aI920
aasS'4JYG'
p2786
(lp2787
(lp2788
I7
aI1
aI1441
aasS'4JYI'
p2789
(lp2790
(lp2791
I7
aI1
aI1441
aasS'4JYH'
p2792
(lp2793
(lp2794
I7
aI1
aI1441
aasS'1FFI'
p2795
(lp2796
(lp2797
I6
aI1
aI462
aa(lp2798
I4
aI269
aI1174
aa(lp2799
I5
aI1074
aI1425
aasS'1FFF'
p2800
(lp2801
(lp2802
I6
aI1
aI462
aa(lp2803
I4
aI269
aI1174
aa(lp2804
I5
aI1074
aI1425
aasS'1EBY'
p2805
(lp2806
(lp2807
I6
aI1
aI462
aa(lp2808
I4
aI269
aI1174
aa(lp2809
I5
aI1033
aI1425
aasS'3CLD'
p2810
(lp2811
(lp2812
I7
aI1
aI852
aa(lp2813
I8
aI1013
aI1463
aasS'1M0B'
p2814
(lp2815
(lp2816
I6
aI1
aI462
aa(lp2817
I4
aI269
aI1174
aa(lp2818
I5
aI1016
aI1425
aasS'1FF0'
p2819
(lp2820
(lp2821
I6
aI1
aI462
aa(lp2822
I4
aI269
aI1174
aa(lp2823
I5
aI1074
aI1425
aasS'3OLL'
p2824
(lp2825
(lp2826
I7
aI1
aI1441
aasS'3OLF'
p2827
(lp2828
(lp2829
I7
aI1
aI1441
aasS'4FAF'
p2830
(lp2831
(lp2832
I6
aI1
aI462
aa(lp2833
I4
aI269
aI1174
aa(lp2834
I5
aI1016
aI1425
aasS'4NY9'
p2835
(lp2836
(lp2837
I2
aI18
aI433
aasS'3LZU'
p2838
(lp2839
(lp2840
I4
aI114
aI849
aa(lp2841
I5
aI1014
aI1391
aasS'3OLS'
p2842
(lp2843
(lp2844
I7
aI1
aI1441
aasS'4EQJ'
p2845
(lp2846
(lp2847
I6
aI1
aI460
aa(lp2848
I4
aI271
aI1140
aa(lp2849
I5
aI1006
aI1415
aasS'2QNV'
p2850
(lp2851
(lp2852
I2
aI18
aI433
aasS'2QNQ'
p2853
(lp2854
(lp2855
I6
aI1
aI462
aa(lp2856
I4
aI269
aI1174
aa(lp2857
I5
aI1016
aI1425
aasS'2QNP'
p2858
(lp2859
(lp2860
I6
aI1
aI462
aa(lp2861
I4
aI269
aI1174
aa(lp2862
I5
aI1016
aI1425
aasS'3FUR'
p2863
(lp2864
(lp2865
I2
aI96
aI505
aasS'4PWL'
p2866
(lp2867
(lp2868
I2
aI96
aI505
aasS'2QNN'
p2869
(lp2870
(lp2871
I6
aI1
aI462
aa(lp2872
I4
aI269
aI1174
aa(lp2873
I5
aI1016
aI1425
aasS'3DK1'
p2874
(lp2875
(lp2876
I6
aI1
aI462
aa(lp2877
I4
aI269
aI1174
aa(lp2878
I5
aI1016
aI1425
aasS'2AX7'
p2879
(lp2880
(lp2881
I2
aI536
aI920
aasS'2AX6'
p2882
(lp2883
(lp2884
I2
aI536
aI920
aasS'2AX9'
p2885
(lp2886
(lp2887
I2
aI536
aI920
aasS'2AX8'
p2888
(lp2889
(lp2890
I2
aI536
aI920
aasS'1BDL'
p2891
(lp2892
(lp2893
I6
aI1
aI462
aa(lp2894
I4
aI269
aI1174
aa(lp2895
I5
aI1074
aI1425
aasS'1BDQ'
p2896
(lp2897
(lp2898
I6
aI1
aI462
aa(lp2899
I4
aI269
aI1174
aa(lp2900
I5
aI1074
aI1425
aasS'3BEJ'
p2901
(lp2902
(lp2903
I7
aI1
aI1441
aasS'1BDR'
p2904
(lp2905
(lp2906
I6
aI1
aI462
aa(lp2907
I4
aI269
aI1174
aa(lp2908
I5
aI1074
aI1425
aasS'1WM0'
p2909
(lp2910
(lp2911
I2
aI96
aI505
aasS'4A4W'
p2912
(lp2913
(lp2914
I2
aI96
aI505
aasS'4A4V'
p2915
(lp2916
(lp2917
I2
aI96
aI505
aasS'4A4Q'
p2918
(lp2919
(lp2920
I1
aI1
aI99
aasS'3KWY'
p2921
(lp2922
(lp2923
I2
aI17
aI462
aasS'1B6K'
p2924
(lp2925
(lp2926
I6
aI1
aI460
aa(lp2927
I4
aI271
aI1140
aa(lp2928
I5
aI1006
aI1415
aasS'1B6J'
p2929
(lp2930
(lp2931
I6
aI1
aI460
aa(lp2932
I4
aI271
aI1140
aa(lp2933
I5
aI1006
aI1415
aasS'4DOS'
p2934
(lp2935
(lp2936
I7
aI1
aI852
aa(lp2937
I8
aI1013
aI1463
aasS'4DOR'
p2938
(lp2939
(lp2940
I2
aI19
aI257
aasS'1B6M'
p2941
(lp2942
(lp2943
I6
aI1
aI460
aa(lp2944
I4
aI271
aI1140
aa(lp2945
I5
aI1006
aI1415
aasS'1B6L'
p2946
(lp2947
(lp2948
I6
aI1
aI460
aa(lp2949
I4
aI271
aI1140
aa(lp2950
I5
aI1006
aI1415
aasS'4XHD'
p2951
(lp2952
(lp2953
I2
aI18
aI433
aasS'1ZSR'
p2954
(lp2955
(lp2956
I6
aI1
aI462
aa(lp2957
I4
aI269
aI1174
aa(lp2958
I5
aI1033
aI1425
aasS'2AXA'
p2959
(lp2960
(lp2961
I2
aI536
aI920
aasS'1T65'
p2962
(lp2963
(lp2964
I2
aI536
aI920
aasS'1ZSF'
p2965
(lp2966
(lp2967
I6
aI1
aI462
aa(lp2968
I4
aI269
aI1174
aa(lp2969
I5
aI1033
aI1425
aasS'1B6P'
p2970
(lp2971
(lp2972
I6
aI1
aI460
aa(lp2973
I4
aI271
aI1140
aa(lp2974
I5
aI1006
aI1415
aasS'3KYT'
p2975
(lp2976
(lp2977
I2
aI4
aI511
aasS'1T63'
p2978
(lp2979
(lp2980
I2
aI536
aI920
aasS'4EQ0'
p2981
(lp2982
(lp2983
I6
aI1
aI460
aa(lp2984
I4
aI271
aI1140
aa(lp2985
I5
aI1006
aI1415
aasS'4XLD'
p2986
(lp2987
(lp2988
I2
aI96
aI505
aasS'2UPJ'
p2989
(lp2990
(lp2991
I6
aI1
aI462
aa(lp2992
I4
aI269
aI1174
aa(lp2993
I5
aI1016
aI1425
aasS'1RQ9'
p2994
(lp2995
(lp2996
I1
aI1
aI99
aasS'3GYT'
p2997
(lp2998
(lp2999
I7
aI1
aI1441
aasS'3N3I'
p3000
(lp3001
(lp3002
I6
aI1
aI458
aa(lp3003
I4
aI269
aI1162
aa(lp3004
I5
aI1021
aI1413
aasS'3NWQ'
p3005
(lp3006
(lp3007
I6
aI1
aI460
aa(lp3008
I4
aI271
aI1140
aa(lp3009
I5
aI1006
aI1415
aasS'3NWX'
p3010
(lp3011
(lp3012
I6
aI1
aI460
aa(lp3013
I4
aI271
aI1140
aa(lp3014
I5
aI1006
aI1415
aasS'1XZX'
p3015
(lp3016
(lp3017
I2
aI69
aI461
aasS'1YTG'
p3018
(lp3019
(lp3020
I6
aI1
aI460
aa(lp3021
I4
aI271
aI1140
aa(lp3022
I5
aI1006
aI1415
aasS'3GI5'
p3023
(lp3024
(lp3025
I6
aI1
aI460
aa(lp3026
I4
aI271
aI1140
aa(lp3027
I5
aI1006
aI1415
aasS'3GI4'
p3028
(lp3029
(lp3030
I4
aI271
aI1140
aa(lp3031
I5
aI1006
aI1415
aasS'3GI6'
p3032
(lp3033
(lp3034
I6
aI1
aI460
aa(lp3035
I4
aI271
aI1140
aa(lp3036
I5
aI1006
aI1415
aasS'3GI0'
p3037
(lp3038
(lp3039
I6
aI1
aI460
aa(lp3040
I4
aI271
aI1140
aa(lp3041
I5
aI1006
aI1415
aasS'3WGP'
p3042
(lp3043
(lp3044
I2
aI2
aI427
aasS'1R6G'
p3045
(lp3046
(lp3047
I2
aI69
aI461
aasS'1VIK'
p3048
(lp3049
(lp3050
I6
aI1
aI465
aa(lp3051
I4
aI270
aI1163
aa(lp3052
I5
aI1022
aI1414
aasS'2QXM'
p3053
(lp3054
(lp3055
I7
aI1
aI852
aa(lp3056
I8
aI1013
aI1461
aasS'2QXS'
p3057
(lp3058
(lp3059
I2
aI27
aI566
aasS'1N83'
p3060
(lp3061
(lp3062
I2
aI1
aI516
aasS'2PJL'
p3063
(lp3064
(lp3065
I2
aI10
aI423
aasS'1EXA'
p3066
(lp3067
(lp3068
I2
aI13
aI427
aasS'1XLS'
p3069
(lp3070
(lp3071
I2
aI17
aI462
aasS'1EXX'
p3072
(lp3073
(lp3074
I2
aI13
aI427
aasS'3A2J'
p3075
(lp3076
(lp3077
I2
aI2
aI427
aasS'3A2H'
p3078
(lp3079
(lp3080
I2
aI2
aI422
aasS'3A2I'
p3081
(lp3082
(lp3083
I2
aI2
aI427
aasS'4OJ9'
p3084
(lp3085
(lp3086
I2
aI536
aI920
aasS'3A2O'
p3087
(lp3088
(lp3089
I6
aI1
aI462
aa(lp3090
I4
aI269
aI1174
aa(lp3091
I5
aI1016
aI1425
aasS'4OJ4'
p3092
(lp3093
(lp3094
I2
aI96
aI505
aasS'3EM6'
p3095
(lp3096
(lp3097
I6
aI1
aI460
aa(lp3098
I4
aI271
aI1140
aa(lp3099
I5
aI1006
aI1415
aasS'3EM4'
p3100
(lp3101
(lp3102
I6
aI1
aI460
aa(lp3103
I4
aI271
aI1140
aa(lp3104
I5
aI1006
aI1415
aasS'3EM3'
p3105
(lp3106
(lp3107
I6
aI1
aI460
aa(lp3108
I4
aI271
aI1140
aa(lp3109
I5
aI1006
aI1415
aasS'3CQV'
p3110
(lp3111
(lp3112
I2
aI385
aI579
aa(lp3113
I2
aI44
aI268
aasS'3VI8'
p3114
(lp3115
(lp3116
I2
aI13
aI468
aasS'4OJB'
p3117
(lp3118
(lp3119
I2
aI536
aI920
aasS'4S14'
p3120
(lp3121
(lp3122
I2
aI4
aI511
aasS'4S15'
p3123
(lp3124
(lp3125
I2
aI1
aI516
aasS'1XL2'
p3126
(lp3127
(lp3128
I6
aI1
aI462
aa(lp3129
I4
aI269
aI1174
aa(lp3130
I5
aI1016
aI1425
aasS'2G69'
p3131
(lp3132
(lp3133
I6
aI1
aI462
aa(lp3134
I4
aI269
aI1174
aa(lp3135
I5
aI1033
aI1425
aasS'3KA2'
p3136
(lp3137
(lp3138
I6
aI1
aI460
aa(lp3139
I4
aI271
aI1140
aa(lp3140
I5
aI1006
aI1415
aasS'1XL5'
p3141
(lp3142
(lp3143
I6
aI1
aI462
aa(lp3144
I4
aI269
aI1174
aa(lp3145
I5
aI1016
aI1425
aasS'2Q64'
p3146
(lp3147
(lp3148
I6
aI1
aI462
aa(lp3149
I4
aI269
aI1174
aa(lp3150
I5
aI1016
aI1425
aasS'2Q61'
p3151
(lp3152
(lp3153
I2
aI96
aI505
aasS'1F7A'
p3154
(lp3155
(lp3156
I6
aI1
aI460
aa(lp3157
I4
aI271
aI1140
aa(lp3158
I5
aI1006
aI1415
aasS'2Q63'
p3159
(lp3160
(lp3161
I6
aI1
aI462
aa(lp3162
I4
aI269
aI1174
aa(lp3163
I5
aI1016
aI1425
aasS'3OMK'
p3164
(lp3165
(lp3166
I7
aI1
aI1441
aasS'3OMM'
p3167
(lp3168
(lp3169
I7
aI1
aI1441
aasS'2I4Z'
p3170
(lp3171
(lp3172
I2
aI96
aI505
aasS'3OMO'
p3173
(lp3174
(lp3175
I7
aI1
aI1441
aasS'2I4X'
p3176
(lp3177
(lp3178
I6
aI1
aI462
aa(lp3179
I4
aI269
aI1174
aa(lp3180
I5
aI1033
aI1425
aasS'2I4W'
p3181
(lp3182
(lp3183
I6
aI1
aI462
aa(lp3184
I4
aI269
aI1174
aa(lp3185
I5
aI1033
aI1425
aasS'2I4V'
p3186
(lp3187
(lp3188
I6
aI1
aI462
aa(lp3189
I4
aI269
aI1174
aa(lp3190
I5
aI1033
aI1425
aasS'4HVP'
p3191
(lp3192
(lp3193
I6
aI1
aI460
aa(lp3194
I4
aI271
aI1140
aa(lp3195
I5
aI1006
aI1415
aasS'2I4P'
p3196
(lp3197
(lp3198
I2
aI96
aI505
aasS'4IA2'
p3199
(lp3200
(lp3201
I2
aI2
aI453
aasS'2I4J'
p3202
(lp3203
(lp3204
I2
aI96
aI505
aasS'3OMQ'
p3205
(lp3206
(lp3207
I7
aI1
aI1441
aasS'3OMP'
p3208
(lp3209
(lp3210
I7
aI1
aI1441
aasS'2I4D'
p3211
(lp3212
(lp3213
I6
aI1
aI462
aa(lp3214
I4
aI269
aI1174
aa(lp3215
I5
aI1033
aI1425
aasS'1KNU'
p3216
(lp3217
(lp3218
I2
aI96
aI505
aasS'4ZIP'
p3219
(lp3220
(lp3221
I6
aI1
aI462
aa(lp3222
I4
aI269
aI1174
aa(lp3223
I5
aI1033
aI1425
aasS'4R2U'
p3224
(lp3225
(lp3226
I2
aI96
aI505
aasS'2Q6J'
p3227
(lp3228
(lp3229
I7
aI1
aI852
aa(lp3230
I8
aI1013
aI1461
aasS'4HDF'
p3231
(lp3232
(lp3233
I6
aI1
aI462
aa(lp3234
I4
aI269
aI1174
aa(lp3235
I5
aI1016
aI1425
aasS'4HDB'
p3236
(lp3237
(lp3238
I6
aI1
aI462
aa(lp3239
I4
aI269
aI1174
aa(lp3240
I5
aI1016
aI1425
aasS'3SQF'
p3241
(lp3242
(lp3243
I3
aI48
aI167
aa(lp3244
I1
aI183
aI267
aasS'4HDP'
p3245
(lp3246
(lp3247
I6
aI1
aI462
aa(lp3248
I4
aI269
aI1174
aa(lp3249
I5
aI1016
aI1425
aasS'2Q6S'
p3250
(lp3251
(lp3252
I2
aI96
aI505
aasS'2Q6R'
p3253
(lp3254
(lp3255
I2
aI96
aI505
aasS'3PHV'
p3256
(lp3257
(lp3258
I1
aI1
aI99
aasS'3KFP'
p3259
(lp3260
(lp3261
I6
aI1
aI465
aa(lp3262
I4
aI270
aI1163
aa(lp3263
I5
aI1022
aI1414
aasS'4FLG'
p3264
(lp3265
(lp3266
I6
aI1
aI462
aa(lp3267
I4
aI269
aI1174
aa(lp3268
I5
aI1016
aI1425
aasS'3KFR'
p3269
(lp3270
(lp3271
I6
aI1
aI465
aa(lp3272
I4
aI270
aI1163
aa(lp3273
I5
aI1022
aI1414
aasS'3KFS'
p3274
(lp3275
(lp3276
I6
aI1
aI465
aa(lp3277
I4
aI270
aI1163
aa(lp3278
I5
aI1022
aI1414
aasS'3KFC'
p3279
(lp3280
(lp3281
I2
aI1
aI460
aasS'3DJK'
p3282
(lp3283
(lp3284
I6
aI1
aI462
aa(lp3285
I4
aI269
aI1174
aa(lp3286
I5
aI1016
aI1425
aasS'3KFN'
p3287
(lp3288
(lp3289
I6
aI1
aI465
aa(lp3290
I4
aI270
aI1163
aa(lp3291
I5
aI1022
aI1414
aasS'3LBD'
p3292
(lp3293
(lp3294
I2
aI4
aI267
aasS'1ZLF'
p3295
(lp3296
(lp3297
I6
aI1
aI462
aa(lp3298
I4
aI269
aI1174
aa(lp3299
I5
aI1016
aI1425
aasS'2NMZ'
p3300
(lp3301
(lp3302
I6
aI1
aI462
aa(lp3303
I4
aI269
aI1174
aa(lp3304
I5
aI1074
aI1425
aasS'2NMY'
p3305
(lp3306
(lp3307
I6
aI1
aI462
aa(lp3308
I4
aI269
aI1174
aa(lp3309
I5
aI1074
aI1425
aasS'4JL4'
p3310
(lp3311
(lp3312
I2
aI96
aI505
aasS'2YLO'
p3313
(lp3314
(lp3315
I2
aI536
aI920
aasS'1FEJ'
p3316
(lp3317
(lp3318
I6
aI1
aI462
aa(lp3319
I4
aI269
aI1174
aa(lp3320
I5
aI1074
aI1425
aasS'3KF0'
p3321
(lp3322
(lp3323
I6
aI1
aI465
aa(lp3324
I4
aI270
aI1163
aa(lp3325
I5
aI1022
aI1414
aasS'4FL8'
p3326
(lp3327
(lp3328
I6
aI1
aI462
aa(lp3329
I4
aI269
aI1174
aa(lp3330
I5
aI1016
aI1425
aasS'2NW4'
p3331
(lp3332
(lp3333
I2
aI518
aI902
aasS'3KT2'
p3334
(lp3335
(lp3336
I6
aI1
aI458
aa(lp3337
I4
aI269
aI1162
aa(lp3338
I5
aI1021
aI1413
aasS'3UPJ'
p3339
(lp3340
(lp3341
I4
aI286
aI1444
aasS'3KT5'
p3342
(lp3343
(lp3344
I6
aI1
aI458
aa(lp3345
I4
aI269
aI1162
aa(lp3346
I5
aI1021
aI1413
aasS'2QI0'
p3347
(lp3348
(lp3349
I6
aI1
aI460
aa(lp3350
I4
aI271
aI1140
aa(lp3351
I5
aI1006
aI1415
aasS'2QI1'
p3352
(lp3353
(lp3354
I6
aI1
aI460
aa(lp3355
I4
aI271
aI1140
aa(lp3356
I5
aI1006
aI1415
aasS'2QI3'
p3357
(lp3358
(lp3359
I6
aI1
aI460
aa(lp3360
I4
aI271
aI1140
aa(lp3361
I5
aI1006
aI1415
aasS'2QI4'
p3362
(lp3363
(lp3364
I6
aI1
aI460
aa(lp3365
I4
aI271
aI1140
aa(lp3366
I5
aI1006
aI1415
aasS'2QI5'
p3367
(lp3368
(lp3369
I6
aI1
aI460
aa(lp3370
I4
aI271
aI1140
aa(lp3371
I5
aI1006
aI1415
aasS'4EP3'
p3372
(lp3373
(lp3374
I6
aI1
aI460
aa(lp3375
I4
aI271
aI1140
aa(lp3376
I5
aI1006
aI1415
aasS'4EP2'
p3377
(lp3378
(lp3379
I6
aI1
aI460
aa(lp3380
I4
aI271
aI1140
aa(lp3381
I5
aI1006
aI1415
aasS'1IVP'
p3382
(lp3383
(lp3384
I4
aI286
aI1444
aasS'4PP3'
p3385
(lp3386
(lp3387
I2
aI17
aI462
aasS'1R5K'
p3388
(lp3389
(lp3390
I2
aI27
aI566
aasS'4PP6'
p3391
(lp3392
(lp3393
I7
aI1
aI852
aa(lp3394
I8
aI1013
aI1463
aasS'1RPI'
p3395
(lp3396
(lp3397
I1
aI1
aI99
aasS'1PDU'
p3398
(lp3399
(lp3400
I2
aI715
aI1073
aasS'2OAX'
p3401
(lp3402
(lp3403
I2
aI490
aI984
aasS'4PPP'
p3404
(lp3405
(lp3406
I7
aI1
aI852
aa(lp3407
I8
aI1013
aI1463
aasS'1MES'
p3408
(lp3409
(lp3410
I6
aI1
aI462
aa(lp3411
I4
aI269
aI1174
aa(lp3412
I5
aI1033
aI1425
aasS'4PPS'
p3413
(lp3414
(lp3415
I7
aI1
aI852
aa(lp3416
I8
aI1013
aI1463
aasS'1MEU'
p3417
(lp3418
(lp3419
I6
aI1
aI462
aa(lp3420
I4
aI269
aI1174
aa(lp3421
I5
aI1033
aI1425
aasS'1MET'
p3422
(lp3423
(lp3424
I6
aI1
aI462
aa(lp3425
I4
aI269
aI1174
aa(lp3426
I5
aI1033
aI1425
aasS'1PRG'
p3427
(lp3428
(lp3429
I2
aI96
aI505
aasS'1PRO'
p3430
(lp3431
(lp3432
I6
aI1
aI465
aa(lp3433
I4
aI270
aI1163
aa(lp3434
I5
aI1022
aI1414
aasS'4EPJ'
p3435
(lp3436
(lp3437
I6
aI1
aI460
aa(lp3438
I4
aI271
aI1140
aa(lp3439
I5
aI1006
aI1415
aasS'1P93'
p3440
(lp3441
(lp3442
I7
aI1
aI852
aa(lp3443
I8
aI1013
aI1463
aasS'3UP0'
p3444
(lp3445
(lp3446
I7
aI1
aI852
aa(lp3447
I8
aI1013
aI1463
aasS'3UP3'
p3448
(lp3449
(lp3450
I7
aI1
aI852
aa(lp3451
I8
aI1013
aI1463
aasS'2ZGA'
p3452
(lp3453
(lp3454
I6
aI1
aI462
aa(lp3455
I4
aI269
aI1174
aa(lp3456
I5
aI1016
aI1425
aasS'3PWM'
p3457
(lp3458
(lp3459
I6
aI1
aI462
aa(lp3460
I4
aI269
aI1174
aa(lp3461
I5
aI1016
aI1425
aasS'3PWR'
p3462
(lp3463
(lp3464
I6
aI1
aI462
aa(lp3465
I4
aI269
aI1174
aa(lp3466
I5
aI1016
aI1425
aasS'3IXO'
p3467
(lp3468
(lp3469
I4
aI275
aI1314
aa(lp3470
I5
aI1026
aI1418
aasS'3GN8'
p3471
(lp3472
(lp3473
I7
aI1
aI852
aa(lp3474
I8
aI1013
aI1463
aasS'3WJ4'
p3475
(lp3476
(lp3477
I2
aI96
aI505
aasS'3WJ5'
p3478
(lp3479
(lp3480
I2
aI96
aI505
aasS'4IQR'
p3481
(lp3482
(lp3483
I2
aI5
aI456
aasS'1H9U'
p3484
(lp3485
(lp3486
I2
aI74
aI533
aasS'3BVA'
p3487
(lp3488
(lp3489
I6
aI1
aI462
aa(lp3490
I4
aI269
aI1174
aa(lp3491
I5
aI1016
aI1425
aasS'3BVB'
p3492
(lp3493
(lp3494
I6
aI1
aI462
aa(lp3495
I4
aI269
aI1174
aa(lp3496
I5
aI1016
aI1425
aasS'4UPJ'
p3497
(lp3498
(lp3499
I4
aI286
aI1444
aasS'2AA6'
p3500
(lp3501
(lp3502
I2
aI490
aI984
aasS'5BS4'
p3503
(lp3504
(lp3505
I6
aI1
aI462
aa(lp3506
I4
aI269
aI1174
aa(lp3507
I5
aI1033
aI1425
aasS'3TLH'
p3508
(lp3509
(lp3510
I1
aI1
aI99
aasS'2BJ4'
p3511
(lp3512
(lp3513
I2
aI27
aI566
aasS'5FIV'
p3514
(lp3515
(lp3516
I1
aI1
aI113
aasS'2R8N'
p3517
(lp3518
(lp3519
I4
aI267
aI1305
aa(lp3520
I5
aI1017
aI1409
aasS'3D20'
p3521
(lp3522
(lp3523
I6
aI1
aI462
aa(lp3524
I4
aI269
aI1174
aa(lp3525
I5
aI1074
aI1425
aasS'3GGV'
p3526
(lp3527
(lp3528
I6
aI1
aI462
aa(lp3529
I4
aI269
aI1174
aa(lp3530
I5
aI1033
aI1425
aasS'2Q1H'
p3531
(lp3532
(lp3533
I2
aI2
aI250
aasS'4K4Q'
p3534
(lp3535
(lp3536
I6
aI1
aI465
aa(lp3537
I4
aI270
aI1163
aa(lp3538
I5
aI1022
aI1414
aasS'1AJV'
p3539
(lp3540
(lp3541
I6
aI1
aI462
aa(lp3542
I4
aI269
aI1174
aa(lp3543
I5
aI1033
aI1425
aasS'2PYM'
p3544
(lp3545
(lp3546
I6
aI1
aI462
aa(lp3547
I4
aI269
aI1174
aa(lp3548
I5
aI1016
aI1425
aasS'2IHQ'
p3549
(lp3550
(lp3551
I2
aI518
aI902
aasS'2PYN'
p3552
(lp3553
(lp3554
I6
aI1
aI462
aa(lp3555
I4
aI269
aI1174
aa(lp3556
I5
aI1016
aI1425
aasS'1XAP'
p3557
(lp3558
(lp3559
I2
aI13
aI451
aasS'2YLQ'
p3560
(lp3561
(lp3562
I2
aI536
aI920
aasS'2YLP'
p3563
(lp3564
(lp3565
I2
aI536
aI920
aasS'2PK6'
p3566
(lp3567
(lp3568
I6
aI1
aI462
aa(lp3569
I4
aI269
aI1174
aa(lp3570
I5
aI1016
aI1425
aasS'2PK5'
p3571
(lp3572
(lp3573
I6
aI1
aI462
aa(lp3574
I4
aI269
aI1174
aa(lp3575
I5
aI1016
aI1425
aasS'4NIE'
p3576
(lp3577
(lp3578
I2
aI4
aI511
aasS'2YLY'
p3579
(lp3580
(lp3581
I2
aI17
aI529
aasS'4S0S'
p3582
(lp3583
(lp3584
I2
aI18
aI433
aasS'2PKL'
p3585
(lp3586
(lp3587
I2
aI536
aI920
aasS'4S0T'
p3588
(lp3589
(lp3590
I2
aI18
aI433
aasS'2RSP'
p3591
(lp3592
(lp3593
I4
aI1
aI701
aasS'4HE9'
p3594
(lp3595
(lp3596
I6
aI1
aI462
aa(lp3597
I4
aI269
aI1174
aa(lp3598
I5
aI1016
aI1425
aasS'2G5O'
p3599
(lp3600
(lp3601
I7
aI1
aI852
aa(lp3602
I8
aI1013
aI1463
aasS'3OOF'
p3603
(lp3604
(lp3605
I7
aI1
aI1441
aasS'4ZN9'
p3606
(lp3607
(lp3608
I7
aI1
aI852
aa(lp3609
I8
aI1013
aI1463
aasS'3A3Z'
p3610
(lp3611
(lp3612
I2
aI2
aI427
aasS'2VST'
p3613
(lp3614
(lp3615
I2
aI96
aI505
aasS'3VHW'
p3616
(lp3617
(lp3618
I2
aI2
aI427
aasS'3VHV'
p3619
(lp3620
(lp3621
I2
aI490
aI984
aasS'3VHU'
p3622
(lp3623
(lp3624
I2
aI490
aI984
aasS'4WQP'
p3625
(lp3626
(lp3627
I2
aI4
aI511
aasS'2NNP'
p3628
(lp3629
(lp3630
I6
aI1
aI462
aa(lp3631
I4
aI269
aI1174
aa(lp3632
I5
aI1074
aI1425
aasS'4QM0'
p3633
(lp3634
(lp3635
I2
aI4
aI511
aasS'1AXA'
p3636
(lp3637
(lp3638
I6
aI1
aI462
aa(lp3639
I4
aI269
aI1174
aa(lp3640
I5
aI1033
aI1425
aasS'3QPJ'
p3641
(lp3642
(lp3643
I6
aI1
aI462
aa(lp3644
I4
aI269
aI1174
aa(lp3645
I5
aI1016
aI1425
aasS'2NNK'
p3646
(lp3647
(lp3648
I6
aI1
aI462
aa(lp3649
I4
aI269
aI1174
aa(lp3650
I5
aI1074
aI1425
aasS'4RWV'
p3651
(lp3652
(lp3653
I2
aI184
aI470
aasS'3L3X'
p3654
(lp3655
(lp3656
I2
aI536
aI920
aasS'3L3Z'
p3657
(lp3658
(lp3659
I2
aI536
aI920
aasS'2FVJ'
p3660
(lp3661
(lp3662
I2
aI96
aI505
aasS'3QN8'
p3663
(lp3664
(lp3665
I6
aI1
aI462
aa(lp3666
I4
aI269
aI1174
aa(lp3667
I5
aI1016
aI1425
aasS'1FD0'
p3668
(lp3669
(lp3670
I2
aI13
aI427
aasS'3O1E'
p3671
(lp3672
(lp3673
I2
aI2
aI453
aasS'3O1D'
p3674
(lp3675
(lp3676
I2
aI2
aI453
aasS'2FDD'
p3677
(lp3678
(lp3679
I1
aI1
aI100
aasS'2FDE'
p3680
(lp3681
(lp3682
I6
aI1
aI462
aa(lp3683
I4
aI269
aI1174
aa(lp3684
I5
aI1016
aI1425
aasS'3CJW'
p3685
(lp3686
(lp3687
I2
aI10
aI411
aasS'9HVP'
p3688
(lp3689
(lp3690
I6
aI1
aI454
aa(lp3691
I4
aI269
aI856
aa(lp3692
I5
aI1021
aI1398
aasS'3QP0'
p3693
(lp3694
(lp3695
I6
aI1
aI462
aa(lp3696
I4
aI269
aI1174
aa(lp3697
I5
aI1016
aI1425
aasS'3W0J'
p3698
(lp3699
(lp3700
I2
aI2
aI422
aasS'3W0H'
p3701
(lp3702
(lp3703
I2
aI2
aI422
aasS'3W0I'
p3704
(lp3705
(lp3706
I2
aI2
aI422
aasS'2QHZ'
p3707
(lp3708
(lp3709
I4
aI271
aI1140
aa(lp3710
I5
aI1006
aI1415
aasS'4E43'
p3711
(lp3712
(lp3713
I6
aI1
aI465
aa(lp3714
I4
aI270
aI1163
aa(lp3715
I5
aI1022
aI1414
aasS'3W0A'
p3716
(lp3717
(lp3718
I2
aI2
aI427
aasS'4REE'
p3719
(lp3720
(lp3721
I2
aI1
aI248
aasS'3W0G'
p3722
(lp3723
(lp3724
I2
aI2
aI422
aasS'4REF'
p3725
(lp3726
(lp3727
I2
aI178
aI598
aasS'2QHC'
p3728
(lp3729
(lp3730
I6
aI1
aI462
aa(lp3731
I4
aI269
aI1174
aa(lp3732
I5
aI1016
aI1425
aasS'3W0Y'
p3733
(lp3734
(lp3735
I2
aI2
aI427
aasS'2A1E'
p3736
(lp3737
(lp3738
I6
aI1
aI462
aa(lp3739
I4
aI269
aI1174
aa(lp3740
I5
aI1016
aI1425
aasS'2CEJ'
p3741
(lp3742
(lp3743
I1
aI1
aI99
aasS'4A2J'
p3744
(lp3745
(lp3746
I2
aI534
aI933
aasS'2CEM'
p3747
(lp3748
(lp3749
I1
aI1
aI99
aasS'4FM6'
p3750
(lp3751
(lp3752
I6
aI1
aI462
aa(lp3753
I4
aI269
aI1174
aa(lp3754
I5
aI1016
aI1425
aasS'2ATH'
p3755
(lp3756
(lp3757
I2
aI96
aI505
aasS'1LZQ'
p3758
(lp3759
(lp3760
I6
aI1
aI462
aa(lp3761
I4
aI269
aI1174
aa(lp3762
I5
aI1016
aI1425
aasS'3S85'
p3763
(lp3764
(lp3765
I6
aI1
aI454
aa(lp3766
I4
aI269
aI856
aa(lp3767
I5
aI1021
aI1398
aasS'3FEI'
p3768
(lp3769
(lp3770
I2
aI13
aI468
aasS'3FEJ'
p3771
(lp3772
(lp3773
I2
aI96
aI505
aasS'3V3Q'
p3774
(lp3775
(lp3776
I2
aI178
aI598
aasS'3MWS'
p3777
(lp3778
(lp3779
I1
aI1
aI99
aasS'2AZC'
p3780
(lp3781
(lp3782
I6
aI1
aI462
aa(lp3783
I4
aI269
aI1174
aa(lp3784
I5
aI1016
aI1425
aasS'2AZB'
p3785
(lp3786
(lp3787
I6
aI1
aI462
aa(lp3788
I4
aI269
aI1174
aa(lp3789
I5
aI1016
aI1425
aasS'2XYJ'
p3790
(lp3791
(lp3792
I2
aI25
aI441
aasS'3WWR'
p3793
(lp3794
(lp3795
I2
aI2
aI427
aasS'2QI6'
p3796
(lp3797
(lp3798
I6
aI1
aI460
aa(lp3799
I4
aI271
aI1140
aa(lp3800
I5
aI1006
aI1415
aasS'4E4Q'
p3801
(lp3802
(lp3803
I2
aI96
aI505
aasS'1HBV'
p3804
(lp3805
(lp3806
I6
aI1
aI462
aa(lp3807
I4
aI269
aI1174
aa(lp3808
I5
aI1033
aI1425
aasS'4RE8'
p3809
(lp3810
(lp3811
I2
aI178
aI598
aasS'4E4K'
p3812
(lp3813
(lp3814
I2
aI96
aI505
aasS'3K8S'
p3815
(lp3816
(lp3817
I2
aI96
aI505
aasS'3HO0'
p3818
(lp3819
(lp3820
I2
aI96
aI505
aasS'4PP5'
p3821
(lp3822
(lp3823
I2
aI17
aI462
aasS'2IDW'
p3824
(lp3825
(lp3826
I6
aI1
aI462
aa(lp3827
I4
aI269
aI1174
aa(lp3828
I5
aI1033
aI1425
aasS'3UCB'
p3829
(lp3830
(lp3831
I6
aI1
aI462
aa(lp3832
I4
aI269
aI1174
aa(lp3833
I5
aI1016
aI1425
aasS'3T11'
p3834
(lp3835
(lp3836
I6
aI1
aI462
aa(lp3837
I4
aI269
aI1174
aa(lp3838
I5
aI1016
aI1425
aasS'3BGB'
p3839
(lp3840
(lp3841
I6
aI1
aI462
aa(lp3842
I4
aI269
aI1174
aa(lp3843
I5
aI1074
aI1425
aasS'3BGC'
p3844
(lp3845
(lp3846
I6
aI1
aI462
aa(lp3847
I4
aI269
aI1174
aa(lp3848
I5
aI1074
aI1425
aasS'3ZRA'
p3849
(lp3850
(lp3851
I2
aI534
aI933
aasS'1HTG'
p3852
(lp3853
(lp3854
I6
aI1
aI462
aa(lp3855
I4
aI269
aI1174
aa(lp3856
I5
aI1033
aI1425
aasS'1HTF'
p3857
(lp3858
(lp3859
I6
aI1
aI462
aa(lp3860
I4
aI269
aI1174
aa(lp3861
I5
aI1033
aI1425
aasS'1HTE'
p3862
(lp3863
(lp3864
I6
aI1
aI462
aa(lp3865
I4
aI269
aI1174
aa(lp3866
I5
aI1033
aI1425
aasS'1P8D'
p3867
(lp3868
(lp3869
I2
aI1
aI460
aasS'3K6P'
p3870
(lp3871
(lp3872
I2
aI10
aI423
aasS'3I6O'
p3873
(lp3874
(lp3875
I6
aI1
aI462
aa(lp3876
I4
aI284
aI1174
aa(lp3877
I5
aI1033
aI1425
aasS'1AJX'
p3878
(lp3879
(lp3880
I6
aI1
aI462
aa(lp3881
I4
aI269
aI1174
aa(lp3882
I5
aI1033
aI1425
aasS'2QZO'
p3883
(lp3884
(lp3885
I7
aI1
aI852
aa(lp3886
I8
aI1013
aI1461
aasS'1U3S'
p3887
(lp3888
(lp3889
I7
aI1
aI1441
aasS'1U3R'
p3890
(lp3891
(lp3892
I7
aI1
aI1441
aasS'1U3Q'
p3893
(lp3894
(lp3895
I2
aI17
aI529
aasS'1XNN'
p3896
(lp3897
(lp3898
I2
aI518
aI902
aasS'1XNX'
p3899
(lp3900
(lp3901
I2
aI1
aI356
aasS'1N49'
p3902
(lp3903
(lp3904
I6
aI1
aI460
aa(lp3905
I4
aI271
aI1140
aa(lp3906
I5
aI1006
aI1415
aasS'3SAA'
p3907
(lp3908
(lp3909
I1
aI1
aI99
aasS'3SAC'
p3910
(lp3911
(lp3912
I1
aI1
aI99
aasS'1N46'
p3913
(lp3914
(lp3915
I2
aI69
aI461
aasS'3EYB'
p3916
(lp3917
(lp3918
I2
aI1
aI219
aasS'3D1Z'
p3919
(lp3920
(lp3921
I6
aI1
aI462
aa(lp3922
I4
aI269
aI1174
aa(lp3923
I5
aI1074
aI1425
aasS'3D1X'
p3924
(lp3925
(lp3926
I6
aI1
aI462
aa(lp3927
I4
aI269
aI1174
aa(lp3928
I5
aI1074
aI1425
aasS'3D1Y'
p3929
(lp3930
(lp3931
I6
aI1
aI462
aa(lp3932
I4
aI269
aI1174
aa(lp3933
I5
aI1074
aI1425
aasS'4N8R'
p3934
(lp3935
(lp3936
I2
aI17
aI462
aasS'4XT9'
p3937
(lp3938
(lp3939
I2
aI4
aI511
aasS'3A40'
p3940
(lp3941
(lp3942
I2
aI2
aI427
aasS'1MER'
p3943
(lp3944
(lp3945
I6
aI1
aI462
aa(lp3946
I4
aI269
aI1174
aa(lp3947
I5
aI1033
aI1425
aasS'5BRY'
p3948
(lp3949
(lp3950
I6
aI1
aI462
aa(lp3951
I4
aI269
aI1174
aa(lp3952
I5
aI1033
aI1425
aasS'4OLM'
p3953
(lp3954
(lp3955
I2
aI536
aI920
aasS'1YP0'
p3956
(lp3957
(lp3958
I2
aI1
aI462
aasS'3SA9'
p3959
(lp3960
(lp3961
I1
aI1
aI99
aasS'3SA8'
p3962
(lp3963
(lp3964
I1
aI1
aI99
aasS'2G44'
p3965
(lp3966
(lp3967
I7
aI1
aI852
aa(lp3968
I8
aI1013
aI1463
aasS'4YE3'
p3969
(lp3970
(lp3971
I6
aI1
aI462
aa(lp3972
I4
aI269
aI1174
aa(lp3973
I5
aI1033
aI1425
aasS'3SA3'
p3974
(lp3975
(lp3976
I1
aI1
aI99
aasS'3SA5'
p3977
(lp3978
(lp3979
I1
aI1
aI99
aasS'3SA4'
p3980
(lp3981
(lp3982
I1
aI1
aI99
aasS'3SA7'
p3983
(lp3984
(lp3985
I1
aI1
aI99
aasS'3SA6'
p3986
(lp3987
(lp3988
I1
aI1
aI99
aasS'1K1U'
p3989
(lp3990
(lp3991
I6
aI1
aI462
aa(lp3992
I4
aI269
aI1174
aa(lp3993
I5
aI1074
aI1425
aasS'1K1T'
p3994
(lp3995
(lp3996
I6
aI1
aI462
aa(lp3997
I4
aI269
aI1174
aa(lp3998
I5
aI1074
aI1425
aasS'3SO9'
p3999
(lp4000
(lp4001
I1
aI1
aI99
aasS'4Q1W'
p4002
(lp4003
(lp4004
I6
aI1
aI458
aa(lp4005
I4
aI269
aI1162
aa(lp4006
I5
aI1021
aI1413
aasS'4Q1X'
p4007
(lp4008
(lp4009
I6
aI1
aI458
aa(lp4010
I4
aI269
aI1162
aa(lp4011
I5
aI1021
aI1413
aasS'3CKT'
p4012
(lp4013
(lp4014
I6
aI1
aI462
aa(lp4015
I4
aI284
aI1174
aa(lp4016
I5
aI1033
aI1425
aasS'3OSW'
p4017
(lp4018
(lp4019
I2
aI96
aI505
aasS'4ZO1'
p4020
(lp4021
(lp4022
I2
aI69
aI461
aasS'2P3D'
p4023
(lp4024
(lp4025
I1
aI1
aI99
aasS'2P3C'
p4026
(lp4027
(lp4028
I1
aI1
aI99
aasS'2P3B'
p4029
(lp4030
(lp4031
I6
aI1
aI462
aa(lp4032
I4
aI269
aI1174
aa(lp4033
I5
aI1016
aI1425
aasS'2P3A'
p4034
(lp4035
(lp4036
I1
aI1
aI99
aasS'4P6X'
p4037
(lp4038
(lp4039
I7
aI1
aI852
aa(lp4040
I8
aI1013
aI1463
aasS'3OSA'
p4041
(lp4042
(lp4043
I2
aI27
aI566
aasS'3OSI'
p4044
(lp4045
(lp4046
I2
aI96
aI505
aasS'3TKC'
p4047
(lp4048
(lp4049
I2
aI2
aI427
aasS'1ILG'
p4050
(lp4051
(lp4052
I2
aI18
aI433
aasS'1UHL'
p4053
(lp4054
(lp4055
I2
aI74
aI533
aasS'3TKG'
p4056
(lp4057
(lp4058
I6
aI1
aI462
aa(lp4059
I4
aI269
aI1174
aa(lp4060
I5
aI1033
aI1425
aasS'1ILH'
p4061
(lp4062
(lp4063
I2
aI18
aI433
aasS'3TKM'
p4064
(lp4065
(lp4066
I2
aI25
aI441
aasS'3OS9'
p4067
(lp4068
(lp4069
I2
aI27
aI566
aasS'3OS8'
p4070
(lp4071
(lp4072
I2
aI27
aI566
aasS'1E3G'
p4073
(lp4074
(lp4075
I2
aI536
aI920
aasS'3TKW'
p4076
(lp4077
(lp4078
I6
aI1
aI462
aa(lp4079
I4
aI269
aI1174
aa(lp4080
I5
aI1033
aI1425
aasS'1E3K'
p4081
(lp4082
(lp4083
I2
aI534
aI933
aasS'4ZOM'
p4084
(lp4085
(lp4086
I2
aI4
aI511
aasS'4M8X'
p4087
(lp4088
(lp4089
I1
aI1
aI99
aasS'1LV1'
p4090
(lp4091
(lp4092
I6
aI1
aI458
aa(lp4093
I4
aI269
aI1162
aa(lp4094
I5
aI1021
aI1413
aasS'3KDT'
p4095
(lp4096
(lp4097
I2
aI13
aI468
aasS'3KDU'
p4098
(lp4099
(lp4100
I2
aI13
aI468
aasS'2J9K'
p4101
(lp4102
(lp4103
I6
aI1
aI460
aa(lp4104
I4
aI271
aI1140
aa(lp4105
I5
aI1006
aI1415
aasS'3IXP'
p4106
(lp4107
(lp4108
I2
aI1
aI265
aasS'3KDB'
p4109
(lp4110
(lp4111
I6
aI1
aI462
aa(lp4112
I4
aI269
aI1174
aa(lp4113
I5
aI1016
aI1425
aasS'3KDC'
p4114
(lp4115
(lp4116
I6
aI1
aI462
aa(lp4117
I4
aI269
aI1174
aa(lp4118
I5
aI1016
aI1425
aasS'3KDD'
p4119
(lp4120
(lp4121
I6
aI1
aI462
aa(lp4122
I4
aI269
aI1174
aa(lp4123
I5
aI1016
aI1425
aasS'3OAP'
p4124
(lp4125
(lp4126
I2
aI17
aI462
aasS'1ZPA'
p4127
(lp4128
(lp4129
I6
aI1
aI462
aa(lp4130
I4
aI269
aI1174
aa(lp4131
I5
aI1033
aI1425
aasS'3LIT'
p4132
(lp4133
(lp4134
I9
aI1
aI116
aasS'1ZPK'
p4135
(lp4136
(lp4137
I6
aI1
aI462
aa(lp4138
I4
aI269
aI1174
aa(lp4139
I5
aI1016
aI1425
aasS'3WTQ'
p4140
(lp4141
(lp4142
I2
aI2
aI422
aasS'1NYX'
p4143
(lp4144
(lp4145
I2
aI96
aI505
aasS'4QL8'
p4146
(lp4147
(lp4148
I2
aI536
aI920
aasS'1HEF'
p4149
(lp4150
(lp4151
I6
aI1
aI462
aa(lp4152
I4
aI269
aI1174
aa(lp4153
I5
aI1033
aI1425
aasS'1HEG'
p4154
(lp4155
(lp4156
I6
aI1
aI462
aa(lp4157
I4
aI269
aI1174
aa(lp4158
I5
aI1033
aI1425
aasS'1SP5'
p4159
(lp4160
(lp4161
I6
aI1
aI462
aa(lp4162
I4
aI269
aI1174
aa(lp4163
I5
aI1016
aI1425
aasS'1ZBG'
p4164
(lp4165
(lp4166
I6
aI1
aI462
aa(lp4167
I4
aI269
aI1174
aa(lp4168
I5
aI1016
aI1425
aasS'3WT7'
p4169
(lp4170
(lp4171
I2
aI2
aI422
aasS'3WT5'
p4172
(lp4173
(lp4174
I2
aI2
aI422
aasS'4QLH'
p4175
(lp4176
(lp4177
I6
aI1
aI458
aa(lp4178
I4
aI269
aI1162
aa(lp4179
I5
aI1021
aI1413
aasS'1EBK'
p4180
(lp4181
(lp4182
I6
aI1
aI462
aa(lp4183
I4
aI269
aI1174
aa(lp4184
I5
aI1033
aI1425
aasS'4WPF'
p4185
(lp4186
(lp4187
I2
aI4
aI511
aasS'1EBW'
p4188
(lp4189
(lp4190
I6
aI1
aI462
aa(lp4191
I4
aI269
aI1174
aa(lp4192
I5
aI1033
aI1425
aasS'1ZP8'
p4193
(lp4194
(lp4195
I6
aI1
aI462
aa(lp4196
I4
aI269
aI1174
aa(lp4197
I5
aI1033
aI1425
aasS'1EBZ'
p4198
(lp4199
(lp4200
I6
aI1
aI462
aa(lp4201
I4
aI269
aI1174
aa(lp4202
I5
aI1033
aI1425
aasS'1FCX'
p4203
(lp4204
(lp4205
I2
aI13
aI427
aasS'1FCY'
p4206
(lp4207
(lp4208
I2
aI13
aI427
aasS'1FCZ'
p4209
(lp4210
(lp4211
I2
aI13
aI427
aasS'1HWR'
p4212
(lp4213
(lp4214
I6
aI1
aI458
aa(lp4215
I4
aI269
aI1162
aa(lp4216
I5
aI1021
aI1413
aasS'1SBG'
p4217
(lp4218
(lp4219
I6
aI1
aI462
aa(lp4220
I4
aI269
aI1174
aa(lp4221
I5
aI1033
aI1425
aasS'3DCT'
p4222
(lp4223
(lp4224
I7
aI1
aI1441
aasS'3I7E'
p4225
(lp4226
(lp4227
I6
aI1
aI460
aa(lp4228
I4
aI271
aI1140
aa(lp4229
I5
aI1006
aI1415
aasS'3V9V'
p4230
(lp4231
(lp4232
I14
aI24
aI216
aa(lp4233
I15
aI667
aI796
aa(lp4234
I16
aI255
aI467
aasS'3U7S'
p4235
(lp4236
(lp4237
I6
aI1
aI454
aa(lp4238
I4
aI269
aI856
aa(lp4239
I5
aI1004
aI1398
aasS'3P8X'
p4240
(lp4241
(lp4242
I2
aI2
aI427
aasS'2QE4'
p4243
(lp4244
(lp4245
I2
aI27
aI566
aasS'1DW6'
p4246
(lp4247
(lp4248
I6
aI1
aI462
aa(lp4249
I4
aI269
aI1174
aa(lp4250
I5
aI1033
aI1425
aasS'4IA7'
p4251
(lp4252
(lp4253
I2
aI2
aI453
aasS'1RV7'
p4254
(lp4255
(lp4256
I1
aI1
aI99
aasS'4IA3'
p4257
(lp4258
(lp4259
I2
aI2
aI453
aasS'4IA1'
p4260
(lp4261
(lp4262
I2
aI2
aI453
aasS'4RZE'
p4263
(lp4264
(lp4265
I2
aI178
aI598
aasS'4RZF'
p4266
(lp4267
(lp4268
I2
aI1
aI248
aasS'4RZG'
p4269
(lp4270
(lp4271
I2
aI178
aI598
aasS'3P89'
p4272
(lp4273
(lp4274
I7
aI1
aI1441
aasS'3P88'
p4275
(lp4276
(lp4277
I7
aI1
aI1441
aasS'1FQX'
p4278
(lp4279
(lp4280
I6
aI1
aI462
aa(lp4281
I4
aI269
aI1174
aa(lp4282
I5
aI1016
aI1425
aasS'4PRG'
p4283
(lp4284
(lp4285
I2
aI96
aI505
aasS'3S9S'
p4286
(lp4287
(lp4288
I2
aI96
aI505
aasS'1T3R'
p4289
(lp4290
(lp4291
I6
aI1
aI460
aa(lp4292
I4
aI271
aI1140
aa(lp4293
I5
aI1006
aI1415
aasS'3T03'
p4294
(lp4295
(lp4296
I2
aI96
aI505
aasS'2ZAS'
p4297
(lp4298
(lp4299
I2
aI57
aI458
aasS'2AWH'
p4300
(lp4301
(lp4302
I2
aI25
aI441
aasS'4EJD'
p4303
(lp4304
(lp4305
I6
aI1
aI465
aa(lp4306
I4
aI270
aI1163
aa(lp4307
I5
aI1022
aI1414
aasS'1RDT'
p4308
(lp4309
(lp4310
I2
aI96
aI505
aasS'4EJL'
p4311
(lp4312
(lp4313
I6
aI1
aI465
aa(lp4314
I4
aI270
aI1163
aa(lp4315
I5
aI1022
aI1414
aasS'4EJK'
p4316
(lp4317
(lp4318
I6
aI1
aI465
aa(lp4319
I4
aI270
aI1163
aa(lp4320
I5
aI1022
aI1414
aasS'1DAZ'
p4321
(lp4322
(lp4323
I6
aI1
aI462
aa(lp4324
I4
aI269
aI1174
aa(lp4325
I5
aI1016
aI1425
aasS'3LZV'
p4326
(lp4327
(lp4328
I6
aI1
aI460
aa(lp4329
I4
aI271
aI1140
aa(lp4330
I5
aI1006
aI1415
aasS'2GWX'
p4331
(lp4332
(lp4333
I2
aI25
aI441
aasS'1K2B'
p4334
(lp4335
(lp4336
I6
aI1
aI462
aa(lp4337
I4
aI269
aI1174
aa(lp4338
I5
aI1074
aI1425
aasS'1K2C'
p4339
(lp4340
(lp4341
I6
aI1
aI462
aa(lp4342
I4
aI269
aI1174
aa(lp4343
I5
aI1074
aI1425
aasS'2AA2'
p4344
(lp4345
(lp4346
I2
aI490
aI984
aasS'2AA5'
p4347
(lp4348
(lp4349
I2
aI490
aI984
aasS'3DT3'
p4350
(lp4351
(lp4352
I2
aI27
aI566
aasS'2AA7'
p4353
(lp4354
(lp4355
I2
aI490
aI984
aasS'3BXS'
p4356
(lp4357
(lp4358
I6
aI1
aI460
aa(lp4359
I4
aI271
aI1140
aa(lp4360
I5
aI1006
aI1415
aasS'3BXR'
p4361
(lp4362
(lp4363
I6
aI1
aI460
aa(lp4364
I4
aI271
aI1140
aa(lp4365
I5
aI1006
aI1415
aasS'2AAX'
p4366
(lp4367
(lp4368
I2
aI490
aI984
aasS'1M2Z'
p4369
(lp4370
(lp4371
I7
aI1
aI852
aa(lp4372
I8
aI1013
aI1463
aasS'4KB9'
p4373
(lp4374
(lp4375
I1
aI1
aI99
aasS'2QW4'
p4376
(lp4377
(lp4378
I2
aI178
aI598
aasS'4EJ8'
p4379
(lp4380
(lp4381
I6
aI1
aI465
aa(lp4382
I4
aI270
aI1163
aa(lp4383
I5
aI1022
aI1414
aasS'2F4B'
p4384
(lp4385
(lp4386
I2
aI96
aI505
aasS'4ZLS'
p4387
(lp4388
(lp4389
I6
aI1
aI462
aa(lp4390
I4
aI269
aI1174
aa(lp4391
I5
aI1033
aI1425
aasS'4M8E'
p4392
(lp4393
(lp4394
I2
aI17
aI462
aasS'2OVH'
p4395
(lp4396
(lp4397
I2
aI534
aI933
aasS'1XQ3'
p4398
(lp4399
(lp4400
I2
aI536
aI920
aasS'3SLZ'
p4401
(lp4402
(lp4403
I1
aI8
aI132
aasS'4F73'
p4404
(lp4405
(lp4406
I6
aI1
aI460
aa(lp4407
I4
aI271
aI1140
aa(lp4408
I5
aI1006
aI1415
aasS'4M8H'
p4409
(lp4410
(lp4411
I2
aI17
aI462
aasS'3E7C'
p4412
(lp4413
(lp4414
I7
aI1
aI852
aa(lp4415
I8
aI1013
aI1463
aasS'2Q3Y'
p4416
(lp4417
(lp4418
I2
aI19
aI257
aasS'2Z4B'
p4419
(lp4420
(lp4421
I2
aI17
aI529
aasS'3QRS'
p4422
(lp4423
(lp4424
I6
aI1
aI462
aa(lp4425
I4
aI269
aI1174
aa(lp4426
I5
aI1016
aI1425
aasS'2Z4O'
p4427
(lp4428
(lp4429
I6
aI1
aI462
aa(lp4430
I4
aI269
aI1174
aa(lp4431
I5
aI1016
aI1425
aasS'4M8Y'
p4432
(lp4433
(lp4434
I1
aI1
aI100
aasS'2Q3K'
p4435
(lp4436
(lp4437
I6
aI1
aI460
aa(lp4438
I4
aI271
aI1140
aa(lp4439
I5
aI1006
aI1415
aasS'2Z4J'
p4440
(lp4441
(lp4442
I2
aI536
aI920
aasS'2PIU'
p4443
(lp4444
(lp4445
I2
aI536
aI920
aasS'2PIT'
p4446
(lp4447
(lp4448
I2
aI536
aI920
aasS'2PIW'
p4449
(lp4450
(lp4451
I2
aI536
aI920
aasS'2PIV'
p4452
(lp4453
(lp4454
I2
aI536
aI920
aasS'2PIQ'
p4455
(lp4456
(lp4457
I2
aI536
aI920
aasS'2PIP'
p4458
(lp4459
(lp4460
I2
aI536
aI920
aasS'2PIR'
p4461
(lp4462
(lp4463
I2
aI536
aI920
aasS'1ZAF'
p4464
(lp4465
(lp4466
I7
aI1
aI1441
aasS'4Y29'
p4467
(lp4468
(lp4469
I2
aI96
aI505
aasS'2PIX'
p4470
(lp4471
(lp4472
I2
aI536
aI920
aasS'1XQC'
p4473
(lp4474
(lp4475
I2
aI27
aI566
aasS'2PIO'
p4476
(lp4477
(lp4478
I2
aI536
aI920
aasS'2PIN'
p4479
(lp4480
(lp4481
I2
aI69
aI461
aasS'3VJS'
p4482
(lp4483
(lp4484
I2
aI2
aI422
aasS'3VJT'
p4485
(lp4486
(lp4487
I2
aI2
aI422
aasS'3VJI'
p4488
(lp4489
(lp4490
I2
aI96
aI505
aasS'3VJH'
p4491
(lp4492
(lp4493
I2
aI96
aI505
aasS'4DQM'
p4494
(lp4495
(lp4496
I7
aI1
aI1441
aasS'4DQH'
p4497
(lp4498
(lp4499
I6
aI1
aI465
aa(lp4500
I4
aI270
aI1163
aa(lp4501
I5
aI1022
aI1414
aasS'4DQG'
p4502
(lp4503
(lp4504
I6
aI1
aI465
aa(lp4505
I4
aI270
aI1163
aa(lp4506
I5
aI1022
aI1414
aasS'4DQF'
p4507
(lp4508
(lp4509
I6
aI1
aI465
aa(lp4510
I4
aI270
aI1163
aa(lp4511
I5
aI1022
aI1414
aasS'4DQE'
p4512
(lp4513
(lp4514
I6
aI1
aI465
aa(lp4515
I4
aI270
aI1163
aa(lp4516
I5
aI1022
aI1414
aasS'4DQC'
p4517
(lp4518
(lp4519
I6
aI1
aI465
aa(lp4520
I4
aI270
aI1163
aa(lp4521
I5
aI1022
aI1414
aasS'4DQB'
p4522
(lp4523
(lp4524
I6
aI1
aI465
aa(lp4525
I4
aI270
aI1163
aa(lp4526
I5
aI1022
aI1414
aasS'4QGI'
p4527
(lp4528
(lp4529
I6
aI1
aI458
aa(lp4530
I4
aI269
aI1162
aa(lp4531
I5
aI1021
aI1413
aasS'3QRO'
p4532
(lp4533
(lp4534
I6
aI1
aI462
aa(lp4535
I4
aI269
aI1174
aa(lp4536
I5
aI1016
aI1425
aasS'3QRM'
p4537
(lp4538
(lp4539
I6
aI1
aI462
aa(lp4540
I4
aI269
aI1174
aa(lp4541
I5
aI1016
aI1425
aasS'4RUP'
p4542
(lp4543
(lp4544
I2
aI2
aI453
aasS'1FBY'
p4545
(lp4546
(lp4547
I2
aI17
aI462
aasS'3L1B'
p4548
(lp4549
(lp4550
I2
aI64
aI486
aasS'4RUJ'
p4551
(lp4552
(lp4553
I2
aI2
aI453
aasS'4N73'
p4554
(lp4555
(lp4556
I2
aI385
aI579
aa(lp4557
I2
aI44
aI268
aasS'3ET1'
p4558
(lp4559
(lp4560
I2
aI13
aI468
aasS'4RUO'
p4561
(lp4562
(lp4563
I2
aI2
aI453
aasS'3ET3'
p4564
(lp4565
(lp4566
I2
aI96
aI505
aasS'2FXD'
p4567
(lp4568
(lp4569
I1
aI1
aI99
aasS'2FXE'
p4570
(lp4571
(lp4572
I6
aI1
aI456
aa(lp4573
I4
aI269
aI1399
aa(lp4574
I5
aI1141
aI1414
aasS'4Q0A'
p4575
(lp4576
(lp4577
I2
aI2
aI453
aasS'1FB7'
p4578
(lp4579
(lp4580
I6
aI1
aI458
aa(lp4581
I4
aI269
aI1162
aa(lp4582
I5
aI1021
aI1413
aasS'2ZK4'
p4583
(lp4584
(lp4585
I2
aI96
aI505
aasS'3ADS'
p4586
(lp4587
(lp4588
I2
aI96
aI505
aasS'4QK4'
p4589
(lp4590
(lp4591
I14
aI24
aI216
aa(lp4592
I15
aI667
aI796
aa(lp4593
I16
aI255
aI467
aasS'1EC2'
p4594
(lp4595
(lp4596
I6
aI1
aI462
aa(lp4597
I4
aI269
aI1174
aa(lp4598
I5
aI1033
aI1425
aasS'1EC1'
p4599
(lp4600
(lp4601
I6
aI1
aI462
aa(lp4602
I4
aI269
aI1174
aa(lp4603
I5
aI1033
aI1425
aasS'3ADW'
p4604
(lp4605
(lp4606
I2
aI96
aI505
aasS'3ADX'
p4607
(lp4608
(lp4609
I2
aI96
aI505
aasS'3SZ1'
p4610
(lp4611
(lp4612
I2
aI96
aI505
aasS'4U8W'
p4613
(lp4614
(lp4615
I6
aI1
aI462
aa(lp4616
I4
aI269
aI1174
aa(lp4617
I5
aI1033
aI1425
aasS'2J4A'
p4618
(lp4619
(lp4620
I2
aI69
aI461
aasS'2AVV'
p4621
(lp4622
(lp4623
I6
aI1
aI462
aa(lp4624
I4
aI269
aI1174
aa(lp4625
I5
aI1074
aI1425
aasS'2AVQ'
p4626
(lp4627
(lp4628
I6
aI1
aI462
aa(lp4629
I4
aI269
aI1174
aa(lp4630
I5
aI1074
aI1425
aasS'2AVS'
p4631
(lp4632
(lp4633
I6
aI1
aI462
aa(lp4634
I4
aI269
aI1174
aa(lp4635
I5
aI1074
aI1425
aasS'2A3I'
p4636
(lp4637
(lp4638
I7
aI1
aI1441
aasS'2AVM'
p4639
(lp4640
(lp4641
I6
aI1
aI462
aa(lp4642
I4
aI269
aI1174
aa(lp4643
I5
aI1074
aI1425
aasS'2AVO'
p4644
(lp4645
(lp4646
I6
aI1
aI462
aa(lp4647
I4
aI269
aI1174
aa(lp4648
I5
aI1074
aI1425
aasS'3ET0'
p4649
(lp4650
(lp4651
I2
aI96
aI505
aasS'3R8D'
p4652
(lp4653
(lp4654
I2
aI18
aI433
aasS'3ET2'
p4655
(lp4656
(lp4657
I2
aI25
aI441
aasS'2B7F'
p4658
(lp4659
(lp4660
I4
aI218
aI1449
aa(lp4661
I5
aI1023
aI1461
aasS'3OXC'
p4662
(lp4663
(lp4664
I6
aI1
aI462
aa(lp4665
I4
aI269
aI1174
aa(lp4666
I5
aI1074
aI1425
aasS'1SQN'
p4667
(lp4668
(lp4669
I2
aI534
aI933
aasS'2QD6'
p4670
(lp4671
(lp4672
I6
aI1
aI462
aa(lp4673
I4
aI269
aI1174
aa(lp4674
I5
aI1016
aI1425
aasS'3HM1'
p4675
(lp4676
(lp4677
I7
aI1
aI852
aa(lp4678
I8
aI949
aI1464
aasS'1ZH7'
p4679
(lp4680
(lp4681
I2
aI29
aI260
aasS'2GIU'
p4682
(lp4683
(lp4684
I2
aI17
aI529
aasS'3LMP'
p4685
(lp4686
(lp4687
I2
aI96
aI505
aasS'1HVR'
p4688
(lp4689
(lp4690
I6
aI1
aI458
aa(lp4691
I4
aI269
aI1162
aa(lp4692
I5
aI1021
aI1413
aasS'3I8W'
p4693
(lp4694
(lp4695
I6
aI1
aI462
aa(lp4696
I4
aI269
aI1174
aa(lp4697
I5
aI1016
aI1425
aasS'1HVC'
p4698
(lp4699
(lp4700
I1
aI2
aI203
aasS'3K4V'
p4701
(lp4702
(lp4703
I6
aI1
aI462
aa(lp4704
I4
aI269
aI1174
aa(lp4705
I5
aI1033
aI1425
aasS'4JAZ'
p4706
(lp4707
(lp4708
I2
aI96
aI505
aasS'1HVI'
p4709
(lp4710
(lp4711
I6
aI1
aI462
aa(lp4712
I4
aI269
aI1174
aa(lp4713
I5
aI1033
aI1425
aasS'1HVH'
p4714
(lp4715
(lp4716
I6
aI1
aI458
aa(lp4717
I4
aI269
aI1162
aa(lp4718
I5
aI1021
aI1413
aasS'1HVK'
p4719
(lp4720
(lp4721
I6
aI1
aI462
aa(lp4722
I4
aI269
aI1174
aa(lp4723
I5
aI1033
aI1425
aasS'1HVJ'
p4724
(lp4725
(lp4726
I6
aI1
aI462
aa(lp4727
I4
aI269
aI1174
aa(lp4728
I5
aI1074
aI1425
aasS'1HVL'
p4729
(lp4730
(lp4731
I6
aI1
aI462
aa(lp4732
I4
aI269
aI1174
aa(lp4733
I5
aI1016
aI1425
aasS'2PNU'
p4734
(lp4735
(lp4736
I2
aI536
aI920
aasS'1XPC'
p4737
(lp4738
(lp4739
I2
aI27
aI566
aasS'3HC5'
p4740
(lp4741
(lp4742
I7
aI1
aI1441
aasS'3HC6'
p4743
(lp4744
(lp4745
I7
aI1
aI1441
aasS'1RK3'
p4746
(lp4747
(lp4748
I2
aI2
aI422
aasS'1PK5'
p4749
(lp4750
(lp4751
I2
aI53
aI560
aasS'1RKH'
p4752
(lp4753
(lp4754
I2
aI2
aI422
aasS'3NSP'
p4755
(lp4756
(lp4757
I2
aI17
aI462
aasS'3NSQ'
p4758
(lp4759
(lp4760
I2
aI17
aI462
aasS'1RKG'
p4761
(lp4762
(lp4763
I2
aI2
aI422
aasS'1XP6'
p4764
(lp4765
(lp4766
I2
aI27
aI566
aasS'1XP1'
p4767
(lp4768
(lp4769
I2
aI27
aI566
aasS'4ONI'
p4770
(lp4771
(lp4772
I2
aI19
aI257
aasS'1XP9'
p4773
(lp4774
(lp4775
I2
aI27
aI566
aasS'2IEN'
p4776
(lp4777
(lp4778
I6
aI1
aI462
aa(lp4779
I4
aI269
aI1174
aa(lp4780
I5
aI1016
aI1425
aasS'2IEO'
p4781
(lp4782
(lp4783
I6
aI1
aI462
aa(lp4784
I4
aI269
aI1174
aa(lp4785
I5
aI1033
aI1425
aasS'3QAA'
p4786
(lp4787
(lp4788
I6
aI1
aI462
aa(lp4789
I4
aI269
aI1174
aa(lp4790
I5
aI1033
aI1425
aasS'3E00'
p4791
(lp4792
(lp4793
I2
aI96
aI505
aasS'1XB7'
p4794
(lp4795
(lp4796
I14
aI24
aI216
aa(lp4797
I15
aI667
aI796
aa(lp4798
I16
aI255
aI467
aasS'3B1M'
p4799
(lp4800
(lp4801
I14
aI24
aI216
aa(lp4802
I15
aI667
aI796
aa(lp4803
I16
aI255
aI467
aasS'2FGU'
p4804
(lp4805
(lp4806
I6
aI1
aI460
aa(lp4807
I4
aI271
aI1140
aa(lp4808
I5
aI1006
aI1415
aasS'2FGV'
p4809
(lp4810
(lp4811
I6
aI1
aI460
aa(lp4812
I4
aI271
aI1140
aa(lp4813
I5
aI1006
aI1415
aasS'2P1U'
p4814
(lp4815
(lp4816
I2
aI17
aI462
aasS'1EC3'
p4817
(lp4818
(lp4819
I6
aI1
aI462
aa(lp4820
I4
aI269
aI1174
aa(lp4821
I5
aI1033
aI1425
aasS'3D24'
p4822
(lp4823
(lp4824
I14
aI24
aI216
aa(lp4825
I15
aI667
aI796
aa(lp4826
I16
aI255
aI467
aasS'3OQA'
p4827
(lp4828
(lp4829
I6
aI1
aI454
aa(lp4830
I4
aI269
aI856
aa(lp4831
I5
aI1004
aI1398
aasS'3ADU'
p4832
(lp4833
(lp4834
I2
aI96
aI505
aasS'4R6S'
p4835
(lp4836
(lp4837
I2
aI1
aI275
aasS'3ADV'
p4838
(lp4839
(lp4840
I2
aI96
aI505
aasS'3OQ7'
p4841
(lp4842
(lp4843
I6
aI1
aI454
aa(lp4844
I4
aI269
aI856
aa(lp4845
I5
aI1004
aI1398
aasS'1EC0'
p4846
(lp4847
(lp4848
I6
aI1
aI462
aa(lp4849
I4
aI269
aI1174
aa(lp4850
I5
aI1033
aI1425
aasS'3RUT'
p4851
(lp4852
(lp4853
I7
aI1
aI1441
aasS'3RUU'
p4854
(lp4855
(lp4856
I7
aI1
aI1441
aasS'1ERR'
p4857
(lp4858
(lp4859
I2
aI27
aI566
aasS'5AVI'
p4860
(lp4861
(lp4862
I7
aI1
aI1441
aasS'5AVL'
p4863
(lp4864
(lp4865
I7
aI1
aI1441
aasS'4HEG'
p4866
(lp4867
(lp4868
I6
aI1
aI462
aa(lp4869
I4
aI269
aI1174
aa(lp4870
I5
aI1016
aI1425
aasS'1X7R'
p4871
(lp4872
(lp4873
I2
aI27
aI566
aasS'1AID'
p4874
(lp4875
(lp4876
I6
aI1
aI460
aa(lp4877
I4
aI271
aI1140
aa(lp4878
I5
aI1006
aI1415
aasS'2O40'
p4879
(lp4880
(lp4881
I1
aI1
aI203
aasS'3PEQ'
p4882
(lp4883
(lp4884
I2
aI25
aI441
aasS'3KBA'
p4885
(lp4886
(lp4887
I2
aI534
aI933
aasS'3L03'
p4888
(lp4889
(lp4890
I7
aI1
aI852
aa(lp4891
I8
aI949
aI1464
aasS'3OGP'
p4892
(lp4893
(lp4894
I3
aI725
aI850
aa(lp4895
I4
aI1
aI737
aa(lp4896
I5
aI801
aI1111
aasS'4FHH'
p4897
(lp4898
(lp4899
I2
aI2
aI453
aasS'4FHI'
p4900
(lp4901
(lp4902
I2
aI2
aI453
aasS'4NPT'
p4903
(lp4904
(lp4905
I1
aI1
aI99
aasS'4NPU'
p4906
(lp4907
(lp4908
I1
aI1
aI99
aasS'4NB6'
p4909
(lp4910
(lp4911
I2
aI4
aI511
aasS'4JGV'
p4912
(lp4913
(lp4914
I2
aI178
aI598
aasS'4CPS'
p4915
(lp4916
(lp4917
I6
aI1
aI462
aa(lp4918
I4
aI269
aI1174
aa(lp4919
I5
aI1033
aI1425
aasS'4CPR'
p4920
(lp4921
(lp4922
I6
aI1
aI462
aa(lp4923
I4
aI269
aI1174
aa(lp4924
I5
aI1033
aI1425
aasS'4CPQ'
p4925
(lp4926
(lp4927
I6
aI1
aI462
aa(lp4928
I4
aI269
aI1174
aa(lp4929
I5
aI1033
aI1425
aasS'4CPW'
p4930
(lp4931
(lp4932
I6
aI1
aI462
aa(lp4933
I4
aI269
aI1174
aa(lp4934
I5
aI1033
aI1425
aasS'4QJ6'
p4935
(lp4936
(lp4937
I6
aI1
aI460
aa(lp4938
I4
aI271
aI1140
aa(lp4939
I5
aI1006
aI1415
aasS'4CPU'
p4940
(lp4941
(lp4942
I6
aI1
aI462
aa(lp4943
I4
aI269
aI1174
aa(lp4944
I5
aI1033
aI1425
aasS'4CPT'
p4945
(lp4946
(lp4947
I6
aI1
aI462
aa(lp4948
I4
aI269
aI1174
aa(lp4949
I5
aI1033
aI1425
aasS'4QJ9'
p4950
(lp4951
(lp4952
I6
aI1
aI460
aa(lp4953
I4
aI271
aI1140
aa(lp4954
I5
aI1006
aI1415
aasS'4CPX'
p4955
(lp4956
(lp4957
I6
aI1
aI462
aa(lp4958
I4
aI269
aI1174
aa(lp4959
I5
aI1033
aI1425
aasS'1TFC'
p4960
(lp4961
(lp4962
I7
aI1
aI1441
aasS'4QJA'
p4963
(lp4964
(lp4965
I6
aI1
aI460
aa(lp4966
I4
aI271
aI1140
aa(lp4967
I5
aI1006
aI1415
aasS'2PRG'
p4968
(lp4969
(lp4970
I2
aI96
aI505
aasS'2I0G'
p4971
(lp4972
(lp4973
I2
aI17
aI529
aasS'1SR7'
p4974
(lp4975
(lp4976
I2
aI534
aI933
aasS'2I0D'
p4977
(lp4978
(lp4979
I1
aI1
aI99
aasS'2I0J'
p4980
(lp4981
(lp4982
I2
aI27
aI566
aasS'4QJR'
p4983
(lp4984
(lp4985
I14
aI24
aI216
aa(lp4986
I15
aI667
aI796
aa(lp4987
I16
aI255
aI467
aasS'1GWQ'
p4988
(lp4989
(lp4990
I7
aI1
aI852
aa(lp4991
I8
aI1013
aI1463
aasS'1GWR'
p4992
(lp4993
(lp4994
I7
aI1
aI852
aa(lp4995
I8
aI1013
aI1463
aasS'1GWX'
p4996
(lp4997
(lp4998
I2
aI25
aI441
aasS'3L0J'
p4999
(lp5000
(lp5001
I2
aI4
aI511
aasS'3L0L'
p5002
(lp5003
(lp5004
I2
aI4
aI511
aasS'1A8G'
p5005
(lp5006
(lp5007
I6
aI1
aI462
aa(lp5008
I4
aI284
aI1174
aa(lp5009
I5
aI1033
aI1425
aasS'2O4S'
p5010
(lp5011
(lp5012
I6
aI1
aI462
aa(lp5013
I4
aI269
aI1174
aa(lp5014
I5
aI1016
aI1425
aasS'2O4R'
p5015
(lp5016
(lp5017
I2
aI2
aI422
aasS'3L0E'
p5018
(lp5019
(lp5020
I2
aI1
aI460
aasS'4Z4X'
p5021
(lp5022
(lp5023
I1
aI1
aI99
aasS'2O4K'
p5024
(lp5025
(lp5026
I6
aI1
aI462
aa(lp5027
I4
aI269
aI1174
aa(lp5028
I5
aI1016
aI1425
aasS'2O4J'
p5029
(lp5030
(lp5031
I2
aI2
aI422
aasS'2O4L'
p5032
(lp5033
(lp5034
I6
aI1
aI462
aa(lp5035
I4
aI269
aI1174
aa(lp5036
I5
aI1016
aI1425
aasS'2O4N'
p5037
(lp5038
(lp5039
I6
aI1
aI462
aa(lp5040
I4
aI269
aI1174
aa(lp5041
I5
aI1016
aI1425
aasS'3BHE'
p5042
(lp5043
(lp5044
I6
aI1
aI462
aa(lp5045
I4
aI269
aI1174
aa(lp5046
I5
aI1016
aI1425
aasS'1NUO'
p5047
(lp5048
(lp5049
I2
aI69
aI461
aasS'1Z95'
p5050
(lp5051
(lp5052
I2
aI536
aI920
aasS'1SDT'
p5053
(lp5054
(lp5055
I6
aI1
aI462
aa(lp5056
I4
aI269
aI1174
aa(lp5057
I5
aI1016
aI1425
aasS'1SDU'
p5058
(lp5059
(lp5060
I6
aI1
aI462
aa(lp5061
I4
aI269
aI1174
aa(lp5062
I5
aI1016
aI1425
aasS'1SDV'
p5063
(lp5064
(lp5065
I6
aI1
aI462
aa(lp5066
I4
aI269
aI1174
aa(lp5067
I5
aI1016
aI1425
aasS'2QGW'
p5068
(lp5069
(lp5070
I7
aI1
aI852
aa(lp5071
I8
aI1013
aI1461
aasS'2QGT'
p5072
(lp5073
(lp5074
I7
aI1
aI852
aa(lp5075
I8
aI1013
aI1461
aasS'3HLV'
p5076
(lp5077
(lp5078
I7
aI1
aI852
aa(lp5079
I8
aI949
aI1464
aasS'1HG4'
p5080
(lp5081
(lp5082
I2
aI13
aI501
aasS'3HLO'
p5083
(lp5084
(lp5085
I6
aI1
aI460
aa(lp5086
I4
aI271
aI1140
aa(lp5087
I5
aI1006
aI1415
aasS'1T7T'
p5088
(lp5089
(lp5090
I2
aI456
aI911
aasS'1C6Z'
p5091
(lp5092
(lp5093
I1
aI1
aI99
aasS'1C6X'
p5094
(lp5095
(lp5096
I1
aI1
aI99
aasS'1C6Y'
p5097
(lp5098
(lp5099
I1
aI1
aI99
aasS'2ZBS'
p5100
(lp5101
(lp5102
I2
aI57
aI458
aasS'3KPZ'
p5103
(lp5104
(lp5105
I2
aI2
aI427
aasS'2AQU'
p5106
(lp5107
(lp5108
I6
aI1
aI462
aa(lp5109
I4
aI269
aI1174
aa(lp5110
I5
aI1033
aI1425
aasS'2XKW'
p5111
(lp5112
(lp5113
I2
aI96
aI505
aasS'3GBK'
p5114
(lp5115
(lp5116
I2
aI96
aI505
aasS'4F9M'
p5117
(lp5118
(lp5119
I2
aI96
aI505
aasS'3Q95'
p5120
(lp5121
(lp5122
I7
aI1
aI852
aa(lp5123
I8
aI1013
aI1463
aasS'1RJK'
p5124
(lp5125
(lp5126
I2
aI2
aI422
aasS'1XOW'
p5127
(lp5128
(lp5129
I2
aI536
aI920
aasS'3HBO'
p5130
(lp5131
(lp5132
I6
aI1
aI460
aa(lp5133
I4
aI271
aI1140
aa(lp5134
I5
aI1006
aI1415
aasS'1K4W'
p5135
(lp5136
(lp5137
I7
aI1
aI1441
aasS'2QI7'
p5138
(lp5139
(lp5140
I6
aI1
aI460
aa(lp5141
I4
aI271
aI1140
aa(lp5142
I5
aI1006
aI1415
aasS'3DR1'
p5143
(lp5144
(lp5145
I2
aI2
aI453
aasS'1BSX'
p5146
(lp5147
(lp5148
I2
aI69
aI461
aasS'4OAR'
p5149
(lp5150
(lp5151
I2
aI534
aI933
aasS'2UY0'
p5152
(lp5153
(lp5154
I6
aI1
aI462
aa(lp5155
I4
aI269
aI1174
aa(lp5156
I5
aI1033
aI1425
aasS'2ACL'
p5157
(lp5158
(lp5159
I2
aI17
aI462
aasS'3R0W'
p5160
(lp5161
(lp5162
I1
aI1
aI99
aasS'1YA3'
p5163
(lp5164
(lp5165
I2
aI490
aI984
aasS'3R0Y'
p5166
(lp5167
(lp5168
I1
aI1
aI99
aasS'3NR6'
p5169
(lp5170
(lp5171
I4
aI355
aI1245
aa(lp5172
I5
aI1165
aI1616
aasS'3LZS'
p5173
(lp5174
(lp5175
I4
aI114
aI849
aa(lp5176
I5
aI1014
aI1391
aasS'4G1Y'
p5177
(lp5178
(lp5179
I2
aI2
aI453
aasS'4G1Z'
p5180
(lp5181
(lp5182
I2
aI2
aI453
aasS'3A78'
p5183
(lp5184
(lp5185
I2
aI2
aI427
aasS'2WKZ'
p5186
(lp5187
(lp5188
I6
aI1
aI465
aa(lp5189
I4
aI270
aI1163
aa(lp5190
I5
aI1022
aI1414
aasS'2WHH'
p5191
(lp5192
(lp5193
I6
aI1
aI458
aa(lp5194
I4
aI269
aI1162
aa(lp5195
I5
aI1021
aI1413
aasS'1UOM'
p5196
(lp5197
(lp5198
I2
aI27
aI566
aasS'2YHD'
p5199
(lp5200
(lp5201
I2
aI536
aI920
aasS'5AAU'
p5202
(lp5203
(lp5204
I2
aI27
aI566
aasS'5AAV'
p5205
(lp5206
(lp5207
I2
aI27
aI566
aasS'3NLS'
p5208
(lp5209
(lp5210
I6
aI1
aI462
aa(lp5211
I4
aI269
aI1174
aa(lp5212
I5
aI1016
aI1425
aasS'2POB'
p5213
(lp5214
(lp5215
I2
aI96
aI505
aasS'2POG'
p5216
(lp5217
(lp5218
I2
aI27
aI566
aasS'2R40'
p5219
(lp5220
(lp5221
I2
aI93
aI567
aasS'2R43'
p5222
(lp5223
(lp5224
I6
aI1
aI462
aa(lp5225
I4
aI269
aI1174
aa(lp5226
I5
aI1016
aI1425
aasS'1YOW'
p5227
(lp5228
(lp5229
I2
aI1
aI461
aasS'4MC6'
p5230
(lp5231
(lp5232
I6
aI1
aI458
aa(lp5233
I4
aI269
aI1162
aa(lp5234
I5
aI1021
aI1413
aasS'4MC1'
p5235
(lp5236
(lp5237
I6
aI1
aI458
aa(lp5238
I4
aI269
aI1162
aa(lp5239
I5
aI1021
aI1413
aasS'4MC2'
p5240
(lp5241
(lp5242
I6
aI1
aI458
aa(lp5243
I4
aI269
aI1162
aa(lp5244
I5
aI1021
aI1413
aasS'3TL9'
p5245
(lp5246
(lp5247
I6
aI1
aI462
aa(lp5248
I4
aI269
aI1174
aa(lp5249
I5
aI1033
aI1425
aasS'4MC9'
p5250
(lp5251
(lp5252
I6
aI1
aI458
aa(lp5253
I4
aI269
aI1162
aa(lp5254
I5
aI1021
aI1413
aasS'3TH9'
p5255
(lp5256
(lp5257
I6
aI1
aI458
aa(lp5258
I4
aI269
aI1162
aa(lp5259
I5
aI1021
aI1413
aasS'1YOK'
p5260
(lp5261
(lp5262
I7
aI1
aI852
aa(lp5263
I8
aI1013
aI1463
aasS'1NHZ'
p5264
(lp5265
(lp5266
I2
aI289
aI777
aasS'1G5Y'
p5267
(lp5268
(lp5269
I2
aI17
aI462
aasS'1ZGY'
p5270
(lp5271
(lp5272
I2
aI96
aI505
aasS'2PSV'
p5273
(lp5274
(lp5275
I1
aI1
aI99
aasS'2PSU'
p5276
(lp5277
(lp5278
I1
aI1
aI99
aasS'5A86'
p5279
(lp5280
(lp5281
I7
aI1
aI1441
aasS'2RKG'
p5282
(lp5283
(lp5284
I1
aI1
aI100
aasS'2RKF'
p5285
(lp5286
(lp5287
I1
aI1
aI99
aasS'1A9M'
p5288
(lp5289
(lp5290
I6
aI1
aI462
aa(lp5291
I4
aI269
aI1174
aa(lp5292
I5
aI1033
aI1425
aasS'4L98'
p5293
(lp5294
(lp5295
I2
aI96
aI505
aasS'4L96'
p5296
(lp5297
(lp5298
I2
aI96
aI505
aasS'2VSR'
p5299
(lp5300
(lp5301
I2
aI96
aI505
aasS'4Z50'
p5302
(lp5303
(lp5304
I1
aI1
aI99
aasS'2NPH'
p5305
(lp5306
(lp5307
I6
aI1
aI458
aa(lp5308
I4
aI269
aI1162
aa(lp5309
I5
aI1021
aI1413
aasS'4N5G'
p5310
(lp5311
(lp5312
I2
aI17
aI462
aasS'3QBF'
p5313
(lp5314
(lp5315
I6
aI1
aI462
aa(lp5316
I4
aI269
aI1174
aa(lp5317
I5
aI1016
aI1425
aasS'2NPA'
p5318
(lp5319
(lp5320
I2
aI13
aI468
aasS'3QT0'
p5321
(lp5322
(lp5323
I2
aI96
aI505
aasS'3A9E'
p5324
(lp5325
(lp5326
I2
aI8
aI467
aasS'2BPV'
p5327
(lp5328
(lp5329
I6
aI1
aI462
aa(lp5330
I4
aI269
aI1174
aa(lp5331
I5
aI1074
aI1425
aasS'2BPW'
p5332
(lp5333
(lp5334
I6
aI1
aI462
aa(lp5335
I4
aI269
aI1174
aa(lp5336
I5
aI1074
aI1425
aasS'2BPX'
p5337
(lp5338
(lp5339
I6
aI1
aI462
aa(lp5340
I4
aI269
aI1174
aa(lp5341
I5
aI1074
aI1425
aasS'2BPY'
p5342
(lp5343
(lp5344
I6
aI1
aI462
aa(lp5345
I4
aI269
aI1174
aa(lp5346
I5
aI1074
aI1425
aasS'2BPZ'
p5347
(lp5348
(lp5349
I6
aI1
aI462
aa(lp5350
I4
aI269
aI1174
aa(lp5351
I5
aI1074
aI1425
aasS'1A94'
p5352
(lp5353
(lp5354
I6
aI1
aI462
aa(lp5355
I4
aI269
aI1174
aa(lp5356
I5
aI1016
aI1425
aasS'1NH0'
p5357
(lp5358
(lp5359
I6
aI1
aI462
aa(lp5360
I4
aI269
aI1174
aa(lp5361
I5
aI1016
aI1425
aasS'1G50'
p5362
(lp5363
(lp5364
I2
aI27
aI566
aasS'3B0W'
p5365
(lp5366
(lp5367
I2
aI4
aI511
aasS'3B0T'
p5368
(lp5369
(lp5370
I2
aI2
aI427
aasS'3B0R'
p5371
(lp5372
(lp5373
I2
aI96
aI505
aasS'3B0Q'
p5374
(lp5375
(lp5376
I2
aI96
aI505
aasS'3AFR'
p5377
(lp5378
(lp5379
I2
aI2
aI422
aasS'3OKH'
p5380
(lp5381
(lp5382
I7
aI1
aI1441
aasS'4B7W'
p5383
(lp5384
(lp5385
I2
aI5
aI456
aasS'1LV2'
p5386
(lp5387
(lp5388
I2
aI1
aI397
aasS'2O9I'
p5389
(lp5390
(lp5391
I7
aI1
aI1433
aasS'3V9Y'
p5392
(lp5393
(lp5394
I2
aI96
aI505
aasS'3FSM'
p5395
(lp5396
(lp5397
I6
aI1
aI460
aa(lp5398
I4
aI271
aI1140
aa(lp5399
I5
aI1006
aI1415
aasS'1Q9P'
p5400
(lp5401
(lp5402
I6
aI1
aI462
aa(lp5403
I4
aI269
aI1174
aa(lp5404
I5
aI1074
aI1425
aasS'3DCR'
p5405
(lp5406
(lp5407
I1
aI1
aI99
aasS'3V9T'
p5408
(lp5409
(lp5410
I14
aI24
aI216
aa(lp5411
I15
aI667
aI796
aa(lp5412
I16
aI255
aI467
aasS'3DCU'
p5413
(lp5414
(lp5415
I7
aI1
aI1441
aasS'1Z8C'
p5416
(lp5417
(lp5418
I6
aI1
aI462
aa(lp5419
I4
aI269
aI1174
aa(lp5420
I5
aI1016
aI1425
aasS'2XHS'
p5421
(lp5422
(lp5423
I2
aI418
aI671
aa(lp5424
I2
aI780
aI1025
aasS'3DCK'
p5425
(lp5426
(lp5427
I1
aI1
aI99
aasS'1W5Y'
p5428
(lp5429
(lp5430
I6
aI1
aI462
aa(lp5431
I4
aI269
aI1174
aa(lp5432
I5
aI1033
aI1425
aasS'1W5X'
p5433
(lp5434
(lp5435
I6
aI1
aI462
aa(lp5436
I4
aI269
aI1174
aa(lp5437
I5
aI1033
aI1425
aasS'1W5W'
p5438
(lp5439
(lp5440
I6
aI1
aI462
aa(lp5441
I4
aI269
aI1174
aa(lp5442
I5
aI1033
aI1425
aasS'1W5V'
p5443
(lp5444
(lp5445
I6
aI1
aI462
aa(lp5446
I4
aI269
aI1174
aa(lp5447
I5
aI1033
aI1425
aasS'2ZLA'
p5448
(lp5449
(lp5450
I2
aI2
aI422
aasS'2ZLC'
p5451
(lp5452
(lp5453
I2
aI2
aI422
aasS'3PJ6'
p5454
(lp5455
(lp5456
I6
aI1
aI454
aa(lp5457
I4
aI269
aI856
aa(lp5458
I5
aI1004
aI1398
aasS'2ZL9'
p5459
(lp5460
(lp5461
I2
aI2
aI422
aasS'4FIV'
p5462
(lp5463
(lp5464
I1
aI1
aI113
aasS'1LBD'
p5465
(lp5466
(lp5467
I2
aI13
aI282
aasS'3S45'
p5468
(lp5469
(lp5470
I1
aI1
aI99
aasS'4F76'
p5471
(lp5472
(lp5473
I6
aI1
aI460
aa(lp5474
I4
aI271
aI1140
aa(lp5475
I5
aI1006
aI1415
aasS'4F75'
p5476
(lp5477
(lp5478
I6
aI1
aI460
aa(lp5479
I4
aI271
aI1140
aa(lp5480
I5
aI1006
aI1415
aasS'4F74'
p5481
(lp5482
(lp5483
I6
aI1
aI460
aa(lp5484
I4
aI271
aI1140
aa(lp5485
I5
aI1006
aI1415
aasS'3FAL'
p5486
(lp5487
(lp5488
I2
aI17
aI462
aasS'2OVM'
p5489
(lp5490
(lp5491
I2
aI534
aI933
aasS'3FS1'
p5492
(lp5493
(lp5494
I2
aI5
aI456
aasS'1Y9R'
p5495
(lp5496
(lp5497
I2
aI490
aI984
aasS'4CSJ'
p5498
(lp5499
(lp5500
I7
aI1
aI852
aa(lp5501
I8
aI1013
aI1463
aasS'1QKN'
p5502
(lp5503
(lp5504
I2
aI17
aI518
aasS'1QKM'
p5505
(lp5506
(lp5507
I2
aI17
aI529
aasS'4NQA'
p5508
(lp5509
(lp5510
I2
aI17
aI462
aasS'1QKU'
p5511
(lp5512
(lp5513
I2
aI27
aI566
aasS'1QKT'
p5514
(lp5515
(lp5516
I2
aI27
aI566
aasS'1L2I'
p5517
(lp5518
(lp5519
I7
aI1
aI852
aa(lp5520
I8
aI1013
aI1461
aasS'1OHR'
p5521
(lp5522
(lp5523
I1
aI1
aI99
aasS'1L2J'
p5524
(lp5525
(lp5526
I2
aI17
aI529
aasS'4POH'
p5527
(lp5528
(lp5529
I2
aI17
aI462
aasS'4POJ'
p5530
(lp5531
(lp5532
I2
aI17
aI462
aasS'2ABI'
p5533
(lp5534
(lp5535
I2
aI490
aI984
aasS'4J5J'
p5536
(lp5537
(lp5538
I6
aI1
aI462
aa(lp5539
I4
aI269
aI1174
aa(lp5540
I5
aI1016
aI1425
aasS'4J5W'
p5541
(lp5542
(lp5543
I2
aI17
aI462
aasS'4J5X'
p5544
(lp5545
(lp5546
I2
aI17
aI462
aasS'3K22'
p5547
(lp5548
(lp5549
I7
aI1
aI852
aa(lp5550
I8
aI1013
aI1463
aasS'3K23'
p5551
(lp5552
(lp5553
I7
aI1
aI852
aa(lp5554
I8
aI1013
aI1463
aasS'6FIV'
p5555
(lp5556
(lp5557
I1
aI1
aI113
aasS'1TSU'
p5558
(lp5559
(lp5560
I6
aI1
aI460
aa(lp5561
I4
aI271
aI1140
aa(lp5562
I5
aI1006
aI1415
aasS'1TSQ'
p5563
(lp5564
(lp5565
I6
aI1
aI460
aa(lp5566
I4
aI271
aI1140
aa(lp5567
I5
aI1006
aI1415
aasS'1HXW'
p5568
(lp5569
(lp5570
I6
aI1
aI465
aa(lp5571
I4
aI270
aI1163
aa(lp5572
I5
aI1022
aI1414
aasS'4J55'
p5573
(lp5574
(lp5575
I6
aI1
aI462
aa(lp5576
I4
aI269
aI1174
aa(lp5577
I5
aI1016
aI1425
aasS'4J54'
p5578
(lp5579
(lp5580
I6
aI1
aI462
aa(lp5581
I4
aI269
aI1174
aa(lp5582
I5
aI1016
aI1425
aasS'2QD8'
p5583
(lp5584
(lp5585
I6
aI1
aI462
aa(lp5586
I4
aI269
aI1174
aa(lp5587
I5
aI1016
aI1425
aasS'1HXB'
p5588
(lp5589
(lp5590
I6
aI1
aI458
aa(lp5591
I4
aI269
aI1162
aa(lp5592
I5
aI1021
aI1413
aasS'4EYR'
p5593
(lp5594
(lp5595
I1
aI1
aI99
aasS'2AB2'
p5596
(lp5597
(lp5598
I2
aI490
aI984
aasS'3OUA'
p5599
(lp5600
(lp5601
I6
aI1
aI454
aa(lp5602
I4
aI269
aI856
aa(lp5603
I5
aI1004
aI1398
aasS'3TY0'
p5604
(lp5605
(lp5606
I2
aI96
aI505
aasS'3NOA'
p5607
(lp5608
(lp5609
I2
aI96
aI505
aasS'1DB1'
p5610
(lp5611
(lp5612
I2
aI2
aI427
aasS'2B50'
p5613
(lp5614
(lp5615
I2
aI25
aI441
aasS'1M13'
p5616
(lp5617
(lp5618
I2
aI18
aI433
aasS'3EKY'
p5619
(lp5620
(lp5621
I6
aI1
aI460
aa(lp5622
I4
aI271
aI1140
aa(lp5623
I5
aI1006
aI1415
aasS'3EKX'
p5624
(lp5625
(lp5626
I6
aI1
aI460
aa(lp5627
I4
aI271
aI1140
aa(lp5628
I5
aI1006
aI1415
aasS'1MRX'
p5629
(lp5630
(lp5631
I6
aI1
aI462
aa(lp5632
I4
aI269
aI1174
aa(lp5633
I5
aI1016
aI1425
aasS'3HAW'
p5634
(lp5635
(lp5636
I6
aI1
aI460
aa(lp5637
I4
aI271
aI1140
aa(lp5638
I5
aI1006
aI1415
aasS'3HAU'
p5639
(lp5640
(lp5641
I6
aI1
aI460
aa(lp5642
I4
aI271
aI1140
aa(lp5643
I5
aI1006
aI1415
aasS'3EKQ'
p5644
(lp5645
(lp5646
I6
aI1
aI460
aa(lp5647
I4
aI271
aI1140
aa(lp5648
I5
aI1006
aI1415
aasS'3EKP'
p5649
(lp5650
(lp5651
I6
aI1
aI460
aa(lp5652
I4
aI271
aI1140
aa(lp5653
I5
aI1006
aI1415
aasS'1MRW'
p5654
(lp5655
(lp5656
I6
aI1
aI462
aa(lp5657
I4
aI269
aI1174
aa(lp5658
I5
aI1016
aI1425
aasS'3EKT'
p5659
(lp5660
(lp5661
I6
aI1
aI460
aa(lp5662
I4
aI271
aI1140
aa(lp5663
I5
aI1006
aI1415
aasS'3EKW'
p5664
(lp5665
(lp5666
I6
aI1
aI460
aa(lp5667
I4
aI271
aI1140
aa(lp5668
I5
aI1006
aI1415
aasS'3EKV'
p5669
(lp5670
(lp5671
I6
aI1
aI460
aa(lp5672
I4
aI271
aI1140
aa(lp5673
I5
aI1006
aI1415
aasS'3EL4'
p5674
(lp5675
(lp5676
I6
aI1
aI460
aa(lp5677
I4
aI271
aI1140
aa(lp5678
I5
aI1006
aI1415
aasS'2QPY'
p5679
(lp5680
(lp5681
I7
aI1
aI852
aa(lp5682
I8
aI1013
aI1461
aasS'3EL5'
p5683
(lp5684
(lp5685
I6
aI1
aI460
aa(lp5686
I4
aI271
aI1140
aa(lp5687
I5
aI1006
aI1415
aasS'2UXZ'
p5688
(lp5689
(lp5690
I6
aI1
aI462
aa(lp5691
I4
aI269
aI1174
aa(lp5692
I5
aI1033
aI1425
aasS'3EL1'
p5693
(lp5694
(lp5695
I6
aI1
aI460
aa(lp5696
I4
aI271
aI1140
aa(lp5697
I5
aI1006
aI1415
aasS'1IZH'
p5698
(lp5699
(lp5700
I1
aI1
aI99
aasS'1IZI'
p5701
(lp5702
(lp5703
I6
aI1
aI462
aa(lp5704
I4
aI269
aI1174
aa(lp5705
I5
aI1016
aI1425
aas.